
Self_balancing_robot.elf:     file format elf32-littlearm

Sections:
Idx Name          Size      VMA       LMA       File off  Algn
  0 .isr_vector   0000010c  08000000  08000000  00010000  2**0
                  CONTENTS, ALLOC, LOAD, READONLY, DATA
  1 .text         0000973c  08000110  08000110  00010110  2**3
                  CONTENTS, ALLOC, LOAD, READONLY, CODE
  2 .rodata       000003b0  08009850  08009850  00019850  2**3
                  CONTENTS, ALLOC, LOAD, READONLY, DATA
  3 .ARM.extab    00000000  08009c00  08009c00  00020118  2**0
                  CONTENTS
  4 .ARM          00000000  08009c00  08009c00  00020118  2**0
                  CONTENTS
  5 .preinit_array 00000000  08009c00  08009c00  00020118  2**0
                  CONTENTS, ALLOC, LOAD, DATA
  6 .init_array   00000004  08009c00  08009c00  00019c00  2**2
                  CONTENTS, ALLOC, LOAD, DATA
  7 .fini_array   00000004  08009c04  08009c04  00019c04  2**2
                  CONTENTS, ALLOC, LOAD, DATA
  8 .data         00000118  20000000  08009c08  00020000  2**3
                  CONTENTS, ALLOC, LOAD, DATA
  9 .bss          00000618  20000118  08009d20  00020118  2**3
                  ALLOC
 10 ._user_heap_stack 00000600  20000730  08009d20  00020730  2**0
                  ALLOC
 11 .ARM.attributes 00000029  00000000  00000000  00020118  2**0
                  CONTENTS, READONLY
 12 .comment      00000043  00000000  00000000  00020141  2**0
                  CONTENTS, READONLY
 13 .debug_info   00013717  00000000  00000000  00020184  2**0
                  CONTENTS, READONLY, DEBUGGING, OCTETS
 14 .debug_abbrev 000029ce  00000000  00000000  0003389b  2**0
                  CONTENTS, READONLY, DEBUGGING, OCTETS
 15 .debug_aranges 00001388  00000000  00000000  00036270  2**3
                  CONTENTS, READONLY, DEBUGGING, OCTETS
 16 .debug_rnglists 00000f69  00000000  00000000  000375f8  2**0
                  CONTENTS, READONLY, DEBUGGING, OCTETS
 17 .debug_macro  00019533  00000000  00000000  00038561  2**0
                  CONTENTS, READONLY, DEBUGGING, OCTETS
 18 .debug_line   000165e6  00000000  00000000  00051a94  2**0
                  CONTENTS, READONLY, DEBUGGING, OCTETS
 19 .debug_str    0008f510  00000000  00000000  0006807a  2**0
                  CONTENTS, READONLY, DEBUGGING, OCTETS
 20 .debug_frame  00005d8c  00000000  00000000  000f758c  2**2
                  CONTENTS, READONLY, DEBUGGING, OCTETS
 21 .debug_line_str 0000009b  00000000  00000000  000fd318  2**0
                  CONTENTS, READONLY, DEBUGGING, OCTETS

Disassembly of section .text:

08000110 <__do_global_dtors_aux>:
 8000110:	b510      	push	{r4, lr}
 8000112:	4c05      	ldr	r4, [pc, #20]	; (8000128 <__do_global_dtors_aux+0x18>)
 8000114:	7823      	ldrb	r3, [r4, #0]
 8000116:	b933      	cbnz	r3, 8000126 <__do_global_dtors_aux+0x16>
 8000118:	4b04      	ldr	r3, [pc, #16]	; (800012c <__do_global_dtors_aux+0x1c>)
 800011a:	b113      	cbz	r3, 8000122 <__do_global_dtors_aux+0x12>
 800011c:	4804      	ldr	r0, [pc, #16]	; (8000130 <__do_global_dtors_aux+0x20>)
 800011e:	f3af 8000 	nop.w
 8000122:	2301      	movs	r3, #1
 8000124:	7023      	strb	r3, [r4, #0]
 8000126:	bd10      	pop	{r4, pc}
 8000128:	20000118 	.word	0x20000118
 800012c:	00000000 	.word	0x00000000
 8000130:	08009834 	.word	0x08009834

08000134 <frame_dummy>:
 8000134:	b508      	push	{r3, lr}
 8000136:	4b03      	ldr	r3, [pc, #12]	; (8000144 <frame_dummy+0x10>)
 8000138:	b11b      	cbz	r3, 8000142 <frame_dummy+0xe>
 800013a:	4903      	ldr	r1, [pc, #12]	; (8000148 <frame_dummy+0x14>)
 800013c:	4803      	ldr	r0, [pc, #12]	; (800014c <frame_dummy+0x18>)
 800013e:	f3af 8000 	nop.w
 8000142:	bd08      	pop	{r3, pc}
 8000144:	00000000 	.word	0x00000000
 8000148:	2000011c 	.word	0x2000011c
 800014c:	08009834 	.word	0x08009834

08000150 <strlen>:
 8000150:	4603      	mov	r3, r0
 8000152:	f813 2b01 	ldrb.w	r2, [r3], #1
 8000156:	2a00      	cmp	r2, #0
 8000158:	d1fb      	bne.n	8000152 <strlen+0x2>
 800015a:	1a18      	subs	r0, r3, r0
 800015c:	3801      	subs	r0, #1
 800015e:	4770      	bx	lr

08000160 <__aeabi_drsub>:
 8000160:	f081 4100 	eor.w	r1, r1, #2147483648	; 0x80000000
 8000164:	e002      	b.n	800016c <__adddf3>
 8000166:	bf00      	nop

08000168 <__aeabi_dsub>:
 8000168:	f083 4300 	eor.w	r3, r3, #2147483648	; 0x80000000

0800016c <__adddf3>:
 800016c:	b530      	push	{r4, r5, lr}
 800016e:	ea4f 0441 	mov.w	r4, r1, lsl #1
 8000172:	ea4f 0543 	mov.w	r5, r3, lsl #1
 8000176:	ea94 0f05 	teq	r4, r5
 800017a:	bf08      	it	eq
 800017c:	ea90 0f02 	teqeq	r0, r2
 8000180:	bf1f      	itttt	ne
 8000182:	ea54 0c00 	orrsne.w	ip, r4, r0
 8000186:	ea55 0c02 	orrsne.w	ip, r5, r2
 800018a:	ea7f 5c64 	mvnsne.w	ip, r4, asr #21
 800018e:	ea7f 5c65 	mvnsne.w	ip, r5, asr #21
 8000192:	f000 80e2 	beq.w	800035a <__adddf3+0x1ee>
 8000196:	ea4f 5454 	mov.w	r4, r4, lsr #21
 800019a:	ebd4 5555 	rsbs	r5, r4, r5, lsr #21
 800019e:	bfb8      	it	lt
 80001a0:	426d      	neglt	r5, r5
 80001a2:	dd0c      	ble.n	80001be <__adddf3+0x52>
 80001a4:	442c      	add	r4, r5
 80001a6:	ea80 0202 	eor.w	r2, r0, r2
 80001aa:	ea81 0303 	eor.w	r3, r1, r3
 80001ae:	ea82 0000 	eor.w	r0, r2, r0
 80001b2:	ea83 0101 	eor.w	r1, r3, r1
 80001b6:	ea80 0202 	eor.w	r2, r0, r2
 80001ba:	ea81 0303 	eor.w	r3, r1, r3
 80001be:	2d36      	cmp	r5, #54	; 0x36
 80001c0:	bf88      	it	hi
 80001c2:	bd30      	pophi	{r4, r5, pc}
 80001c4:	f011 4f00 	tst.w	r1, #2147483648	; 0x80000000
 80001c8:	ea4f 3101 	mov.w	r1, r1, lsl #12
 80001cc:	f44f 1c80 	mov.w	ip, #1048576	; 0x100000
 80001d0:	ea4c 3111 	orr.w	r1, ip, r1, lsr #12
 80001d4:	d002      	beq.n	80001dc <__adddf3+0x70>
 80001d6:	4240      	negs	r0, r0
 80001d8:	eb61 0141 	sbc.w	r1, r1, r1, lsl #1
 80001dc:	f013 4f00 	tst.w	r3, #2147483648	; 0x80000000
 80001e0:	ea4f 3303 	mov.w	r3, r3, lsl #12
 80001e4:	ea4c 3313 	orr.w	r3, ip, r3, lsr #12
 80001e8:	d002      	beq.n	80001f0 <__adddf3+0x84>
 80001ea:	4252      	negs	r2, r2
 80001ec:	eb63 0343 	sbc.w	r3, r3, r3, lsl #1
 80001f0:	ea94 0f05 	teq	r4, r5
 80001f4:	f000 80a7 	beq.w	8000346 <__adddf3+0x1da>
 80001f8:	f1a4 0401 	sub.w	r4, r4, #1
 80001fc:	f1d5 0e20 	rsbs	lr, r5, #32
 8000200:	db0d      	blt.n	800021e <__adddf3+0xb2>
 8000202:	fa02 fc0e 	lsl.w	ip, r2, lr
 8000206:	fa22 f205 	lsr.w	r2, r2, r5
 800020a:	1880      	adds	r0, r0, r2
 800020c:	f141 0100 	adc.w	r1, r1, #0
 8000210:	fa03 f20e 	lsl.w	r2, r3, lr
 8000214:	1880      	adds	r0, r0, r2
 8000216:	fa43 f305 	asr.w	r3, r3, r5
 800021a:	4159      	adcs	r1, r3
 800021c:	e00e      	b.n	800023c <__adddf3+0xd0>
 800021e:	f1a5 0520 	sub.w	r5, r5, #32
 8000222:	f10e 0e20 	add.w	lr, lr, #32
 8000226:	2a01      	cmp	r2, #1
 8000228:	fa03 fc0e 	lsl.w	ip, r3, lr
 800022c:	bf28      	it	cs
 800022e:	f04c 0c02 	orrcs.w	ip, ip, #2
 8000232:	fa43 f305 	asr.w	r3, r3, r5
 8000236:	18c0      	adds	r0, r0, r3
 8000238:	eb51 71e3 	adcs.w	r1, r1, r3, asr #31
 800023c:	f001 4500 	and.w	r5, r1, #2147483648	; 0x80000000
 8000240:	d507      	bpl.n	8000252 <__adddf3+0xe6>
 8000242:	f04f 0e00 	mov.w	lr, #0
 8000246:	f1dc 0c00 	rsbs	ip, ip, #0
 800024a:	eb7e 0000 	sbcs.w	r0, lr, r0
 800024e:	eb6e 0101 	sbc.w	r1, lr, r1
 8000252:	f5b1 1f80 	cmp.w	r1, #1048576	; 0x100000
 8000256:	d31b      	bcc.n	8000290 <__adddf3+0x124>
 8000258:	f5b1 1f00 	cmp.w	r1, #2097152	; 0x200000
 800025c:	d30c      	bcc.n	8000278 <__adddf3+0x10c>
 800025e:	0849      	lsrs	r1, r1, #1
 8000260:	ea5f 0030 	movs.w	r0, r0, rrx
 8000264:	ea4f 0c3c 	mov.w	ip, ip, rrx
 8000268:	f104 0401 	add.w	r4, r4, #1
 800026c:	ea4f 5244 	mov.w	r2, r4, lsl #21
 8000270:	f512 0f80 	cmn.w	r2, #4194304	; 0x400000
 8000274:	f080 809a 	bcs.w	80003ac <__adddf3+0x240>
 8000278:	f1bc 4f00 	cmp.w	ip, #2147483648	; 0x80000000
 800027c:	bf08      	it	eq
 800027e:	ea5f 0c50 	movseq.w	ip, r0, lsr #1
 8000282:	f150 0000 	adcs.w	r0, r0, #0
 8000286:	eb41 5104 	adc.w	r1, r1, r4, lsl #20
 800028a:	ea41 0105 	orr.w	r1, r1, r5
 800028e:	bd30      	pop	{r4, r5, pc}
 8000290:	ea5f 0c4c 	movs.w	ip, ip, lsl #1
 8000294:	4140      	adcs	r0, r0
 8000296:	eb41 0101 	adc.w	r1, r1, r1
 800029a:	3c01      	subs	r4, #1
 800029c:	bf28      	it	cs
 800029e:	f5b1 1f80 	cmpcs.w	r1, #1048576	; 0x100000
 80002a2:	d2e9      	bcs.n	8000278 <__adddf3+0x10c>
 80002a4:	f091 0f00 	teq	r1, #0
 80002a8:	bf04      	itt	eq
 80002aa:	4601      	moveq	r1, r0
 80002ac:	2000      	moveq	r0, #0
 80002ae:	fab1 f381 	clz	r3, r1
 80002b2:	bf08      	it	eq
 80002b4:	3320      	addeq	r3, #32
 80002b6:	f1a3 030b 	sub.w	r3, r3, #11
 80002ba:	f1b3 0220 	subs.w	r2, r3, #32
 80002be:	da0c      	bge.n	80002da <__adddf3+0x16e>
 80002c0:	320c      	adds	r2, #12
 80002c2:	dd08      	ble.n	80002d6 <__adddf3+0x16a>
 80002c4:	f102 0c14 	add.w	ip, r2, #20
 80002c8:	f1c2 020c 	rsb	r2, r2, #12
 80002cc:	fa01 f00c 	lsl.w	r0, r1, ip
 80002d0:	fa21 f102 	lsr.w	r1, r1, r2
 80002d4:	e00c      	b.n	80002f0 <__adddf3+0x184>
 80002d6:	f102 0214 	add.w	r2, r2, #20
 80002da:	bfd8      	it	le
 80002dc:	f1c2 0c20 	rsble	ip, r2, #32
 80002e0:	fa01 f102 	lsl.w	r1, r1, r2
 80002e4:	fa20 fc0c 	lsr.w	ip, r0, ip
 80002e8:	bfdc      	itt	le
 80002ea:	ea41 010c 	orrle.w	r1, r1, ip
 80002ee:	4090      	lslle	r0, r2
 80002f0:	1ae4      	subs	r4, r4, r3
 80002f2:	bfa2      	ittt	ge
 80002f4:	eb01 5104 	addge.w	r1, r1, r4, lsl #20
 80002f8:	4329      	orrge	r1, r5
 80002fa:	bd30      	popge	{r4, r5, pc}
 80002fc:	ea6f 0404 	mvn.w	r4, r4
 8000300:	3c1f      	subs	r4, #31
 8000302:	da1c      	bge.n	800033e <__adddf3+0x1d2>
 8000304:	340c      	adds	r4, #12
 8000306:	dc0e      	bgt.n	8000326 <__adddf3+0x1ba>
 8000308:	f104 0414 	add.w	r4, r4, #20
 800030c:	f1c4 0220 	rsb	r2, r4, #32
 8000310:	fa20 f004 	lsr.w	r0, r0, r4
 8000314:	fa01 f302 	lsl.w	r3, r1, r2
 8000318:	ea40 0003 	orr.w	r0, r0, r3
 800031c:	fa21 f304 	lsr.w	r3, r1, r4
 8000320:	ea45 0103 	orr.w	r1, r5, r3
 8000324:	bd30      	pop	{r4, r5, pc}
 8000326:	f1c4 040c 	rsb	r4, r4, #12
 800032a:	f1c4 0220 	rsb	r2, r4, #32
 800032e:	fa20 f002 	lsr.w	r0, r0, r2
 8000332:	fa01 f304 	lsl.w	r3, r1, r4
 8000336:	ea40 0003 	orr.w	r0, r0, r3
 800033a:	4629      	mov	r1, r5
 800033c:	bd30      	pop	{r4, r5, pc}
 800033e:	fa21 f004 	lsr.w	r0, r1, r4
 8000342:	4629      	mov	r1, r5
 8000344:	bd30      	pop	{r4, r5, pc}
 8000346:	f094 0f00 	teq	r4, #0
 800034a:	f483 1380 	eor.w	r3, r3, #1048576	; 0x100000
 800034e:	bf06      	itte	eq
 8000350:	f481 1180 	eoreq.w	r1, r1, #1048576	; 0x100000
 8000354:	3401      	addeq	r4, #1
 8000356:	3d01      	subne	r5, #1
 8000358:	e74e      	b.n	80001f8 <__adddf3+0x8c>
 800035a:	ea7f 5c64 	mvns.w	ip, r4, asr #21
 800035e:	bf18      	it	ne
 8000360:	ea7f 5c65 	mvnsne.w	ip, r5, asr #21
 8000364:	d029      	beq.n	80003ba <__adddf3+0x24e>
 8000366:	ea94 0f05 	teq	r4, r5
 800036a:	bf08      	it	eq
 800036c:	ea90 0f02 	teqeq	r0, r2
 8000370:	d005      	beq.n	800037e <__adddf3+0x212>
 8000372:	ea54 0c00 	orrs.w	ip, r4, r0
 8000376:	bf04      	itt	eq
 8000378:	4619      	moveq	r1, r3
 800037a:	4610      	moveq	r0, r2
 800037c:	bd30      	pop	{r4, r5, pc}
 800037e:	ea91 0f03 	teq	r1, r3
 8000382:	bf1e      	ittt	ne
 8000384:	2100      	movne	r1, #0
 8000386:	2000      	movne	r0, #0
 8000388:	bd30      	popne	{r4, r5, pc}
 800038a:	ea5f 5c54 	movs.w	ip, r4, lsr #21
 800038e:	d105      	bne.n	800039c <__adddf3+0x230>
 8000390:	0040      	lsls	r0, r0, #1
 8000392:	4149      	adcs	r1, r1
 8000394:	bf28      	it	cs
 8000396:	f041 4100 	orrcs.w	r1, r1, #2147483648	; 0x80000000
 800039a:	bd30      	pop	{r4, r5, pc}
 800039c:	f514 0480 	adds.w	r4, r4, #4194304	; 0x400000
 80003a0:	bf3c      	itt	cc
 80003a2:	f501 1180 	addcc.w	r1, r1, #1048576	; 0x100000
 80003a6:	bd30      	popcc	{r4, r5, pc}
 80003a8:	f001 4500 	and.w	r5, r1, #2147483648	; 0x80000000
 80003ac:	f045 41fe 	orr.w	r1, r5, #2130706432	; 0x7f000000
 80003b0:	f441 0170 	orr.w	r1, r1, #15728640	; 0xf00000
 80003b4:	f04f 0000 	mov.w	r0, #0
 80003b8:	bd30      	pop	{r4, r5, pc}
 80003ba:	ea7f 5c64 	mvns.w	ip, r4, asr #21
 80003be:	bf1a      	itte	ne
 80003c0:	4619      	movne	r1, r3
 80003c2:	4610      	movne	r0, r2
 80003c4:	ea7f 5c65 	mvnseq.w	ip, r5, asr #21
 80003c8:	bf1c      	itt	ne
 80003ca:	460b      	movne	r3, r1
 80003cc:	4602      	movne	r2, r0
 80003ce:	ea50 3401 	orrs.w	r4, r0, r1, lsl #12
 80003d2:	bf06      	itte	eq
 80003d4:	ea52 3503 	orrseq.w	r5, r2, r3, lsl #12
 80003d8:	ea91 0f03 	teqeq	r1, r3
 80003dc:	f441 2100 	orrne.w	r1, r1, #524288	; 0x80000
 80003e0:	bd30      	pop	{r4, r5, pc}
 80003e2:	bf00      	nop

080003e4 <__aeabi_ui2d>:
 80003e4:	f090 0f00 	teq	r0, #0
 80003e8:	bf04      	itt	eq
 80003ea:	2100      	moveq	r1, #0
 80003ec:	4770      	bxeq	lr
 80003ee:	b530      	push	{r4, r5, lr}
 80003f0:	f44f 6480 	mov.w	r4, #1024	; 0x400
 80003f4:	f104 0432 	add.w	r4, r4, #50	; 0x32
 80003f8:	f04f 0500 	mov.w	r5, #0
 80003fc:	f04f 0100 	mov.w	r1, #0
 8000400:	e750      	b.n	80002a4 <__adddf3+0x138>
 8000402:	bf00      	nop

08000404 <__aeabi_i2d>:
 8000404:	f090 0f00 	teq	r0, #0
 8000408:	bf04      	itt	eq
 800040a:	2100      	moveq	r1, #0
 800040c:	4770      	bxeq	lr
 800040e:	b530      	push	{r4, r5, lr}
 8000410:	f44f 6480 	mov.w	r4, #1024	; 0x400
 8000414:	f104 0432 	add.w	r4, r4, #50	; 0x32
 8000418:	f010 4500 	ands.w	r5, r0, #2147483648	; 0x80000000
 800041c:	bf48      	it	mi
 800041e:	4240      	negmi	r0, r0
 8000420:	f04f 0100 	mov.w	r1, #0
 8000424:	e73e      	b.n	80002a4 <__adddf3+0x138>
 8000426:	bf00      	nop

08000428 <__aeabi_f2d>:
 8000428:	0042      	lsls	r2, r0, #1
 800042a:	ea4f 01e2 	mov.w	r1, r2, asr #3
 800042e:	ea4f 0131 	mov.w	r1, r1, rrx
 8000432:	ea4f 7002 	mov.w	r0, r2, lsl #28
 8000436:	bf1f      	itttt	ne
 8000438:	f012 437f 	andsne.w	r3, r2, #4278190080	; 0xff000000
 800043c:	f093 4f7f 	teqne	r3, #4278190080	; 0xff000000
 8000440:	f081 5160 	eorne.w	r1, r1, #939524096	; 0x38000000
 8000444:	4770      	bxne	lr
 8000446:	f032 427f 	bics.w	r2, r2, #4278190080	; 0xff000000
 800044a:	bf08      	it	eq
 800044c:	4770      	bxeq	lr
 800044e:	f093 4f7f 	teq	r3, #4278190080	; 0xff000000
 8000452:	bf04      	itt	eq
 8000454:	f441 2100 	orreq.w	r1, r1, #524288	; 0x80000
 8000458:	4770      	bxeq	lr
 800045a:	b530      	push	{r4, r5, lr}
 800045c:	f44f 7460 	mov.w	r4, #896	; 0x380
 8000460:	f001 4500 	and.w	r5, r1, #2147483648	; 0x80000000
 8000464:	f021 4100 	bic.w	r1, r1, #2147483648	; 0x80000000
 8000468:	e71c      	b.n	80002a4 <__adddf3+0x138>
 800046a:	bf00      	nop

0800046c <__aeabi_ul2d>:
 800046c:	ea50 0201 	orrs.w	r2, r0, r1
 8000470:	bf08      	it	eq
 8000472:	4770      	bxeq	lr
 8000474:	b530      	push	{r4, r5, lr}
 8000476:	f04f 0500 	mov.w	r5, #0
 800047a:	e00a      	b.n	8000492 <__aeabi_l2d+0x16>

0800047c <__aeabi_l2d>:
 800047c:	ea50 0201 	orrs.w	r2, r0, r1
 8000480:	bf08      	it	eq
 8000482:	4770      	bxeq	lr
 8000484:	b530      	push	{r4, r5, lr}
 8000486:	f011 4500 	ands.w	r5, r1, #2147483648	; 0x80000000
 800048a:	d502      	bpl.n	8000492 <__aeabi_l2d+0x16>
 800048c:	4240      	negs	r0, r0
 800048e:	eb61 0141 	sbc.w	r1, r1, r1, lsl #1
 8000492:	f44f 6480 	mov.w	r4, #1024	; 0x400
 8000496:	f104 0432 	add.w	r4, r4, #50	; 0x32
 800049a:	ea5f 5c91 	movs.w	ip, r1, lsr #22
 800049e:	f43f aed8 	beq.w	8000252 <__adddf3+0xe6>
 80004a2:	f04f 0203 	mov.w	r2, #3
 80004a6:	ea5f 0cdc 	movs.w	ip, ip, lsr #3
 80004aa:	bf18      	it	ne
 80004ac:	3203      	addne	r2, #3
 80004ae:	ea5f 0cdc 	movs.w	ip, ip, lsr #3
 80004b2:	bf18      	it	ne
 80004b4:	3203      	addne	r2, #3
 80004b6:	eb02 02dc 	add.w	r2, r2, ip, lsr #3
 80004ba:	f1c2 0320 	rsb	r3, r2, #32
 80004be:	fa00 fc03 	lsl.w	ip, r0, r3
 80004c2:	fa20 f002 	lsr.w	r0, r0, r2
 80004c6:	fa01 fe03 	lsl.w	lr, r1, r3
 80004ca:	ea40 000e 	orr.w	r0, r0, lr
 80004ce:	fa21 f102 	lsr.w	r1, r1, r2
 80004d2:	4414      	add	r4, r2
 80004d4:	e6bd      	b.n	8000252 <__adddf3+0xe6>
 80004d6:	bf00      	nop

080004d8 <__aeabi_dmul>:
 80004d8:	b570      	push	{r4, r5, r6, lr}
 80004da:	f04f 0cff 	mov.w	ip, #255	; 0xff
 80004de:	f44c 6ce0 	orr.w	ip, ip, #1792	; 0x700
 80004e2:	ea1c 5411 	ands.w	r4, ip, r1, lsr #20
 80004e6:	bf1d      	ittte	ne
 80004e8:	ea1c 5513 	andsne.w	r5, ip, r3, lsr #20
 80004ec:	ea94 0f0c 	teqne	r4, ip
 80004f0:	ea95 0f0c 	teqne	r5, ip
 80004f4:	f000 f8de 	bleq	80006b4 <__aeabi_dmul+0x1dc>
 80004f8:	442c      	add	r4, r5
 80004fa:	ea81 0603 	eor.w	r6, r1, r3
 80004fe:	ea21 514c 	bic.w	r1, r1, ip, lsl #21
 8000502:	ea23 534c 	bic.w	r3, r3, ip, lsl #21
 8000506:	ea50 3501 	orrs.w	r5, r0, r1, lsl #12
 800050a:	bf18      	it	ne
 800050c:	ea52 3503 	orrsne.w	r5, r2, r3, lsl #12
 8000510:	f441 1180 	orr.w	r1, r1, #1048576	; 0x100000
 8000514:	f443 1380 	orr.w	r3, r3, #1048576	; 0x100000
 8000518:	d038      	beq.n	800058c <__aeabi_dmul+0xb4>
 800051a:	fba0 ce02 	umull	ip, lr, r0, r2
 800051e:	f04f 0500 	mov.w	r5, #0
 8000522:	fbe1 e502 	umlal	lr, r5, r1, r2
 8000526:	f006 4200 	and.w	r2, r6, #2147483648	; 0x80000000
 800052a:	fbe0 e503 	umlal	lr, r5, r0, r3
 800052e:	f04f 0600 	mov.w	r6, #0
 8000532:	fbe1 5603 	umlal	r5, r6, r1, r3
 8000536:	f09c 0f00 	teq	ip, #0
 800053a:	bf18      	it	ne
 800053c:	f04e 0e01 	orrne.w	lr, lr, #1
 8000540:	f1a4 04ff 	sub.w	r4, r4, #255	; 0xff
 8000544:	f5b6 7f00 	cmp.w	r6, #512	; 0x200
 8000548:	f564 7440 	sbc.w	r4, r4, #768	; 0x300
 800054c:	d204      	bcs.n	8000558 <__aeabi_dmul+0x80>
 800054e:	ea5f 0e4e 	movs.w	lr, lr, lsl #1
 8000552:	416d      	adcs	r5, r5
 8000554:	eb46 0606 	adc.w	r6, r6, r6
 8000558:	ea42 21c6 	orr.w	r1, r2, r6, lsl #11
 800055c:	ea41 5155 	orr.w	r1, r1, r5, lsr #21
 8000560:	ea4f 20c5 	mov.w	r0, r5, lsl #11
 8000564:	ea40 505e 	orr.w	r0, r0, lr, lsr #21
 8000568:	ea4f 2ece 	mov.w	lr, lr, lsl #11
 800056c:	f1b4 0cfd 	subs.w	ip, r4, #253	; 0xfd
 8000570:	bf88      	it	hi
 8000572:	f5bc 6fe0 	cmphi.w	ip, #1792	; 0x700
 8000576:	d81e      	bhi.n	80005b6 <__aeabi_dmul+0xde>
 8000578:	f1be 4f00 	cmp.w	lr, #2147483648	; 0x80000000
 800057c:	bf08      	it	eq
 800057e:	ea5f 0e50 	movseq.w	lr, r0, lsr #1
 8000582:	f150 0000 	adcs.w	r0, r0, #0
 8000586:	eb41 5104 	adc.w	r1, r1, r4, lsl #20
 800058a:	bd70      	pop	{r4, r5, r6, pc}
 800058c:	f006 4600 	and.w	r6, r6, #2147483648	; 0x80000000
 8000590:	ea46 0101 	orr.w	r1, r6, r1
 8000594:	ea40 0002 	orr.w	r0, r0, r2
 8000598:	ea81 0103 	eor.w	r1, r1, r3
 800059c:	ebb4 045c 	subs.w	r4, r4, ip, lsr #1
 80005a0:	bfc2      	ittt	gt
 80005a2:	ebd4 050c 	rsbsgt	r5, r4, ip
 80005a6:	ea41 5104 	orrgt.w	r1, r1, r4, lsl #20
 80005aa:	bd70      	popgt	{r4, r5, r6, pc}
 80005ac:	f441 1180 	orr.w	r1, r1, #1048576	; 0x100000
 80005b0:	f04f 0e00 	mov.w	lr, #0
 80005b4:	3c01      	subs	r4, #1
 80005b6:	f300 80ab 	bgt.w	8000710 <__aeabi_dmul+0x238>
 80005ba:	f114 0f36 	cmn.w	r4, #54	; 0x36
 80005be:	bfde      	ittt	le
 80005c0:	2000      	movle	r0, #0
 80005c2:	f001 4100 	andle.w	r1, r1, #2147483648	; 0x80000000
 80005c6:	bd70      	pople	{r4, r5, r6, pc}
 80005c8:	f1c4 0400 	rsb	r4, r4, #0
 80005cc:	3c20      	subs	r4, #32
 80005ce:	da35      	bge.n	800063c <__aeabi_dmul+0x164>
 80005d0:	340c      	adds	r4, #12
 80005d2:	dc1b      	bgt.n	800060c <__aeabi_dmul+0x134>
 80005d4:	f104 0414 	add.w	r4, r4, #20
 80005d8:	f1c4 0520 	rsb	r5, r4, #32
 80005dc:	fa00 f305 	lsl.w	r3, r0, r5
 80005e0:	fa20 f004 	lsr.w	r0, r0, r4
 80005e4:	fa01 f205 	lsl.w	r2, r1, r5
 80005e8:	ea40 0002 	orr.w	r0, r0, r2
 80005ec:	f001 4200 	and.w	r2, r1, #2147483648	; 0x80000000
 80005f0:	f021 4100 	bic.w	r1, r1, #2147483648	; 0x80000000
 80005f4:	eb10 70d3 	adds.w	r0, r0, r3, lsr #31
 80005f8:	fa21 f604 	lsr.w	r6, r1, r4
 80005fc:	eb42 0106 	adc.w	r1, r2, r6
 8000600:	ea5e 0e43 	orrs.w	lr, lr, r3, lsl #1
 8000604:	bf08      	it	eq
 8000606:	ea20 70d3 	biceq.w	r0, r0, r3, lsr #31
 800060a:	bd70      	pop	{r4, r5, r6, pc}
 800060c:	f1c4 040c 	rsb	r4, r4, #12
 8000610:	f1c4 0520 	rsb	r5, r4, #32
 8000614:	fa00 f304 	lsl.w	r3, r0, r4
 8000618:	fa20 f005 	lsr.w	r0, r0, r5
 800061c:	fa01 f204 	lsl.w	r2, r1, r4
 8000620:	ea40 0002 	orr.w	r0, r0, r2
 8000624:	f001 4100 	and.w	r1, r1, #2147483648	; 0x80000000
 8000628:	eb10 70d3 	adds.w	r0, r0, r3, lsr #31
 800062c:	f141 0100 	adc.w	r1, r1, #0
 8000630:	ea5e 0e43 	orrs.w	lr, lr, r3, lsl #1
 8000634:	bf08      	it	eq
 8000636:	ea20 70d3 	biceq.w	r0, r0, r3, lsr #31
 800063a:	bd70      	pop	{r4, r5, r6, pc}
 800063c:	f1c4 0520 	rsb	r5, r4, #32
 8000640:	fa00 f205 	lsl.w	r2, r0, r5
 8000644:	ea4e 0e02 	orr.w	lr, lr, r2
 8000648:	fa20 f304 	lsr.w	r3, r0, r4
 800064c:	fa01 f205 	lsl.w	r2, r1, r5
 8000650:	ea43 0302 	orr.w	r3, r3, r2
 8000654:	fa21 f004 	lsr.w	r0, r1, r4
 8000658:	f001 4100 	and.w	r1, r1, #2147483648	; 0x80000000
 800065c:	fa21 f204 	lsr.w	r2, r1, r4
 8000660:	ea20 0002 	bic.w	r0, r0, r2
 8000664:	eb00 70d3 	add.w	r0, r0, r3, lsr #31
 8000668:	ea5e 0e43 	orrs.w	lr, lr, r3, lsl #1
 800066c:	bf08      	it	eq
 800066e:	ea20 70d3 	biceq.w	r0, r0, r3, lsr #31
 8000672:	bd70      	pop	{r4, r5, r6, pc}
 8000674:	f094 0f00 	teq	r4, #0
 8000678:	d10f      	bne.n	800069a <__aeabi_dmul+0x1c2>
 800067a:	f001 4600 	and.w	r6, r1, #2147483648	; 0x80000000
 800067e:	0040      	lsls	r0, r0, #1
 8000680:	eb41 0101 	adc.w	r1, r1, r1
 8000684:	f411 1f80 	tst.w	r1, #1048576	; 0x100000
 8000688:	bf08      	it	eq
 800068a:	3c01      	subeq	r4, #1
 800068c:	d0f7      	beq.n	800067e <__aeabi_dmul+0x1a6>
 800068e:	ea41 0106 	orr.w	r1, r1, r6
 8000692:	f095 0f00 	teq	r5, #0
 8000696:	bf18      	it	ne
 8000698:	4770      	bxne	lr
 800069a:	f003 4600 	and.w	r6, r3, #2147483648	; 0x80000000
 800069e:	0052      	lsls	r2, r2, #1
 80006a0:	eb43 0303 	adc.w	r3, r3, r3
 80006a4:	f413 1f80 	tst.w	r3, #1048576	; 0x100000
 80006a8:	bf08      	it	eq
 80006aa:	3d01      	subeq	r5, #1
 80006ac:	d0f7      	beq.n	800069e <__aeabi_dmul+0x1c6>
 80006ae:	ea43 0306 	orr.w	r3, r3, r6
 80006b2:	4770      	bx	lr
 80006b4:	ea94 0f0c 	teq	r4, ip
 80006b8:	ea0c 5513 	and.w	r5, ip, r3, lsr #20
 80006bc:	bf18      	it	ne
 80006be:	ea95 0f0c 	teqne	r5, ip
 80006c2:	d00c      	beq.n	80006de <__aeabi_dmul+0x206>
 80006c4:	ea50 0641 	orrs.w	r6, r0, r1, lsl #1
 80006c8:	bf18      	it	ne
 80006ca:	ea52 0643 	orrsne.w	r6, r2, r3, lsl #1
 80006ce:	d1d1      	bne.n	8000674 <__aeabi_dmul+0x19c>
 80006d0:	ea81 0103 	eor.w	r1, r1, r3
 80006d4:	f001 4100 	and.w	r1, r1, #2147483648	; 0x80000000
 80006d8:	f04f 0000 	mov.w	r0, #0
 80006dc:	bd70      	pop	{r4, r5, r6, pc}
 80006de:	ea50 0641 	orrs.w	r6, r0, r1, lsl #1
 80006e2:	bf06      	itte	eq
 80006e4:	4610      	moveq	r0, r2
 80006e6:	4619      	moveq	r1, r3
 80006e8:	ea52 0643 	orrsne.w	r6, r2, r3, lsl #1
 80006ec:	d019      	beq.n	8000722 <__aeabi_dmul+0x24a>
 80006ee:	ea94 0f0c 	teq	r4, ip
 80006f2:	d102      	bne.n	80006fa <__aeabi_dmul+0x222>
 80006f4:	ea50 3601 	orrs.w	r6, r0, r1, lsl #12
 80006f8:	d113      	bne.n	8000722 <__aeabi_dmul+0x24a>
 80006fa:	ea95 0f0c 	teq	r5, ip
 80006fe:	d105      	bne.n	800070c <__aeabi_dmul+0x234>
 8000700:	ea52 3603 	orrs.w	r6, r2, r3, lsl #12
 8000704:	bf1c      	itt	ne
 8000706:	4610      	movne	r0, r2
 8000708:	4619      	movne	r1, r3
 800070a:	d10a      	bne.n	8000722 <__aeabi_dmul+0x24a>
 800070c:	ea81 0103 	eor.w	r1, r1, r3
 8000710:	f001 4100 	and.w	r1, r1, #2147483648	; 0x80000000
 8000714:	f041 41fe 	orr.w	r1, r1, #2130706432	; 0x7f000000
 8000718:	f441 0170 	orr.w	r1, r1, #15728640	; 0xf00000
 800071c:	f04f 0000 	mov.w	r0, #0
 8000720:	bd70      	pop	{r4, r5, r6, pc}
 8000722:	f041 41fe 	orr.w	r1, r1, #2130706432	; 0x7f000000
 8000726:	f441 0178 	orr.w	r1, r1, #16252928	; 0xf80000
 800072a:	bd70      	pop	{r4, r5, r6, pc}

0800072c <__aeabi_ddiv>:
 800072c:	b570      	push	{r4, r5, r6, lr}
 800072e:	f04f 0cff 	mov.w	ip, #255	; 0xff
 8000732:	f44c 6ce0 	orr.w	ip, ip, #1792	; 0x700
 8000736:	ea1c 5411 	ands.w	r4, ip, r1, lsr #20
 800073a:	bf1d      	ittte	ne
 800073c:	ea1c 5513 	andsne.w	r5, ip, r3, lsr #20
 8000740:	ea94 0f0c 	teqne	r4, ip
 8000744:	ea95 0f0c 	teqne	r5, ip
 8000748:	f000 f8a7 	bleq	800089a <__aeabi_ddiv+0x16e>
 800074c:	eba4 0405 	sub.w	r4, r4, r5
 8000750:	ea81 0e03 	eor.w	lr, r1, r3
 8000754:	ea52 3503 	orrs.w	r5, r2, r3, lsl #12
 8000758:	ea4f 3101 	mov.w	r1, r1, lsl #12
 800075c:	f000 8088 	beq.w	8000870 <__aeabi_ddiv+0x144>
 8000760:	ea4f 3303 	mov.w	r3, r3, lsl #12
 8000764:	f04f 5580 	mov.w	r5, #268435456	; 0x10000000
 8000768:	ea45 1313 	orr.w	r3, r5, r3, lsr #4
 800076c:	ea43 6312 	orr.w	r3, r3, r2, lsr #24
 8000770:	ea4f 2202 	mov.w	r2, r2, lsl #8
 8000774:	ea45 1511 	orr.w	r5, r5, r1, lsr #4
 8000778:	ea45 6510 	orr.w	r5, r5, r0, lsr #24
 800077c:	ea4f 2600 	mov.w	r6, r0, lsl #8
 8000780:	f00e 4100 	and.w	r1, lr, #2147483648	; 0x80000000
 8000784:	429d      	cmp	r5, r3
 8000786:	bf08      	it	eq
 8000788:	4296      	cmpeq	r6, r2
 800078a:	f144 04fd 	adc.w	r4, r4, #253	; 0xfd
 800078e:	f504 7440 	add.w	r4, r4, #768	; 0x300
 8000792:	d202      	bcs.n	800079a <__aeabi_ddiv+0x6e>
 8000794:	085b      	lsrs	r3, r3, #1
 8000796:	ea4f 0232 	mov.w	r2, r2, rrx
 800079a:	1ab6      	subs	r6, r6, r2
 800079c:	eb65 0503 	sbc.w	r5, r5, r3
 80007a0:	085b      	lsrs	r3, r3, #1
 80007a2:	ea4f 0232 	mov.w	r2, r2, rrx
 80007a6:	f44f 1080 	mov.w	r0, #1048576	; 0x100000
 80007aa:	f44f 2c00 	mov.w	ip, #524288	; 0x80000
 80007ae:	ebb6 0e02 	subs.w	lr, r6, r2
 80007b2:	eb75 0e03 	sbcs.w	lr, r5, r3
 80007b6:	bf22      	ittt	cs
 80007b8:	1ab6      	subcs	r6, r6, r2
 80007ba:	4675      	movcs	r5, lr
 80007bc:	ea40 000c 	orrcs.w	r0, r0, ip
 80007c0:	085b      	lsrs	r3, r3, #1
 80007c2:	ea4f 0232 	mov.w	r2, r2, rrx
 80007c6:	ebb6 0e02 	subs.w	lr, r6, r2
 80007ca:	eb75 0e03 	sbcs.w	lr, r5, r3
 80007ce:	bf22      	ittt	cs
 80007d0:	1ab6      	subcs	r6, r6, r2
 80007d2:	4675      	movcs	r5, lr
 80007d4:	ea40 005c 	orrcs.w	r0, r0, ip, lsr #1
 80007d8:	085b      	lsrs	r3, r3, #1
 80007da:	ea4f 0232 	mov.w	r2, r2, rrx
 80007de:	ebb6 0e02 	subs.w	lr, r6, r2
 80007e2:	eb75 0e03 	sbcs.w	lr, r5, r3
 80007e6:	bf22      	ittt	cs
 80007e8:	1ab6      	subcs	r6, r6, r2
 80007ea:	4675      	movcs	r5, lr
 80007ec:	ea40 009c 	orrcs.w	r0, r0, ip, lsr #2
 80007f0:	085b      	lsrs	r3, r3, #1
 80007f2:	ea4f 0232 	mov.w	r2, r2, rrx
 80007f6:	ebb6 0e02 	subs.w	lr, r6, r2
 80007fa:	eb75 0e03 	sbcs.w	lr, r5, r3
 80007fe:	bf22      	ittt	cs
 8000800:	1ab6      	subcs	r6, r6, r2
 8000802:	4675      	movcs	r5, lr
 8000804:	ea40 00dc 	orrcs.w	r0, r0, ip, lsr #3
 8000808:	ea55 0e06 	orrs.w	lr, r5, r6
 800080c:	d018      	beq.n	8000840 <__aeabi_ddiv+0x114>
 800080e:	ea4f 1505 	mov.w	r5, r5, lsl #4
 8000812:	ea45 7516 	orr.w	r5, r5, r6, lsr #28
 8000816:	ea4f 1606 	mov.w	r6, r6, lsl #4
 800081a:	ea4f 03c3 	mov.w	r3, r3, lsl #3
 800081e:	ea43 7352 	orr.w	r3, r3, r2, lsr #29
 8000822:	ea4f 02c2 	mov.w	r2, r2, lsl #3
 8000826:	ea5f 1c1c 	movs.w	ip, ip, lsr #4
 800082a:	d1c0      	bne.n	80007ae <__aeabi_ddiv+0x82>
 800082c:	f411 1f80 	tst.w	r1, #1048576	; 0x100000
 8000830:	d10b      	bne.n	800084a <__aeabi_ddiv+0x11e>
 8000832:	ea41 0100 	orr.w	r1, r1, r0
 8000836:	f04f 0000 	mov.w	r0, #0
 800083a:	f04f 4c00 	mov.w	ip, #2147483648	; 0x80000000
 800083e:	e7b6      	b.n	80007ae <__aeabi_ddiv+0x82>
 8000840:	f411 1f80 	tst.w	r1, #1048576	; 0x100000
 8000844:	bf04      	itt	eq
 8000846:	4301      	orreq	r1, r0
 8000848:	2000      	moveq	r0, #0
 800084a:	f1b4 0cfd 	subs.w	ip, r4, #253	; 0xfd
 800084e:	bf88      	it	hi
 8000850:	f5bc 6fe0 	cmphi.w	ip, #1792	; 0x700
 8000854:	f63f aeaf 	bhi.w	80005b6 <__aeabi_dmul+0xde>
 8000858:	ebb5 0c03 	subs.w	ip, r5, r3
 800085c:	bf04      	itt	eq
 800085e:	ebb6 0c02 	subseq.w	ip, r6, r2
 8000862:	ea5f 0c50 	movseq.w	ip, r0, lsr #1
 8000866:	f150 0000 	adcs.w	r0, r0, #0
 800086a:	eb41 5104 	adc.w	r1, r1, r4, lsl #20
 800086e:	bd70      	pop	{r4, r5, r6, pc}
 8000870:	f00e 4e00 	and.w	lr, lr, #2147483648	; 0x80000000
 8000874:	ea4e 3111 	orr.w	r1, lr, r1, lsr #12
 8000878:	eb14 045c 	adds.w	r4, r4, ip, lsr #1
 800087c:	bfc2      	ittt	gt
 800087e:	ebd4 050c 	rsbsgt	r5, r4, ip
 8000882:	ea41 5104 	orrgt.w	r1, r1, r4, lsl #20
 8000886:	bd70      	popgt	{r4, r5, r6, pc}
 8000888:	f441 1180 	orr.w	r1, r1, #1048576	; 0x100000
 800088c:	f04f 0e00 	mov.w	lr, #0
 8000890:	3c01      	subs	r4, #1
 8000892:	e690      	b.n	80005b6 <__aeabi_dmul+0xde>
 8000894:	ea45 0e06 	orr.w	lr, r5, r6
 8000898:	e68d      	b.n	80005b6 <__aeabi_dmul+0xde>
 800089a:	ea0c 5513 	and.w	r5, ip, r3, lsr #20
 800089e:	ea94 0f0c 	teq	r4, ip
 80008a2:	bf08      	it	eq
 80008a4:	ea95 0f0c 	teqeq	r5, ip
 80008a8:	f43f af3b 	beq.w	8000722 <__aeabi_dmul+0x24a>
 80008ac:	ea94 0f0c 	teq	r4, ip
 80008b0:	d10a      	bne.n	80008c8 <__aeabi_ddiv+0x19c>
 80008b2:	ea50 3401 	orrs.w	r4, r0, r1, lsl #12
 80008b6:	f47f af34 	bne.w	8000722 <__aeabi_dmul+0x24a>
 80008ba:	ea95 0f0c 	teq	r5, ip
 80008be:	f47f af25 	bne.w	800070c <__aeabi_dmul+0x234>
 80008c2:	4610      	mov	r0, r2
 80008c4:	4619      	mov	r1, r3
 80008c6:	e72c      	b.n	8000722 <__aeabi_dmul+0x24a>
 80008c8:	ea95 0f0c 	teq	r5, ip
 80008cc:	d106      	bne.n	80008dc <__aeabi_ddiv+0x1b0>
 80008ce:	ea52 3503 	orrs.w	r5, r2, r3, lsl #12
 80008d2:	f43f aefd 	beq.w	80006d0 <__aeabi_dmul+0x1f8>
 80008d6:	4610      	mov	r0, r2
 80008d8:	4619      	mov	r1, r3
 80008da:	e722      	b.n	8000722 <__aeabi_dmul+0x24a>
 80008dc:	ea50 0641 	orrs.w	r6, r0, r1, lsl #1
 80008e0:	bf18      	it	ne
 80008e2:	ea52 0643 	orrsne.w	r6, r2, r3, lsl #1
 80008e6:	f47f aec5 	bne.w	8000674 <__aeabi_dmul+0x19c>
 80008ea:	ea50 0441 	orrs.w	r4, r0, r1, lsl #1
 80008ee:	f47f af0d 	bne.w	800070c <__aeabi_dmul+0x234>
 80008f2:	ea52 0543 	orrs.w	r5, r2, r3, lsl #1
 80008f6:	f47f aeeb 	bne.w	80006d0 <__aeabi_dmul+0x1f8>
 80008fa:	e712      	b.n	8000722 <__aeabi_dmul+0x24a>

080008fc <__gedf2>:
 80008fc:	f04f 3cff 	mov.w	ip, #4294967295
 8000900:	e006      	b.n	8000910 <__cmpdf2+0x4>
 8000902:	bf00      	nop

08000904 <__ledf2>:
 8000904:	f04f 0c01 	mov.w	ip, #1
 8000908:	e002      	b.n	8000910 <__cmpdf2+0x4>
 800090a:	bf00      	nop

0800090c <__cmpdf2>:
 800090c:	f04f 0c01 	mov.w	ip, #1
 8000910:	f84d cd04 	str.w	ip, [sp, #-4]!
 8000914:	ea4f 0c41 	mov.w	ip, r1, lsl #1
 8000918:	ea7f 5c6c 	mvns.w	ip, ip, asr #21
 800091c:	ea4f 0c43 	mov.w	ip, r3, lsl #1
 8000920:	bf18      	it	ne
 8000922:	ea7f 5c6c 	mvnsne.w	ip, ip, asr #21
 8000926:	d01b      	beq.n	8000960 <__cmpdf2+0x54>
 8000928:	b001      	add	sp, #4
 800092a:	ea50 0c41 	orrs.w	ip, r0, r1, lsl #1
 800092e:	bf0c      	ite	eq
 8000930:	ea52 0c43 	orrseq.w	ip, r2, r3, lsl #1
 8000934:	ea91 0f03 	teqne	r1, r3
 8000938:	bf02      	ittt	eq
 800093a:	ea90 0f02 	teqeq	r0, r2
 800093e:	2000      	moveq	r0, #0
 8000940:	4770      	bxeq	lr
 8000942:	f110 0f00 	cmn.w	r0, #0
 8000946:	ea91 0f03 	teq	r1, r3
 800094a:	bf58      	it	pl
 800094c:	4299      	cmppl	r1, r3
 800094e:	bf08      	it	eq
 8000950:	4290      	cmpeq	r0, r2
 8000952:	bf2c      	ite	cs
 8000954:	17d8      	asrcs	r0, r3, #31
 8000956:	ea6f 70e3 	mvncc.w	r0, r3, asr #31
 800095a:	f040 0001 	orr.w	r0, r0, #1
 800095e:	4770      	bx	lr
 8000960:	ea4f 0c41 	mov.w	ip, r1, lsl #1
 8000964:	ea7f 5c6c 	mvns.w	ip, ip, asr #21
 8000968:	d102      	bne.n	8000970 <__cmpdf2+0x64>
 800096a:	ea50 3c01 	orrs.w	ip, r0, r1, lsl #12
 800096e:	d107      	bne.n	8000980 <__cmpdf2+0x74>
 8000970:	ea4f 0c43 	mov.w	ip, r3, lsl #1
 8000974:	ea7f 5c6c 	mvns.w	ip, ip, asr #21
 8000978:	d1d6      	bne.n	8000928 <__cmpdf2+0x1c>
 800097a:	ea52 3c03 	orrs.w	ip, r2, r3, lsl #12
 800097e:	d0d3      	beq.n	8000928 <__cmpdf2+0x1c>
 8000980:	f85d 0b04 	ldr.w	r0, [sp], #4
 8000984:	4770      	bx	lr
 8000986:	bf00      	nop

08000988 <__aeabi_cdrcmple>:
 8000988:	4684      	mov	ip, r0
 800098a:	4610      	mov	r0, r2
 800098c:	4662      	mov	r2, ip
 800098e:	468c      	mov	ip, r1
 8000990:	4619      	mov	r1, r3
 8000992:	4663      	mov	r3, ip
 8000994:	e000      	b.n	8000998 <__aeabi_cdcmpeq>
 8000996:	bf00      	nop

08000998 <__aeabi_cdcmpeq>:
 8000998:	b501      	push	{r0, lr}
 800099a:	f7ff ffb7 	bl	800090c <__cmpdf2>
 800099e:	2800      	cmp	r0, #0
 80009a0:	bf48      	it	mi
 80009a2:	f110 0f00 	cmnmi.w	r0, #0
 80009a6:	bd01      	pop	{r0, pc}

080009a8 <__aeabi_dcmpeq>:
 80009a8:	f84d ed08 	str.w	lr, [sp, #-8]!
 80009ac:	f7ff fff4 	bl	8000998 <__aeabi_cdcmpeq>
 80009b0:	bf0c      	ite	eq
 80009b2:	2001      	moveq	r0, #1
 80009b4:	2000      	movne	r0, #0
 80009b6:	f85d fb08 	ldr.w	pc, [sp], #8
 80009ba:	bf00      	nop

080009bc <__aeabi_dcmplt>:
 80009bc:	f84d ed08 	str.w	lr, [sp, #-8]!
 80009c0:	f7ff ffea 	bl	8000998 <__aeabi_cdcmpeq>
 80009c4:	bf34      	ite	cc
 80009c6:	2001      	movcc	r0, #1
 80009c8:	2000      	movcs	r0, #0
 80009ca:	f85d fb08 	ldr.w	pc, [sp], #8
 80009ce:	bf00      	nop

080009d0 <__aeabi_dcmple>:
 80009d0:	f84d ed08 	str.w	lr, [sp, #-8]!
 80009d4:	f7ff ffe0 	bl	8000998 <__aeabi_cdcmpeq>
 80009d8:	bf94      	ite	ls
 80009da:	2001      	movls	r0, #1
 80009dc:	2000      	movhi	r0, #0
 80009de:	f85d fb08 	ldr.w	pc, [sp], #8
 80009e2:	bf00      	nop

080009e4 <__aeabi_dcmpge>:
 80009e4:	f84d ed08 	str.w	lr, [sp, #-8]!
 80009e8:	f7ff ffce 	bl	8000988 <__aeabi_cdrcmple>
 80009ec:	bf94      	ite	ls
 80009ee:	2001      	movls	r0, #1
 80009f0:	2000      	movhi	r0, #0
 80009f2:	f85d fb08 	ldr.w	pc, [sp], #8
 80009f6:	bf00      	nop

080009f8 <__aeabi_dcmpgt>:
 80009f8:	f84d ed08 	str.w	lr, [sp, #-8]!
 80009fc:	f7ff ffc4 	bl	8000988 <__aeabi_cdrcmple>
 8000a00:	bf34      	ite	cc
 8000a02:	2001      	movcc	r0, #1
 8000a04:	2000      	movcs	r0, #0
 8000a06:	f85d fb08 	ldr.w	pc, [sp], #8
 8000a0a:	bf00      	nop

08000a0c <__aeabi_dcmpun>:
 8000a0c:	ea4f 0c41 	mov.w	ip, r1, lsl #1
 8000a10:	ea7f 5c6c 	mvns.w	ip, ip, asr #21
 8000a14:	d102      	bne.n	8000a1c <__aeabi_dcmpun+0x10>
 8000a16:	ea50 3c01 	orrs.w	ip, r0, r1, lsl #12
 8000a1a:	d10a      	bne.n	8000a32 <__aeabi_dcmpun+0x26>
 8000a1c:	ea4f 0c43 	mov.w	ip, r3, lsl #1
 8000a20:	ea7f 5c6c 	mvns.w	ip, ip, asr #21
 8000a24:	d102      	bne.n	8000a2c <__aeabi_dcmpun+0x20>
 8000a26:	ea52 3c03 	orrs.w	ip, r2, r3, lsl #12
 8000a2a:	d102      	bne.n	8000a32 <__aeabi_dcmpun+0x26>
 8000a2c:	f04f 0000 	mov.w	r0, #0
 8000a30:	4770      	bx	lr
 8000a32:	f04f 0001 	mov.w	r0, #1
 8000a36:	4770      	bx	lr

08000a38 <__aeabi_d2iz>:
 8000a38:	ea4f 0241 	mov.w	r2, r1, lsl #1
 8000a3c:	f512 1200 	adds.w	r2, r2, #2097152	; 0x200000
 8000a40:	d215      	bcs.n	8000a6e <__aeabi_d2iz+0x36>
 8000a42:	d511      	bpl.n	8000a68 <__aeabi_d2iz+0x30>
 8000a44:	f46f 7378 	mvn.w	r3, #992	; 0x3e0
 8000a48:	ebb3 5262 	subs.w	r2, r3, r2, asr #21
 8000a4c:	d912      	bls.n	8000a74 <__aeabi_d2iz+0x3c>
 8000a4e:	ea4f 23c1 	mov.w	r3, r1, lsl #11
 8000a52:	f043 4300 	orr.w	r3, r3, #2147483648	; 0x80000000
 8000a56:	ea43 5350 	orr.w	r3, r3, r0, lsr #21
 8000a5a:	f011 4f00 	tst.w	r1, #2147483648	; 0x80000000
 8000a5e:	fa23 f002 	lsr.w	r0, r3, r2
 8000a62:	bf18      	it	ne
 8000a64:	4240      	negne	r0, r0
 8000a66:	4770      	bx	lr
 8000a68:	f04f 0000 	mov.w	r0, #0
 8000a6c:	4770      	bx	lr
 8000a6e:	ea50 3001 	orrs.w	r0, r0, r1, lsl #12
 8000a72:	d105      	bne.n	8000a80 <__aeabi_d2iz+0x48>
 8000a74:	f011 4000 	ands.w	r0, r1, #2147483648	; 0x80000000
 8000a78:	bf08      	it	eq
 8000a7a:	f06f 4000 	mvneq.w	r0, #2147483648	; 0x80000000
 8000a7e:	4770      	bx	lr
 8000a80:	f04f 0000 	mov.w	r0, #0
 8000a84:	4770      	bx	lr
 8000a86:	bf00      	nop

08000a88 <__aeabi_d2f>:
 8000a88:	ea4f 0241 	mov.w	r2, r1, lsl #1
 8000a8c:	f1b2 43e0 	subs.w	r3, r2, #1879048192	; 0x70000000
 8000a90:	bf24      	itt	cs
 8000a92:	f5b3 1c00 	subscs.w	ip, r3, #2097152	; 0x200000
 8000a96:	f1dc 5cfe 	rsbscs	ip, ip, #532676608	; 0x1fc00000
 8000a9a:	d90d      	bls.n	8000ab8 <__aeabi_d2f+0x30>
 8000a9c:	f001 4c00 	and.w	ip, r1, #2147483648	; 0x80000000
 8000aa0:	ea4f 02c0 	mov.w	r2, r0, lsl #3
 8000aa4:	ea4c 7050 	orr.w	r0, ip, r0, lsr #29
 8000aa8:	f1b2 4f00 	cmp.w	r2, #2147483648	; 0x80000000
 8000aac:	eb40 0083 	adc.w	r0, r0, r3, lsl #2
 8000ab0:	bf08      	it	eq
 8000ab2:	f020 0001 	biceq.w	r0, r0, #1
 8000ab6:	4770      	bx	lr
 8000ab8:	f011 4f80 	tst.w	r1, #1073741824	; 0x40000000
 8000abc:	d121      	bne.n	8000b02 <__aeabi_d2f+0x7a>
 8000abe:	f113 7238 	adds.w	r2, r3, #48234496	; 0x2e00000
 8000ac2:	bfbc      	itt	lt
 8000ac4:	f001 4000 	andlt.w	r0, r1, #2147483648	; 0x80000000
 8000ac8:	4770      	bxlt	lr
 8000aca:	f441 1180 	orr.w	r1, r1, #1048576	; 0x100000
 8000ace:	ea4f 5252 	mov.w	r2, r2, lsr #21
 8000ad2:	f1c2 0218 	rsb	r2, r2, #24
 8000ad6:	f1c2 0c20 	rsb	ip, r2, #32
 8000ada:	fa10 f30c 	lsls.w	r3, r0, ip
 8000ade:	fa20 f002 	lsr.w	r0, r0, r2
 8000ae2:	bf18      	it	ne
 8000ae4:	f040 0001 	orrne.w	r0, r0, #1
 8000ae8:	ea4f 23c1 	mov.w	r3, r1, lsl #11
 8000aec:	ea4f 23d3 	mov.w	r3, r3, lsr #11
 8000af0:	fa03 fc0c 	lsl.w	ip, r3, ip
 8000af4:	ea40 000c 	orr.w	r0, r0, ip
 8000af8:	fa23 f302 	lsr.w	r3, r3, r2
 8000afc:	ea4f 0343 	mov.w	r3, r3, lsl #1
 8000b00:	e7cc      	b.n	8000a9c <__aeabi_d2f+0x14>
 8000b02:	ea7f 5362 	mvns.w	r3, r2, asr #21
 8000b06:	d107      	bne.n	8000b18 <__aeabi_d2f+0x90>
 8000b08:	ea50 3301 	orrs.w	r3, r0, r1, lsl #12
 8000b0c:	bf1e      	ittt	ne
 8000b0e:	f04f 40fe 	movne.w	r0, #2130706432	; 0x7f000000
 8000b12:	f440 0040 	orrne.w	r0, r0, #12582912	; 0xc00000
 8000b16:	4770      	bxne	lr
 8000b18:	f001 4000 	and.w	r0, r1, #2147483648	; 0x80000000
 8000b1c:	f040 40fe 	orr.w	r0, r0, #2130706432	; 0x7f000000
 8000b20:	f440 0000 	orr.w	r0, r0, #8388608	; 0x800000
 8000b24:	4770      	bx	lr
 8000b26:	bf00      	nop

08000b28 <__aeabi_frsub>:
 8000b28:	f080 4000 	eor.w	r0, r0, #2147483648	; 0x80000000
 8000b2c:	e002      	b.n	8000b34 <__addsf3>
 8000b2e:	bf00      	nop

08000b30 <__aeabi_fsub>:
 8000b30:	f081 4100 	eor.w	r1, r1, #2147483648	; 0x80000000

08000b34 <__addsf3>:
 8000b34:	0042      	lsls	r2, r0, #1
 8000b36:	bf1f      	itttt	ne
 8000b38:	ea5f 0341 	movsne.w	r3, r1, lsl #1
 8000b3c:	ea92 0f03 	teqne	r2, r3
 8000b40:	ea7f 6c22 	mvnsne.w	ip, r2, asr #24
 8000b44:	ea7f 6c23 	mvnsne.w	ip, r3, asr #24
 8000b48:	d06a      	beq.n	8000c20 <__addsf3+0xec>
 8000b4a:	ea4f 6212 	mov.w	r2, r2, lsr #24
 8000b4e:	ebd2 6313 	rsbs	r3, r2, r3, lsr #24
 8000b52:	bfc1      	itttt	gt
 8000b54:	18d2      	addgt	r2, r2, r3
 8000b56:	4041      	eorgt	r1, r0
 8000b58:	4048      	eorgt	r0, r1
 8000b5a:	4041      	eorgt	r1, r0
 8000b5c:	bfb8      	it	lt
 8000b5e:	425b      	neglt	r3, r3
 8000b60:	2b19      	cmp	r3, #25
 8000b62:	bf88      	it	hi
 8000b64:	4770      	bxhi	lr
 8000b66:	f010 4f00 	tst.w	r0, #2147483648	; 0x80000000
 8000b6a:	f440 0000 	orr.w	r0, r0, #8388608	; 0x800000
 8000b6e:	f020 407f 	bic.w	r0, r0, #4278190080	; 0xff000000
 8000b72:	bf18      	it	ne
 8000b74:	4240      	negne	r0, r0
 8000b76:	f011 4f00 	tst.w	r1, #2147483648	; 0x80000000
 8000b7a:	f441 0100 	orr.w	r1, r1, #8388608	; 0x800000
 8000b7e:	f021 417f 	bic.w	r1, r1, #4278190080	; 0xff000000
 8000b82:	bf18      	it	ne
 8000b84:	4249      	negne	r1, r1
 8000b86:	ea92 0f03 	teq	r2, r3
 8000b8a:	d03f      	beq.n	8000c0c <__addsf3+0xd8>
 8000b8c:	f1a2 0201 	sub.w	r2, r2, #1
 8000b90:	fa41 fc03 	asr.w	ip, r1, r3
 8000b94:	eb10 000c 	adds.w	r0, r0, ip
 8000b98:	f1c3 0320 	rsb	r3, r3, #32
 8000b9c:	fa01 f103 	lsl.w	r1, r1, r3
 8000ba0:	f000 4300 	and.w	r3, r0, #2147483648	; 0x80000000
 8000ba4:	d502      	bpl.n	8000bac <__addsf3+0x78>
 8000ba6:	4249      	negs	r1, r1
 8000ba8:	eb60 0040 	sbc.w	r0, r0, r0, lsl #1
 8000bac:	f5b0 0f00 	cmp.w	r0, #8388608	; 0x800000
 8000bb0:	d313      	bcc.n	8000bda <__addsf3+0xa6>
 8000bb2:	f1b0 7f80 	cmp.w	r0, #16777216	; 0x1000000
 8000bb6:	d306      	bcc.n	8000bc6 <__addsf3+0x92>
 8000bb8:	0840      	lsrs	r0, r0, #1
 8000bba:	ea4f 0131 	mov.w	r1, r1, rrx
 8000bbe:	f102 0201 	add.w	r2, r2, #1
 8000bc2:	2afe      	cmp	r2, #254	; 0xfe
 8000bc4:	d251      	bcs.n	8000c6a <__addsf3+0x136>
 8000bc6:	f1b1 4f00 	cmp.w	r1, #2147483648	; 0x80000000
 8000bca:	eb40 50c2 	adc.w	r0, r0, r2, lsl #23
 8000bce:	bf08      	it	eq
 8000bd0:	f020 0001 	biceq.w	r0, r0, #1
 8000bd4:	ea40 0003 	orr.w	r0, r0, r3
 8000bd8:	4770      	bx	lr
 8000bda:	0049      	lsls	r1, r1, #1
 8000bdc:	eb40 0000 	adc.w	r0, r0, r0
 8000be0:	3a01      	subs	r2, #1
 8000be2:	bf28      	it	cs
 8000be4:	f5b0 0f00 	cmpcs.w	r0, #8388608	; 0x800000
 8000be8:	d2ed      	bcs.n	8000bc6 <__addsf3+0x92>
 8000bea:	fab0 fc80 	clz	ip, r0
 8000bee:	f1ac 0c08 	sub.w	ip, ip, #8
 8000bf2:	ebb2 020c 	subs.w	r2, r2, ip
 8000bf6:	fa00 f00c 	lsl.w	r0, r0, ip
 8000bfa:	bfaa      	itet	ge
 8000bfc:	eb00 50c2 	addge.w	r0, r0, r2, lsl #23
 8000c00:	4252      	neglt	r2, r2
 8000c02:	4318      	orrge	r0, r3
 8000c04:	bfbc      	itt	lt
 8000c06:	40d0      	lsrlt	r0, r2
 8000c08:	4318      	orrlt	r0, r3
 8000c0a:	4770      	bx	lr
 8000c0c:	f092 0f00 	teq	r2, #0
 8000c10:	f481 0100 	eor.w	r1, r1, #8388608	; 0x800000
 8000c14:	bf06      	itte	eq
 8000c16:	f480 0000 	eoreq.w	r0, r0, #8388608	; 0x800000
 8000c1a:	3201      	addeq	r2, #1
 8000c1c:	3b01      	subne	r3, #1
 8000c1e:	e7b5      	b.n	8000b8c <__addsf3+0x58>
 8000c20:	ea4f 0341 	mov.w	r3, r1, lsl #1
 8000c24:	ea7f 6c22 	mvns.w	ip, r2, asr #24
 8000c28:	bf18      	it	ne
 8000c2a:	ea7f 6c23 	mvnsne.w	ip, r3, asr #24
 8000c2e:	d021      	beq.n	8000c74 <__addsf3+0x140>
 8000c30:	ea92 0f03 	teq	r2, r3
 8000c34:	d004      	beq.n	8000c40 <__addsf3+0x10c>
 8000c36:	f092 0f00 	teq	r2, #0
 8000c3a:	bf08      	it	eq
 8000c3c:	4608      	moveq	r0, r1
 8000c3e:	4770      	bx	lr
 8000c40:	ea90 0f01 	teq	r0, r1
 8000c44:	bf1c      	itt	ne
 8000c46:	2000      	movne	r0, #0
 8000c48:	4770      	bxne	lr
 8000c4a:	f012 4f7f 	tst.w	r2, #4278190080	; 0xff000000
 8000c4e:	d104      	bne.n	8000c5a <__addsf3+0x126>
 8000c50:	0040      	lsls	r0, r0, #1
 8000c52:	bf28      	it	cs
 8000c54:	f040 4000 	orrcs.w	r0, r0, #2147483648	; 0x80000000
 8000c58:	4770      	bx	lr
 8000c5a:	f112 7200 	adds.w	r2, r2, #33554432	; 0x2000000
 8000c5e:	bf3c      	itt	cc
 8000c60:	f500 0000 	addcc.w	r0, r0, #8388608	; 0x800000
 8000c64:	4770      	bxcc	lr
 8000c66:	f000 4300 	and.w	r3, r0, #2147483648	; 0x80000000
 8000c6a:	f043 40fe 	orr.w	r0, r3, #2130706432	; 0x7f000000
 8000c6e:	f440 0000 	orr.w	r0, r0, #8388608	; 0x800000
 8000c72:	4770      	bx	lr
 8000c74:	ea7f 6222 	mvns.w	r2, r2, asr #24
 8000c78:	bf16      	itet	ne
 8000c7a:	4608      	movne	r0, r1
 8000c7c:	ea7f 6323 	mvnseq.w	r3, r3, asr #24
 8000c80:	4601      	movne	r1, r0
 8000c82:	0242      	lsls	r2, r0, #9
 8000c84:	bf06      	itte	eq
 8000c86:	ea5f 2341 	movseq.w	r3, r1, lsl #9
 8000c8a:	ea90 0f01 	teqeq	r0, r1
 8000c8e:	f440 0080 	orrne.w	r0, r0, #4194304	; 0x400000
 8000c92:	4770      	bx	lr

08000c94 <__aeabi_ui2f>:
 8000c94:	f04f 0300 	mov.w	r3, #0
 8000c98:	e004      	b.n	8000ca4 <__aeabi_i2f+0x8>
 8000c9a:	bf00      	nop

08000c9c <__aeabi_i2f>:
 8000c9c:	f010 4300 	ands.w	r3, r0, #2147483648	; 0x80000000
 8000ca0:	bf48      	it	mi
 8000ca2:	4240      	negmi	r0, r0
 8000ca4:	ea5f 0c00 	movs.w	ip, r0
 8000ca8:	bf08      	it	eq
 8000caa:	4770      	bxeq	lr
 8000cac:	f043 4396 	orr.w	r3, r3, #1258291200	; 0x4b000000
 8000cb0:	4601      	mov	r1, r0
 8000cb2:	f04f 0000 	mov.w	r0, #0
 8000cb6:	e01c      	b.n	8000cf2 <__aeabi_l2f+0x2a>

08000cb8 <__aeabi_ul2f>:
 8000cb8:	ea50 0201 	orrs.w	r2, r0, r1
 8000cbc:	bf08      	it	eq
 8000cbe:	4770      	bxeq	lr
 8000cc0:	f04f 0300 	mov.w	r3, #0
 8000cc4:	e00a      	b.n	8000cdc <__aeabi_l2f+0x14>
 8000cc6:	bf00      	nop

08000cc8 <__aeabi_l2f>:
 8000cc8:	ea50 0201 	orrs.w	r2, r0, r1
 8000ccc:	bf08      	it	eq
 8000cce:	4770      	bxeq	lr
 8000cd0:	f011 4300 	ands.w	r3, r1, #2147483648	; 0x80000000
 8000cd4:	d502      	bpl.n	8000cdc <__aeabi_l2f+0x14>
 8000cd6:	4240      	negs	r0, r0
 8000cd8:	eb61 0141 	sbc.w	r1, r1, r1, lsl #1
 8000cdc:	ea5f 0c01 	movs.w	ip, r1
 8000ce0:	bf02      	ittt	eq
 8000ce2:	4684      	moveq	ip, r0
 8000ce4:	4601      	moveq	r1, r0
 8000ce6:	2000      	moveq	r0, #0
 8000ce8:	f043 43b6 	orr.w	r3, r3, #1526726656	; 0x5b000000
 8000cec:	bf08      	it	eq
 8000cee:	f1a3 5380 	subeq.w	r3, r3, #268435456	; 0x10000000
 8000cf2:	f5a3 0300 	sub.w	r3, r3, #8388608	; 0x800000
 8000cf6:	fabc f28c 	clz	r2, ip
 8000cfa:	3a08      	subs	r2, #8
 8000cfc:	eba3 53c2 	sub.w	r3, r3, r2, lsl #23
 8000d00:	db10      	blt.n	8000d24 <__aeabi_l2f+0x5c>
 8000d02:	fa01 fc02 	lsl.w	ip, r1, r2
 8000d06:	4463      	add	r3, ip
 8000d08:	fa00 fc02 	lsl.w	ip, r0, r2
 8000d0c:	f1c2 0220 	rsb	r2, r2, #32
 8000d10:	f1bc 4f00 	cmp.w	ip, #2147483648	; 0x80000000
 8000d14:	fa20 f202 	lsr.w	r2, r0, r2
 8000d18:	eb43 0002 	adc.w	r0, r3, r2
 8000d1c:	bf08      	it	eq
 8000d1e:	f020 0001 	biceq.w	r0, r0, #1
 8000d22:	4770      	bx	lr
 8000d24:	f102 0220 	add.w	r2, r2, #32
 8000d28:	fa01 fc02 	lsl.w	ip, r1, r2
 8000d2c:	f1c2 0220 	rsb	r2, r2, #32
 8000d30:	ea50 004c 	orrs.w	r0, r0, ip, lsl #1
 8000d34:	fa21 f202 	lsr.w	r2, r1, r2
 8000d38:	eb43 0002 	adc.w	r0, r3, r2
 8000d3c:	bf08      	it	eq
 8000d3e:	ea20 70dc 	biceq.w	r0, r0, ip, lsr #31
 8000d42:	4770      	bx	lr

08000d44 <__aeabi_fmul>:
 8000d44:	f04f 0cff 	mov.w	ip, #255	; 0xff
 8000d48:	ea1c 52d0 	ands.w	r2, ip, r0, lsr #23
 8000d4c:	bf1e      	ittt	ne
 8000d4e:	ea1c 53d1 	andsne.w	r3, ip, r1, lsr #23
 8000d52:	ea92 0f0c 	teqne	r2, ip
 8000d56:	ea93 0f0c 	teqne	r3, ip
 8000d5a:	d06f      	beq.n	8000e3c <__aeabi_fmul+0xf8>
 8000d5c:	441a      	add	r2, r3
 8000d5e:	ea80 0c01 	eor.w	ip, r0, r1
 8000d62:	0240      	lsls	r0, r0, #9
 8000d64:	bf18      	it	ne
 8000d66:	ea5f 2141 	movsne.w	r1, r1, lsl #9
 8000d6a:	d01e      	beq.n	8000daa <__aeabi_fmul+0x66>
 8000d6c:	f04f 6300 	mov.w	r3, #134217728	; 0x8000000
 8000d70:	ea43 1050 	orr.w	r0, r3, r0, lsr #5
 8000d74:	ea43 1151 	orr.w	r1, r3, r1, lsr #5
 8000d78:	fba0 3101 	umull	r3, r1, r0, r1
 8000d7c:	f00c 4000 	and.w	r0, ip, #2147483648	; 0x80000000
 8000d80:	f5b1 0f00 	cmp.w	r1, #8388608	; 0x800000
 8000d84:	bf3e      	ittt	cc
 8000d86:	0049      	lslcc	r1, r1, #1
 8000d88:	ea41 71d3 	orrcc.w	r1, r1, r3, lsr #31
 8000d8c:	005b      	lslcc	r3, r3, #1
 8000d8e:	ea40 0001 	orr.w	r0, r0, r1
 8000d92:	f162 027f 	sbc.w	r2, r2, #127	; 0x7f
 8000d96:	2afd      	cmp	r2, #253	; 0xfd
 8000d98:	d81d      	bhi.n	8000dd6 <__aeabi_fmul+0x92>
 8000d9a:	f1b3 4f00 	cmp.w	r3, #2147483648	; 0x80000000
 8000d9e:	eb40 50c2 	adc.w	r0, r0, r2, lsl #23
 8000da2:	bf08      	it	eq
 8000da4:	f020 0001 	biceq.w	r0, r0, #1
 8000da8:	4770      	bx	lr
 8000daa:	f090 0f00 	teq	r0, #0
 8000dae:	f00c 4c00 	and.w	ip, ip, #2147483648	; 0x80000000
 8000db2:	bf08      	it	eq
 8000db4:	0249      	lsleq	r1, r1, #9
 8000db6:	ea4c 2050 	orr.w	r0, ip, r0, lsr #9
 8000dba:	ea40 2051 	orr.w	r0, r0, r1, lsr #9
 8000dbe:	3a7f      	subs	r2, #127	; 0x7f
 8000dc0:	bfc2      	ittt	gt
 8000dc2:	f1d2 03ff 	rsbsgt	r3, r2, #255	; 0xff
 8000dc6:	ea40 50c2 	orrgt.w	r0, r0, r2, lsl #23
 8000dca:	4770      	bxgt	lr
 8000dcc:	f440 0000 	orr.w	r0, r0, #8388608	; 0x800000
 8000dd0:	f04f 0300 	mov.w	r3, #0
 8000dd4:	3a01      	subs	r2, #1
 8000dd6:	dc5d      	bgt.n	8000e94 <__aeabi_fmul+0x150>
 8000dd8:	f112 0f19 	cmn.w	r2, #25
 8000ddc:	bfdc      	itt	le
 8000dde:	f000 4000 	andle.w	r0, r0, #2147483648	; 0x80000000
 8000de2:	4770      	bxle	lr
 8000de4:	f1c2 0200 	rsb	r2, r2, #0
 8000de8:	0041      	lsls	r1, r0, #1
 8000dea:	fa21 f102 	lsr.w	r1, r1, r2
 8000dee:	f1c2 0220 	rsb	r2, r2, #32
 8000df2:	fa00 fc02 	lsl.w	ip, r0, r2
 8000df6:	ea5f 0031 	movs.w	r0, r1, rrx
 8000dfa:	f140 0000 	adc.w	r0, r0, #0
 8000dfe:	ea53 034c 	orrs.w	r3, r3, ip, lsl #1
 8000e02:	bf08      	it	eq
 8000e04:	ea20 70dc 	biceq.w	r0, r0, ip, lsr #31
 8000e08:	4770      	bx	lr
 8000e0a:	f092 0f00 	teq	r2, #0
 8000e0e:	f000 4c00 	and.w	ip, r0, #2147483648	; 0x80000000
 8000e12:	bf02      	ittt	eq
 8000e14:	0040      	lsleq	r0, r0, #1
 8000e16:	f410 0f00 	tsteq.w	r0, #8388608	; 0x800000
 8000e1a:	3a01      	subeq	r2, #1
 8000e1c:	d0f9      	beq.n	8000e12 <__aeabi_fmul+0xce>
 8000e1e:	ea40 000c 	orr.w	r0, r0, ip
 8000e22:	f093 0f00 	teq	r3, #0
 8000e26:	f001 4c00 	and.w	ip, r1, #2147483648	; 0x80000000
 8000e2a:	bf02      	ittt	eq
 8000e2c:	0049      	lsleq	r1, r1, #1
 8000e2e:	f411 0f00 	tsteq.w	r1, #8388608	; 0x800000
 8000e32:	3b01      	subeq	r3, #1
 8000e34:	d0f9      	beq.n	8000e2a <__aeabi_fmul+0xe6>
 8000e36:	ea41 010c 	orr.w	r1, r1, ip
 8000e3a:	e78f      	b.n	8000d5c <__aeabi_fmul+0x18>
 8000e3c:	ea0c 53d1 	and.w	r3, ip, r1, lsr #23
 8000e40:	ea92 0f0c 	teq	r2, ip
 8000e44:	bf18      	it	ne
 8000e46:	ea93 0f0c 	teqne	r3, ip
 8000e4a:	d00a      	beq.n	8000e62 <__aeabi_fmul+0x11e>
 8000e4c:	f030 4c00 	bics.w	ip, r0, #2147483648	; 0x80000000
 8000e50:	bf18      	it	ne
 8000e52:	f031 4c00 	bicsne.w	ip, r1, #2147483648	; 0x80000000
 8000e56:	d1d8      	bne.n	8000e0a <__aeabi_fmul+0xc6>
 8000e58:	ea80 0001 	eor.w	r0, r0, r1
 8000e5c:	f000 4000 	and.w	r0, r0, #2147483648	; 0x80000000
 8000e60:	4770      	bx	lr
 8000e62:	f090 0f00 	teq	r0, #0
 8000e66:	bf17      	itett	ne
 8000e68:	f090 4f00 	teqne	r0, #2147483648	; 0x80000000
 8000e6c:	4608      	moveq	r0, r1
 8000e6e:	f091 0f00 	teqne	r1, #0
 8000e72:	f091 4f00 	teqne	r1, #2147483648	; 0x80000000
 8000e76:	d014      	beq.n	8000ea2 <__aeabi_fmul+0x15e>
 8000e78:	ea92 0f0c 	teq	r2, ip
 8000e7c:	d101      	bne.n	8000e82 <__aeabi_fmul+0x13e>
 8000e7e:	0242      	lsls	r2, r0, #9
 8000e80:	d10f      	bne.n	8000ea2 <__aeabi_fmul+0x15e>
 8000e82:	ea93 0f0c 	teq	r3, ip
 8000e86:	d103      	bne.n	8000e90 <__aeabi_fmul+0x14c>
 8000e88:	024b      	lsls	r3, r1, #9
 8000e8a:	bf18      	it	ne
 8000e8c:	4608      	movne	r0, r1
 8000e8e:	d108      	bne.n	8000ea2 <__aeabi_fmul+0x15e>
 8000e90:	ea80 0001 	eor.w	r0, r0, r1
 8000e94:	f000 4000 	and.w	r0, r0, #2147483648	; 0x80000000
 8000e98:	f040 40fe 	orr.w	r0, r0, #2130706432	; 0x7f000000
 8000e9c:	f440 0000 	orr.w	r0, r0, #8388608	; 0x800000
 8000ea0:	4770      	bx	lr
 8000ea2:	f040 40fe 	orr.w	r0, r0, #2130706432	; 0x7f000000
 8000ea6:	f440 0040 	orr.w	r0, r0, #12582912	; 0xc00000
 8000eaa:	4770      	bx	lr

08000eac <__aeabi_fdiv>:
 8000eac:	f04f 0cff 	mov.w	ip, #255	; 0xff
 8000eb0:	ea1c 52d0 	ands.w	r2, ip, r0, lsr #23
 8000eb4:	bf1e      	ittt	ne
 8000eb6:	ea1c 53d1 	andsne.w	r3, ip, r1, lsr #23
 8000eba:	ea92 0f0c 	teqne	r2, ip
 8000ebe:	ea93 0f0c 	teqne	r3, ip
 8000ec2:	d069      	beq.n	8000f98 <__aeabi_fdiv+0xec>
 8000ec4:	eba2 0203 	sub.w	r2, r2, r3
 8000ec8:	ea80 0c01 	eor.w	ip, r0, r1
 8000ecc:	0249      	lsls	r1, r1, #9
 8000ece:	ea4f 2040 	mov.w	r0, r0, lsl #9
 8000ed2:	d037      	beq.n	8000f44 <__aeabi_fdiv+0x98>
 8000ed4:	f04f 5380 	mov.w	r3, #268435456	; 0x10000000
 8000ed8:	ea43 1111 	orr.w	r1, r3, r1, lsr #4
 8000edc:	ea43 1310 	orr.w	r3, r3, r0, lsr #4
 8000ee0:	f00c 4000 	and.w	r0, ip, #2147483648	; 0x80000000
 8000ee4:	428b      	cmp	r3, r1
 8000ee6:	bf38      	it	cc
 8000ee8:	005b      	lslcc	r3, r3, #1
 8000eea:	f142 027d 	adc.w	r2, r2, #125	; 0x7d
 8000eee:	f44f 0c00 	mov.w	ip, #8388608	; 0x800000
 8000ef2:	428b      	cmp	r3, r1
 8000ef4:	bf24      	itt	cs
 8000ef6:	1a5b      	subcs	r3, r3, r1
 8000ef8:	ea40 000c 	orrcs.w	r0, r0, ip
 8000efc:	ebb3 0f51 	cmp.w	r3, r1, lsr #1
 8000f00:	bf24      	itt	cs
 8000f02:	eba3 0351 	subcs.w	r3, r3, r1, lsr #1
 8000f06:	ea40 005c 	orrcs.w	r0, r0, ip, lsr #1
 8000f0a:	ebb3 0f91 	cmp.w	r3, r1, lsr #2
 8000f0e:	bf24      	itt	cs
 8000f10:	eba3 0391 	subcs.w	r3, r3, r1, lsr #2
 8000f14:	ea40 009c 	orrcs.w	r0, r0, ip, lsr #2
 8000f18:	ebb3 0fd1 	cmp.w	r3, r1, lsr #3
 8000f1c:	bf24      	itt	cs
 8000f1e:	eba3 03d1 	subcs.w	r3, r3, r1, lsr #3
 8000f22:	ea40 00dc 	orrcs.w	r0, r0, ip, lsr #3
 8000f26:	011b      	lsls	r3, r3, #4
 8000f28:	bf18      	it	ne
 8000f2a:	ea5f 1c1c 	movsne.w	ip, ip, lsr #4
 8000f2e:	d1e0      	bne.n	8000ef2 <__aeabi_fdiv+0x46>
 8000f30:	2afd      	cmp	r2, #253	; 0xfd
 8000f32:	f63f af50 	bhi.w	8000dd6 <__aeabi_fmul+0x92>
 8000f36:	428b      	cmp	r3, r1
 8000f38:	eb40 50c2 	adc.w	r0, r0, r2, lsl #23
 8000f3c:	bf08      	it	eq
 8000f3e:	f020 0001 	biceq.w	r0, r0, #1
 8000f42:	4770      	bx	lr
 8000f44:	f00c 4c00 	and.w	ip, ip, #2147483648	; 0x80000000
 8000f48:	ea4c 2050 	orr.w	r0, ip, r0, lsr #9
 8000f4c:	327f      	adds	r2, #127	; 0x7f
 8000f4e:	bfc2      	ittt	gt
 8000f50:	f1d2 03ff 	rsbsgt	r3, r2, #255	; 0xff
 8000f54:	ea40 50c2 	orrgt.w	r0, r0, r2, lsl #23
 8000f58:	4770      	bxgt	lr
 8000f5a:	f440 0000 	orr.w	r0, r0, #8388608	; 0x800000
 8000f5e:	f04f 0300 	mov.w	r3, #0
 8000f62:	3a01      	subs	r2, #1
 8000f64:	e737      	b.n	8000dd6 <__aeabi_fmul+0x92>
 8000f66:	f092 0f00 	teq	r2, #0
 8000f6a:	f000 4c00 	and.w	ip, r0, #2147483648	; 0x80000000
 8000f6e:	bf02      	ittt	eq
 8000f70:	0040      	lsleq	r0, r0, #1
 8000f72:	f410 0f00 	tsteq.w	r0, #8388608	; 0x800000
 8000f76:	3a01      	subeq	r2, #1
 8000f78:	d0f9      	beq.n	8000f6e <__aeabi_fdiv+0xc2>
 8000f7a:	ea40 000c 	orr.w	r0, r0, ip
 8000f7e:	f093 0f00 	teq	r3, #0
 8000f82:	f001 4c00 	and.w	ip, r1, #2147483648	; 0x80000000
 8000f86:	bf02      	ittt	eq
 8000f88:	0049      	lsleq	r1, r1, #1
 8000f8a:	f411 0f00 	tsteq.w	r1, #8388608	; 0x800000
 8000f8e:	3b01      	subeq	r3, #1
 8000f90:	d0f9      	beq.n	8000f86 <__aeabi_fdiv+0xda>
 8000f92:	ea41 010c 	orr.w	r1, r1, ip
 8000f96:	e795      	b.n	8000ec4 <__aeabi_fdiv+0x18>
 8000f98:	ea0c 53d1 	and.w	r3, ip, r1, lsr #23
 8000f9c:	ea92 0f0c 	teq	r2, ip
 8000fa0:	d108      	bne.n	8000fb4 <__aeabi_fdiv+0x108>
 8000fa2:	0242      	lsls	r2, r0, #9
 8000fa4:	f47f af7d 	bne.w	8000ea2 <__aeabi_fmul+0x15e>
 8000fa8:	ea93 0f0c 	teq	r3, ip
 8000fac:	f47f af70 	bne.w	8000e90 <__aeabi_fmul+0x14c>
 8000fb0:	4608      	mov	r0, r1
 8000fb2:	e776      	b.n	8000ea2 <__aeabi_fmul+0x15e>
 8000fb4:	ea93 0f0c 	teq	r3, ip
 8000fb8:	d104      	bne.n	8000fc4 <__aeabi_fdiv+0x118>
 8000fba:	024b      	lsls	r3, r1, #9
 8000fbc:	f43f af4c 	beq.w	8000e58 <__aeabi_fmul+0x114>
 8000fc0:	4608      	mov	r0, r1
 8000fc2:	e76e      	b.n	8000ea2 <__aeabi_fmul+0x15e>
 8000fc4:	f030 4c00 	bics.w	ip, r0, #2147483648	; 0x80000000
 8000fc8:	bf18      	it	ne
 8000fca:	f031 4c00 	bicsne.w	ip, r1, #2147483648	; 0x80000000
 8000fce:	d1ca      	bne.n	8000f66 <__aeabi_fdiv+0xba>
 8000fd0:	f030 4200 	bics.w	r2, r0, #2147483648	; 0x80000000
 8000fd4:	f47f af5c 	bne.w	8000e90 <__aeabi_fmul+0x14c>
 8000fd8:	f031 4300 	bics.w	r3, r1, #2147483648	; 0x80000000
 8000fdc:	f47f af3c 	bne.w	8000e58 <__aeabi_fmul+0x114>
 8000fe0:	e75f      	b.n	8000ea2 <__aeabi_fmul+0x15e>
 8000fe2:	bf00      	nop

08000fe4 <__gesf2>:
 8000fe4:	f04f 3cff 	mov.w	ip, #4294967295
 8000fe8:	e006      	b.n	8000ff8 <__cmpsf2+0x4>
 8000fea:	bf00      	nop

08000fec <__lesf2>:
 8000fec:	f04f 0c01 	mov.w	ip, #1
 8000ff0:	e002      	b.n	8000ff8 <__cmpsf2+0x4>
 8000ff2:	bf00      	nop

08000ff4 <__cmpsf2>:
 8000ff4:	f04f 0c01 	mov.w	ip, #1
 8000ff8:	f84d cd04 	str.w	ip, [sp, #-4]!
 8000ffc:	ea4f 0240 	mov.w	r2, r0, lsl #1
 8001000:	ea4f 0341 	mov.w	r3, r1, lsl #1
 8001004:	ea7f 6c22 	mvns.w	ip, r2, asr #24
 8001008:	bf18      	it	ne
 800100a:	ea7f 6c23 	mvnsne.w	ip, r3, asr #24
 800100e:	d011      	beq.n	8001034 <__cmpsf2+0x40>
 8001010:	b001      	add	sp, #4
 8001012:	ea52 0c53 	orrs.w	ip, r2, r3, lsr #1
 8001016:	bf18      	it	ne
 8001018:	ea90 0f01 	teqne	r0, r1
 800101c:	bf58      	it	pl
 800101e:	ebb2 0003 	subspl.w	r0, r2, r3
 8001022:	bf88      	it	hi
 8001024:	17c8      	asrhi	r0, r1, #31
 8001026:	bf38      	it	cc
 8001028:	ea6f 70e1 	mvncc.w	r0, r1, asr #31
 800102c:	bf18      	it	ne
 800102e:	f040 0001 	orrne.w	r0, r0, #1
 8001032:	4770      	bx	lr
 8001034:	ea7f 6c22 	mvns.w	ip, r2, asr #24
 8001038:	d102      	bne.n	8001040 <__cmpsf2+0x4c>
 800103a:	ea5f 2c40 	movs.w	ip, r0, lsl #9
 800103e:	d105      	bne.n	800104c <__cmpsf2+0x58>
 8001040:	ea7f 6c23 	mvns.w	ip, r3, asr #24
 8001044:	d1e4      	bne.n	8001010 <__cmpsf2+0x1c>
 8001046:	ea5f 2c41 	movs.w	ip, r1, lsl #9
 800104a:	d0e1      	beq.n	8001010 <__cmpsf2+0x1c>
 800104c:	f85d 0b04 	ldr.w	r0, [sp], #4
 8001050:	4770      	bx	lr
 8001052:	bf00      	nop

08001054 <__aeabi_cfrcmple>:
 8001054:	4684      	mov	ip, r0
 8001056:	4608      	mov	r0, r1
 8001058:	4661      	mov	r1, ip
 800105a:	e7ff      	b.n	800105c <__aeabi_cfcmpeq>

0800105c <__aeabi_cfcmpeq>:
 800105c:	b50f      	push	{r0, r1, r2, r3, lr}
 800105e:	f7ff ffc9 	bl	8000ff4 <__cmpsf2>
 8001062:	2800      	cmp	r0, #0
 8001064:	bf48      	it	mi
 8001066:	f110 0f00 	cmnmi.w	r0, #0
 800106a:	bd0f      	pop	{r0, r1, r2, r3, pc}

0800106c <__aeabi_fcmpeq>:
 800106c:	f84d ed08 	str.w	lr, [sp, #-8]!
 8001070:	f7ff fff4 	bl	800105c <__aeabi_cfcmpeq>
 8001074:	bf0c      	ite	eq
 8001076:	2001      	moveq	r0, #1
 8001078:	2000      	movne	r0, #0
 800107a:	f85d fb08 	ldr.w	pc, [sp], #8
 800107e:	bf00      	nop

08001080 <__aeabi_fcmplt>:
 8001080:	f84d ed08 	str.w	lr, [sp, #-8]!
 8001084:	f7ff ffea 	bl	800105c <__aeabi_cfcmpeq>
 8001088:	bf34      	ite	cc
 800108a:	2001      	movcc	r0, #1
 800108c:	2000      	movcs	r0, #0
 800108e:	f85d fb08 	ldr.w	pc, [sp], #8
 8001092:	bf00      	nop

08001094 <__aeabi_fcmple>:
 8001094:	f84d ed08 	str.w	lr, [sp, #-8]!
 8001098:	f7ff ffe0 	bl	800105c <__aeabi_cfcmpeq>
 800109c:	bf94      	ite	ls
 800109e:	2001      	movls	r0, #1
 80010a0:	2000      	movhi	r0, #0
 80010a2:	f85d fb08 	ldr.w	pc, [sp], #8
 80010a6:	bf00      	nop

080010a8 <__aeabi_fcmpge>:
 80010a8:	f84d ed08 	str.w	lr, [sp, #-8]!
 80010ac:	f7ff ffd2 	bl	8001054 <__aeabi_cfrcmple>
 80010b0:	bf94      	ite	ls
 80010b2:	2001      	movls	r0, #1
 80010b4:	2000      	movhi	r0, #0
 80010b6:	f85d fb08 	ldr.w	pc, [sp], #8
 80010ba:	bf00      	nop

080010bc <__aeabi_fcmpgt>:
 80010bc:	f84d ed08 	str.w	lr, [sp, #-8]!
 80010c0:	f7ff ffc8 	bl	8001054 <__aeabi_cfrcmple>
 80010c4:	bf34      	ite	cc
 80010c6:	2001      	movcc	r0, #1
 80010c8:	2000      	movcs	r0, #0
 80010ca:	f85d fb08 	ldr.w	pc, [sp], #8
 80010ce:	bf00      	nop

080010d0 <__aeabi_f2iz>:
 80010d0:	ea4f 0240 	mov.w	r2, r0, lsl #1
 80010d4:	f1b2 4ffe 	cmp.w	r2, #2130706432	; 0x7f000000
 80010d8:	d30f      	bcc.n	80010fa <__aeabi_f2iz+0x2a>
 80010da:	f04f 039e 	mov.w	r3, #158	; 0x9e
 80010de:	ebb3 6212 	subs.w	r2, r3, r2, lsr #24
 80010e2:	d90d      	bls.n	8001100 <__aeabi_f2iz+0x30>
 80010e4:	ea4f 2300 	mov.w	r3, r0, lsl #8
 80010e8:	f043 4300 	orr.w	r3, r3, #2147483648	; 0x80000000
 80010ec:	f010 4f00 	tst.w	r0, #2147483648	; 0x80000000
 80010f0:	fa23 f002 	lsr.w	r0, r3, r2
 80010f4:	bf18      	it	ne
 80010f6:	4240      	negne	r0, r0
 80010f8:	4770      	bx	lr
 80010fa:	f04f 0000 	mov.w	r0, #0
 80010fe:	4770      	bx	lr
 8001100:	f112 0f61 	cmn.w	r2, #97	; 0x61
 8001104:	d101      	bne.n	800110a <__aeabi_f2iz+0x3a>
 8001106:	0242      	lsls	r2, r0, #9
 8001108:	d105      	bne.n	8001116 <__aeabi_f2iz+0x46>
 800110a:	f010 4000 	ands.w	r0, r0, #2147483648	; 0x80000000
 800110e:	bf08      	it	eq
 8001110:	f06f 4000 	mvneq.w	r0, #2147483648	; 0x80000000
 8001114:	4770      	bx	lr
 8001116:	f04f 0000 	mov.w	r0, #0
 800111a:	4770      	bx	lr

0800111c <__aeabi_f2uiz>:
 800111c:	0042      	lsls	r2, r0, #1
 800111e:	d20e      	bcs.n	800113e <__aeabi_f2uiz+0x22>
 8001120:	f1b2 4ffe 	cmp.w	r2, #2130706432	; 0x7f000000
 8001124:	d30b      	bcc.n	800113e <__aeabi_f2uiz+0x22>
 8001126:	f04f 039e 	mov.w	r3, #158	; 0x9e
 800112a:	ebb3 6212 	subs.w	r2, r3, r2, lsr #24
 800112e:	d409      	bmi.n	8001144 <__aeabi_f2uiz+0x28>
 8001130:	ea4f 2300 	mov.w	r3, r0, lsl #8
 8001134:	f043 4300 	orr.w	r3, r3, #2147483648	; 0x80000000
 8001138:	fa23 f002 	lsr.w	r0, r3, r2
 800113c:	4770      	bx	lr
 800113e:	f04f 0000 	mov.w	r0, #0
 8001142:	4770      	bx	lr
 8001144:	f112 0f61 	cmn.w	r2, #97	; 0x61
 8001148:	d101      	bne.n	800114e <__aeabi_f2uiz+0x32>
 800114a:	0242      	lsls	r2, r0, #9
 800114c:	d102      	bne.n	8001154 <__aeabi_f2uiz+0x38>
 800114e:	f04f 30ff 	mov.w	r0, #4294967295
 8001152:	4770      	bx	lr
 8001154:	f04f 0000 	mov.w	r0, #0
 8001158:	4770      	bx	lr
 800115a:	bf00      	nop

0800115c <SBR1_init>:
static const float u_PS_p[] = { 0.3333f };
static const float u_PM_p[] = { 0.4500f };//0.6670
static const float u_PB_p[] = { 1.0000f };


void SBR1_init( void ){
 800115c:	b580      	push	{r7, lr}
 800115e:	b08a      	sub	sp, #40	; 0x28
 8001160:	af0a      	add	r7, sp, #40	; 0x28
    /* Set inputs */
    qFIS_InputSetup( SBR1_inputs, theta, -1.0000f, 1.0000f );
 8001162:	f04f 537e 	mov.w	r3, #1065353216	; 0x3f800000
 8001166:	4a8d      	ldr	r2, [pc, #564]	; (800139c <SBR1_init+0x240>)
 8001168:	2100      	movs	r1, #0
 800116a:	488d      	ldr	r0, [pc, #564]	; (80013a0 <SBR1_init+0x244>)
 800116c:	f001 fcda 	bl	8002b24 <qFIS_InputSetup>
    qFIS_InputSetup( SBR1_inputs, thetadot, -1.0000f, 1.0000f );
 8001170:	f04f 537e 	mov.w	r3, #1065353216	; 0x3f800000
 8001174:	4a89      	ldr	r2, [pc, #548]	; (800139c <SBR1_init+0x240>)
 8001176:	2101      	movs	r1, #1
 8001178:	4889      	ldr	r0, [pc, #548]	; (80013a0 <SBR1_init+0x244>)
 800117a:	f001 fcd3 	bl	8002b24 <qFIS_InputSetup>
    /* Set outputs */
    qFIS_OutputSetup( SBR1_outputs, u, -1.0000f, 1.0000f );
 800117e:	f04f 537e 	mov.w	r3, #1065353216	; 0x3f800000
 8001182:	4a86      	ldr	r2, [pc, #536]	; (800139c <SBR1_init+0x240>)
 8001184:	2100      	movs	r1, #0
 8001186:	4887      	ldr	r0, [pc, #540]	; (80013a4 <SBR1_init+0x248>)
 8001188:	f001 fcf7 	bl	8002b7a <qFIS_OutputSetup>
    /* Set membership functions for the inputs */
    qFIS_SetMF( MFin, theta, theta_NB, trapmf, NULL, theta_NB_p, 1.0f );
 800118c:	f04f 537e 	mov.w	r3, #1065353216	; 0x3f800000
 8001190:	9302      	str	r3, [sp, #8]
 8001192:	4b85      	ldr	r3, [pc, #532]	; (80013a8 <SBR1_init+0x24c>)
 8001194:	9301      	str	r3, [sp, #4]
 8001196:	2300      	movs	r3, #0
 8001198:	9300      	str	r3, [sp, #0]
 800119a:	2302      	movs	r3, #2
 800119c:	2200      	movs	r2, #0
 800119e:	2100      	movs	r1, #0
 80011a0:	4882      	ldr	r0, [pc, #520]	; (80013ac <SBR1_init+0x250>)
 80011a2:	f001 fd93 	bl	8002ccc <qFIS_SetMF>
    qFIS_SetMF( MFin, theta, theta_NS, trapmf, NULL, theta_NS_p, 1.0f );
 80011a6:	f04f 537e 	mov.w	r3, #1065353216	; 0x3f800000
 80011aa:	9302      	str	r3, [sp, #8]
 80011ac:	4b80      	ldr	r3, [pc, #512]	; (80013b0 <SBR1_init+0x254>)
 80011ae:	9301      	str	r3, [sp, #4]
 80011b0:	2300      	movs	r3, #0
 80011b2:	9300      	str	r3, [sp, #0]
 80011b4:	2302      	movs	r3, #2
 80011b6:	2201      	movs	r2, #1
 80011b8:	2100      	movs	r1, #0
 80011ba:	487c      	ldr	r0, [pc, #496]	; (80013ac <SBR1_init+0x250>)
 80011bc:	f001 fd86 	bl	8002ccc <qFIS_SetMF>
    qFIS_SetMF( MFin, theta, theta_ZE, trimf, NULL, theta_ZE_p, 1.0f );
 80011c0:	f04f 537e 	mov.w	r3, #1065353216	; 0x3f800000
 80011c4:	9302      	str	r3, [sp, #8]
 80011c6:	4b7b      	ldr	r3, [pc, #492]	; (80013b4 <SBR1_init+0x258>)
 80011c8:	9301      	str	r3, [sp, #4]
 80011ca:	2300      	movs	r3, #0
 80011cc:	9300      	str	r3, [sp, #0]
 80011ce:	2301      	movs	r3, #1
 80011d0:	2202      	movs	r2, #2
 80011d2:	2100      	movs	r1, #0
 80011d4:	4875      	ldr	r0, [pc, #468]	; (80013ac <SBR1_init+0x250>)
 80011d6:	f001 fd79 	bl	8002ccc <qFIS_SetMF>
    qFIS_SetMF( MFin, theta, theta_PS, trapmf, NULL, theta_PS_p, 1.0f );
 80011da:	f04f 537e 	mov.w	r3, #1065353216	; 0x3f800000
 80011de:	9302      	str	r3, [sp, #8]
 80011e0:	4b75      	ldr	r3, [pc, #468]	; (80013b8 <SBR1_init+0x25c>)
 80011e2:	9301      	str	r3, [sp, #4]
 80011e4:	2300      	movs	r3, #0
 80011e6:	9300      	str	r3, [sp, #0]
 80011e8:	2302      	movs	r3, #2
 80011ea:	2203      	movs	r2, #3
 80011ec:	2100      	movs	r1, #0
 80011ee:	486f      	ldr	r0, [pc, #444]	; (80013ac <SBR1_init+0x250>)
 80011f0:	f001 fd6c 	bl	8002ccc <qFIS_SetMF>
    qFIS_SetMF( MFin, theta, theta_PB, trapmf, NULL, theta_PB_p, 1.0f );
 80011f4:	f04f 537e 	mov.w	r3, #1065353216	; 0x3f800000
 80011f8:	9302      	str	r3, [sp, #8]
 80011fa:	4b70      	ldr	r3, [pc, #448]	; (80013bc <SBR1_init+0x260>)
 80011fc:	9301      	str	r3, [sp, #4]
 80011fe:	2300      	movs	r3, #0
 8001200:	9300      	str	r3, [sp, #0]
 8001202:	2302      	movs	r3, #2
 8001204:	2204      	movs	r2, #4
 8001206:	2100      	movs	r1, #0
 8001208:	4868      	ldr	r0, [pc, #416]	; (80013ac <SBR1_init+0x250>)
 800120a:	f001 fd5f 	bl	8002ccc <qFIS_SetMF>
    qFIS_SetMF( MFin, thetadot, thetadot_NB, trimf, NULL, thetadot_NB_p, 1.0f );
 800120e:	f04f 537e 	mov.w	r3, #1065353216	; 0x3f800000
 8001212:	9302      	str	r3, [sp, #8]
 8001214:	4b6a      	ldr	r3, [pc, #424]	; (80013c0 <SBR1_init+0x264>)
 8001216:	9301      	str	r3, [sp, #4]
 8001218:	2300      	movs	r3, #0
 800121a:	9300      	str	r3, [sp, #0]
 800121c:	2301      	movs	r3, #1
 800121e:	2205      	movs	r2, #5
 8001220:	2101      	movs	r1, #1
 8001222:	4862      	ldr	r0, [pc, #392]	; (80013ac <SBR1_init+0x250>)
 8001224:	f001 fd52 	bl	8002ccc <qFIS_SetMF>
    qFIS_SetMF( MFin, thetadot, thetadot_NS, trimf, NULL, thetadot_NS_p, 1.0f );
 8001228:	f04f 537e 	mov.w	r3, #1065353216	; 0x3f800000
 800122c:	9302      	str	r3, [sp, #8]
 800122e:	4b65      	ldr	r3, [pc, #404]	; (80013c4 <SBR1_init+0x268>)
 8001230:	9301      	str	r3, [sp, #4]
 8001232:	2300      	movs	r3, #0
 8001234:	9300      	str	r3, [sp, #0]
 8001236:	2301      	movs	r3, #1
 8001238:	2206      	movs	r2, #6
 800123a:	2101      	movs	r1, #1
 800123c:	485b      	ldr	r0, [pc, #364]	; (80013ac <SBR1_init+0x250>)
 800123e:	f001 fd45 	bl	8002ccc <qFIS_SetMF>
    qFIS_SetMF( MFin, thetadot, thetadot_ZE, trimf, NULL, thetadot_ZE_p, 1.0f );
 8001242:	f04f 537e 	mov.w	r3, #1065353216	; 0x3f800000
 8001246:	9302      	str	r3, [sp, #8]
 8001248:	4b5f      	ldr	r3, [pc, #380]	; (80013c8 <SBR1_init+0x26c>)
 800124a:	9301      	str	r3, [sp, #4]
 800124c:	2300      	movs	r3, #0
 800124e:	9300      	str	r3, [sp, #0]
 8001250:	2301      	movs	r3, #1
 8001252:	2207      	movs	r2, #7
 8001254:	2101      	movs	r1, #1
 8001256:	4855      	ldr	r0, [pc, #340]	; (80013ac <SBR1_init+0x250>)
 8001258:	f001 fd38 	bl	8002ccc <qFIS_SetMF>
    qFIS_SetMF( MFin, thetadot, thetadot_PS, trimf, NULL, thetadot_PS_p, 1.0f );
 800125c:	f04f 537e 	mov.w	r3, #1065353216	; 0x3f800000
 8001260:	9302      	str	r3, [sp, #8]
 8001262:	4b5a      	ldr	r3, [pc, #360]	; (80013cc <SBR1_init+0x270>)
 8001264:	9301      	str	r3, [sp, #4]
 8001266:	2300      	movs	r3, #0
 8001268:	9300      	str	r3, [sp, #0]
 800126a:	2301      	movs	r3, #1
 800126c:	2208      	movs	r2, #8
 800126e:	2101      	movs	r1, #1
 8001270:	484e      	ldr	r0, [pc, #312]	; (80013ac <SBR1_init+0x250>)
 8001272:	f001 fd2b 	bl	8002ccc <qFIS_SetMF>
    qFIS_SetMF( MFin, thetadot, thetadot_PB, trimf, NULL, thetadot_PB_p, 1.0f );
 8001276:	f04f 537e 	mov.w	r3, #1065353216	; 0x3f800000
 800127a:	9302      	str	r3, [sp, #8]
 800127c:	4b54      	ldr	r3, [pc, #336]	; (80013d0 <SBR1_init+0x274>)
 800127e:	9301      	str	r3, [sp, #4]
 8001280:	2300      	movs	r3, #0
 8001282:	9300      	str	r3, [sp, #0]
 8001284:	2301      	movs	r3, #1
 8001286:	2209      	movs	r2, #9
 8001288:	2101      	movs	r1, #1
 800128a:	4848      	ldr	r0, [pc, #288]	; (80013ac <SBR1_init+0x250>)
 800128c:	f001 fd1e 	bl	8002ccc <qFIS_SetMF>
    /* Set membership functions for the outputs */
    qFIS_SetMF( MFout, u, u_NB, constantmf, NULL, u_NB_p, 1.0f );
 8001290:	f04f 537e 	mov.w	r3, #1065353216	; 0x3f800000
 8001294:	9302      	str	r3, [sp, #8]
 8001296:	4b4f      	ldr	r3, [pc, #316]	; (80013d4 <SBR1_init+0x278>)
 8001298:	9301      	str	r3, [sp, #4]
 800129a:	2300      	movs	r3, #0
 800129c:	9300      	str	r3, [sp, #0]
 800129e:	2313      	movs	r3, #19
 80012a0:	2200      	movs	r2, #0
 80012a2:	2100      	movs	r1, #0
 80012a4:	484c      	ldr	r0, [pc, #304]	; (80013d8 <SBR1_init+0x27c>)
 80012a6:	f001 fd11 	bl	8002ccc <qFIS_SetMF>
    qFIS_SetMF( MFout, u, u_NM, constantmf, NULL, u_NM_p, 1.0f );
 80012aa:	f04f 537e 	mov.w	r3, #1065353216	; 0x3f800000
 80012ae:	9302      	str	r3, [sp, #8]
 80012b0:	4b4a      	ldr	r3, [pc, #296]	; (80013dc <SBR1_init+0x280>)
 80012b2:	9301      	str	r3, [sp, #4]
 80012b4:	2300      	movs	r3, #0
 80012b6:	9300      	str	r3, [sp, #0]
 80012b8:	2313      	movs	r3, #19
 80012ba:	2201      	movs	r2, #1
 80012bc:	2100      	movs	r1, #0
 80012be:	4846      	ldr	r0, [pc, #280]	; (80013d8 <SBR1_init+0x27c>)
 80012c0:	f001 fd04 	bl	8002ccc <qFIS_SetMF>
    qFIS_SetMF( MFout, u, u_NS, constantmf, NULL, u_NS_p, 1.0f );
 80012c4:	f04f 537e 	mov.w	r3, #1065353216	; 0x3f800000
 80012c8:	9302      	str	r3, [sp, #8]
 80012ca:	4b45      	ldr	r3, [pc, #276]	; (80013e0 <SBR1_init+0x284>)
 80012cc:	9301      	str	r3, [sp, #4]
 80012ce:	2300      	movs	r3, #0
 80012d0:	9300      	str	r3, [sp, #0]
 80012d2:	2313      	movs	r3, #19
 80012d4:	2202      	movs	r2, #2
 80012d6:	2100      	movs	r1, #0
 80012d8:	483f      	ldr	r0, [pc, #252]	; (80013d8 <SBR1_init+0x27c>)
 80012da:	f001 fcf7 	bl	8002ccc <qFIS_SetMF>
    qFIS_SetMF( MFout, u, u_ZE, constantmf, NULL, u_ZE_p, 1.0f );
 80012de:	f04f 537e 	mov.w	r3, #1065353216	; 0x3f800000
 80012e2:	9302      	str	r3, [sp, #8]
 80012e4:	4b3f      	ldr	r3, [pc, #252]	; (80013e4 <SBR1_init+0x288>)
 80012e6:	9301      	str	r3, [sp, #4]
 80012e8:	2300      	movs	r3, #0
 80012ea:	9300      	str	r3, [sp, #0]
 80012ec:	2313      	movs	r3, #19
 80012ee:	2203      	movs	r2, #3
 80012f0:	2100      	movs	r1, #0
 80012f2:	4839      	ldr	r0, [pc, #228]	; (80013d8 <SBR1_init+0x27c>)
 80012f4:	f001 fcea 	bl	8002ccc <qFIS_SetMF>
    qFIS_SetMF( MFout, u, u_PS, constantmf, NULL, u_PS_p, 1.0f );
 80012f8:	f04f 537e 	mov.w	r3, #1065353216	; 0x3f800000
 80012fc:	9302      	str	r3, [sp, #8]
 80012fe:	4b3a      	ldr	r3, [pc, #232]	; (80013e8 <SBR1_init+0x28c>)
 8001300:	9301      	str	r3, [sp, #4]
 8001302:	2300      	movs	r3, #0
 8001304:	9300      	str	r3, [sp, #0]
 8001306:	2313      	movs	r3, #19
 8001308:	2204      	movs	r2, #4
 800130a:	2100      	movs	r1, #0
 800130c:	4832      	ldr	r0, [pc, #200]	; (80013d8 <SBR1_init+0x27c>)
 800130e:	f001 fcdd 	bl	8002ccc <qFIS_SetMF>
    qFIS_SetMF( MFout, u, u_PM, constantmf, NULL, u_PM_p, 1.0f );
 8001312:	f04f 537e 	mov.w	r3, #1065353216	; 0x3f800000
 8001316:	9302      	str	r3, [sp, #8]
 8001318:	4b34      	ldr	r3, [pc, #208]	; (80013ec <SBR1_init+0x290>)
 800131a:	9301      	str	r3, [sp, #4]
 800131c:	2300      	movs	r3, #0
 800131e:	9300      	str	r3, [sp, #0]
 8001320:	2313      	movs	r3, #19
 8001322:	2205      	movs	r2, #5
 8001324:	2100      	movs	r1, #0
 8001326:	482c      	ldr	r0, [pc, #176]	; (80013d8 <SBR1_init+0x27c>)
 8001328:	f001 fcd0 	bl	8002ccc <qFIS_SetMF>
    qFIS_SetMF( MFout, u, u_PB, constantmf, NULL, u_PB_p, 1.0f );
 800132c:	f04f 537e 	mov.w	r3, #1065353216	; 0x3f800000
 8001330:	9302      	str	r3, [sp, #8]
 8001332:	4b2f      	ldr	r3, [pc, #188]	; (80013f0 <SBR1_init+0x294>)
 8001334:	9301      	str	r3, [sp, #4]
 8001336:	2300      	movs	r3, #0
 8001338:	9300      	str	r3, [sp, #0]
 800133a:	2313      	movs	r3, #19
 800133c:	2206      	movs	r2, #6
 800133e:	2100      	movs	r1, #0
 8001340:	4825      	ldr	r0, [pc, #148]	; (80013d8 <SBR1_init+0x27c>)
 8001342:	f001 fcc3 	bl	8002ccc <qFIS_SetMF>

    /* Configure the Inference System */
    qFIS_Setup( &SBR1, Sugeno,
 8001346:	2319      	movs	r3, #25
 8001348:	9308      	str	r3, [sp, #32]
 800134a:	4b2a      	ldr	r3, [pc, #168]	; (80013f4 <SBR1_init+0x298>)
 800134c:	9307      	str	r3, [sp, #28]
 800134e:	4b2a      	ldr	r3, [pc, #168]	; (80013f8 <SBR1_init+0x29c>)
 8001350:	9306      	str	r3, [sp, #24]
 8001352:	238c      	movs	r3, #140	; 0x8c
 8001354:	9305      	str	r3, [sp, #20]
 8001356:	4b20      	ldr	r3, [pc, #128]	; (80013d8 <SBR1_init+0x27c>)
 8001358:	9304      	str	r3, [sp, #16]
 800135a:	23c8      	movs	r3, #200	; 0xc8
 800135c:	9303      	str	r3, [sp, #12]
 800135e:	4b13      	ldr	r3, [pc, #76]	; (80013ac <SBR1_init+0x250>)
 8001360:	9302      	str	r3, [sp, #8]
 8001362:	2334      	movs	r3, #52	; 0x34
 8001364:	9301      	str	r3, [sp, #4]
 8001366:	4b0f      	ldr	r3, [pc, #60]	; (80013a4 <SBR1_init+0x248>)
 8001368:	9300      	str	r3, [sp, #0]
 800136a:	2318      	movs	r3, #24
 800136c:	4a0c      	ldr	r2, [pc, #48]	; (80013a0 <SBR1_init+0x244>)
 800136e:	2101      	movs	r1, #1
 8001370:	4822      	ldr	r0, [pc, #136]	; (80013fc <SBR1_init+0x2a0>)
 8001372:	f001 faff 	bl	8002974 <qFIS_Setup>
                SBR1_inputs, sizeof(SBR1_inputs),
                SBR1_outputs, sizeof(SBR1_outputs),
                MFin, sizeof(MFin), MFout, sizeof(MFout),
                rules, rStrength, 25u );
    qFIS_SetParameter( &SBR1, qFIS_AND, qFIS_PROD );
 8001376:	2201      	movs	r2, #1
 8001378:	2102      	movs	r1, #2
 800137a:	4820      	ldr	r0, [pc, #128]	; (80013fc <SBR1_init+0x2a0>)
 800137c:	f001 fa8a 	bl	8002894 <qFIS_SetParameter>
    qFIS_SetParameter( &SBR1, qFIS_Implication, qFIS_PROD );
 8001380:	2201      	movs	r2, #1
 8001382:	2100      	movs	r1, #0
 8001384:	481d      	ldr	r0, [pc, #116]	; (80013fc <SBR1_init+0x2a0>)
 8001386:	f001 fa85 	bl	8002894 <qFIS_SetParameter>
    qFIS_SetParameter( &SBR1, qFIS_Aggregation, qFIS_SUM );
 800138a:	2204      	movs	r2, #4
 800138c:	2101      	movs	r1, #1
 800138e:	481b      	ldr	r0, [pc, #108]	; (80013fc <SBR1_init+0x2a0>)
 8001390:	f001 fa80 	bl	8002894 <qFIS_SetParameter>
}
 8001394:	bf00      	nop
 8001396:	46bd      	mov	sp, r7
 8001398:	bd80      	pop	{r7, pc}
 800139a:	bf00      	nop
 800139c:	bf800000 	.word	0xbf800000
 80013a0:	20000194 	.word	0x20000194
 80013a4:	200001ac 	.word	0x200001ac
 80013a8:	08009a04 	.word	0x08009a04
 80013ac:	200001e0 	.word	0x200001e0
 80013b0:	08009a14 	.word	0x08009a14
 80013b4:	08009a24 	.word	0x08009a24
 80013b8:	08009a30 	.word	0x08009a30
 80013bc:	08009a40 	.word	0x08009a40
 80013c0:	08009a50 	.word	0x08009a50
 80013c4:	08009a5c 	.word	0x08009a5c
 80013c8:	08009a68 	.word	0x08009a68
 80013cc:	08009a74 	.word	0x08009a74
 80013d0:	08009a80 	.word	0x08009a80
 80013d4:	08009a8c 	.word	0x08009a8c
 80013d8:	200002a8 	.word	0x200002a8
 80013dc:	08009a90 	.word	0x08009a90
 80013e0:	08009a94 	.word	0x08009a94
 80013e4:	08009a98 	.word	0x08009a98
 80013e8:	08009a9c 	.word	0x08009a9c
 80013ec:	08009aa0 	.word	0x08009aa0
 80013f0:	08009aa4 	.word	0x08009aa4
 80013f4:	20000334 	.word	0x20000334
 80013f8:	08009870 	.word	0x08009870
 80013fc:	20000134 	.word	0x20000134

08001400 <SBR1_run>:

void SBR1_run( float *inputs, float *outputs ) {
 8001400:	b580      	push	{r7, lr}
 8001402:	b082      	sub	sp, #8
 8001404:	af00      	add	r7, sp, #0
 8001406:	6078      	str	r0, [r7, #4]
 8001408:	6039      	str	r1, [r7, #0]
    /* Set the crips inputs */
    qFIS_SetInput( SBR1_inputs, theta, inputs[ theta ] );
 800140a:	687b      	ldr	r3, [r7, #4]
 800140c:	681b      	ldr	r3, [r3, #0]
 800140e:	461a      	mov	r2, r3
 8001410:	2100      	movs	r1, #0
 8001412:	4811      	ldr	r0, [pc, #68]	; (8001458 <SBR1_run+0x58>)
 8001414:	f001 fc1e 	bl	8002c54 <qFIS_SetInput>
    qFIS_SetInput( SBR1_inputs, thetadot, inputs[ thetadot ] );
 8001418:	687b      	ldr	r3, [r7, #4]
 800141a:	3304      	adds	r3, #4
 800141c:	681b      	ldr	r3, [r3, #0]
 800141e:	461a      	mov	r2, r3
 8001420:	2101      	movs	r1, #1
 8001422:	480d      	ldr	r0, [pc, #52]	; (8001458 <SBR1_run+0x58>)
 8001424:	f001 fc16 	bl	8002c54 <qFIS_SetInput>

    qFIS_Fuzzify( &SBR1 );
 8001428:	480c      	ldr	r0, [pc, #48]	; (800145c <SBR1_run+0x5c>)
 800142a:	f001 fd2e 	bl	8002e8a <qFIS_Fuzzify>
    if ( qFIS_Inference( &SBR1 ) > 0 ) {
 800142e:	480b      	ldr	r0, [pc, #44]	; (800145c <SBR1_run+0x5c>)
 8001430:	f002 f95a 	bl	80036e8 <qFIS_Inference>
 8001434:	4603      	mov	r3, r0
 8001436:	2b00      	cmp	r3, #0
 8001438:	dd02      	ble.n	8001440 <SBR1_run+0x40>
        qFIS_DeFuzzify( &SBR1 );
 800143a:	4808      	ldr	r0, [pc, #32]	; (800145c <SBR1_run+0x5c>)
 800143c:	f002 f811 	bl	8003462 <qFIS_DeFuzzify>
    else {
        /* Error! */
    }

    /* Get the crips outputs */
    outputs[ u ] = qFIS_GetOutput( SBR1_outputs, u );
 8001440:	2100      	movs	r1, #0
 8001442:	4807      	ldr	r0, [pc, #28]	; (8001460 <SBR1_run+0x60>)
 8001444:	f001 fc26 	bl	8002c94 <qFIS_GetOutput>
 8001448:	4602      	mov	r2, r0
 800144a:	683b      	ldr	r3, [r7, #0]
 800144c:	601a      	str	r2, [r3, #0]
}
 800144e:	bf00      	nop
 8001450:	3708      	adds	r7, #8
 8001452:	46bd      	mov	sp, r7
 8001454:	bd80      	pop	{r7, pc}
 8001456:	bf00      	nop
 8001458:	20000194 	.word	0x20000194
 800145c:	20000134 	.word	0x20000134
 8001460:	200001ac 	.word	0x200001ac

08001464 <HAL_TIM_PeriodElapsedCallback>:
/* USER CODE END PFP */

/* Private user code ---------------------------------------------------------*/
/* USER CODE BEGIN 0 */
void HAL_TIM_PeriodElapsedCallback(TIM_HandleTypeDef *htim)
{
 8001464:	b480      	push	{r7}
 8001466:	b083      	sub	sp, #12
 8001468:	af00      	add	r7, sp, #0
 800146a:	6078      	str	r0, [r7, #4]
	if(htim->Instance==TIM1)
 800146c:	687b      	ldr	r3, [r7, #4]
 800146e:	681b      	ldr	r3, [r3, #0]
 8001470:	4a05      	ldr	r2, [pc, #20]	; (8001488 <HAL_TIM_PeriodElapsedCallback+0x24>)
 8001472:	4293      	cmp	r3, r2
 8001474:	d102      	bne.n	800147c <HAL_TIM_PeriodElapsedCallback+0x18>
	{
		u8_flag_10ms = 1;
 8001476:	4b05      	ldr	r3, [pc, #20]	; (800148c <HAL_TIM_PeriodElapsedCallback+0x28>)
 8001478:	2201      	movs	r2, #1
 800147a:	701a      	strb	r2, [r3, #0]
	}
}
 800147c:	bf00      	nop
 800147e:	370c      	adds	r7, #12
 8001480:	46bd      	mov	sp, r7
 8001482:	bc80      	pop	{r7}
 8001484:	4770      	bx	lr
 8001486:	bf00      	nop
 8001488:	40012c00 	.word	0x40012c00
 800148c:	20000568 	.word	0x20000568

08001490 <main>:
/**
  * @brief  The application entry point.
  * @retval int
  */
int main(void)
{
 8001490:	b5b0      	push	{r4, r5, r7, lr}
 8001492:	b088      	sub	sp, #32
 8001494:	af04      	add	r7, sp, #16
  /* USER CODE END 1 */

  /* MCU Configuration--------------------------------------------------------*/

  /* Reset of all peripherals, Initializes the Flash interface and the Systick. */
  HAL_Init();
 8001496:	f003 fc15 	bl	8004cc4 <HAL_Init>

  /* USER CODE BEGIN Init */
	 SBR1_init();
 800149a:	f7ff fe5f 	bl	800115c <SBR1_init>
  /* USER CODE END Init */

  /* Configure the system clock */
  SystemClock_Config();
 800149e:	f000 f8bb 	bl	8001618 <SystemClock_Config>
  /* USER CODE BEGIN SysInit */

  /* USER CODE END SysInit */

  /* Initialize all configured peripherals */
  MX_GPIO_Init();
 80014a2:	f000 fa65 	bl	8001970 <MX_GPIO_Init>
  MX_I2C1_Init();
 80014a6:	f000 f8f3 	bl	8001690 <MX_I2C1_Init>
  MX_TIM1_Init();
 80014aa:	f000 f91f 	bl	80016ec <MX_TIM1_Init>
  MX_TIM3_Init();
 80014ae:	f000 f96d 	bl	800178c <MX_TIM3_Init>
  MX_TIM4_Init();
 80014b2:	f000 f9cf 	bl	8001854 <MX_TIM4_Init>
  MX_USART1_UART_Init();
 80014b6:	f000 fa31 	bl	800191c <MX_USART1_UART_Init>
  /* USER CODE BEGIN 2 */
  HAL_TIM_Base_Start_IT(&htim1);
 80014ba:	484b      	ldr	r0, [pc, #300]	; (80015e8 <main+0x158>)
 80014bc:	f005 fc7a 	bl	8006db4 <HAL_TIM_Base_Start_IT>
  Init_tim_pwm();
 80014c0:	f000 fb26 	bl	8001b10 <Init_tim_pwm>

  while (MPU6050_Init(&hi2c1) == 1);
 80014c4:	bf00      	nop
 80014c6:	4849      	ldr	r0, [pc, #292]	; (80015ec <main+0x15c>)
 80014c8:	f000 fc32 	bl	8001d30 <MPU6050_Init>
 80014cc:	4603      	mov	r3, r0
 80014ce:	2b01      	cmp	r3, #1
 80014d0:	d0f9      	beq.n	80014c6 <main+0x36>
  while (1)
  {
    /* USER CODE END WHILE */

    /* USER CODE BEGIN 3 */
	  if (u8_flag_10ms)
 80014d2:	4b47      	ldr	r3, [pc, #284]	; (80015f0 <main+0x160>)
 80014d4:	781b      	ldrb	r3, [r3, #0]
 80014d6:	2b00      	cmp	r3, #0
 80014d8:	d0fb      	beq.n	80014d2 <main+0x42>
	  {
		  u8_flag_10ms = 0;
 80014da:	4b45      	ldr	r3, [pc, #276]	; (80015f0 <main+0x160>)
 80014dc:	2200      	movs	r2, #0
 80014de:	701a      	strb	r2, [r3, #0]
		  MPU6050_Read_All(&hi2c1,&t_MPU6050);
 80014e0:	4944      	ldr	r1, [pc, #272]	; (80015f4 <main+0x164>)
 80014e2:	4842      	ldr	r0, [pc, #264]	; (80015ec <main+0x15c>)
 80014e4:	f000 fc7c 	bl	8001de0 <MPU6050_Read_All>
		  Controller (t_MPU6050.KalmanAngleY, t_MPU6050.Gy* RAD_TO_DEG, &t_fuzzy);
 80014e8:	4b42      	ldr	r3, [pc, #264]	; (80015f4 <main+0x164>)
 80014ea:	e9d3 4514 	ldrd	r4, r5, [r3, #80]	; 0x50
 80014ee:	4b41      	ldr	r3, [pc, #260]	; (80015f4 <main+0x164>)
 80014f0:	e9d3 010c 	ldrd	r0, r1, [r3, #48]	; 0x30
 80014f4:	a33a      	add	r3, pc, #232	; (adr r3, 80015e0 <main+0x150>)
 80014f6:	e9d3 2300 	ldrd	r2, r3, [r3]
 80014fa:	f7fe ffed 	bl	80004d8 <__aeabi_dmul>
 80014fe:	4602      	mov	r2, r0
 8001500:	460b      	mov	r3, r1
 8001502:	493d      	ldr	r1, [pc, #244]	; (80015f8 <main+0x168>)
 8001504:	9100      	str	r1, [sp, #0]
 8001506:	4620      	mov	r0, r4
 8001508:	4629      	mov	r1, r5
 800150a:	f000 fb7d 	bl	8001c08 <Controller>
		  int theta = t_MPU6050.KalmanAngleY*1000.0;
 800150e:	4b39      	ldr	r3, [pc, #228]	; (80015f4 <main+0x164>)
 8001510:	e9d3 0114 	ldrd	r0, r1, [r3, #80]	; 0x50
 8001514:	f04f 0200 	mov.w	r2, #0
 8001518:	4b38      	ldr	r3, [pc, #224]	; (80015fc <main+0x16c>)
 800151a:	f7fe ffdd 	bl	80004d8 <__aeabi_dmul>
 800151e:	4602      	mov	r2, r0
 8001520:	460b      	mov	r3, r1
 8001522:	4610      	mov	r0, r2
 8001524:	4619      	mov	r1, r3
 8001526:	f7ff fa87 	bl	8000a38 <__aeabi_d2iz>
 800152a:	4603      	mov	r3, r0
 800152c:	60fb      	str	r3, [r7, #12]
		  variable_view = theta;
 800152e:	4a34      	ldr	r2, [pc, #208]	; (8001600 <main+0x170>)
 8001530:	68fb      	ldr	r3, [r7, #12]
 8001532:	6013      	str	r3, [r2, #0]
		  int theta_dot = t_MPU6050.Gy* RAD_TO_DEG*1000.0;
 8001534:	4b2f      	ldr	r3, [pc, #188]	; (80015f4 <main+0x164>)
 8001536:	e9d3 010c 	ldrd	r0, r1, [r3, #48]	; 0x30
 800153a:	a329      	add	r3, pc, #164	; (adr r3, 80015e0 <main+0x150>)
 800153c:	e9d3 2300 	ldrd	r2, r3, [r3]
 8001540:	f7fe ffca 	bl	80004d8 <__aeabi_dmul>
 8001544:	4602      	mov	r2, r0
 8001546:	460b      	mov	r3, r1
 8001548:	4610      	mov	r0, r2
 800154a:	4619      	mov	r1, r3
 800154c:	f04f 0200 	mov.w	r2, #0
 8001550:	4b2a      	ldr	r3, [pc, #168]	; (80015fc <main+0x16c>)
 8001552:	f7fe ffc1 	bl	80004d8 <__aeabi_dmul>
 8001556:	4602      	mov	r2, r0
 8001558:	460b      	mov	r3, r1
 800155a:	4610      	mov	r0, r2
 800155c:	4619      	mov	r1, r3
 800155e:	f7ff fa6b 	bl	8000a38 <__aeabi_d2iz>
 8001562:	4603      	mov	r3, r0
 8001564:	60bb      	str	r3, [r7, #8]
		  int uk = t_fuzzy.f_out_fuzzy;
 8001566:	4b24      	ldr	r3, [pc, #144]	; (80015f8 <main+0x168>)
 8001568:	689b      	ldr	r3, [r3, #8]
 800156a:	4618      	mov	r0, r3
 800156c:	f7ff fdb0 	bl	80010d0 <__aeabi_f2iz>
 8001570:	4603      	mov	r3, r0
 8001572:	607b      	str	r3, [r7, #4]
		  sprintf(data,FRAME,SIGN(theta),ABS(theta),SIGN(theta_dot),ABS(theta_dot),SIGN(uk),ABS(uk));
 8001574:	68fb      	ldr	r3, [r7, #12]
 8001576:	2b00      	cmp	r3, #0
 8001578:	db01      	blt.n	800157e <main+0xee>
 800157a:	4c22      	ldr	r4, [pc, #136]	; (8001604 <main+0x174>)
 800157c:	e000      	b.n	8001580 <main+0xf0>
 800157e:	4c22      	ldr	r4, [pc, #136]	; (8001608 <main+0x178>)
 8001580:	68fb      	ldr	r3, [r7, #12]
 8001582:	ea83 75e3 	eor.w	r5, r3, r3, asr #31
 8001586:	eba5 75e3 	sub.w	r5, r5, r3, asr #31
 800158a:	68bb      	ldr	r3, [r7, #8]
 800158c:	2b00      	cmp	r3, #0
 800158e:	db01      	blt.n	8001594 <main+0x104>
 8001590:	4b1c      	ldr	r3, [pc, #112]	; (8001604 <main+0x174>)
 8001592:	e000      	b.n	8001596 <main+0x106>
 8001594:	4b1c      	ldr	r3, [pc, #112]	; (8001608 <main+0x178>)
 8001596:	68ba      	ldr	r2, [r7, #8]
 8001598:	2a00      	cmp	r2, #0
 800159a:	bfb8      	it	lt
 800159c:	4252      	neglt	r2, r2
 800159e:	6879      	ldr	r1, [r7, #4]
 80015a0:	2900      	cmp	r1, #0
 80015a2:	db01      	blt.n	80015a8 <main+0x118>
 80015a4:	4917      	ldr	r1, [pc, #92]	; (8001604 <main+0x174>)
 80015a6:	e000      	b.n	80015aa <main+0x11a>
 80015a8:	4917      	ldr	r1, [pc, #92]	; (8001608 <main+0x178>)
 80015aa:	6878      	ldr	r0, [r7, #4]
 80015ac:	2800      	cmp	r0, #0
 80015ae:	bfb8      	it	lt
 80015b0:	4240      	neglt	r0, r0
 80015b2:	9003      	str	r0, [sp, #12]
 80015b4:	9102      	str	r1, [sp, #8]
 80015b6:	9201      	str	r2, [sp, #4]
 80015b8:	9300      	str	r3, [sp, #0]
 80015ba:	462b      	mov	r3, r5
 80015bc:	4622      	mov	r2, r4
 80015be:	4913      	ldr	r1, [pc, #76]	; (800160c <main+0x17c>)
 80015c0:	4813      	ldr	r0, [pc, #76]	; (8001610 <main+0x180>)
 80015c2:	f007 f929 	bl	8008818 <siprintf>
		  HAL_UART_Transmit(&huart1,(uint8_t*)data, strlen(data), 5);
 80015c6:	4812      	ldr	r0, [pc, #72]	; (8001610 <main+0x180>)
 80015c8:	f7fe fdc2 	bl	8000150 <strlen>
 80015cc:	4603      	mov	r3, r0
 80015ce:	b29a      	uxth	r2, r3
 80015d0:	2305      	movs	r3, #5
 80015d2:	490f      	ldr	r1, [pc, #60]	; (8001610 <main+0x180>)
 80015d4:	480f      	ldr	r0, [pc, #60]	; (8001614 <main+0x184>)
 80015d6:	f006 fb4b 	bl	8007c70 <HAL_UART_Transmit>
	  if (u8_flag_10ms)
 80015da:	e77a      	b.n	80014d2 <main+0x42>
 80015dc:	f3af 8000 	nop.w
 80015e0:	1a63c1f8 	.word	0x1a63c1f8
 80015e4:	404ca5dc 	.word	0x404ca5dc
 80015e8:	200003ec 	.word	0x200003ec
 80015ec:	20000398 	.word	0x20000398
 80015f0:	20000568 	.word	0x20000568
 80015f4:	20000510 	.word	0x20000510
 80015f8:	20000000 	.word	0x20000000
 80015fc:	408f4000 	.word	0x408f4000
 8001600:	200005d0 	.word	0x200005d0
 8001604:	08009850 	.word	0x08009850
 8001608:	08009854 	.word	0x08009854
 800160c:	08009858 	.word	0x08009858
 8001610:	2000056c 	.word	0x2000056c
 8001614:	200004c4 	.word	0x200004c4

08001618 <SystemClock_Config>:
/**
  * @brief System Clock Configuration
  * @retval None
  */
void SystemClock_Config(void)
{
 8001618:	b580      	push	{r7, lr}
 800161a:	b090      	sub	sp, #64	; 0x40
 800161c:	af00      	add	r7, sp, #0
  RCC_OscInitTypeDef RCC_OscInitStruct = {0};
 800161e:	f107 0318 	add.w	r3, r7, #24
 8001622:	2228      	movs	r2, #40	; 0x28
 8001624:	2100      	movs	r1, #0
 8001626:	4618      	mov	r0, r3
 8001628:	f007 f916 	bl	8008858 <memset>
  RCC_ClkInitTypeDef RCC_ClkInitStruct = {0};
 800162c:	1d3b      	adds	r3, r7, #4
 800162e:	2200      	movs	r2, #0
 8001630:	601a      	str	r2, [r3, #0]
 8001632:	605a      	str	r2, [r3, #4]
 8001634:	609a      	str	r2, [r3, #8]
 8001636:	60da      	str	r2, [r3, #12]
 8001638:	611a      	str	r2, [r3, #16]

  /** Initializes the RCC Oscillators according to the specified parameters
  * in the RCC_OscInitTypeDef structure.
  */
  RCC_OscInitStruct.OscillatorType = RCC_OSCILLATORTYPE_HSI;
 800163a:	2302      	movs	r3, #2
 800163c:	61bb      	str	r3, [r7, #24]
  RCC_OscInitStruct.HSIState = RCC_HSI_ON;
 800163e:	2301      	movs	r3, #1
 8001640:	62bb      	str	r3, [r7, #40]	; 0x28
  RCC_OscInitStruct.HSICalibrationValue = RCC_HSICALIBRATION_DEFAULT;
 8001642:	2310      	movs	r3, #16
 8001644:	62fb      	str	r3, [r7, #44]	; 0x2c
  RCC_OscInitStruct.PLL.PLLState = RCC_PLL_NONE;
 8001646:	2300      	movs	r3, #0
 8001648:	637b      	str	r3, [r7, #52]	; 0x34
  if (HAL_RCC_OscConfig(&RCC_OscInitStruct) != HAL_OK)
 800164a:	f107 0318 	add.w	r3, r7, #24
 800164e:	4618      	mov	r0, r3
 8001650:	f004 ff50 	bl	80064f4 <HAL_RCC_OscConfig>
 8001654:	4603      	mov	r3, r0
 8001656:	2b00      	cmp	r3, #0
 8001658:	d001      	beq.n	800165e <SystemClock_Config+0x46>
  {
    Error_Handler();
 800165a:	f000 f9f5 	bl	8001a48 <Error_Handler>
  }

  /** Initializes the CPU, AHB and APB buses clocks
  */
  RCC_ClkInitStruct.ClockType = RCC_CLOCKTYPE_HCLK|RCC_CLOCKTYPE_SYSCLK
 800165e:	230f      	movs	r3, #15
 8001660:	607b      	str	r3, [r7, #4]
                              |RCC_CLOCKTYPE_PCLK1|RCC_CLOCKTYPE_PCLK2;
  RCC_ClkInitStruct.SYSCLKSource = RCC_SYSCLKSOURCE_HSI;
 8001662:	2300      	movs	r3, #0
 8001664:	60bb      	str	r3, [r7, #8]
  RCC_ClkInitStruct.AHBCLKDivider = RCC_SYSCLK_DIV1;
 8001666:	2300      	movs	r3, #0
 8001668:	60fb      	str	r3, [r7, #12]
  RCC_ClkInitStruct.APB1CLKDivider = RCC_HCLK_DIV1;
 800166a:	2300      	movs	r3, #0
 800166c:	613b      	str	r3, [r7, #16]
  RCC_ClkInitStruct.APB2CLKDivider = RCC_HCLK_DIV1;
 800166e:	2300      	movs	r3, #0
 8001670:	617b      	str	r3, [r7, #20]

  if (HAL_RCC_ClockConfig(&RCC_ClkInitStruct, FLASH_LATENCY_0) != HAL_OK)
 8001672:	1d3b      	adds	r3, r7, #4
 8001674:	2100      	movs	r1, #0
 8001676:	4618      	mov	r0, r3
 8001678:	f005 f9be 	bl	80069f8 <HAL_RCC_ClockConfig>
 800167c:	4603      	mov	r3, r0
 800167e:	2b00      	cmp	r3, #0
 8001680:	d001      	beq.n	8001686 <SystemClock_Config+0x6e>
  {
    Error_Handler();
 8001682:	f000 f9e1 	bl	8001a48 <Error_Handler>
  }
}
 8001686:	bf00      	nop
 8001688:	3740      	adds	r7, #64	; 0x40
 800168a:	46bd      	mov	sp, r7
 800168c:	bd80      	pop	{r7, pc}
	...

08001690 <MX_I2C1_Init>:
  * @brief I2C1 Initialization Function
  * @param None
  * @retval None
  */
static void MX_I2C1_Init(void)
{
 8001690:	b580      	push	{r7, lr}
 8001692:	af00      	add	r7, sp, #0
  /* USER CODE END I2C1_Init 0 */

  /* USER CODE BEGIN I2C1_Init 1 */

  /* USER CODE END I2C1_Init 1 */
  hi2c1.Instance = I2C1;
 8001694:	4b12      	ldr	r3, [pc, #72]	; (80016e0 <MX_I2C1_Init+0x50>)
 8001696:	4a13      	ldr	r2, [pc, #76]	; (80016e4 <MX_I2C1_Init+0x54>)
 8001698:	601a      	str	r2, [r3, #0]
  hi2c1.Init.ClockSpeed = 100000;
 800169a:	4b11      	ldr	r3, [pc, #68]	; (80016e0 <MX_I2C1_Init+0x50>)
 800169c:	4a12      	ldr	r2, [pc, #72]	; (80016e8 <MX_I2C1_Init+0x58>)
 800169e:	605a      	str	r2, [r3, #4]
  hi2c1.Init.DutyCycle = I2C_DUTYCYCLE_2;
 80016a0:	4b0f      	ldr	r3, [pc, #60]	; (80016e0 <MX_I2C1_Init+0x50>)
 80016a2:	2200      	movs	r2, #0
 80016a4:	609a      	str	r2, [r3, #8]
  hi2c1.Init.OwnAddress1 = 0;
 80016a6:	4b0e      	ldr	r3, [pc, #56]	; (80016e0 <MX_I2C1_Init+0x50>)
 80016a8:	2200      	movs	r2, #0
 80016aa:	60da      	str	r2, [r3, #12]
  hi2c1.Init.AddressingMode = I2C_ADDRESSINGMODE_7BIT;
 80016ac:	4b0c      	ldr	r3, [pc, #48]	; (80016e0 <MX_I2C1_Init+0x50>)
 80016ae:	f44f 4280 	mov.w	r2, #16384	; 0x4000
 80016b2:	611a      	str	r2, [r3, #16]
  hi2c1.Init.DualAddressMode = I2C_DUALADDRESS_DISABLE;
 80016b4:	4b0a      	ldr	r3, [pc, #40]	; (80016e0 <MX_I2C1_Init+0x50>)
 80016b6:	2200      	movs	r2, #0
 80016b8:	615a      	str	r2, [r3, #20]
  hi2c1.Init.OwnAddress2 = 0;
 80016ba:	4b09      	ldr	r3, [pc, #36]	; (80016e0 <MX_I2C1_Init+0x50>)
 80016bc:	2200      	movs	r2, #0
 80016be:	619a      	str	r2, [r3, #24]
  hi2c1.Init.GeneralCallMode = I2C_GENERALCALL_DISABLE;
 80016c0:	4b07      	ldr	r3, [pc, #28]	; (80016e0 <MX_I2C1_Init+0x50>)
 80016c2:	2200      	movs	r2, #0
 80016c4:	61da      	str	r2, [r3, #28]
  hi2c1.Init.NoStretchMode = I2C_NOSTRETCH_DISABLE;
 80016c6:	4b06      	ldr	r3, [pc, #24]	; (80016e0 <MX_I2C1_Init+0x50>)
 80016c8:	2200      	movs	r2, #0
 80016ca:	621a      	str	r2, [r3, #32]
  if (HAL_I2C_Init(&hi2c1) != HAL_OK)
 80016cc:	4804      	ldr	r0, [pc, #16]	; (80016e0 <MX_I2C1_Init+0x50>)
 80016ce:	f003 feb7 	bl	8005440 <HAL_I2C_Init>
 80016d2:	4603      	mov	r3, r0
 80016d4:	2b00      	cmp	r3, #0
 80016d6:	d001      	beq.n	80016dc <MX_I2C1_Init+0x4c>
  {
    Error_Handler();
 80016d8:	f000 f9b6 	bl	8001a48 <Error_Handler>
  }
  /* USER CODE BEGIN I2C1_Init 2 */

  /* USER CODE END I2C1_Init 2 */

}
 80016dc:	bf00      	nop
 80016de:	bd80      	pop	{r7, pc}
 80016e0:	20000398 	.word	0x20000398
 80016e4:	40005400 	.word	0x40005400
 80016e8:	000186a0 	.word	0x000186a0

080016ec <MX_TIM1_Init>:
  * @brief TIM1 Initialization Function
  * @param None
  * @retval None
  */
static void MX_TIM1_Init(void)
{
 80016ec:	b580      	push	{r7, lr}
 80016ee:	b086      	sub	sp, #24
 80016f0:	af00      	add	r7, sp, #0

  /* USER CODE BEGIN TIM1_Init 0 */

  /* USER CODE END TIM1_Init 0 */

  TIM_ClockConfigTypeDef sClockSourceConfig = {0};
 80016f2:	f107 0308 	add.w	r3, r7, #8
 80016f6:	2200      	movs	r2, #0
 80016f8:	601a      	str	r2, [r3, #0]
 80016fa:	605a      	str	r2, [r3, #4]
 80016fc:	609a      	str	r2, [r3, #8]
 80016fe:	60da      	str	r2, [r3, #12]
  TIM_MasterConfigTypeDef sMasterConfig = {0};
 8001700:	463b      	mov	r3, r7
 8001702:	2200      	movs	r2, #0
 8001704:	601a      	str	r2, [r3, #0]
 8001706:	605a      	str	r2, [r3, #4]

  /* USER CODE BEGIN TIM1_Init 1 */

  /* USER CODE END TIM1_Init 1 */
  htim1.Instance = TIM1;
 8001708:	4b1e      	ldr	r3, [pc, #120]	; (8001784 <MX_TIM1_Init+0x98>)
 800170a:	4a1f      	ldr	r2, [pc, #124]	; (8001788 <MX_TIM1_Init+0x9c>)
 800170c:	601a      	str	r2, [r3, #0]
  htim1.Init.Prescaler = 799;
 800170e:	4b1d      	ldr	r3, [pc, #116]	; (8001784 <MX_TIM1_Init+0x98>)
 8001710:	f240 321f 	movw	r2, #799	; 0x31f
 8001714:	605a      	str	r2, [r3, #4]
  htim1.Init.CounterMode = TIM_COUNTERMODE_UP;
 8001716:	4b1b      	ldr	r3, [pc, #108]	; (8001784 <MX_TIM1_Init+0x98>)
 8001718:	2200      	movs	r2, #0
 800171a:	609a      	str	r2, [r3, #8]
  htim1.Init.Period = 99;
 800171c:	4b19      	ldr	r3, [pc, #100]	; (8001784 <MX_TIM1_Init+0x98>)
 800171e:	2263      	movs	r2, #99	; 0x63
 8001720:	60da      	str	r2, [r3, #12]
  htim1.Init.ClockDivision = TIM_CLOCKDIVISION_DIV1;
 8001722:	4b18      	ldr	r3, [pc, #96]	; (8001784 <MX_TIM1_Init+0x98>)
 8001724:	2200      	movs	r2, #0
 8001726:	611a      	str	r2, [r3, #16]
  htim1.Init.RepetitionCounter = 0;
 8001728:	4b16      	ldr	r3, [pc, #88]	; (8001784 <MX_TIM1_Init+0x98>)
 800172a:	2200      	movs	r2, #0
 800172c:	615a      	str	r2, [r3, #20]
  htim1.Init.AutoReloadPreload = TIM_AUTORELOAD_PRELOAD_DISABLE;
 800172e:	4b15      	ldr	r3, [pc, #84]	; (8001784 <MX_TIM1_Init+0x98>)
 8001730:	2200      	movs	r2, #0
 8001732:	619a      	str	r2, [r3, #24]
  if (HAL_TIM_Base_Init(&htim1) != HAL_OK)
 8001734:	4813      	ldr	r0, [pc, #76]	; (8001784 <MX_TIM1_Init+0x98>)
 8001736:	f005 faed 	bl	8006d14 <HAL_TIM_Base_Init>
 800173a:	4603      	mov	r3, r0
 800173c:	2b00      	cmp	r3, #0
 800173e:	d001      	beq.n	8001744 <MX_TIM1_Init+0x58>
  {
    Error_Handler();
 8001740:	f000 f982 	bl	8001a48 <Error_Handler>
  }
  sClockSourceConfig.ClockSource = TIM_CLOCKSOURCE_INTERNAL;
 8001744:	f44f 5380 	mov.w	r3, #4096	; 0x1000
 8001748:	60bb      	str	r3, [r7, #8]
  if (HAL_TIM_ConfigClockSource(&htim1, &sClockSourceConfig) != HAL_OK)
 800174a:	f107 0308 	add.w	r3, r7, #8
 800174e:	4619      	mov	r1, r3
 8001750:	480c      	ldr	r0, [pc, #48]	; (8001784 <MX_TIM1_Init+0x98>)
 8001752:	f005 fe3d 	bl	80073d0 <HAL_TIM_ConfigClockSource>
 8001756:	4603      	mov	r3, r0
 8001758:	2b00      	cmp	r3, #0
 800175a:	d001      	beq.n	8001760 <MX_TIM1_Init+0x74>
  {
    Error_Handler();
 800175c:	f000 f974 	bl	8001a48 <Error_Handler>
  }
  sMasterConfig.MasterOutputTrigger = TIM_TRGO_RESET;
 8001760:	2300      	movs	r3, #0
 8001762:	603b      	str	r3, [r7, #0]
  sMasterConfig.MasterSlaveMode = TIM_MASTERSLAVEMODE_DISABLE;
 8001764:	2300      	movs	r3, #0
 8001766:	607b      	str	r3, [r7, #4]
  if (HAL_TIMEx_MasterConfigSynchronization(&htim1, &sMasterConfig) != HAL_OK)
 8001768:	463b      	mov	r3, r7
 800176a:	4619      	mov	r1, r3
 800176c:	4805      	ldr	r0, [pc, #20]	; (8001784 <MX_TIM1_Init+0x98>)
 800176e:	f006 f9bf 	bl	8007af0 <HAL_TIMEx_MasterConfigSynchronization>
 8001772:	4603      	mov	r3, r0
 8001774:	2b00      	cmp	r3, #0
 8001776:	d001      	beq.n	800177c <MX_TIM1_Init+0x90>
  {
    Error_Handler();
 8001778:	f000 f966 	bl	8001a48 <Error_Handler>
  }
  /* USER CODE BEGIN TIM1_Init 2 */

  /* USER CODE END TIM1_Init 2 */

}
 800177c:	bf00      	nop
 800177e:	3718      	adds	r7, #24
 8001780:	46bd      	mov	sp, r7
 8001782:	bd80      	pop	{r7, pc}
 8001784:	200003ec 	.word	0x200003ec
 8001788:	40012c00 	.word	0x40012c00

0800178c <MX_TIM3_Init>:
  * @brief TIM3 Initialization Function
  * @param None
  * @retval None
  */
static void MX_TIM3_Init(void)
{
 800178c:	b580      	push	{r7, lr}
 800178e:	b08a      	sub	sp, #40	; 0x28
 8001790:	af00      	add	r7, sp, #0

  /* USER CODE BEGIN TIM3_Init 0 */

  /* USER CODE END TIM3_Init 0 */

  TIM_MasterConfigTypeDef sMasterConfig = {0};
 8001792:	f107 0320 	add.w	r3, r7, #32
 8001796:	2200      	movs	r2, #0
 8001798:	601a      	str	r2, [r3, #0]
 800179a:	605a      	str	r2, [r3, #4]
  TIM_OC_InitTypeDef sConfigOC = {0};
 800179c:	1d3b      	adds	r3, r7, #4
 800179e:	2200      	movs	r2, #0
 80017a0:	601a      	str	r2, [r3, #0]
 80017a2:	605a      	str	r2, [r3, #4]
 80017a4:	609a      	str	r2, [r3, #8]
 80017a6:	60da      	str	r2, [r3, #12]
 80017a8:	611a      	str	r2, [r3, #16]
 80017aa:	615a      	str	r2, [r3, #20]
 80017ac:	619a      	str	r2, [r3, #24]

  /* USER CODE BEGIN TIM3_Init 1 */

  /* USER CODE END TIM3_Init 1 */
  htim3.Instance = TIM3;
 80017ae:	4b27      	ldr	r3, [pc, #156]	; (800184c <MX_TIM3_Init+0xc0>)
 80017b0:	4a27      	ldr	r2, [pc, #156]	; (8001850 <MX_TIM3_Init+0xc4>)
 80017b2:	601a      	str	r2, [r3, #0]
  htim3.Init.Prescaler = 79;
 80017b4:	4b25      	ldr	r3, [pc, #148]	; (800184c <MX_TIM3_Init+0xc0>)
 80017b6:	224f      	movs	r2, #79	; 0x4f
 80017b8:	605a      	str	r2, [r3, #4]
  htim3.Init.CounterMode = TIM_COUNTERMODE_UP;
 80017ba:	4b24      	ldr	r3, [pc, #144]	; (800184c <MX_TIM3_Init+0xc0>)
 80017bc:	2200      	movs	r2, #0
 80017be:	609a      	str	r2, [r3, #8]
  htim3.Init.Period = 1999;
 80017c0:	4b22      	ldr	r3, [pc, #136]	; (800184c <MX_TIM3_Init+0xc0>)
 80017c2:	f240 72cf 	movw	r2, #1999	; 0x7cf
 80017c6:	60da      	str	r2, [r3, #12]
  htim3.Init.ClockDivision = TIM_CLOCKDIVISION_DIV1;
 80017c8:	4b20      	ldr	r3, [pc, #128]	; (800184c <MX_TIM3_Init+0xc0>)
 80017ca:	2200      	movs	r2, #0
 80017cc:	611a      	str	r2, [r3, #16]
  htim3.Init.AutoReloadPreload = TIM_AUTORELOAD_PRELOAD_DISABLE;
 80017ce:	4b1f      	ldr	r3, [pc, #124]	; (800184c <MX_TIM3_Init+0xc0>)
 80017d0:	2200      	movs	r2, #0
 80017d2:	619a      	str	r2, [r3, #24]
  if (HAL_TIM_PWM_Init(&htim3) != HAL_OK)
 80017d4:	481d      	ldr	r0, [pc, #116]	; (800184c <MX_TIM3_Init+0xc0>)
 80017d6:	f005 fb3f 	bl	8006e58 <HAL_TIM_PWM_Init>
 80017da:	4603      	mov	r3, r0
 80017dc:	2b00      	cmp	r3, #0
 80017de:	d001      	beq.n	80017e4 <MX_TIM3_Init+0x58>
  {
    Error_Handler();
 80017e0:	f000 f932 	bl	8001a48 <Error_Handler>
  }
  sMasterConfig.MasterOutputTrigger = TIM_TRGO_RESET;
 80017e4:	2300      	movs	r3, #0
 80017e6:	623b      	str	r3, [r7, #32]
  sMasterConfig.MasterSlaveMode = TIM_MASTERSLAVEMODE_DISABLE;
 80017e8:	2300      	movs	r3, #0
 80017ea:	627b      	str	r3, [r7, #36]	; 0x24
  if (HAL_TIMEx_MasterConfigSynchronization(&htim3, &sMasterConfig) != HAL_OK)
 80017ec:	f107 0320 	add.w	r3, r7, #32
 80017f0:	4619      	mov	r1, r3
 80017f2:	4816      	ldr	r0, [pc, #88]	; (800184c <MX_TIM3_Init+0xc0>)
 80017f4:	f006 f97c 	bl	8007af0 <HAL_TIMEx_MasterConfigSynchronization>
 80017f8:	4603      	mov	r3, r0
 80017fa:	2b00      	cmp	r3, #0
 80017fc:	d001      	beq.n	8001802 <MX_TIM3_Init+0x76>
  {
    Error_Handler();
 80017fe:	f000 f923 	bl	8001a48 <Error_Handler>
  }
  sConfigOC.OCMode = TIM_OCMODE_PWM1;
 8001802:	2360      	movs	r3, #96	; 0x60
 8001804:	607b      	str	r3, [r7, #4]
  sConfigOC.Pulse = 0;
 8001806:	2300      	movs	r3, #0
 8001808:	60bb      	str	r3, [r7, #8]
  sConfigOC.OCPolarity = TIM_OCPOLARITY_HIGH;
 800180a:	2300      	movs	r3, #0
 800180c:	60fb      	str	r3, [r7, #12]
  sConfigOC.OCFastMode = TIM_OCFAST_DISABLE;
 800180e:	2300      	movs	r3, #0
 8001810:	617b      	str	r3, [r7, #20]
  if (HAL_TIM_PWM_ConfigChannel(&htim3, &sConfigOC, TIM_CHANNEL_1) != HAL_OK)
 8001812:	1d3b      	adds	r3, r7, #4
 8001814:	2200      	movs	r2, #0
 8001816:	4619      	mov	r1, r3
 8001818:	480c      	ldr	r0, [pc, #48]	; (800184c <MX_TIM3_Init+0xc0>)
 800181a:	f005 fd17 	bl	800724c <HAL_TIM_PWM_ConfigChannel>
 800181e:	4603      	mov	r3, r0
 8001820:	2b00      	cmp	r3, #0
 8001822:	d001      	beq.n	8001828 <MX_TIM3_Init+0x9c>
  {
    Error_Handler();
 8001824:	f000 f910 	bl	8001a48 <Error_Handler>
  }
  if (HAL_TIM_PWM_ConfigChannel(&htim3, &sConfigOC, TIM_CHANNEL_2) != HAL_OK)
 8001828:	1d3b      	adds	r3, r7, #4
 800182a:	2204      	movs	r2, #4
 800182c:	4619      	mov	r1, r3
 800182e:	4807      	ldr	r0, [pc, #28]	; (800184c <MX_TIM3_Init+0xc0>)
 8001830:	f005 fd0c 	bl	800724c <HAL_TIM_PWM_ConfigChannel>
 8001834:	4603      	mov	r3, r0
 8001836:	2b00      	cmp	r3, #0
 8001838:	d001      	beq.n	800183e <MX_TIM3_Init+0xb2>
  {
    Error_Handler();
 800183a:	f000 f905 	bl	8001a48 <Error_Handler>
  }
  /* USER CODE BEGIN TIM3_Init 2 */

  /* USER CODE END TIM3_Init 2 */
  HAL_TIM_MspPostInit(&htim3);
 800183e:	4803      	ldr	r0, [pc, #12]	; (800184c <MX_TIM3_Init+0xc0>)
 8001840:	f003 f8e8 	bl	8004a14 <HAL_TIM_MspPostInit>

}
 8001844:	bf00      	nop
 8001846:	3728      	adds	r7, #40	; 0x28
 8001848:	46bd      	mov	sp, r7
 800184a:	bd80      	pop	{r7, pc}
 800184c:	20000434 	.word	0x20000434
 8001850:	40000400 	.word	0x40000400

08001854 <MX_TIM4_Init>:
  * @brief TIM4 Initialization Function
  * @param None
  * @retval None
  */
static void MX_TIM4_Init(void)
{
 8001854:	b580      	push	{r7, lr}
 8001856:	b08a      	sub	sp, #40	; 0x28
 8001858:	af00      	add	r7, sp, #0

  /* USER CODE BEGIN TIM4_Init 0 */

  /* USER CODE END TIM4_Init 0 */

  TIM_MasterConfigTypeDef sMasterConfig = {0};
 800185a:	f107 0320 	add.w	r3, r7, #32
 800185e:	2200      	movs	r2, #0
 8001860:	601a      	str	r2, [r3, #0]
 8001862:	605a      	str	r2, [r3, #4]
  TIM_OC_InitTypeDef sConfigOC = {0};
 8001864:	1d3b      	adds	r3, r7, #4
 8001866:	2200      	movs	r2, #0
 8001868:	601a      	str	r2, [r3, #0]
 800186a:	605a      	str	r2, [r3, #4]
 800186c:	609a      	str	r2, [r3, #8]
 800186e:	60da      	str	r2, [r3, #12]
 8001870:	611a      	str	r2, [r3, #16]
 8001872:	615a      	str	r2, [r3, #20]
 8001874:	619a      	str	r2, [r3, #24]

  /* USER CODE BEGIN TIM4_Init 1 */

  /* USER CODE END TIM4_Init 1 */
  htim4.Instance = TIM4;
 8001876:	4b27      	ldr	r3, [pc, #156]	; (8001914 <MX_TIM4_Init+0xc0>)
 8001878:	4a27      	ldr	r2, [pc, #156]	; (8001918 <MX_TIM4_Init+0xc4>)
 800187a:	601a      	str	r2, [r3, #0]
  htim4.Init.Prescaler = 79;
 800187c:	4b25      	ldr	r3, [pc, #148]	; (8001914 <MX_TIM4_Init+0xc0>)
 800187e:	224f      	movs	r2, #79	; 0x4f
 8001880:	605a      	str	r2, [r3, #4]
  htim4.Init.CounterMode = TIM_COUNTERMODE_UP;
 8001882:	4b24      	ldr	r3, [pc, #144]	; (8001914 <MX_TIM4_Init+0xc0>)
 8001884:	2200      	movs	r2, #0
 8001886:	609a      	str	r2, [r3, #8]
  htim4.Init.Period = 1999;
 8001888:	4b22      	ldr	r3, [pc, #136]	; (8001914 <MX_TIM4_Init+0xc0>)
 800188a:	f240 72cf 	movw	r2, #1999	; 0x7cf
 800188e:	60da      	str	r2, [r3, #12]
  htim4.Init.ClockDivision = TIM_CLOCKDIVISION_DIV1;
 8001890:	4b20      	ldr	r3, [pc, #128]	; (8001914 <MX_TIM4_Init+0xc0>)
 8001892:	2200      	movs	r2, #0
 8001894:	611a      	str	r2, [r3, #16]
  htim4.Init.AutoReloadPreload = TIM_AUTORELOAD_PRELOAD_DISABLE;
 8001896:	4b1f      	ldr	r3, [pc, #124]	; (8001914 <MX_TIM4_Init+0xc0>)
 8001898:	2200      	movs	r2, #0
 800189a:	619a      	str	r2, [r3, #24]
  if (HAL_TIM_PWM_Init(&htim4) != HAL_OK)
 800189c:	481d      	ldr	r0, [pc, #116]	; (8001914 <MX_TIM4_Init+0xc0>)
 800189e:	f005 fadb 	bl	8006e58 <HAL_TIM_PWM_Init>
 80018a2:	4603      	mov	r3, r0
 80018a4:	2b00      	cmp	r3, #0
 80018a6:	d001      	beq.n	80018ac <MX_TIM4_Init+0x58>
  {
    Error_Handler();
 80018a8:	f000 f8ce 	bl	8001a48 <Error_Handler>
  }
  sMasterConfig.MasterOutputTrigger = TIM_TRGO_RESET;
 80018ac:	2300      	movs	r3, #0
 80018ae:	623b      	str	r3, [r7, #32]
  sMasterConfig.MasterSlaveMode = TIM_MASTERSLAVEMODE_DISABLE;
 80018b0:	2300      	movs	r3, #0
 80018b2:	627b      	str	r3, [r7, #36]	; 0x24
  if (HAL_TIMEx_MasterConfigSynchronization(&htim4, &sMasterConfig) != HAL_OK)
 80018b4:	f107 0320 	add.w	r3, r7, #32
 80018b8:	4619      	mov	r1, r3
 80018ba:	4816      	ldr	r0, [pc, #88]	; (8001914 <MX_TIM4_Init+0xc0>)
 80018bc:	f006 f918 	bl	8007af0 <HAL_TIMEx_MasterConfigSynchronization>
 80018c0:	4603      	mov	r3, r0
 80018c2:	2b00      	cmp	r3, #0
 80018c4:	d001      	beq.n	80018ca <MX_TIM4_Init+0x76>
  {
    Error_Handler();
 80018c6:	f000 f8bf 	bl	8001a48 <Error_Handler>
  }
  sConfigOC.OCMode = TIM_OCMODE_PWM1;
 80018ca:	2360      	movs	r3, #96	; 0x60
 80018cc:	607b      	str	r3, [r7, #4]
  sConfigOC.Pulse = 0;
 80018ce:	2300      	movs	r3, #0
 80018d0:	60bb      	str	r3, [r7, #8]
  sConfigOC.OCPolarity = TIM_OCPOLARITY_HIGH;
 80018d2:	2300      	movs	r3, #0
 80018d4:	60fb      	str	r3, [r7, #12]
  sConfigOC.OCFastMode = TIM_OCFAST_DISABLE;
 80018d6:	2300      	movs	r3, #0
 80018d8:	617b      	str	r3, [r7, #20]
  if (HAL_TIM_PWM_ConfigChannel(&htim4, &sConfigOC, TIM_CHANNEL_1) != HAL_OK)
 80018da:	1d3b      	adds	r3, r7, #4
 80018dc:	2200      	movs	r2, #0
 80018de:	4619      	mov	r1, r3
 80018e0:	480c      	ldr	r0, [pc, #48]	; (8001914 <MX_TIM4_Init+0xc0>)
 80018e2:	f005 fcb3 	bl	800724c <HAL_TIM_PWM_ConfigChannel>
 80018e6:	4603      	mov	r3, r0
 80018e8:	2b00      	cmp	r3, #0
 80018ea:	d001      	beq.n	80018f0 <MX_TIM4_Init+0x9c>
  {
    Error_Handler();
 80018ec:	f000 f8ac 	bl	8001a48 <Error_Handler>
  }
  if (HAL_TIM_PWM_ConfigChannel(&htim4, &sConfigOC, TIM_CHANNEL_2) != HAL_OK)
 80018f0:	1d3b      	adds	r3, r7, #4
 80018f2:	2204      	movs	r2, #4
 80018f4:	4619      	mov	r1, r3
 80018f6:	4807      	ldr	r0, [pc, #28]	; (8001914 <MX_TIM4_Init+0xc0>)
 80018f8:	f005 fca8 	bl	800724c <HAL_TIM_PWM_ConfigChannel>
 80018fc:	4603      	mov	r3, r0
 80018fe:	2b00      	cmp	r3, #0
 8001900:	d001      	beq.n	8001906 <MX_TIM4_Init+0xb2>
  {
    Error_Handler();
 8001902:	f000 f8a1 	bl	8001a48 <Error_Handler>
  }
  /* USER CODE BEGIN TIM4_Init 2 */

  /* USER CODE END TIM4_Init 2 */
  HAL_TIM_MspPostInit(&htim4);
 8001906:	4803      	ldr	r0, [pc, #12]	; (8001914 <MX_TIM4_Init+0xc0>)
 8001908:	f003 f884 	bl	8004a14 <HAL_TIM_MspPostInit>

}
 800190c:	bf00      	nop
 800190e:	3728      	adds	r7, #40	; 0x28
 8001910:	46bd      	mov	sp, r7
 8001912:	bd80      	pop	{r7, pc}
 8001914:	2000047c 	.word	0x2000047c
 8001918:	40000800 	.word	0x40000800

0800191c <MX_USART1_UART_Init>:
  * @brief USART1 Initialization Function
  * @param None
  * @retval None
  */
static void MX_USART1_UART_Init(void)
{
 800191c:	b580      	push	{r7, lr}
 800191e:	af00      	add	r7, sp, #0
  /* USER CODE END USART1_Init 0 */

  /* USER CODE BEGIN USART1_Init 1 */

  /* USER CODE END USART1_Init 1 */
  huart1.Instance = USART1;
 8001920:	4b11      	ldr	r3, [pc, #68]	; (8001968 <MX_USART1_UART_Init+0x4c>)
 8001922:	4a12      	ldr	r2, [pc, #72]	; (800196c <MX_USART1_UART_Init+0x50>)
 8001924:	601a      	str	r2, [r3, #0]
  huart1.Init.BaudRate = 9600;
 8001926:	4b10      	ldr	r3, [pc, #64]	; (8001968 <MX_USART1_UART_Init+0x4c>)
 8001928:	f44f 5216 	mov.w	r2, #9600	; 0x2580
 800192c:	605a      	str	r2, [r3, #4]
  huart1.Init.WordLength = UART_WORDLENGTH_8B;
 800192e:	4b0e      	ldr	r3, [pc, #56]	; (8001968 <MX_USART1_UART_Init+0x4c>)
 8001930:	2200      	movs	r2, #0
 8001932:	609a      	str	r2, [r3, #8]
  huart1.Init.StopBits = UART_STOPBITS_1;
 8001934:	4b0c      	ldr	r3, [pc, #48]	; (8001968 <MX_USART1_UART_Init+0x4c>)
 8001936:	2200      	movs	r2, #0
 8001938:	60da      	str	r2, [r3, #12]
  huart1.Init.Parity = UART_PARITY_NONE;
 800193a:	4b0b      	ldr	r3, [pc, #44]	; (8001968 <MX_USART1_UART_Init+0x4c>)
 800193c:	2200      	movs	r2, #0
 800193e:	611a      	str	r2, [r3, #16]
  huart1.Init.Mode = UART_MODE_TX_RX;
 8001940:	4b09      	ldr	r3, [pc, #36]	; (8001968 <MX_USART1_UART_Init+0x4c>)
 8001942:	220c      	movs	r2, #12
 8001944:	615a      	str	r2, [r3, #20]
  huart1.Init.HwFlowCtl = UART_HWCONTROL_NONE;
 8001946:	4b08      	ldr	r3, [pc, #32]	; (8001968 <MX_USART1_UART_Init+0x4c>)
 8001948:	2200      	movs	r2, #0
 800194a:	619a      	str	r2, [r3, #24]
  huart1.Init.OverSampling = UART_OVERSAMPLING_16;
 800194c:	4b06      	ldr	r3, [pc, #24]	; (8001968 <MX_USART1_UART_Init+0x4c>)
 800194e:	2200      	movs	r2, #0
 8001950:	61da      	str	r2, [r3, #28]
  if (HAL_UART_Init(&huart1) != HAL_OK)
 8001952:	4805      	ldr	r0, [pc, #20]	; (8001968 <MX_USART1_UART_Init+0x4c>)
 8001954:	f006 f93c 	bl	8007bd0 <HAL_UART_Init>
 8001958:	4603      	mov	r3, r0
 800195a:	2b00      	cmp	r3, #0
 800195c:	d001      	beq.n	8001962 <MX_USART1_UART_Init+0x46>
  {
    Error_Handler();
 800195e:	f000 f873 	bl	8001a48 <Error_Handler>
  }
  /* USER CODE BEGIN USART1_Init 2 */

  /* USER CODE END USART1_Init 2 */

}
 8001962:	bf00      	nop
 8001964:	bd80      	pop	{r7, pc}
 8001966:	bf00      	nop
 8001968:	200004c4 	.word	0x200004c4
 800196c:	40013800 	.word	0x40013800

08001970 <MX_GPIO_Init>:
  * @brief GPIO Initialization Function
  * @param None
  * @retval None
  */
static void MX_GPIO_Init(void)
{
 8001970:	b580      	push	{r7, lr}
 8001972:	b088      	sub	sp, #32
 8001974:	af00      	add	r7, sp, #0
  GPIO_InitTypeDef GPIO_InitStruct = {0};
 8001976:	f107 0310 	add.w	r3, r7, #16
 800197a:	2200      	movs	r2, #0
 800197c:	601a      	str	r2, [r3, #0]
 800197e:	605a      	str	r2, [r3, #4]
 8001980:	609a      	str	r2, [r3, #8]
 8001982:	60da      	str	r2, [r3, #12]
/* USER CODE BEGIN MX_GPIO_Init_1 */
/* USER CODE END MX_GPIO_Init_1 */

  /* GPIO Ports Clock Enable */
  __HAL_RCC_GPIOC_CLK_ENABLE();
 8001984:	4b2d      	ldr	r3, [pc, #180]	; (8001a3c <MX_GPIO_Init+0xcc>)
 8001986:	699b      	ldr	r3, [r3, #24]
 8001988:	4a2c      	ldr	r2, [pc, #176]	; (8001a3c <MX_GPIO_Init+0xcc>)
 800198a:	f043 0310 	orr.w	r3, r3, #16
 800198e:	6193      	str	r3, [r2, #24]
 8001990:	4b2a      	ldr	r3, [pc, #168]	; (8001a3c <MX_GPIO_Init+0xcc>)
 8001992:	699b      	ldr	r3, [r3, #24]
 8001994:	f003 0310 	and.w	r3, r3, #16
 8001998:	60fb      	str	r3, [r7, #12]
 800199a:	68fb      	ldr	r3, [r7, #12]
  __HAL_RCC_GPIOD_CLK_ENABLE();
 800199c:	4b27      	ldr	r3, [pc, #156]	; (8001a3c <MX_GPIO_Init+0xcc>)
 800199e:	699b      	ldr	r3, [r3, #24]
 80019a0:	4a26      	ldr	r2, [pc, #152]	; (8001a3c <MX_GPIO_Init+0xcc>)
 80019a2:	f043 0320 	orr.w	r3, r3, #32
 80019a6:	6193      	str	r3, [r2, #24]
 80019a8:	4b24      	ldr	r3, [pc, #144]	; (8001a3c <MX_GPIO_Init+0xcc>)
 80019aa:	699b      	ldr	r3, [r3, #24]
 80019ac:	f003 0320 	and.w	r3, r3, #32
 80019b0:	60bb      	str	r3, [r7, #8]
 80019b2:	68bb      	ldr	r3, [r7, #8]
  __HAL_RCC_GPIOA_CLK_ENABLE();
 80019b4:	4b21      	ldr	r3, [pc, #132]	; (8001a3c <MX_GPIO_Init+0xcc>)
 80019b6:	699b      	ldr	r3, [r3, #24]
 80019b8:	4a20      	ldr	r2, [pc, #128]	; (8001a3c <MX_GPIO_Init+0xcc>)
 80019ba:	f043 0304 	orr.w	r3, r3, #4
 80019be:	6193      	str	r3, [r2, #24]
 80019c0:	4b1e      	ldr	r3, [pc, #120]	; (8001a3c <MX_GPIO_Init+0xcc>)
 80019c2:	699b      	ldr	r3, [r3, #24]
 80019c4:	f003 0304 	and.w	r3, r3, #4
 80019c8:	607b      	str	r3, [r7, #4]
 80019ca:	687b      	ldr	r3, [r7, #4]
  __HAL_RCC_GPIOB_CLK_ENABLE();
 80019cc:	4b1b      	ldr	r3, [pc, #108]	; (8001a3c <MX_GPIO_Init+0xcc>)
 80019ce:	699b      	ldr	r3, [r3, #24]
 80019d0:	4a1a      	ldr	r2, [pc, #104]	; (8001a3c <MX_GPIO_Init+0xcc>)
 80019d2:	f043 0308 	orr.w	r3, r3, #8
 80019d6:	6193      	str	r3, [r2, #24]
 80019d8:	4b18      	ldr	r3, [pc, #96]	; (8001a3c <MX_GPIO_Init+0xcc>)
 80019da:	699b      	ldr	r3, [r3, #24]
 80019dc:	f003 0308 	and.w	r3, r3, #8
 80019e0:	603b      	str	r3, [r7, #0]
 80019e2:	683b      	ldr	r3, [r7, #0]

  /*Configure GPIO pin Output Level */
  HAL_GPIO_WritePin(GPIOC, GPIO_PIN_13, GPIO_PIN_RESET);
 80019e4:	2200      	movs	r2, #0
 80019e6:	f44f 5100 	mov.w	r1, #8192	; 0x2000
 80019ea:	4815      	ldr	r0, [pc, #84]	; (8001a40 <MX_GPIO_Init+0xd0>)
 80019ec:	f003 fd10 	bl	8005410 <HAL_GPIO_WritePin>

  /*Configure GPIO pin Output Level */
  HAL_GPIO_WritePin(GPIOA, GPIO_PIN_3|GPIO_PIN_5, GPIO_PIN_RESET);
 80019f0:	2200      	movs	r2, #0
 80019f2:	2128      	movs	r1, #40	; 0x28
 80019f4:	4813      	ldr	r0, [pc, #76]	; (8001a44 <MX_GPIO_Init+0xd4>)
 80019f6:	f003 fd0b 	bl	8005410 <HAL_GPIO_WritePin>

  /*Configure GPIO pin : PC13 */
  GPIO_InitStruct.Pin = GPIO_PIN_13;
 80019fa:	f44f 5300 	mov.w	r3, #8192	; 0x2000
 80019fe:	613b      	str	r3, [r7, #16]
  GPIO_InitStruct.Mode = GPIO_MODE_OUTPUT_PP;
 8001a00:	2301      	movs	r3, #1
 8001a02:	617b      	str	r3, [r7, #20]
  GPIO_InitStruct.Pull = GPIO_NOPULL;
 8001a04:	2300      	movs	r3, #0
 8001a06:	61bb      	str	r3, [r7, #24]
  GPIO_InitStruct.Speed = GPIO_SPEED_FREQ_LOW;
 8001a08:	2302      	movs	r3, #2
 8001a0a:	61fb      	str	r3, [r7, #28]
  HAL_GPIO_Init(GPIOC, &GPIO_InitStruct);
 8001a0c:	f107 0310 	add.w	r3, r7, #16
 8001a10:	4619      	mov	r1, r3
 8001a12:	480b      	ldr	r0, [pc, #44]	; (8001a40 <MX_GPIO_Init+0xd0>)
 8001a14:	f003 fb78 	bl	8005108 <HAL_GPIO_Init>

  /*Configure GPIO pins : PA3 PA5 */
  GPIO_InitStruct.Pin = GPIO_PIN_3|GPIO_PIN_5;
 8001a18:	2328      	movs	r3, #40	; 0x28
 8001a1a:	613b      	str	r3, [r7, #16]
  GPIO_InitStruct.Mode = GPIO_MODE_OUTPUT_PP;
 8001a1c:	2301      	movs	r3, #1
 8001a1e:	617b      	str	r3, [r7, #20]
  GPIO_InitStruct.Pull = GPIO_NOPULL;
 8001a20:	2300      	movs	r3, #0
 8001a22:	61bb      	str	r3, [r7, #24]
  GPIO_InitStruct.Speed = GPIO_SPEED_FREQ_LOW;
 8001a24:	2302      	movs	r3, #2
 8001a26:	61fb      	str	r3, [r7, #28]
  HAL_GPIO_Init(GPIOA, &GPIO_InitStruct);
 8001a28:	f107 0310 	add.w	r3, r7, #16
 8001a2c:	4619      	mov	r1, r3
 8001a2e:	4805      	ldr	r0, [pc, #20]	; (8001a44 <MX_GPIO_Init+0xd4>)
 8001a30:	f003 fb6a 	bl	8005108 <HAL_GPIO_Init>

/* USER CODE BEGIN MX_GPIO_Init_2 */
/* USER CODE END MX_GPIO_Init_2 */
}
 8001a34:	bf00      	nop
 8001a36:	3720      	adds	r7, #32
 8001a38:	46bd      	mov	sp, r7
 8001a3a:	bd80      	pop	{r7, pc}
 8001a3c:	40021000 	.word	0x40021000
 8001a40:	40011000 	.word	0x40011000
 8001a44:	40010800 	.word	0x40010800

08001a48 <Error_Handler>:
/**
  * @brief  This function is executed in case of error occurrence.
  * @retval None
  */
void Error_Handler(void)
{
 8001a48:	b480      	push	{r7}
 8001a4a:	af00      	add	r7, sp, #0
  \details Disables IRQ interrupts by setting the I-bit in the CPSR.
           Can only be executed in Privileged modes.
 */
__STATIC_FORCEINLINE void __disable_irq(void)
{
  __ASM volatile ("cpsid i" : : : "memory");
 8001a4c:	b672      	cpsid	i
}
 8001a4e:	bf00      	nop
  /* USER CODE BEGIN Error_Handler_Debug */
  /* User can add his own implementation to report the HAL error return state */
  __disable_irq();
  while (1)
 8001a50:	e7fe      	b.n	8001a50 <Error_Handler+0x8>
	...

08001a54 <Limit_val>:
 *      Author: NGOC HOAN && Hien Nguyen
 */

#include "motor.h"

static void Limit_val(float *value){
 8001a54:	b580      	push	{r7, lr}
 8001a56:	b082      	sub	sp, #8
 8001a58:	af00      	add	r7, sp, #0
 8001a5a:	6078      	str	r0, [r7, #4]
	if(*value> VAL_MAX)  *value = VAL_MAX;
 8001a5c:	687b      	ldr	r3, [r7, #4]
 8001a5e:	681b      	ldr	r3, [r3, #0]
 8001a60:	f04f 517e 	mov.w	r1, #1065353216	; 0x3f800000
 8001a64:	4618      	mov	r0, r3
 8001a66:	f7ff fb29 	bl	80010bc <__aeabi_fcmpgt>
 8001a6a:	4603      	mov	r3, r0
 8001a6c:	2b00      	cmp	r3, #0
 8001a6e:	d003      	beq.n	8001a78 <Limit_val+0x24>
 8001a70:	687b      	ldr	r3, [r7, #4]
 8001a72:	f04f 527e 	mov.w	r2, #1065353216	; 0x3f800000
 8001a76:	601a      	str	r2, [r3, #0]
	if(*value<-VAL_MAX) *value = -VAL_MAX;
 8001a78:	687b      	ldr	r3, [r7, #4]
 8001a7a:	681b      	ldr	r3, [r3, #0]
 8001a7c:	4907      	ldr	r1, [pc, #28]	; (8001a9c <Limit_val+0x48>)
 8001a7e:	4618      	mov	r0, r3
 8001a80:	f7ff fafe 	bl	8001080 <__aeabi_fcmplt>
 8001a84:	4603      	mov	r3, r0
 8001a86:	2b00      	cmp	r3, #0
 8001a88:	d100      	bne.n	8001a8c <Limit_val+0x38>
}
 8001a8a:	e002      	b.n	8001a92 <Limit_val+0x3e>
	if(*value<-VAL_MAX) *value = -VAL_MAX;
 8001a8c:	687b      	ldr	r3, [r7, #4]
 8001a8e:	4a03      	ldr	r2, [pc, #12]	; (8001a9c <Limit_val+0x48>)
 8001a90:	601a      	str	r2, [r3, #0]
}
 8001a92:	bf00      	nop
 8001a94:	3708      	adds	r7, #8
 8001a96:	46bd      	mov	sp, r7
 8001a98:	bd80      	pop	{r7, pc}
 8001a9a:	bf00      	nop
 8001a9c:	bf800000 	.word	0xbf800000

08001aa0 <Set_duty>:

static void Set_duty(float duty, TIM_HandleTypeDef *htim, int channel){
 8001aa0:	b590      	push	{r4, r7, lr}
 8001aa2:	b085      	sub	sp, #20
 8001aa4:	af00      	add	r7, sp, #0
 8001aa6:	60f8      	str	r0, [r7, #12]
 8001aa8:	60b9      	str	r1, [r7, #8]
 8001aaa:	607a      	str	r2, [r7, #4]
	if (channel == 1){
 8001aac:	687b      	ldr	r3, [r7, #4]
 8001aae:	2b01      	cmp	r3, #1
 8001ab0:	d111      	bne.n	8001ad6 <Set_duty+0x36>
		htim->Instance->CCR1 =  (duty*MAX_CNT) + MIN_CNT;
 8001ab2:	4915      	ldr	r1, [pc, #84]	; (8001b08 <Set_duty+0x68>)
 8001ab4:	68f8      	ldr	r0, [r7, #12]
 8001ab6:	f7ff f945 	bl	8000d44 <__aeabi_fmul>
 8001aba:	4603      	mov	r3, r0
 8001abc:	4913      	ldr	r1, [pc, #76]	; (8001b0c <Set_duty+0x6c>)
 8001abe:	4618      	mov	r0, r3
 8001ac0:	f7ff f838 	bl	8000b34 <__addsf3>
 8001ac4:	4603      	mov	r3, r0
 8001ac6:	461a      	mov	r2, r3
 8001ac8:	68bb      	ldr	r3, [r7, #8]
 8001aca:	681c      	ldr	r4, [r3, #0]
 8001acc:	4610      	mov	r0, r2
 8001ace:	f7ff fb25 	bl	800111c <__aeabi_f2uiz>
 8001ad2:	4603      	mov	r3, r0
 8001ad4:	6363      	str	r3, [r4, #52]	; 0x34
	}
	if (channel == 2){
 8001ad6:	687b      	ldr	r3, [r7, #4]
 8001ad8:	2b02      	cmp	r3, #2
 8001ada:	d111      	bne.n	8001b00 <Set_duty+0x60>
		htim->Instance->CCR2 =  (duty*MAX_CNT) + MIN_CNT;
 8001adc:	490a      	ldr	r1, [pc, #40]	; (8001b08 <Set_duty+0x68>)
 8001ade:	68f8      	ldr	r0, [r7, #12]
 8001ae0:	f7ff f930 	bl	8000d44 <__aeabi_fmul>
 8001ae4:	4603      	mov	r3, r0
 8001ae6:	4909      	ldr	r1, [pc, #36]	; (8001b0c <Set_duty+0x6c>)
 8001ae8:	4618      	mov	r0, r3
 8001aea:	f7ff f823 	bl	8000b34 <__addsf3>
 8001aee:	4603      	mov	r3, r0
 8001af0:	461a      	mov	r2, r3
 8001af2:	68bb      	ldr	r3, [r7, #8]
 8001af4:	681c      	ldr	r4, [r3, #0]
 8001af6:	4610      	mov	r0, r2
 8001af8:	f7ff fb10 	bl	800111c <__aeabi_f2uiz>
 8001afc:	4603      	mov	r3, r0
 8001afe:	63a3      	str	r3, [r4, #56]	; 0x38
	}
}
 8001b00:	bf00      	nop
 8001b02:	3714      	adds	r7, #20
 8001b04:	46bd      	mov	sp, r7
 8001b06:	bd90      	pop	{r4, r7, pc}
 8001b08:	44ed6000 	.word	0x44ed6000
 8001b0c:	42c80000 	.word	0x42c80000

08001b10 <Init_tim_pwm>:

void Init_tim_pwm(){
 8001b10:	b580      	push	{r7, lr}
 8001b12:	af00      	add	r7, sp, #0
	HAL_TIM_PWM_Start(&htim3, TIM_CHANNEL_1);
 8001b14:	2100      	movs	r1, #0
 8001b16:	4808      	ldr	r0, [pc, #32]	; (8001b38 <Init_tim_pwm+0x28>)
 8001b18:	f005 f9ee 	bl	8006ef8 <HAL_TIM_PWM_Start>
	HAL_TIM_PWM_Start(&htim3, TIM_CHANNEL_2);
 8001b1c:	2104      	movs	r1, #4
 8001b1e:	4806      	ldr	r0, [pc, #24]	; (8001b38 <Init_tim_pwm+0x28>)
 8001b20:	f005 f9ea 	bl	8006ef8 <HAL_TIM_PWM_Start>
	HAL_TIM_PWM_Start(&htim4, TIM_CHANNEL_1);
 8001b24:	2100      	movs	r1, #0
 8001b26:	4805      	ldr	r0, [pc, #20]	; (8001b3c <Init_tim_pwm+0x2c>)
 8001b28:	f005 f9e6 	bl	8006ef8 <HAL_TIM_PWM_Start>
	HAL_TIM_PWM_Start(&htim4, TIM_CHANNEL_2);
 8001b2c:	2104      	movs	r1, #4
 8001b2e:	4803      	ldr	r0, [pc, #12]	; (8001b3c <Init_tim_pwm+0x2c>)
 8001b30:	f005 f9e2 	bl	8006ef8 <HAL_TIM_PWM_Start>
}
 8001b34:	bf00      	nop
 8001b36:	bd80      	pop	{r7, pc}
 8001b38:	20000434 	.word	0x20000434
 8001b3c:	2000047c 	.word	0x2000047c

08001b40 <Stop_motor>:

static void Stop_motor(){
 8001b40:	b580      	push	{r7, lr}
 8001b42:	af00      	add	r7, sp, #0
	Set_duty(0, &htim3, 1);
 8001b44:	2201      	movs	r2, #1
 8001b46:	490c      	ldr	r1, [pc, #48]	; (8001b78 <Stop_motor+0x38>)
 8001b48:	f04f 0000 	mov.w	r0, #0
 8001b4c:	f7ff ffa8 	bl	8001aa0 <Set_duty>
	Set_duty(0, &htim3, 2);
 8001b50:	2202      	movs	r2, #2
 8001b52:	4909      	ldr	r1, [pc, #36]	; (8001b78 <Stop_motor+0x38>)
 8001b54:	f04f 0000 	mov.w	r0, #0
 8001b58:	f7ff ffa2 	bl	8001aa0 <Set_duty>
	Set_duty(0, &htim4, 1);
 8001b5c:	2201      	movs	r2, #1
 8001b5e:	4907      	ldr	r1, [pc, #28]	; (8001b7c <Stop_motor+0x3c>)
 8001b60:	f04f 0000 	mov.w	r0, #0
 8001b64:	f7ff ff9c 	bl	8001aa0 <Set_duty>
	Set_duty(0, &htim4, 2);
 8001b68:	2202      	movs	r2, #2
 8001b6a:	4904      	ldr	r1, [pc, #16]	; (8001b7c <Stop_motor+0x3c>)
 8001b6c:	f04f 0000 	mov.w	r0, #0
 8001b70:	f7ff ff96 	bl	8001aa0 <Set_duty>
}
 8001b74:	bf00      	nop
 8001b76:	bd80      	pop	{r7, pc}
 8001b78:	20000434 	.word	0x20000434
 8001b7c:	2000047c 	.word	0x2000047c

08001b80 <Forward>:

void Forward (float duty){
 8001b80:	b580      	push	{r7, lr}
 8001b82:	b082      	sub	sp, #8
 8001b84:	af00      	add	r7, sp, #0
 8001b86:	6078      	str	r0, [r7, #4]
	Set_duty(0, &htim3, 1);
 8001b88:	2201      	movs	r2, #1
 8001b8a:	490c      	ldr	r1, [pc, #48]	; (8001bbc <Forward+0x3c>)
 8001b8c:	f04f 0000 	mov.w	r0, #0
 8001b90:	f7ff ff86 	bl	8001aa0 <Set_duty>
	Set_duty(duty, &htim3, 2);
 8001b94:	2202      	movs	r2, #2
 8001b96:	4909      	ldr	r1, [pc, #36]	; (8001bbc <Forward+0x3c>)
 8001b98:	6878      	ldr	r0, [r7, #4]
 8001b9a:	f7ff ff81 	bl	8001aa0 <Set_duty>
	Set_duty(0, &htim4, 1);
 8001b9e:	2201      	movs	r2, #1
 8001ba0:	4907      	ldr	r1, [pc, #28]	; (8001bc0 <Forward+0x40>)
 8001ba2:	f04f 0000 	mov.w	r0, #0
 8001ba6:	f7ff ff7b 	bl	8001aa0 <Set_duty>
	Set_duty(duty, &htim4, 2);
 8001baa:	2202      	movs	r2, #2
 8001bac:	4904      	ldr	r1, [pc, #16]	; (8001bc0 <Forward+0x40>)
 8001bae:	6878      	ldr	r0, [r7, #4]
 8001bb0:	f7ff ff76 	bl	8001aa0 <Set_duty>
}
 8001bb4:	bf00      	nop
 8001bb6:	3708      	adds	r7, #8
 8001bb8:	46bd      	mov	sp, r7
 8001bba:	bd80      	pop	{r7, pc}
 8001bbc:	20000434 	.word	0x20000434
 8001bc0:	2000047c 	.word	0x2000047c

08001bc4 <Reverse>:

void Reverse (float duty){
 8001bc4:	b580      	push	{r7, lr}
 8001bc6:	b082      	sub	sp, #8
 8001bc8:	af00      	add	r7, sp, #0
 8001bca:	6078      	str	r0, [r7, #4]
	Set_duty(duty, &htim3, 1);
 8001bcc:	2201      	movs	r2, #1
 8001bce:	490c      	ldr	r1, [pc, #48]	; (8001c00 <Reverse+0x3c>)
 8001bd0:	6878      	ldr	r0, [r7, #4]
 8001bd2:	f7ff ff65 	bl	8001aa0 <Set_duty>
	Set_duty(0, &htim3, 2);
 8001bd6:	2202      	movs	r2, #2
 8001bd8:	4909      	ldr	r1, [pc, #36]	; (8001c00 <Reverse+0x3c>)
 8001bda:	f04f 0000 	mov.w	r0, #0
 8001bde:	f7ff ff5f 	bl	8001aa0 <Set_duty>
	Set_duty(duty, &htim4, 1);
 8001be2:	2201      	movs	r2, #1
 8001be4:	4907      	ldr	r1, [pc, #28]	; (8001c04 <Reverse+0x40>)
 8001be6:	6878      	ldr	r0, [r7, #4]
 8001be8:	f7ff ff5a 	bl	8001aa0 <Set_duty>
	Set_duty(0, &htim4, 2);
 8001bec:	2202      	movs	r2, #2
 8001bee:	4905      	ldr	r1, [pc, #20]	; (8001c04 <Reverse+0x40>)
 8001bf0:	f04f 0000 	mov.w	r0, #0
 8001bf4:	f7ff ff54 	bl	8001aa0 <Set_duty>
}
 8001bf8:	bf00      	nop
 8001bfa:	3708      	adds	r7, #8
 8001bfc:	46bd      	mov	sp, r7
 8001bfe:	bd80      	pop	{r7, pc}
 8001c00:	20000434 	.word	0x20000434
 8001c04:	2000047c 	.word	0x2000047c

08001c08 <Controller>:

void Controller (double new_angle, double vec_angle, Fuzzy_t *fuzzy){
 8001c08:	b5b0      	push	{r4, r5, r7, lr}
 8001c0a:	b084      	sub	sp, #16
 8001c0c:	af00      	add	r7, sp, #0
 8001c0e:	e9c7 0102 	strd	r0, r1, [r7, #8]
 8001c12:	e9c7 2300 	strd	r2, r3, [r7]
	if((new_angle>ANGLE_THRESHOLD)|(new_angle<(-1)*ANGLE_THRESHOLD)){
 8001c16:	2301      	movs	r3, #1
 8001c18:	461c      	mov	r4, r3
 8001c1a:	f04f 0200 	mov.w	r2, #0
 8001c1e:	4b42      	ldr	r3, [pc, #264]	; (8001d28 <Controller+0x120>)
 8001c20:	e9d7 0102 	ldrd	r0, r1, [r7, #8]
 8001c24:	f7fe fee8 	bl	80009f8 <__aeabi_dcmpgt>
 8001c28:	4603      	mov	r3, r0
 8001c2a:	2b00      	cmp	r3, #0
 8001c2c:	d101      	bne.n	8001c32 <Controller+0x2a>
 8001c2e:	2300      	movs	r3, #0
 8001c30:	461c      	mov	r4, r3
 8001c32:	b2e4      	uxtb	r4, r4
 8001c34:	2301      	movs	r3, #1
 8001c36:	461d      	mov	r5, r3
 8001c38:	f04f 0200 	mov.w	r2, #0
 8001c3c:	4b3b      	ldr	r3, [pc, #236]	; (8001d2c <Controller+0x124>)
 8001c3e:	e9d7 0102 	ldrd	r0, r1, [r7, #8]
 8001c42:	f7fe febb 	bl	80009bc <__aeabi_dcmplt>
 8001c46:	4603      	mov	r3, r0
 8001c48:	2b00      	cmp	r3, #0
 8001c4a:	d101      	bne.n	8001c50 <Controller+0x48>
 8001c4c:	2300      	movs	r3, #0
 8001c4e:	461d      	mov	r5, r3
 8001c50:	b2eb      	uxtb	r3, r5
 8001c52:	4323      	orrs	r3, r4
 8001c54:	b2db      	uxtb	r3, r3
 8001c56:	2b00      	cmp	r3, #0
 8001c58:	d002      	beq.n	8001c60 <Controller+0x58>
			Stop_motor();
 8001c5a:	f7ff ff71 	bl	8001b40 <Stop_motor>
			return;
 8001c5e:	e060      	b.n	8001d22 <Controller+0x11a>
		}

	fuzzy->f_inp_fuzzy[0] = (new_angle- OFFSET)/fuzzy->f_K_theta;
 8001c60:	f04f 0200 	mov.w	r2, #0
 8001c64:	f04f 4380 	mov.w	r3, #1073741824	; 0x40000000
 8001c68:	e9d7 0102 	ldrd	r0, r1, [r7, #8]
 8001c6c:	f7fe fa7e 	bl	800016c <__adddf3>
 8001c70:	4602      	mov	r2, r0
 8001c72:	460b      	mov	r3, r1
 8001c74:	4614      	mov	r4, r2
 8001c76:	461d      	mov	r5, r3
 8001c78:	6a3b      	ldr	r3, [r7, #32]
 8001c7a:	68db      	ldr	r3, [r3, #12]
 8001c7c:	4618      	mov	r0, r3
 8001c7e:	f7fe fbd3 	bl	8000428 <__aeabi_f2d>
 8001c82:	4602      	mov	r2, r0
 8001c84:	460b      	mov	r3, r1
 8001c86:	4620      	mov	r0, r4
 8001c88:	4629      	mov	r1, r5
 8001c8a:	f7fe fd4f 	bl	800072c <__aeabi_ddiv>
 8001c8e:	4602      	mov	r2, r0
 8001c90:	460b      	mov	r3, r1
 8001c92:	4610      	mov	r0, r2
 8001c94:	4619      	mov	r1, r3
 8001c96:	f7fe fef7 	bl	8000a88 <__aeabi_d2f>
 8001c9a:	4602      	mov	r2, r0
 8001c9c:	6a3b      	ldr	r3, [r7, #32]
 8001c9e:	601a      	str	r2, [r3, #0]
	Limit_val(&fuzzy->f_inp_fuzzy[0]);
 8001ca0:	6a3b      	ldr	r3, [r7, #32]
 8001ca2:	4618      	mov	r0, r3
 8001ca4:	f7ff fed6 	bl	8001a54 <Limit_val>
	fuzzy->f_inp_fuzzy[1] = vec_angle/fuzzy->f_K_theta_dot;
 8001ca8:	6a3b      	ldr	r3, [r7, #32]
 8001caa:	691b      	ldr	r3, [r3, #16]
 8001cac:	4618      	mov	r0, r3
 8001cae:	f7fe fbbb 	bl	8000428 <__aeabi_f2d>
 8001cb2:	4602      	mov	r2, r0
 8001cb4:	460b      	mov	r3, r1
 8001cb6:	e9d7 0100 	ldrd	r0, r1, [r7]
 8001cba:	f7fe fd37 	bl	800072c <__aeabi_ddiv>
 8001cbe:	4602      	mov	r2, r0
 8001cc0:	460b      	mov	r3, r1
 8001cc2:	4610      	mov	r0, r2
 8001cc4:	4619      	mov	r1, r3
 8001cc6:	f7fe fedf 	bl	8000a88 <__aeabi_d2f>
 8001cca:	4602      	mov	r2, r0
 8001ccc:	6a3b      	ldr	r3, [r7, #32]
 8001cce:	605a      	str	r2, [r3, #4]
	Limit_val(&fuzzy->f_inp_fuzzy[1]);
 8001cd0:	6a3b      	ldr	r3, [r7, #32]
 8001cd2:	3304      	adds	r3, #4
 8001cd4:	4618      	mov	r0, r3
 8001cd6:	f7ff febd 	bl	8001a54 <Limit_val>
	SBR1_run(&fuzzy->f_inp_fuzzy, &fuzzy->f_out_fuzzy);
 8001cda:	6a3a      	ldr	r2, [r7, #32]
 8001cdc:	6a3b      	ldr	r3, [r7, #32]
 8001cde:	3308      	adds	r3, #8
 8001ce0:	4619      	mov	r1, r3
 8001ce2:	4610      	mov	r0, r2
 8001ce4:	f7ff fb8c 	bl	8001400 <SBR1_run>
	Limit_val(&fuzzy->f_out_fuzzy);
 8001ce8:	6a3b      	ldr	r3, [r7, #32]
 8001cea:	3308      	adds	r3, #8
 8001cec:	4618      	mov	r0, r3
 8001cee:	f7ff feb1 	bl	8001a54 <Limit_val>

	if (fuzzy->f_out_fuzzy > 0){
 8001cf2:	6a3b      	ldr	r3, [r7, #32]
 8001cf4:	689b      	ldr	r3, [r3, #8]
 8001cf6:	f04f 0100 	mov.w	r1, #0
 8001cfa:	4618      	mov	r0, r3
 8001cfc:	f7ff f9de 	bl	80010bc <__aeabi_fcmpgt>
 8001d00:	4603      	mov	r3, r0
 8001d02:	2b00      	cmp	r3, #0
 8001d04:	d005      	beq.n	8001d12 <Controller+0x10a>
		Reverse (fuzzy->f_out_fuzzy);
 8001d06:	6a3b      	ldr	r3, [r7, #32]
 8001d08:	689b      	ldr	r3, [r3, #8]
 8001d0a:	4618      	mov	r0, r3
 8001d0c:	f7ff ff5a 	bl	8001bc4 <Reverse>
		return;
 8001d10:	e007      	b.n	8001d22 <Controller+0x11a>
	} else {
		Forward ((-1)*fuzzy->f_out_fuzzy);
 8001d12:	6a3b      	ldr	r3, [r7, #32]
 8001d14:	689b      	ldr	r3, [r3, #8]
 8001d16:	f083 4300 	eor.w	r3, r3, #2147483648	; 0x80000000
 8001d1a:	4618      	mov	r0, r3
 8001d1c:	f7ff ff30 	bl	8001b80 <Forward>
		return;
 8001d20:	bf00      	nop
	}

}
 8001d22:	3710      	adds	r7, #16
 8001d24:	46bd      	mov	sp, r7
 8001d26:	bdb0      	pop	{r4, r5, r7, pc}
 8001d28:	404e0000 	.word	0x404e0000
 8001d2c:	c04e0000 	.word	0xc04e0000

08001d30 <MPU6050_Init>:
    .Q_bias = 0.003f,
    .R_measure = 0.03f,
};

uint8_t MPU6050_Init(I2C_HandleTypeDef *I2Cx)
{
 8001d30:	b580      	push	{r7, lr}
 8001d32:	b088      	sub	sp, #32
 8001d34:	af04      	add	r7, sp, #16
 8001d36:	6078      	str	r0, [r7, #4]
    uint8_t check;
    uint8_t Data;

    // check device ID WHO_AM_I

    HAL_I2C_Mem_Read(I2Cx, MPU6050_ADDR, WHO_AM_I_REG, 1, &check, 1, i2c_timeout);
 8001d38:	2364      	movs	r3, #100	; 0x64
 8001d3a:	9302      	str	r3, [sp, #8]
 8001d3c:	2301      	movs	r3, #1
 8001d3e:	9301      	str	r3, [sp, #4]
 8001d40:	f107 030f 	add.w	r3, r7, #15
 8001d44:	9300      	str	r3, [sp, #0]
 8001d46:	2301      	movs	r3, #1
 8001d48:	2275      	movs	r2, #117	; 0x75
 8001d4a:	21d0      	movs	r1, #208	; 0xd0
 8001d4c:	6878      	ldr	r0, [r7, #4]
 8001d4e:	f003 fdb5 	bl	80058bc <HAL_I2C_Mem_Read>

    if (check == 104) // 0x68 will be returned by the sensor if everything goes well
 8001d52:	7bfb      	ldrb	r3, [r7, #15]
 8001d54:	2b68      	cmp	r3, #104	; 0x68
 8001d56:	d13d      	bne.n	8001dd4 <MPU6050_Init+0xa4>
    {
        // power management register 0X6B we should write all 0's to wake the sensor up
        Data = 0;
 8001d58:	2300      	movs	r3, #0
 8001d5a:	73bb      	strb	r3, [r7, #14]
        HAL_I2C_Mem_Write(I2Cx, MPU6050_ADDR, PWR_MGMT_1_REG, 1, &Data, 1, i2c_timeout);
 8001d5c:	2364      	movs	r3, #100	; 0x64
 8001d5e:	9302      	str	r3, [sp, #8]
 8001d60:	2301      	movs	r3, #1
 8001d62:	9301      	str	r3, [sp, #4]
 8001d64:	f107 030e 	add.w	r3, r7, #14
 8001d68:	9300      	str	r3, [sp, #0]
 8001d6a:	2301      	movs	r3, #1
 8001d6c:	226b      	movs	r2, #107	; 0x6b
 8001d6e:	21d0      	movs	r1, #208	; 0xd0
 8001d70:	6878      	ldr	r0, [r7, #4]
 8001d72:	f003 fca9 	bl	80056c8 <HAL_I2C_Mem_Write>

        // Set DATA RATE of 1KHz by writing SMPLRT_DIV register
        Data = 0x07;
 8001d76:	2307      	movs	r3, #7
 8001d78:	73bb      	strb	r3, [r7, #14]
        HAL_I2C_Mem_Write(I2Cx, MPU6050_ADDR, SMPLRT_DIV_REG, 1, &Data, 1, i2c_timeout);
 8001d7a:	2364      	movs	r3, #100	; 0x64
 8001d7c:	9302      	str	r3, [sp, #8]
 8001d7e:	2301      	movs	r3, #1
 8001d80:	9301      	str	r3, [sp, #4]
 8001d82:	f107 030e 	add.w	r3, r7, #14
 8001d86:	9300      	str	r3, [sp, #0]
 8001d88:	2301      	movs	r3, #1
 8001d8a:	2219      	movs	r2, #25
 8001d8c:	21d0      	movs	r1, #208	; 0xd0
 8001d8e:	6878      	ldr	r0, [r7, #4]
 8001d90:	f003 fc9a 	bl	80056c8 <HAL_I2C_Mem_Write>

        // Set accelerometer configuration in ACCEL_CONFIG Register
        // XA_ST=0,YA_ST=0,ZA_ST=0, FS_SEL=0 ->  2g
        Data = 0x00;
 8001d94:	2300      	movs	r3, #0
 8001d96:	73bb      	strb	r3, [r7, #14]
        HAL_I2C_Mem_Write(I2Cx, MPU6050_ADDR, ACCEL_CONFIG_REG, 1, &Data, 1, i2c_timeout);
 8001d98:	2364      	movs	r3, #100	; 0x64
 8001d9a:	9302      	str	r3, [sp, #8]
 8001d9c:	2301      	movs	r3, #1
 8001d9e:	9301      	str	r3, [sp, #4]
 8001da0:	f107 030e 	add.w	r3, r7, #14
 8001da4:	9300      	str	r3, [sp, #0]
 8001da6:	2301      	movs	r3, #1
 8001da8:	221c      	movs	r2, #28
 8001daa:	21d0      	movs	r1, #208	; 0xd0
 8001dac:	6878      	ldr	r0, [r7, #4]
 8001dae:	f003 fc8b 	bl	80056c8 <HAL_I2C_Mem_Write>

        // Set Gyroscopic configuration in GYRO_CONFIG Register
        // XG_ST=0,YG_ST=0,ZG_ST=0, FS_SEL=0 ->  250 /s
        Data = 0x00;
 8001db2:	2300      	movs	r3, #0
 8001db4:	73bb      	strb	r3, [r7, #14]
        HAL_I2C_Mem_Write(I2Cx, MPU6050_ADDR, GYRO_CONFIG_REG, 1, &Data, 1, i2c_timeout);
 8001db6:	2364      	movs	r3, #100	; 0x64
 8001db8:	9302      	str	r3, [sp, #8]
 8001dba:	2301      	movs	r3, #1
 8001dbc:	9301      	str	r3, [sp, #4]
 8001dbe:	f107 030e 	add.w	r3, r7, #14
 8001dc2:	9300      	str	r3, [sp, #0]
 8001dc4:	2301      	movs	r3, #1
 8001dc6:	221b      	movs	r2, #27
 8001dc8:	21d0      	movs	r1, #208	; 0xd0
 8001dca:	6878      	ldr	r0, [r7, #4]
 8001dcc:	f003 fc7c 	bl	80056c8 <HAL_I2C_Mem_Write>
        return 0;
 8001dd0:	2300      	movs	r3, #0
 8001dd2:	e000      	b.n	8001dd6 <MPU6050_Init+0xa6>
    }
    return 1;
 8001dd4:	2301      	movs	r3, #1
}
 8001dd6:	4618      	mov	r0, r3
 8001dd8:	3710      	adds	r7, #16
 8001dda:	46bd      	mov	sp, r7
 8001ddc:	bd80      	pop	{r7, pc}
	...

08001de0 <MPU6050_Read_All>:
    temp = (int16_t)(Rec_Data[0] << 8 | Rec_Data[1]);
    DataStruct->Temperature = (float)((int16_t)temp / (float)340.0 + (float)36.53);
}

void MPU6050_Read_All(I2C_HandleTypeDef *I2Cx, MPU6050_t *DataStruct)
{
 8001de0:	e92d 4fb0 	stmdb	sp!, {r4, r5, r7, r8, r9, sl, fp, lr}
 8001de4:	b094      	sub	sp, #80	; 0x50
 8001de6:	af04      	add	r7, sp, #16
 8001de8:	6078      	str	r0, [r7, #4]
 8001dea:	6039      	str	r1, [r7, #0]
    uint8_t Rec_Data[14];
    int16_t temp;

    // Read 14 BYTES of data starting from ACCEL_XOUT_H register

    HAL_I2C_Mem_Read(I2Cx, MPU6050_ADDR, ACCEL_XOUT_H_REG, 1, Rec_Data, 14, i2c_timeout);
 8001dec:	2364      	movs	r3, #100	; 0x64
 8001dee:	9302      	str	r3, [sp, #8]
 8001df0:	230e      	movs	r3, #14
 8001df2:	9301      	str	r3, [sp, #4]
 8001df4:	f107 0308 	add.w	r3, r7, #8
 8001df8:	9300      	str	r3, [sp, #0]
 8001dfa:	2301      	movs	r3, #1
 8001dfc:	223b      	movs	r2, #59	; 0x3b
 8001dfe:	21d0      	movs	r1, #208	; 0xd0
 8001e00:	6878      	ldr	r0, [r7, #4]
 8001e02:	f003 fd5b 	bl	80058bc <HAL_I2C_Mem_Read>

    DataStruct->Accel_X_RAW = (int16_t)(Rec_Data[0] << 8 | Rec_Data[1]);
 8001e06:	7a3b      	ldrb	r3, [r7, #8]
 8001e08:	021b      	lsls	r3, r3, #8
 8001e0a:	b21a      	sxth	r2, r3
 8001e0c:	7a7b      	ldrb	r3, [r7, #9]
 8001e0e:	b21b      	sxth	r3, r3
 8001e10:	4313      	orrs	r3, r2
 8001e12:	b21a      	sxth	r2, r3
 8001e14:	683b      	ldr	r3, [r7, #0]
 8001e16:	801a      	strh	r2, [r3, #0]
    DataStruct->Accel_Y_RAW = (int16_t)(Rec_Data[2] << 8 | Rec_Data[3]);
 8001e18:	7abb      	ldrb	r3, [r7, #10]
 8001e1a:	021b      	lsls	r3, r3, #8
 8001e1c:	b21a      	sxth	r2, r3
 8001e1e:	7afb      	ldrb	r3, [r7, #11]
 8001e20:	b21b      	sxth	r3, r3
 8001e22:	4313      	orrs	r3, r2
 8001e24:	b21a      	sxth	r2, r3
 8001e26:	683b      	ldr	r3, [r7, #0]
 8001e28:	805a      	strh	r2, [r3, #2]
    DataStruct->Accel_Z_RAW = (int16_t)(Rec_Data[4] << 8 | Rec_Data[5]);
 8001e2a:	7b3b      	ldrb	r3, [r7, #12]
 8001e2c:	021b      	lsls	r3, r3, #8
 8001e2e:	b21a      	sxth	r2, r3
 8001e30:	7b7b      	ldrb	r3, [r7, #13]
 8001e32:	b21b      	sxth	r3, r3
 8001e34:	4313      	orrs	r3, r2
 8001e36:	b21a      	sxth	r2, r3
 8001e38:	683b      	ldr	r3, [r7, #0]
 8001e3a:	809a      	strh	r2, [r3, #4]
    temp = (int16_t)(Rec_Data[6] << 8 | Rec_Data[7]);
 8001e3c:	7bbb      	ldrb	r3, [r7, #14]
 8001e3e:	021b      	lsls	r3, r3, #8
 8001e40:	b21a      	sxth	r2, r3
 8001e42:	7bfb      	ldrb	r3, [r7, #15]
 8001e44:	b21b      	sxth	r3, r3
 8001e46:	4313      	orrs	r3, r2
 8001e48:	86fb      	strh	r3, [r7, #54]	; 0x36
    DataStruct->Gyro_X_RAW = (int16_t)(Rec_Data[8] << 8 | Rec_Data[9]);
 8001e4a:	7c3b      	ldrb	r3, [r7, #16]
 8001e4c:	021b      	lsls	r3, r3, #8
 8001e4e:	b21a      	sxth	r2, r3
 8001e50:	7c7b      	ldrb	r3, [r7, #17]
 8001e52:	b21b      	sxth	r3, r3
 8001e54:	4313      	orrs	r3, r2
 8001e56:	b21a      	sxth	r2, r3
 8001e58:	683b      	ldr	r3, [r7, #0]
 8001e5a:	841a      	strh	r2, [r3, #32]
    DataStruct->Gyro_Y_RAW = (int16_t)(Rec_Data[10] << 8 | Rec_Data[11]);
 8001e5c:	7cbb      	ldrb	r3, [r7, #18]
 8001e5e:	021b      	lsls	r3, r3, #8
 8001e60:	b21a      	sxth	r2, r3
 8001e62:	7cfb      	ldrb	r3, [r7, #19]
 8001e64:	b21b      	sxth	r3, r3
 8001e66:	4313      	orrs	r3, r2
 8001e68:	b21a      	sxth	r2, r3
 8001e6a:	683b      	ldr	r3, [r7, #0]
 8001e6c:	845a      	strh	r2, [r3, #34]	; 0x22
    DataStruct->Gyro_Z_RAW = (int16_t)(Rec_Data[12] << 8 | Rec_Data[13]);
 8001e6e:	7d3b      	ldrb	r3, [r7, #20]
 8001e70:	021b      	lsls	r3, r3, #8
 8001e72:	b21a      	sxth	r2, r3
 8001e74:	7d7b      	ldrb	r3, [r7, #21]
 8001e76:	b21b      	sxth	r3, r3
 8001e78:	4313      	orrs	r3, r2
 8001e7a:	b21a      	sxth	r2, r3
 8001e7c:	683b      	ldr	r3, [r7, #0]
 8001e7e:	849a      	strh	r2, [r3, #36]	; 0x24

    DataStruct->Ax = DataStruct->Accel_X_RAW / 16384.0;
 8001e80:	683b      	ldr	r3, [r7, #0]
 8001e82:	f9b3 3000 	ldrsh.w	r3, [r3]
 8001e86:	4618      	mov	r0, r3
 8001e88:	f7fe fabc 	bl	8000404 <__aeabi_i2d>
 8001e8c:	f04f 0200 	mov.w	r2, #0
 8001e90:	4b95      	ldr	r3, [pc, #596]	; (80020e8 <MPU6050_Read_All+0x308>)
 8001e92:	f7fe fc4b 	bl	800072c <__aeabi_ddiv>
 8001e96:	4602      	mov	r2, r0
 8001e98:	460b      	mov	r3, r1
 8001e9a:	6839      	ldr	r1, [r7, #0]
 8001e9c:	e9c1 2302 	strd	r2, r3, [r1, #8]
    DataStruct->Ay = DataStruct->Accel_Y_RAW / 16384.0;
 8001ea0:	683b      	ldr	r3, [r7, #0]
 8001ea2:	f9b3 3002 	ldrsh.w	r3, [r3, #2]
 8001ea6:	4618      	mov	r0, r3
 8001ea8:	f7fe faac 	bl	8000404 <__aeabi_i2d>
 8001eac:	f04f 0200 	mov.w	r2, #0
 8001eb0:	4b8d      	ldr	r3, [pc, #564]	; (80020e8 <MPU6050_Read_All+0x308>)
 8001eb2:	f7fe fc3b 	bl	800072c <__aeabi_ddiv>
 8001eb6:	4602      	mov	r2, r0
 8001eb8:	460b      	mov	r3, r1
 8001eba:	6839      	ldr	r1, [r7, #0]
 8001ebc:	e9c1 2304 	strd	r2, r3, [r1, #16]
    DataStruct->Az = DataStruct->Accel_Z_RAW / Accel_Z_corrector;
 8001ec0:	683b      	ldr	r3, [r7, #0]
 8001ec2:	f9b3 3004 	ldrsh.w	r3, [r3, #4]
 8001ec6:	4618      	mov	r0, r3
 8001ec8:	f7fe fa9c 	bl	8000404 <__aeabi_i2d>
 8001ecc:	a380      	add	r3, pc, #512	; (adr r3, 80020d0 <MPU6050_Read_All+0x2f0>)
 8001ece:	e9d3 2300 	ldrd	r2, r3, [r3]
 8001ed2:	f7fe fc2b 	bl	800072c <__aeabi_ddiv>
 8001ed6:	4602      	mov	r2, r0
 8001ed8:	460b      	mov	r3, r1
 8001eda:	6839      	ldr	r1, [r7, #0]
 8001edc:	e9c1 2306 	strd	r2, r3, [r1, #24]
    DataStruct->Temperature = (float)((int16_t)temp / (float)340.0 + (float)36.53);
 8001ee0:	f9b7 3036 	ldrsh.w	r3, [r7, #54]	; 0x36
 8001ee4:	4618      	mov	r0, r3
 8001ee6:	f7fe fed9 	bl	8000c9c <__aeabi_i2f>
 8001eea:	4603      	mov	r3, r0
 8001eec:	497f      	ldr	r1, [pc, #508]	; (80020ec <MPU6050_Read_All+0x30c>)
 8001eee:	4618      	mov	r0, r3
 8001ef0:	f7fe ffdc 	bl	8000eac <__aeabi_fdiv>
 8001ef4:	4603      	mov	r3, r0
 8001ef6:	497e      	ldr	r1, [pc, #504]	; (80020f0 <MPU6050_Read_All+0x310>)
 8001ef8:	4618      	mov	r0, r3
 8001efa:	f7fe fe1b 	bl	8000b34 <__addsf3>
 8001efe:	4603      	mov	r3, r0
 8001f00:	461a      	mov	r2, r3
 8001f02:	683b      	ldr	r3, [r7, #0]
 8001f04:	641a      	str	r2, [r3, #64]	; 0x40
    DataStruct->Gx = DataStruct->Gyro_X_RAW / 131.0;
 8001f06:	683b      	ldr	r3, [r7, #0]
 8001f08:	f9b3 3020 	ldrsh.w	r3, [r3, #32]
 8001f0c:	4618      	mov	r0, r3
 8001f0e:	f7fe fa79 	bl	8000404 <__aeabi_i2d>
 8001f12:	a371      	add	r3, pc, #452	; (adr r3, 80020d8 <MPU6050_Read_All+0x2f8>)
 8001f14:	e9d3 2300 	ldrd	r2, r3, [r3]
 8001f18:	f7fe fc08 	bl	800072c <__aeabi_ddiv>
 8001f1c:	4602      	mov	r2, r0
 8001f1e:	460b      	mov	r3, r1
 8001f20:	6839      	ldr	r1, [r7, #0]
 8001f22:	e9c1 230a 	strd	r2, r3, [r1, #40]	; 0x28
    DataStruct->Gy = DataStruct->Gyro_Y_RAW / 131.0;
 8001f26:	683b      	ldr	r3, [r7, #0]
 8001f28:	f9b3 3022 	ldrsh.w	r3, [r3, #34]	; 0x22
 8001f2c:	4618      	mov	r0, r3
 8001f2e:	f7fe fa69 	bl	8000404 <__aeabi_i2d>
 8001f32:	a369      	add	r3, pc, #420	; (adr r3, 80020d8 <MPU6050_Read_All+0x2f8>)
 8001f34:	e9d3 2300 	ldrd	r2, r3, [r3]
 8001f38:	f7fe fbf8 	bl	800072c <__aeabi_ddiv>
 8001f3c:	4602      	mov	r2, r0
 8001f3e:	460b      	mov	r3, r1
 8001f40:	6839      	ldr	r1, [r7, #0]
 8001f42:	e9c1 230c 	strd	r2, r3, [r1, #48]	; 0x30
    DataStruct->Gz = DataStruct->Gyro_Z_RAW / 131.0;
 8001f46:	683b      	ldr	r3, [r7, #0]
 8001f48:	f9b3 3024 	ldrsh.w	r3, [r3, #36]	; 0x24
 8001f4c:	4618      	mov	r0, r3
 8001f4e:	f7fe fa59 	bl	8000404 <__aeabi_i2d>
 8001f52:	a361      	add	r3, pc, #388	; (adr r3, 80020d8 <MPU6050_Read_All+0x2f8>)
 8001f54:	e9d3 2300 	ldrd	r2, r3, [r3]
 8001f58:	f7fe fbe8 	bl	800072c <__aeabi_ddiv>
 8001f5c:	4602      	mov	r2, r0
 8001f5e:	460b      	mov	r3, r1
 8001f60:	6839      	ldr	r1, [r7, #0]
 8001f62:	e9c1 230e 	strd	r2, r3, [r1, #56]	; 0x38

    // Kalman angle solve
    double dt = (double)(HAL_GetTick() - timer) / 1000;
 8001f66:	f002 ff05 	bl	8004d74 <HAL_GetTick>
 8001f6a:	4602      	mov	r2, r0
 8001f6c:	4b61      	ldr	r3, [pc, #388]	; (80020f4 <MPU6050_Read_All+0x314>)
 8001f6e:	681b      	ldr	r3, [r3, #0]
 8001f70:	1ad3      	subs	r3, r2, r3
 8001f72:	4618      	mov	r0, r3
 8001f74:	f7fe fa36 	bl	80003e4 <__aeabi_ui2d>
 8001f78:	f04f 0200 	mov.w	r2, #0
 8001f7c:	4b5e      	ldr	r3, [pc, #376]	; (80020f8 <MPU6050_Read_All+0x318>)
 8001f7e:	f7fe fbd5 	bl	800072c <__aeabi_ddiv>
 8001f82:	4602      	mov	r2, r0
 8001f84:	460b      	mov	r3, r1
 8001f86:	e9c7 230a 	strd	r2, r3, [r7, #40]	; 0x28
    timer = HAL_GetTick();
 8001f8a:	f002 fef3 	bl	8004d74 <HAL_GetTick>
 8001f8e:	4603      	mov	r3, r0
 8001f90:	4a58      	ldr	r2, [pc, #352]	; (80020f4 <MPU6050_Read_All+0x314>)
 8001f92:	6013      	str	r3, [r2, #0]
    double roll;
    double roll_sqrt = sqrt(
        DataStruct->Accel_X_RAW * DataStruct->Accel_X_RAW + DataStruct->Accel_Z_RAW * DataStruct->Accel_Z_RAW);
 8001f94:	683b      	ldr	r3, [r7, #0]
 8001f96:	f9b3 3000 	ldrsh.w	r3, [r3]
 8001f9a:	461a      	mov	r2, r3
 8001f9c:	683b      	ldr	r3, [r7, #0]
 8001f9e:	f9b3 3000 	ldrsh.w	r3, [r3]
 8001fa2:	fb03 f202 	mul.w	r2, r3, r2
 8001fa6:	683b      	ldr	r3, [r7, #0]
 8001fa8:	f9b3 3004 	ldrsh.w	r3, [r3, #4]
 8001fac:	4619      	mov	r1, r3
 8001fae:	683b      	ldr	r3, [r7, #0]
 8001fb0:	f9b3 3004 	ldrsh.w	r3, [r3, #4]
 8001fb4:	fb01 f303 	mul.w	r3, r1, r3
 8001fb8:	4413      	add	r3, r2
    double roll_sqrt = sqrt(
 8001fba:	4618      	mov	r0, r3
 8001fbc:	f7fe fa22 	bl	8000404 <__aeabi_i2d>
 8001fc0:	4602      	mov	r2, r0
 8001fc2:	460b      	mov	r3, r1
 8001fc4:	4610      	mov	r0, r2
 8001fc6:	4619      	mov	r1, r3
 8001fc8:	f007 f8d9 	bl	800917e <sqrt>
 8001fcc:	e9c7 0108 	strd	r0, r1, [r7, #32]
    if (roll_sqrt != 0.0)
 8001fd0:	f04f 0200 	mov.w	r2, #0
 8001fd4:	f04f 0300 	mov.w	r3, #0
 8001fd8:	e9d7 0108 	ldrd	r0, r1, [r7, #32]
 8001fdc:	f7fe fce4 	bl	80009a8 <__aeabi_dcmpeq>
 8001fe0:	4603      	mov	r3, r0
 8001fe2:	2b00      	cmp	r3, #0
 8001fe4:	d119      	bne.n	800201a <MPU6050_Read_All+0x23a>
    {
        roll = atan(DataStruct->Accel_Y_RAW / roll_sqrt) * RAD_TO_DEG;
 8001fe6:	683b      	ldr	r3, [r7, #0]
 8001fe8:	f9b3 3002 	ldrsh.w	r3, [r3, #2]
 8001fec:	4618      	mov	r0, r3
 8001fee:	f7fe fa09 	bl	8000404 <__aeabi_i2d>
 8001ff2:	e9d7 2308 	ldrd	r2, r3, [r7, #32]
 8001ff6:	f7fe fb99 	bl	800072c <__aeabi_ddiv>
 8001ffa:	4602      	mov	r2, r0
 8001ffc:	460b      	mov	r3, r1
 8001ffe:	4610      	mov	r0, r2
 8002000:	4619      	mov	r1, r3
 8002002:	f007 f8e1 	bl	80091c8 <atan>
 8002006:	a336      	add	r3, pc, #216	; (adr r3, 80020e0 <MPU6050_Read_All+0x300>)
 8002008:	e9d3 2300 	ldrd	r2, r3, [r3]
 800200c:	f7fe fa64 	bl	80004d8 <__aeabi_dmul>
 8002010:	4602      	mov	r2, r0
 8002012:	460b      	mov	r3, r1
 8002014:	e9c7 230e 	strd	r2, r3, [r7, #56]	; 0x38
 8002018:	e005      	b.n	8002026 <MPU6050_Read_All+0x246>
    }
    else
    {
        roll = 0.0;
 800201a:	f04f 0200 	mov.w	r2, #0
 800201e:	f04f 0300 	mov.w	r3, #0
 8002022:	e9c7 230e 	strd	r2, r3, [r7, #56]	; 0x38
    }
    double pitch = atan2(-DataStruct->Accel_X_RAW, DataStruct->Accel_Z_RAW) * RAD_TO_DEG;
 8002026:	683b      	ldr	r3, [r7, #0]
 8002028:	f9b3 3000 	ldrsh.w	r3, [r3]
 800202c:	425b      	negs	r3, r3
 800202e:	4618      	mov	r0, r3
 8002030:	f7fe f9e8 	bl	8000404 <__aeabi_i2d>
 8002034:	4682      	mov	sl, r0
 8002036:	468b      	mov	fp, r1
 8002038:	683b      	ldr	r3, [r7, #0]
 800203a:	f9b3 3004 	ldrsh.w	r3, [r3, #4]
 800203e:	4618      	mov	r0, r3
 8002040:	f7fe f9e0 	bl	8000404 <__aeabi_i2d>
 8002044:	4602      	mov	r2, r0
 8002046:	460b      	mov	r3, r1
 8002048:	4650      	mov	r0, sl
 800204a:	4659      	mov	r1, fp
 800204c:	f007 f895 	bl	800917a <atan2>
 8002050:	a323      	add	r3, pc, #140	; (adr r3, 80020e0 <MPU6050_Read_All+0x300>)
 8002052:	e9d3 2300 	ldrd	r2, r3, [r3]
 8002056:	f7fe fa3f 	bl	80004d8 <__aeabi_dmul>
 800205a:	4602      	mov	r2, r0
 800205c:	460b      	mov	r3, r1
 800205e:	e9c7 2306 	strd	r2, r3, [r7, #24]
    if ((pitch < -90 && DataStruct->KalmanAngleY > 90) || (pitch > 90 && DataStruct->KalmanAngleY < -90))
 8002062:	f04f 0200 	mov.w	r2, #0
 8002066:	4b25      	ldr	r3, [pc, #148]	; (80020fc <MPU6050_Read_All+0x31c>)
 8002068:	e9d7 0106 	ldrd	r0, r1, [r7, #24]
 800206c:	f7fe fca6 	bl	80009bc <__aeabi_dcmplt>
 8002070:	4603      	mov	r3, r0
 8002072:	2b00      	cmp	r3, #0
 8002074:	d00a      	beq.n	800208c <MPU6050_Read_All+0x2ac>
 8002076:	683b      	ldr	r3, [r7, #0]
 8002078:	e9d3 0114 	ldrd	r0, r1, [r3, #80]	; 0x50
 800207c:	f04f 0200 	mov.w	r2, #0
 8002080:	4b1f      	ldr	r3, [pc, #124]	; (8002100 <MPU6050_Read_All+0x320>)
 8002082:	f7fe fcb9 	bl	80009f8 <__aeabi_dcmpgt>
 8002086:	4603      	mov	r3, r0
 8002088:	2b00      	cmp	r3, #0
 800208a:	d114      	bne.n	80020b6 <MPU6050_Read_All+0x2d6>
 800208c:	f04f 0200 	mov.w	r2, #0
 8002090:	4b1b      	ldr	r3, [pc, #108]	; (8002100 <MPU6050_Read_All+0x320>)
 8002092:	e9d7 0106 	ldrd	r0, r1, [r7, #24]
 8002096:	f7fe fcaf 	bl	80009f8 <__aeabi_dcmpgt>
 800209a:	4603      	mov	r3, r0
 800209c:	2b00      	cmp	r3, #0
 800209e:	d033      	beq.n	8002108 <MPU6050_Read_All+0x328>
 80020a0:	683b      	ldr	r3, [r7, #0]
 80020a2:	e9d3 0114 	ldrd	r0, r1, [r3, #80]	; 0x50
 80020a6:	f04f 0200 	mov.w	r2, #0
 80020aa:	4b14      	ldr	r3, [pc, #80]	; (80020fc <MPU6050_Read_All+0x31c>)
 80020ac:	f7fe fc86 	bl	80009bc <__aeabi_dcmplt>
 80020b0:	4603      	mov	r3, r0
 80020b2:	2b00      	cmp	r3, #0
 80020b4:	d028      	beq.n	8002108 <MPU6050_Read_All+0x328>
    {
        KalmanY.angle = pitch;
 80020b6:	4913      	ldr	r1, [pc, #76]	; (8002104 <MPU6050_Read_All+0x324>)
 80020b8:	e9d7 2306 	ldrd	r2, r3, [r7, #24]
 80020bc:	e9c1 2306 	strd	r2, r3, [r1, #24]
        DataStruct->KalmanAngleY = pitch;
 80020c0:	6839      	ldr	r1, [r7, #0]
 80020c2:	e9d7 2306 	ldrd	r2, r3, [r7, #24]
 80020c6:	e9c1 2314 	strd	r2, r3, [r1, #80]	; 0x50
 80020ca:	e030      	b.n	800212e <MPU6050_Read_All+0x34e>
 80020cc:	f3af 8000 	nop.w
 80020d0:	00000000 	.word	0x00000000
 80020d4:	40cc2900 	.word	0x40cc2900
 80020d8:	00000000 	.word	0x00000000
 80020dc:	40606000 	.word	0x40606000
 80020e0:	1a63c1f8 	.word	0x1a63c1f8
 80020e4:	404ca5dc 	.word	0x404ca5dc
 80020e8:	40d00000 	.word	0x40d00000
 80020ec:	43aa0000 	.word	0x43aa0000
 80020f0:	42121eb8 	.word	0x42121eb8
 80020f4:	200005d4 	.word	0x200005d4
 80020f8:	408f4000 	.word	0x408f4000
 80020fc:	c0568000 	.word	0xc0568000
 8002100:	40568000 	.word	0x40568000
 8002104:	20000060 	.word	0x20000060
    }
    else
    {
        DataStruct->KalmanAngleY = Kalman_getAngle(&KalmanY, pitch, DataStruct->Gy, dt);
 8002108:	683b      	ldr	r3, [r7, #0]
 800210a:	e9d3 230c 	ldrd	r2, r3, [r3, #48]	; 0x30
 800210e:	e9d7 010a 	ldrd	r0, r1, [r7, #40]	; 0x28
 8002112:	e9cd 0102 	strd	r0, r1, [sp, #8]
 8002116:	e9cd 2300 	strd	r2, r3, [sp]
 800211a:	e9d7 2306 	ldrd	r2, r3, [r7, #24]
 800211e:	481c      	ldr	r0, [pc, #112]	; (8002190 <MPU6050_Read_All+0x3b0>)
 8002120:	f000 f83c 	bl	800219c <Kalman_getAngle>
 8002124:	4602      	mov	r2, r0
 8002126:	460b      	mov	r3, r1
 8002128:	6839      	ldr	r1, [r7, #0]
 800212a:	e9c1 2314 	strd	r2, r3, [r1, #80]	; 0x50
    }
    if (fabs(DataStruct->KalmanAngleY) > 90)
 800212e:	683b      	ldr	r3, [r7, #0]
 8002130:	e9d3 2314 	ldrd	r2, r3, [r3, #80]	; 0x50
 8002134:	4690      	mov	r8, r2
 8002136:	f023 4900 	bic.w	r9, r3, #2147483648	; 0x80000000
 800213a:	f04f 0200 	mov.w	r2, #0
 800213e:	4b15      	ldr	r3, [pc, #84]	; (8002194 <MPU6050_Read_All+0x3b4>)
 8002140:	4640      	mov	r0, r8
 8002142:	4649      	mov	r1, r9
 8002144:	f7fe fc58 	bl	80009f8 <__aeabi_dcmpgt>
 8002148:	4603      	mov	r3, r0
 800214a:	2b00      	cmp	r3, #0
 800214c:	d008      	beq.n	8002160 <MPU6050_Read_All+0x380>
        DataStruct->Gx = -DataStruct->Gx;
 800214e:	683b      	ldr	r3, [r7, #0]
 8002150:	e9d3 230a 	ldrd	r2, r3, [r3, #40]	; 0x28
 8002154:	4614      	mov	r4, r2
 8002156:	f083 4500 	eor.w	r5, r3, #2147483648	; 0x80000000
 800215a:	683b      	ldr	r3, [r7, #0]
 800215c:	e9c3 450a 	strd	r4, r5, [r3, #40]	; 0x28
    DataStruct->KalmanAngleX = Kalman_getAngle(&KalmanX, roll, DataStruct->Gx, dt);
 8002160:	683b      	ldr	r3, [r7, #0]
 8002162:	e9d3 230a 	ldrd	r2, r3, [r3, #40]	; 0x28
 8002166:	e9d7 010a 	ldrd	r0, r1, [r7, #40]	; 0x28
 800216a:	e9cd 0102 	strd	r0, r1, [sp, #8]
 800216e:	e9cd 2300 	strd	r2, r3, [sp]
 8002172:	e9d7 230e 	ldrd	r2, r3, [r7, #56]	; 0x38
 8002176:	4808      	ldr	r0, [pc, #32]	; (8002198 <MPU6050_Read_All+0x3b8>)
 8002178:	f000 f810 	bl	800219c <Kalman_getAngle>
 800217c:	4602      	mov	r2, r0
 800217e:	460b      	mov	r3, r1
 8002180:	6839      	ldr	r1, [r7, #0]
 8002182:	e9c1 2312 	strd	r2, r3, [r1, #72]	; 0x48
}
 8002186:	bf00      	nop
 8002188:	3740      	adds	r7, #64	; 0x40
 800218a:	46bd      	mov	sp, r7
 800218c:	e8bd 8fb0 	ldmia.w	sp!, {r4, r5, r7, r8, r9, sl, fp, pc}
 8002190:	20000060 	.word	0x20000060
 8002194:	40568000 	.word	0x40568000
 8002198:	20000018 	.word	0x20000018

0800219c <Kalman_getAngle>:

double Kalman_getAngle(Kalman_t *Kalman, double newAngle, double newRate, double dt)
{
 800219c:	b5b0      	push	{r4, r5, r7, lr}
 800219e:	b092      	sub	sp, #72	; 0x48
 80021a0:	af00      	add	r7, sp, #0
 80021a2:	60f8      	str	r0, [r7, #12]
 80021a4:	e9c7 2300 	strd	r2, r3, [r7]
    double rate = newRate - Kalman->bias;
 80021a8:	68fb      	ldr	r3, [r7, #12]
 80021aa:	e9d3 2308 	ldrd	r2, r3, [r3, #32]
 80021ae:	e9d7 0116 	ldrd	r0, r1, [r7, #88]	; 0x58
 80021b2:	f7fd ffd9 	bl	8000168 <__aeabi_dsub>
 80021b6:	4602      	mov	r2, r0
 80021b8:	460b      	mov	r3, r1
 80021ba:	e9c7 2310 	strd	r2, r3, [r7, #64]	; 0x40
    Kalman->angle += dt * rate;
 80021be:	68fb      	ldr	r3, [r7, #12]
 80021c0:	e9d3 4506 	ldrd	r4, r5, [r3, #24]
 80021c4:	e9d7 2310 	ldrd	r2, r3, [r7, #64]	; 0x40
 80021c8:	e9d7 0118 	ldrd	r0, r1, [r7, #96]	; 0x60
 80021cc:	f7fe f984 	bl	80004d8 <__aeabi_dmul>
 80021d0:	4602      	mov	r2, r0
 80021d2:	460b      	mov	r3, r1
 80021d4:	4620      	mov	r0, r4
 80021d6:	4629      	mov	r1, r5
 80021d8:	f7fd ffc8 	bl	800016c <__adddf3>
 80021dc:	4602      	mov	r2, r0
 80021de:	460b      	mov	r3, r1
 80021e0:	68f9      	ldr	r1, [r7, #12]
 80021e2:	e9c1 2306 	strd	r2, r3, [r1, #24]

    Kalman->P[0][0] += dt * (dt * Kalman->P[1][1] - Kalman->P[0][1] - Kalman->P[1][0] + Kalman->Q_angle);
 80021e6:	68fb      	ldr	r3, [r7, #12]
 80021e8:	e9d3 450a 	ldrd	r4, r5, [r3, #40]	; 0x28
 80021ec:	68fb      	ldr	r3, [r7, #12]
 80021ee:	e9d3 0110 	ldrd	r0, r1, [r3, #64]	; 0x40
 80021f2:	e9d7 2318 	ldrd	r2, r3, [r7, #96]	; 0x60
 80021f6:	f7fe f96f 	bl	80004d8 <__aeabi_dmul>
 80021fa:	4602      	mov	r2, r0
 80021fc:	460b      	mov	r3, r1
 80021fe:	4610      	mov	r0, r2
 8002200:	4619      	mov	r1, r3
 8002202:	68fb      	ldr	r3, [r7, #12]
 8002204:	e9d3 230c 	ldrd	r2, r3, [r3, #48]	; 0x30
 8002208:	f7fd ffae 	bl	8000168 <__aeabi_dsub>
 800220c:	4602      	mov	r2, r0
 800220e:	460b      	mov	r3, r1
 8002210:	4610      	mov	r0, r2
 8002212:	4619      	mov	r1, r3
 8002214:	68fb      	ldr	r3, [r7, #12]
 8002216:	e9d3 230e 	ldrd	r2, r3, [r3, #56]	; 0x38
 800221a:	f7fd ffa5 	bl	8000168 <__aeabi_dsub>
 800221e:	4602      	mov	r2, r0
 8002220:	460b      	mov	r3, r1
 8002222:	4610      	mov	r0, r2
 8002224:	4619      	mov	r1, r3
 8002226:	68fb      	ldr	r3, [r7, #12]
 8002228:	e9d3 2300 	ldrd	r2, r3, [r3]
 800222c:	f7fd ff9e 	bl	800016c <__adddf3>
 8002230:	4602      	mov	r2, r0
 8002232:	460b      	mov	r3, r1
 8002234:	4610      	mov	r0, r2
 8002236:	4619      	mov	r1, r3
 8002238:	e9d7 2318 	ldrd	r2, r3, [r7, #96]	; 0x60
 800223c:	f7fe f94c 	bl	80004d8 <__aeabi_dmul>
 8002240:	4602      	mov	r2, r0
 8002242:	460b      	mov	r3, r1
 8002244:	4620      	mov	r0, r4
 8002246:	4629      	mov	r1, r5
 8002248:	f7fd ff90 	bl	800016c <__adddf3>
 800224c:	4602      	mov	r2, r0
 800224e:	460b      	mov	r3, r1
 8002250:	68f9      	ldr	r1, [r7, #12]
 8002252:	e9c1 230a 	strd	r2, r3, [r1, #40]	; 0x28
    Kalman->P[0][1] -= dt * Kalman->P[1][1];
 8002256:	68fb      	ldr	r3, [r7, #12]
 8002258:	e9d3 450c 	ldrd	r4, r5, [r3, #48]	; 0x30
 800225c:	68fb      	ldr	r3, [r7, #12]
 800225e:	e9d3 0110 	ldrd	r0, r1, [r3, #64]	; 0x40
 8002262:	e9d7 2318 	ldrd	r2, r3, [r7, #96]	; 0x60
 8002266:	f7fe f937 	bl	80004d8 <__aeabi_dmul>
 800226a:	4602      	mov	r2, r0
 800226c:	460b      	mov	r3, r1
 800226e:	4620      	mov	r0, r4
 8002270:	4629      	mov	r1, r5
 8002272:	f7fd ff79 	bl	8000168 <__aeabi_dsub>
 8002276:	4602      	mov	r2, r0
 8002278:	460b      	mov	r3, r1
 800227a:	68f9      	ldr	r1, [r7, #12]
 800227c:	e9c1 230c 	strd	r2, r3, [r1, #48]	; 0x30
    Kalman->P[1][0] -= dt * Kalman->P[1][1];
 8002280:	68fb      	ldr	r3, [r7, #12]
 8002282:	e9d3 450e 	ldrd	r4, r5, [r3, #56]	; 0x38
 8002286:	68fb      	ldr	r3, [r7, #12]
 8002288:	e9d3 0110 	ldrd	r0, r1, [r3, #64]	; 0x40
 800228c:	e9d7 2318 	ldrd	r2, r3, [r7, #96]	; 0x60
 8002290:	f7fe f922 	bl	80004d8 <__aeabi_dmul>
 8002294:	4602      	mov	r2, r0
 8002296:	460b      	mov	r3, r1
 8002298:	4620      	mov	r0, r4
 800229a:	4629      	mov	r1, r5
 800229c:	f7fd ff64 	bl	8000168 <__aeabi_dsub>
 80022a0:	4602      	mov	r2, r0
 80022a2:	460b      	mov	r3, r1
 80022a4:	68f9      	ldr	r1, [r7, #12]
 80022a6:	e9c1 230e 	strd	r2, r3, [r1, #56]	; 0x38
    Kalman->P[1][1] += Kalman->Q_bias * dt;
 80022aa:	68fb      	ldr	r3, [r7, #12]
 80022ac:	e9d3 4510 	ldrd	r4, r5, [r3, #64]	; 0x40
 80022b0:	68fb      	ldr	r3, [r7, #12]
 80022b2:	e9d3 0102 	ldrd	r0, r1, [r3, #8]
 80022b6:	e9d7 2318 	ldrd	r2, r3, [r7, #96]	; 0x60
 80022ba:	f7fe f90d 	bl	80004d8 <__aeabi_dmul>
 80022be:	4602      	mov	r2, r0
 80022c0:	460b      	mov	r3, r1
 80022c2:	4620      	mov	r0, r4
 80022c4:	4629      	mov	r1, r5
 80022c6:	f7fd ff51 	bl	800016c <__adddf3>
 80022ca:	4602      	mov	r2, r0
 80022cc:	460b      	mov	r3, r1
 80022ce:	68f9      	ldr	r1, [r7, #12]
 80022d0:	e9c1 2310 	strd	r2, r3, [r1, #64]	; 0x40

    double S = Kalman->P[0][0] + Kalman->R_measure;
 80022d4:	68fb      	ldr	r3, [r7, #12]
 80022d6:	e9d3 010a 	ldrd	r0, r1, [r3, #40]	; 0x28
 80022da:	68fb      	ldr	r3, [r7, #12]
 80022dc:	e9d3 2304 	ldrd	r2, r3, [r3, #16]
 80022e0:	f7fd ff44 	bl	800016c <__adddf3>
 80022e4:	4602      	mov	r2, r0
 80022e6:	460b      	mov	r3, r1
 80022e8:	e9c7 230e 	strd	r2, r3, [r7, #56]	; 0x38
    double K[2];
    K[0] = Kalman->P[0][0] / S;
 80022ec:	68fb      	ldr	r3, [r7, #12]
 80022ee:	e9d3 010a 	ldrd	r0, r1, [r3, #40]	; 0x28
 80022f2:	e9d7 230e 	ldrd	r2, r3, [r7, #56]	; 0x38
 80022f6:	f7fe fa19 	bl	800072c <__aeabi_ddiv>
 80022fa:	4602      	mov	r2, r0
 80022fc:	460b      	mov	r3, r1
 80022fe:	e9c7 2304 	strd	r2, r3, [r7, #16]
    K[1] = Kalman->P[1][0] / S;
 8002302:	68fb      	ldr	r3, [r7, #12]
 8002304:	e9d3 010e 	ldrd	r0, r1, [r3, #56]	; 0x38
 8002308:	e9d7 230e 	ldrd	r2, r3, [r7, #56]	; 0x38
 800230c:	f7fe fa0e 	bl	800072c <__aeabi_ddiv>
 8002310:	4602      	mov	r2, r0
 8002312:	460b      	mov	r3, r1
 8002314:	e9c7 2306 	strd	r2, r3, [r7, #24]

    double y = newAngle - Kalman->angle;
 8002318:	68fb      	ldr	r3, [r7, #12]
 800231a:	e9d3 2306 	ldrd	r2, r3, [r3, #24]
 800231e:	e9d7 0100 	ldrd	r0, r1, [r7]
 8002322:	f7fd ff21 	bl	8000168 <__aeabi_dsub>
 8002326:	4602      	mov	r2, r0
 8002328:	460b      	mov	r3, r1
 800232a:	e9c7 230c 	strd	r2, r3, [r7, #48]	; 0x30
    Kalman->angle += K[0] * y;
 800232e:	68fb      	ldr	r3, [r7, #12]
 8002330:	e9d3 4506 	ldrd	r4, r5, [r3, #24]
 8002334:	e9d7 0104 	ldrd	r0, r1, [r7, #16]
 8002338:	e9d7 230c 	ldrd	r2, r3, [r7, #48]	; 0x30
 800233c:	f7fe f8cc 	bl	80004d8 <__aeabi_dmul>
 8002340:	4602      	mov	r2, r0
 8002342:	460b      	mov	r3, r1
 8002344:	4620      	mov	r0, r4
 8002346:	4629      	mov	r1, r5
 8002348:	f7fd ff10 	bl	800016c <__adddf3>
 800234c:	4602      	mov	r2, r0
 800234e:	460b      	mov	r3, r1
 8002350:	68f9      	ldr	r1, [r7, #12]
 8002352:	e9c1 2306 	strd	r2, r3, [r1, #24]
    Kalman->bias += K[1] * y;
 8002356:	68fb      	ldr	r3, [r7, #12]
 8002358:	e9d3 4508 	ldrd	r4, r5, [r3, #32]
 800235c:	e9d7 0106 	ldrd	r0, r1, [r7, #24]
 8002360:	e9d7 230c 	ldrd	r2, r3, [r7, #48]	; 0x30
 8002364:	f7fe f8b8 	bl	80004d8 <__aeabi_dmul>
 8002368:	4602      	mov	r2, r0
 800236a:	460b      	mov	r3, r1
 800236c:	4620      	mov	r0, r4
 800236e:	4629      	mov	r1, r5
 8002370:	f7fd fefc 	bl	800016c <__adddf3>
 8002374:	4602      	mov	r2, r0
 8002376:	460b      	mov	r3, r1
 8002378:	68f9      	ldr	r1, [r7, #12]
 800237a:	e9c1 2308 	strd	r2, r3, [r1, #32]

    double P00_temp = Kalman->P[0][0];
 800237e:	68fb      	ldr	r3, [r7, #12]
 8002380:	e9d3 230a 	ldrd	r2, r3, [r3, #40]	; 0x28
 8002384:	e9c7 230a 	strd	r2, r3, [r7, #40]	; 0x28
    double P01_temp = Kalman->P[0][1];
 8002388:	68fb      	ldr	r3, [r7, #12]
 800238a:	e9d3 230c 	ldrd	r2, r3, [r3, #48]	; 0x30
 800238e:	e9c7 2308 	strd	r2, r3, [r7, #32]

    Kalman->P[0][0] -= K[0] * P00_temp;
 8002392:	68fb      	ldr	r3, [r7, #12]
 8002394:	e9d3 450a 	ldrd	r4, r5, [r3, #40]	; 0x28
 8002398:	e9d7 0104 	ldrd	r0, r1, [r7, #16]
 800239c:	e9d7 230a 	ldrd	r2, r3, [r7, #40]	; 0x28
 80023a0:	f7fe f89a 	bl	80004d8 <__aeabi_dmul>
 80023a4:	4602      	mov	r2, r0
 80023a6:	460b      	mov	r3, r1
 80023a8:	4620      	mov	r0, r4
 80023aa:	4629      	mov	r1, r5
 80023ac:	f7fd fedc 	bl	8000168 <__aeabi_dsub>
 80023b0:	4602      	mov	r2, r0
 80023b2:	460b      	mov	r3, r1
 80023b4:	68f9      	ldr	r1, [r7, #12]
 80023b6:	e9c1 230a 	strd	r2, r3, [r1, #40]	; 0x28
    Kalman->P[0][1] -= K[0] * P01_temp;
 80023ba:	68fb      	ldr	r3, [r7, #12]
 80023bc:	e9d3 450c 	ldrd	r4, r5, [r3, #48]	; 0x30
 80023c0:	e9d7 0104 	ldrd	r0, r1, [r7, #16]
 80023c4:	e9d7 2308 	ldrd	r2, r3, [r7, #32]
 80023c8:	f7fe f886 	bl	80004d8 <__aeabi_dmul>
 80023cc:	4602      	mov	r2, r0
 80023ce:	460b      	mov	r3, r1
 80023d0:	4620      	mov	r0, r4
 80023d2:	4629      	mov	r1, r5
 80023d4:	f7fd fec8 	bl	8000168 <__aeabi_dsub>
 80023d8:	4602      	mov	r2, r0
 80023da:	460b      	mov	r3, r1
 80023dc:	68f9      	ldr	r1, [r7, #12]
 80023de:	e9c1 230c 	strd	r2, r3, [r1, #48]	; 0x30
    Kalman->P[1][0] -= K[1] * P00_temp;
 80023e2:	68fb      	ldr	r3, [r7, #12]
 80023e4:	e9d3 450e 	ldrd	r4, r5, [r3, #56]	; 0x38
 80023e8:	e9d7 0106 	ldrd	r0, r1, [r7, #24]
 80023ec:	e9d7 230a 	ldrd	r2, r3, [r7, #40]	; 0x28
 80023f0:	f7fe f872 	bl	80004d8 <__aeabi_dmul>
 80023f4:	4602      	mov	r2, r0
 80023f6:	460b      	mov	r3, r1
 80023f8:	4620      	mov	r0, r4
 80023fa:	4629      	mov	r1, r5
 80023fc:	f7fd feb4 	bl	8000168 <__aeabi_dsub>
 8002400:	4602      	mov	r2, r0
 8002402:	460b      	mov	r3, r1
 8002404:	68f9      	ldr	r1, [r7, #12]
 8002406:	e9c1 230e 	strd	r2, r3, [r1, #56]	; 0x38
    Kalman->P[1][1] -= K[1] * P01_temp;
 800240a:	68fb      	ldr	r3, [r7, #12]
 800240c:	e9d3 4510 	ldrd	r4, r5, [r3, #64]	; 0x40
 8002410:	e9d7 0106 	ldrd	r0, r1, [r7, #24]
 8002414:	e9d7 2308 	ldrd	r2, r3, [r7, #32]
 8002418:	f7fe f85e 	bl	80004d8 <__aeabi_dmul>
 800241c:	4602      	mov	r2, r0
 800241e:	460b      	mov	r3, r1
 8002420:	4620      	mov	r0, r4
 8002422:	4629      	mov	r1, r5
 8002424:	f7fd fea0 	bl	8000168 <__aeabi_dsub>
 8002428:	4602      	mov	r2, r0
 800242a:	460b      	mov	r3, r1
 800242c:	68f9      	ldr	r1, [r7, #12]
 800242e:	e9c1 2310 	strd	r2, r3, [r1, #64]	; 0x40

    return Kalman->angle;
 8002432:	68fb      	ldr	r3, [r7, #12]
 8002434:	e9d3 2306 	ldrd	r2, r3, [r3, #24]
};
 8002438:	4610      	mov	r0, r2
 800243a:	4619      	mov	r1, r3
 800243c:	3748      	adds	r7, #72	; 0x48
 800243e:	46bd      	mov	sp, r7
 8002440:	bdb0      	pop	{r4, r5, r7, pc}
	...

08002444 <_qFFMath_GetAbnormal>:
#define cast_reinterpret( dst, src, dst_type )                              \
(void)memcpy( &dst, &src, sizeof(dst_type) )                                \

/*============================================================================*/
float _qFFMath_GetAbnormal( const int i )
{
 8002444:	b480      	push	{r7}
 8002446:	b083      	sub	sp, #12
 8002448:	af00      	add	r7, sp, #0
 800244a:	6078      	str	r0, [r7, #4]
    static const uint32_t u_ab[ 2 ] = { 0x7F800000u, 0x7FBFFFFFu };
    static float f_ab[ 2 ] = { 0.0f, 0.0f };
    static bool init = true;

    if ( init ) {
 800244c:	4b0a      	ldr	r3, [pc, #40]	; (8002478 <_qFFMath_GetAbnormal+0x34>)
 800244e:	781b      	ldrb	r3, [r3, #0]
 8002450:	2b00      	cmp	r3, #0
 8002452:	d008      	beq.n	8002466 <_qFFMath_GetAbnormal+0x22>
        (void)memcpy( f_ab, u_ab, sizeof(f_ab) );
 8002454:	4b09      	ldr	r3, [pc, #36]	; (800247c <_qFFMath_GetAbnormal+0x38>)
 8002456:	4a0a      	ldr	r2, [pc, #40]	; (8002480 <_qFFMath_GetAbnormal+0x3c>)
 8002458:	e892 0003 	ldmia.w	r2, {r0, r1}
 800245c:	e883 0003 	stmia.w	r3, {r0, r1}
        init = false;
 8002460:	4b05      	ldr	r3, [pc, #20]	; (8002478 <_qFFMath_GetAbnormal+0x34>)
 8002462:	2200      	movs	r2, #0
 8002464:	701a      	strb	r2, [r3, #0]
    }

    return f_ab[ i ];
 8002466:	4a05      	ldr	r2, [pc, #20]	; (800247c <_qFFMath_GetAbnormal+0x38>)
 8002468:	687b      	ldr	r3, [r7, #4]
 800246a:	f852 3023 	ldr.w	r3, [r2, r3, lsl #2]
}
 800246e:	4618      	mov	r0, r3
 8002470:	370c      	adds	r7, #12
 8002472:	46bd      	mov	sp, r7
 8002474:	bc80      	pop	{r7}
 8002476:	4770      	bx	lr
 8002478:	200000a8 	.word	0x200000a8
 800247c:	200005d8 	.word	0x200005d8
 8002480:	08009aa8 	.word	0x08009aa8

08002484 <qFFMath_FPClassify>:
/*============================================================================*/
int qFFMath_FPClassify( const float f )
{
 8002484:	b480      	push	{r7}
 8002486:	b085      	sub	sp, #20
 8002488:	af00      	add	r7, sp, #0
 800248a:	6078      	str	r0, [r7, #4]
    uint32_t u = 0u;
 800248c:	2300      	movs	r3, #0
 800248e:	60bb      	str	r3, [r7, #8]
 8002490:	687b      	ldr	r3, [r7, #4]
    int retVal;

    cast_reinterpret( u, f, uint32_t );
 8002492:	60bb      	str	r3, [r7, #8]
    u &= 0x7FFFFFFFu;
 8002494:	68bb      	ldr	r3, [r7, #8]
 8002496:	f023 4300 	bic.w	r3, r3, #2147483648	; 0x80000000
 800249a:	60bb      	str	r3, [r7, #8]

    if ( 0u == u ) {
 800249c:	68bb      	ldr	r3, [r7, #8]
 800249e:	2b00      	cmp	r3, #0
 80024a0:	d102      	bne.n	80024a8 <qFFMath_FPClassify+0x24>
        retVal = QFFM_FP_ZERO;
 80024a2:	2300      	movs	r3, #0
 80024a4:	60fb      	str	r3, [r7, #12]
 80024a6:	e016      	b.n	80024d6 <qFFMath_FPClassify+0x52>
    }
    else if ( u < 0x00800000u ) {
 80024a8:	68bb      	ldr	r3, [r7, #8]
 80024aa:	f5b3 0f00 	cmp.w	r3, #8388608	; 0x800000
 80024ae:	d202      	bcs.n	80024b6 <qFFMath_FPClassify+0x32>
        retVal = QFFM_FP_SUBNORMAL;
 80024b0:	2301      	movs	r3, #1
 80024b2:	60fb      	str	r3, [r7, #12]
 80024b4:	e00f      	b.n	80024d6 <qFFMath_FPClassify+0x52>
    }
    else if ( u < 0x7F800000u ) {
 80024b6:	68bb      	ldr	r3, [r7, #8]
 80024b8:	f1b3 4fff 	cmp.w	r3, #2139095040	; 0x7f800000
 80024bc:	d202      	bcs.n	80024c4 <qFFMath_FPClassify+0x40>
        retVal = QFFM_FP_NORMAL;
 80024be:	2302      	movs	r3, #2
 80024c0:	60fb      	str	r3, [r7, #12]
 80024c2:	e008      	b.n	80024d6 <qFFMath_FPClassify+0x52>
    }
    else if ( 0x7F800000U == u ) {
 80024c4:	68bb      	ldr	r3, [r7, #8]
 80024c6:	f1b3 4fff 	cmp.w	r3, #2139095040	; 0x7f800000
 80024ca:	d102      	bne.n	80024d2 <qFFMath_FPClassify+0x4e>
        retVal = QFFM_FP_INFINITE;
 80024cc:	2303      	movs	r3, #3
 80024ce:	60fb      	str	r3, [r7, #12]
 80024d0:	e001      	b.n	80024d6 <qFFMath_FPClassify+0x52>
    }
    else {
        retVal = QFFM_FP_NAN;
 80024d2:	2304      	movs	r3, #4
 80024d4:	60fb      	str	r3, [r7, #12]
    }

    return retVal;
 80024d6:	68fb      	ldr	r3, [r7, #12]
}
 80024d8:	4618      	mov	r0, r3
 80024da:	3714      	adds	r7, #20
 80024dc:	46bd      	mov	sp, r7
 80024de:	bc80      	pop	{r7}
 80024e0:	4770      	bx	lr

080024e2 <qFFMath_IsNaN>:
/*============================================================================*/
bool qFFMath_IsNaN( const float x )
{
 80024e2:	b580      	push	{r7, lr}
 80024e4:	b082      	sub	sp, #8
 80024e6:	af00      	add	r7, sp, #0
 80024e8:	6078      	str	r0, [r7, #4]
    return ( QFFM_FP_NAN == qFFMath_FPClassify( x ) );
 80024ea:	6878      	ldr	r0, [r7, #4]
 80024ec:	f7ff ffca 	bl	8002484 <qFFMath_FPClassify>
 80024f0:	4603      	mov	r3, r0
 80024f2:	2b04      	cmp	r3, #4
 80024f4:	bf0c      	ite	eq
 80024f6:	2301      	moveq	r3, #1
 80024f8:	2300      	movne	r3, #0
 80024fa:	b2db      	uxtb	r3, r3
}
 80024fc:	4618      	mov	r0, r3
 80024fe:	3708      	adds	r7, #8
 8002500:	46bd      	mov	sp, r7
 8002502:	bd80      	pop	{r7, pc}

08002504 <qFFMath_Abs>:
{
    return ( qFFMath_FPClassify( x ) == QFFM_FP_NORMAL );
}
/*============================================================================*/
float qFFMath_Abs( float x )
{
 8002504:	b580      	push	{r7, lr}
 8002506:	b082      	sub	sp, #8
 8002508:	af00      	add	r7, sp, #0
 800250a:	6078      	str	r0, [r7, #4]
    return ( x < 0.0f ) ? -x : x;
 800250c:	f04f 0100 	mov.w	r1, #0
 8002510:	6878      	ldr	r0, [r7, #4]
 8002512:	f7fe fdb5 	bl	8001080 <__aeabi_fcmplt>
 8002516:	4603      	mov	r3, r0
 8002518:	2b00      	cmp	r3, #0
 800251a:	d003      	beq.n	8002524 <qFFMath_Abs+0x20>
 800251c:	687b      	ldr	r3, [r7, #4]
 800251e:	f083 4300 	eor.w	r3, r3, #2147483648	; 0x80000000
 8002522:	e000      	b.n	8002526 <qFFMath_Abs+0x22>
 8002524:	687b      	ldr	r3, [r7, #4]
}
 8002526:	4618      	mov	r0, r3
 8002528:	3708      	adds	r7, #8
 800252a:	46bd      	mov	sp, r7
 800252c:	bd80      	pop	{r7, pc}

0800252e <qFFMath_Sqrt>:

    return z*( 2.0f - ( x*z ) );
}
/*============================================================================*/
float qFFMath_Sqrt( float x )
{
 800252e:	b580      	push	{r7, lr}
 8002530:	b086      	sub	sp, #24
 8002532:	af00      	add	r7, sp, #0
 8002534:	6078      	str	r0, [r7, #4]
    float retVal;

    if ( x < 0.0f ) {
 8002536:	687b      	ldr	r3, [r7, #4]
 8002538:	f04f 0100 	mov.w	r1, #0
 800253c:	4618      	mov	r0, r3
 800253e:	f7fe fd9f 	bl	8001080 <__aeabi_fcmplt>
 8002542:	4603      	mov	r3, r0
 8002544:	2b00      	cmp	r3, #0
 8002546:	d004      	beq.n	8002552 <qFFMath_Sqrt+0x24>
        retVal = QFFM_NAN;
 8002548:	2001      	movs	r0, #1
 800254a:	f7ff ff7b 	bl	8002444 <_qFFMath_GetAbnormal>
 800254e:	6178      	str	r0, [r7, #20]
 8002550:	e02f      	b.n	80025b2 <qFFMath_Sqrt+0x84>
    }
    else if ( QFFM_FP_ZERO == qFFMath_FPClassify( x ) ) {
 8002552:	687b      	ldr	r3, [r7, #4]
 8002554:	4618      	mov	r0, r3
 8002556:	f7ff ff95 	bl	8002484 <qFFMath_FPClassify>
 800255a:	4603      	mov	r3, r0
 800255c:	2b00      	cmp	r3, #0
 800255e:	d103      	bne.n	8002568 <qFFMath_Sqrt+0x3a>
        retVal = 0.0f;
 8002560:	f04f 0300 	mov.w	r3, #0
 8002564:	617b      	str	r3, [r7, #20]
 8002566:	e024      	b.n	80025b2 <qFFMath_Sqrt+0x84>
    }
    else {
        uint32_t y = 0u;
 8002568:	2300      	movs	r3, #0
 800256a:	613b      	str	r3, [r7, #16]
        float z = 0.0f;
 800256c:	f04f 0300 	mov.w	r3, #0
 8002570:	60fb      	str	r3, [r7, #12]
 8002572:	687b      	ldr	r3, [r7, #4]

        cast_reinterpret( y, x, uint32_t );
 8002574:	613b      	str	r3, [r7, #16]
        y = ( ( y - 0x00800000u ) >> 1u ) + 0x20000000u;
 8002576:	693b      	ldr	r3, [r7, #16]
 8002578:	f5a3 0300 	sub.w	r3, r3, #8388608	; 0x800000
 800257c:	085b      	lsrs	r3, r3, #1
 800257e:	f103 5300 	add.w	r3, r3, #536870912	; 0x20000000
 8002582:	613b      	str	r3, [r7, #16]
 8002584:	693b      	ldr	r3, [r7, #16]
        cast_reinterpret( z, y, float );
 8002586:	60fb      	str	r3, [r7, #12]
        retVal = ( ( x/z ) + z ) * 0.5f;
 8002588:	687b      	ldr	r3, [r7, #4]
 800258a:	68fa      	ldr	r2, [r7, #12]
 800258c:	4611      	mov	r1, r2
 800258e:	4618      	mov	r0, r3
 8002590:	f7fe fc8c 	bl	8000eac <__aeabi_fdiv>
 8002594:	4603      	mov	r3, r0
 8002596:	461a      	mov	r2, r3
 8002598:	68fb      	ldr	r3, [r7, #12]
 800259a:	4619      	mov	r1, r3
 800259c:	4610      	mov	r0, r2
 800259e:	f7fe fac9 	bl	8000b34 <__addsf3>
 80025a2:	4603      	mov	r3, r0
 80025a4:	f04f 517c 	mov.w	r1, #1056964608	; 0x3f000000
 80025a8:	4618      	mov	r0, r3
 80025aa:	f7fe fbcb 	bl	8000d44 <__aeabi_fmul>
 80025ae:	4603      	mov	r3, r0
 80025b0:	617b      	str	r3, [r7, #20]
    }

    return retVal;
 80025b2:	697b      	ldr	r3, [r7, #20]
}
 80025b4:	4618      	mov	r0, r3
 80025b6:	3718      	adds	r7, #24
 80025b8:	46bd      	mov	sp, r7
 80025ba:	bd80      	pop	{r7, pc}

080025bc <qFFMath_Sin>:
    return ( QFFM_FP_ZERO == qFFMath_FPClassify( x )) ? QFFM_NAN
                                                      : ( x - ( y*qFFMath_Trunc( x/y ) ) );
}
/*============================================================================*/
float qFFMath_Sin( float x )
{
 80025bc:	b580      	push	{r7, lr}
 80025be:	b084      	sub	sp, #16
 80025c0:	af00      	add	r7, sp, #0
 80025c2:	6078      	str	r0, [r7, #4]
    float y;
    x *= -0.318309886f;
 80025c4:	491e      	ldr	r1, [pc, #120]	; (8002640 <qFFMath_Sin+0x84>)
 80025c6:	6878      	ldr	r0, [r7, #4]
 80025c8:	f7fe fbbc 	bl	8000d44 <__aeabi_fmul>
 80025cc:	4603      	mov	r3, r0
 80025ce:	607b      	str	r3, [r7, #4]
    y = x + 25165824.0f;
 80025d0:	491c      	ldr	r1, [pc, #112]	; (8002644 <qFFMath_Sin+0x88>)
 80025d2:	6878      	ldr	r0, [r7, #4]
 80025d4:	f7fe faae 	bl	8000b34 <__addsf3>
 80025d8:	4603      	mov	r3, r0
 80025da:	60fb      	str	r3, [r7, #12]
    x -= y - 25165824.0f;
 80025dc:	4919      	ldr	r1, [pc, #100]	; (8002644 <qFFMath_Sin+0x88>)
 80025de:	68f8      	ldr	r0, [r7, #12]
 80025e0:	f7fe faa6 	bl	8000b30 <__aeabi_fsub>
 80025e4:	4603      	mov	r3, r0
 80025e6:	4619      	mov	r1, r3
 80025e8:	6878      	ldr	r0, [r7, #4]
 80025ea:	f7fe faa1 	bl	8000b30 <__aeabi_fsub>
 80025ee:	4603      	mov	r3, r0
 80025f0:	607b      	str	r3, [r7, #4]
    x *= qFFMath_Abs( x ) - 1.0f;
 80025f2:	6878      	ldr	r0, [r7, #4]
 80025f4:	f7ff ff86 	bl	8002504 <qFFMath_Abs>
 80025f8:	4603      	mov	r3, r0
 80025fa:	f04f 517e 	mov.w	r1, #1065353216	; 0x3f800000
 80025fe:	4618      	mov	r0, r3
 8002600:	f7fe fa96 	bl	8000b30 <__aeabi_fsub>
 8002604:	4603      	mov	r3, r0
 8002606:	4619      	mov	r1, r3
 8002608:	6878      	ldr	r0, [r7, #4]
 800260a:	f7fe fb9b 	bl	8000d44 <__aeabi_fmul>
 800260e:	4603      	mov	r3, r0
 8002610:	607b      	str	r3, [r7, #4]
    return x*( ( 3.5841304553896f*qFFMath_Abs( x ) ) + 3.1039673861526f );
 8002612:	6878      	ldr	r0, [r7, #4]
 8002614:	f7ff ff76 	bl	8002504 <qFFMath_Abs>
 8002618:	4603      	mov	r3, r0
 800261a:	490b      	ldr	r1, [pc, #44]	; (8002648 <qFFMath_Sin+0x8c>)
 800261c:	4618      	mov	r0, r3
 800261e:	f7fe fb91 	bl	8000d44 <__aeabi_fmul>
 8002622:	4603      	mov	r3, r0
 8002624:	4909      	ldr	r1, [pc, #36]	; (800264c <qFFMath_Sin+0x90>)
 8002626:	4618      	mov	r0, r3
 8002628:	f7fe fa84 	bl	8000b34 <__addsf3>
 800262c:	4603      	mov	r3, r0
 800262e:	6879      	ldr	r1, [r7, #4]
 8002630:	4618      	mov	r0, r3
 8002632:	f7fe fb87 	bl	8000d44 <__aeabi_fmul>
 8002636:	4603      	mov	r3, r0
}
 8002638:	4618      	mov	r0, r3
 800263a:	3710      	adds	r7, #16
 800263c:	46bd      	mov	sp, r7
 800263e:	bd80      	pop	{r7, pc}
 8002640:	bea2f983 	.word	0xbea2f983
 8002644:	4bc00000 	.word	0x4bc00000
 8002648:	40656265 	.word	0x40656265
 800264c:	4046a767 	.word	0x4046a767

08002650 <qFFMath_Cos>:
/*============================================================================*/
float qFFMath_Cos( float x )
{
 8002650:	b580      	push	{r7, lr}
 8002652:	b082      	sub	sp, #8
 8002654:	af00      	add	r7, sp, #0
 8002656:	6078      	str	r0, [r7, #4]
    return qFFMath_Sin( x + 1.570796327f );
 8002658:	4906      	ldr	r1, [pc, #24]	; (8002674 <qFFMath_Cos+0x24>)
 800265a:	6878      	ldr	r0, [r7, #4]
 800265c:	f7fe fa6a 	bl	8000b34 <__addsf3>
 8002660:	4603      	mov	r3, r0
 8002662:	4618      	mov	r0, r3
 8002664:	f7ff ffaa 	bl	80025bc <qFFMath_Sin>
 8002668:	4603      	mov	r3, r0
}
 800266a:	4618      	mov	r0, r3
 800266c:	3708      	adds	r7, #8
 800266e:	46bd      	mov	sp, r7
 8002670:	bd80      	pop	{r7, pc}
 8002672:	bf00      	nop
 8002674:	3fc90fdb 	.word	0x3fc90fdb

08002678 <qFFMath_Exp2>:
    y = qFFMath_ATan( y/( x + f ) ) + ( ( x < 0.0f ) ? t : 0.0f );
    return y + ( f*( ( 0.5f*t ) - y ) );
}
/*============================================================================*/
float qFFMath_Exp2( float x )
{
 8002678:	b580      	push	{r7, lr}
 800267a:	b086      	sub	sp, #24
 800267c:	af00      	add	r7, sp, #0
 800267e:	6078      	str	r0, [r7, #4]
    float retVal;

    if ( x <= -126.0f ) {
 8002680:	492e      	ldr	r1, [pc, #184]	; (800273c <qFFMath_Exp2+0xc4>)
 8002682:	6878      	ldr	r0, [r7, #4]
 8002684:	f7fe fd06 	bl	8001094 <__aeabi_fcmple>
 8002688:	4603      	mov	r3, r0
 800268a:	2b00      	cmp	r3, #0
 800268c:	d003      	beq.n	8002696 <qFFMath_Exp2+0x1e>
        retVal = 0.0f;
 800268e:	f04f 0300 	mov.w	r3, #0
 8002692:	617b      	str	r3, [r7, #20]
 8002694:	e04c      	b.n	8002730 <qFFMath_Exp2+0xb8>
    }
    else if ( x > 128.0f ) {
 8002696:	f04f 4186 	mov.w	r1, #1124073472	; 0x43000000
 800269a:	6878      	ldr	r0, [r7, #4]
 800269c:	f7fe fd0e 	bl	80010bc <__aeabi_fcmpgt>
 80026a0:	4603      	mov	r3, r0
 80026a2:	2b00      	cmp	r3, #0
 80026a4:	d004      	beq.n	80026b0 <qFFMath_Exp2+0x38>
        retVal = QFFM_INFINITY;
 80026a6:	2000      	movs	r0, #0
 80026a8:	f7ff fecc 	bl	8002444 <_qFFMath_GetAbnormal>
 80026ac:	6178      	str	r0, [r7, #20]
 80026ae:	e03f      	b.n	8002730 <qFFMath_Exp2+0xb8>
    }
    else {
        float y = 0.0f;
 80026b0:	f04f 0300 	mov.w	r3, #0
 80026b4:	613b      	str	r3, [r7, #16]
        uint32_t exponent;
        /*cstat -CERT-FLP34-C -MISRAC2012-Rule-10.8*/
        exponent = (uint32_t)( x + 127.0f );
 80026b6:	4922      	ldr	r1, [pc, #136]	; (8002740 <qFFMath_Exp2+0xc8>)
 80026b8:	6878      	ldr	r0, [r7, #4]
 80026ba:	f7fe fa3b 	bl	8000b34 <__addsf3>
 80026be:	4603      	mov	r3, r0
 80026c0:	4618      	mov	r0, r3
 80026c2:	f7fe fd2b 	bl	800111c <__aeabi_f2uiz>
 80026c6:	4603      	mov	r3, r0
 80026c8:	60fb      	str	r3, [r7, #12]
        /*cstat +CERT-FLP34-C +MISRAC2012-Rule-10.8 -CERT-FLP36-C*/
        x += 127.0f - (float)exponent;
 80026ca:	68fb      	ldr	r3, [r7, #12]
 80026cc:	4618      	mov	r0, r3
 80026ce:	f7fe fae1 	bl	8000c94 <__aeabi_ui2f>
 80026d2:	4603      	mov	r3, r0
 80026d4:	4619      	mov	r1, r3
 80026d6:	481a      	ldr	r0, [pc, #104]	; (8002740 <qFFMath_Exp2+0xc8>)
 80026d8:	f7fe fa2a 	bl	8000b30 <__aeabi_fsub>
 80026dc:	4603      	mov	r3, r0
 80026de:	4619      	mov	r1, r3
 80026e0:	6878      	ldr	r0, [r7, #4]
 80026e2:	f7fe fa27 	bl	8000b34 <__addsf3>
 80026e6:	4603      	mov	r3, r0
 80026e8:	607b      	str	r3, [r7, #4]
        /*cstat +CERT-FLP36-C*/
        exponent <<= 23u;
 80026ea:	68fb      	ldr	r3, [r7, #12]
 80026ec:	05db      	lsls	r3, r3, #23
 80026ee:	60fb      	str	r3, [r7, #12]
 80026f0:	68fb      	ldr	r3, [r7, #12]
        cast_reinterpret( y, exponent, float );
 80026f2:	613b      	str	r3, [r7, #16]
        x *= ( x*0.339766027f ) + 0.660233972f;
 80026f4:	4913      	ldr	r1, [pc, #76]	; (8002744 <qFFMath_Exp2+0xcc>)
 80026f6:	6878      	ldr	r0, [r7, #4]
 80026f8:	f7fe fb24 	bl	8000d44 <__aeabi_fmul>
 80026fc:	4603      	mov	r3, r0
 80026fe:	4912      	ldr	r1, [pc, #72]	; (8002748 <qFFMath_Exp2+0xd0>)
 8002700:	4618      	mov	r0, r3
 8002702:	f7fe fa17 	bl	8000b34 <__addsf3>
 8002706:	4603      	mov	r3, r0
 8002708:	4619      	mov	r1, r3
 800270a:	6878      	ldr	r0, [r7, #4]
 800270c:	f7fe fb1a 	bl	8000d44 <__aeabi_fmul>
 8002710:	4603      	mov	r3, r0
 8002712:	607b      	str	r3, [r7, #4]
        retVal = y*( x + 1.0f );
 8002714:	f04f 517e 	mov.w	r1, #1065353216	; 0x3f800000
 8002718:	6878      	ldr	r0, [r7, #4]
 800271a:	f7fe fa0b 	bl	8000b34 <__addsf3>
 800271e:	4603      	mov	r3, r0
 8002720:	461a      	mov	r2, r3
 8002722:	693b      	ldr	r3, [r7, #16]
 8002724:	4619      	mov	r1, r3
 8002726:	4610      	mov	r0, r2
 8002728:	f7fe fb0c 	bl	8000d44 <__aeabi_fmul>
 800272c:	4603      	mov	r3, r0
 800272e:	617b      	str	r3, [r7, #20]
    }

    return retVal;
 8002730:	697b      	ldr	r3, [r7, #20]
}
 8002732:	4618      	mov	r0, r3
 8002734:	3718      	adds	r7, #24
 8002736:	46bd      	mov	sp, r7
 8002738:	bd80      	pop	{r7, pc}
 800273a:	bf00      	nop
 800273c:	c2fc0000 	.word	0xc2fc0000
 8002740:	42fe0000 	.word	0x42fe0000
 8002744:	3eadf5d0 	.word	0x3eadf5d0
 8002748:	3f290518 	.word	0x3f290518

0800274c <qFFMath_Log2>:
/*============================================================================*/
float qFFMath_Log2( float x )
{
 800274c:	b580      	push	{r7, lr}
 800274e:	b086      	sub	sp, #24
 8002750:	af00      	add	r7, sp, #0
 8002752:	6078      	str	r0, [r7, #4]
    float retVal;

    if ( x < 0.0f ) {
 8002754:	687b      	ldr	r3, [r7, #4]
 8002756:	f04f 0100 	mov.w	r1, #0
 800275a:	4618      	mov	r0, r3
 800275c:	f7fe fc90 	bl	8001080 <__aeabi_fcmplt>
 8002760:	4603      	mov	r3, r0
 8002762:	2b00      	cmp	r3, #0
 8002764:	d004      	beq.n	8002770 <qFFMath_Log2+0x24>
        retVal = QFFM_NAN;
 8002766:	2001      	movs	r0, #1
 8002768:	f7ff fe6c 	bl	8002444 <_qFFMath_GetAbnormal>
 800276c:	6178      	str	r0, [r7, #20]
 800276e:	e049      	b.n	8002804 <qFFMath_Log2+0xb8>
    }
    else if ( QFFM_FP_ZERO == qFFMath_FPClassify( x ) ) {
 8002770:	687b      	ldr	r3, [r7, #4]
 8002772:	4618      	mov	r0, r3
 8002774:	f7ff fe86 	bl	8002484 <qFFMath_FPClassify>
 8002778:	4603      	mov	r3, r0
 800277a:	2b00      	cmp	r3, #0
 800277c:	d107      	bne.n	800278e <qFFMath_Log2+0x42>
        retVal = -QFFM_INFINITY;
 800277e:	2000      	movs	r0, #0
 8002780:	f7ff fe60 	bl	8002444 <_qFFMath_GetAbnormal>
 8002784:	4603      	mov	r3, r0
 8002786:	f083 4300 	eor.w	r3, r3, #2147483648	; 0x80000000
 800278a:	617b      	str	r3, [r7, #20]
 800278c:	e03a      	b.n	8002804 <qFFMath_Log2+0xb8>
    }
    else {
        uint32_t y = 0u, y2;
 800278e:	2300      	movs	r3, #0
 8002790:	60fb      	str	r3, [r7, #12]
 8002792:	687b      	ldr	r3, [r7, #4]

        cast_reinterpret( y, x, uint32_t );
 8002794:	60fb      	str	r3, [r7, #12]
        y2 = y;
 8002796:	68fb      	ldr	r3, [r7, #12]
 8002798:	613b      	str	r3, [r7, #16]
        y >>= 23u;
 800279a:	68fb      	ldr	r3, [r7, #12]
 800279c:	0ddb      	lsrs	r3, r3, #23
 800279e:	60fb      	str	r3, [r7, #12]
        /*cstat -CERT-FLP36-C*/
        retVal = (float)y;
 80027a0:	68fb      	ldr	r3, [r7, #12]
 80027a2:	4618      	mov	r0, r3
 80027a4:	f7fe fa76 	bl	8000c94 <__aeabi_ui2f>
 80027a8:	4603      	mov	r3, r0
 80027aa:	617b      	str	r3, [r7, #20]
        /*cstat +CERT-FLP36-C*/
        y = ( y2 & 0x007FFFFFu ) | 0x3F800000u;
 80027ac:	693b      	ldr	r3, [r7, #16]
 80027ae:	f3c3 0316 	ubfx	r3, r3, #0, #23
 80027b2:	f043 537e 	orr.w	r3, r3, #1065353216	; 0x3f800000
 80027b6:	60fb      	str	r3, [r7, #12]
 80027b8:	68fb      	ldr	r3, [r7, #12]
        cast_reinterpret( x, y, float );
 80027ba:	607b      	str	r3, [r7, #4]
        retVal += -128.0f + ( x*( ( -0.333333333f*x ) + 2.0f ) ) - 0.666666666f;
 80027bc:	687b      	ldr	r3, [r7, #4]
 80027be:	4914      	ldr	r1, [pc, #80]	; (8002810 <qFFMath_Log2+0xc4>)
 80027c0:	4618      	mov	r0, r3
 80027c2:	f7fe fabf 	bl	8000d44 <__aeabi_fmul>
 80027c6:	4603      	mov	r3, r0
 80027c8:	f04f 4180 	mov.w	r1, #1073741824	; 0x40000000
 80027cc:	4618      	mov	r0, r3
 80027ce:	f7fe f9b1 	bl	8000b34 <__addsf3>
 80027d2:	4603      	mov	r3, r0
 80027d4:	461a      	mov	r2, r3
 80027d6:	687b      	ldr	r3, [r7, #4]
 80027d8:	4619      	mov	r1, r3
 80027da:	4610      	mov	r0, r2
 80027dc:	f7fe fab2 	bl	8000d44 <__aeabi_fmul>
 80027e0:	4603      	mov	r3, r0
 80027e2:	f04f 4186 	mov.w	r1, #1124073472	; 0x43000000
 80027e6:	4618      	mov	r0, r3
 80027e8:	f7fe f9a2 	bl	8000b30 <__aeabi_fsub>
 80027ec:	4603      	mov	r3, r0
 80027ee:	4909      	ldr	r1, [pc, #36]	; (8002814 <qFFMath_Log2+0xc8>)
 80027f0:	4618      	mov	r0, r3
 80027f2:	f7fe f99d 	bl	8000b30 <__aeabi_fsub>
 80027f6:	4603      	mov	r3, r0
 80027f8:	4619      	mov	r1, r3
 80027fa:	6978      	ldr	r0, [r7, #20]
 80027fc:	f7fe f99a 	bl	8000b34 <__addsf3>
 8002800:	4603      	mov	r3, r0
 8002802:	617b      	str	r3, [r7, #20]
    }

    return retVal;
 8002804:	697b      	ldr	r3, [r7, #20]
}
 8002806:	4618      	mov	r0, r3
 8002808:	3718      	adds	r7, #24
 800280a:	46bd      	mov	sp, r7
 800280c:	bd80      	pop	{r7, pc}
 800280e:	bf00      	nop
 8002810:	beaaaaab 	.word	0xbeaaaaab
 8002814:	3f2aaaab 	.word	0x3f2aaaab

08002818 <qFFMath_Exp>:
/*============================================================================*/
float qFFMath_Exp( float x )
{
 8002818:	b580      	push	{r7, lr}
 800281a:	b082      	sub	sp, #8
 800281c:	af00      	add	r7, sp, #0
 800281e:	6078      	str	r0, [r7, #4]
    return qFFMath_Exp2( 1.442695041f*x );
 8002820:	4906      	ldr	r1, [pc, #24]	; (800283c <qFFMath_Exp+0x24>)
 8002822:	6878      	ldr	r0, [r7, #4]
 8002824:	f7fe fa8e 	bl	8000d44 <__aeabi_fmul>
 8002828:	4603      	mov	r3, r0
 800282a:	4618      	mov	r0, r3
 800282c:	f7ff ff24 	bl	8002678 <qFFMath_Exp2>
 8002830:	4603      	mov	r3, r0
}
 8002832:	4618      	mov	r0, r3
 8002834:	3708      	adds	r7, #8
 8002836:	46bd      	mov	sp, r7
 8002838:	bd80      	pop	{r7, pc}
 800283a:	bf00      	nop
 800283c:	3fb8aa3b 	.word	0x3fb8aa3b

08002840 <qFFMath_Log>:
{
    return qFFMath_Exp2( 3.32192809f*x );
}
/*============================================================================*/
float qFFMath_Log( float x )
{
 8002840:	b580      	push	{r7, lr}
 8002842:	b082      	sub	sp, #8
 8002844:	af00      	add	r7, sp, #0
 8002846:	6078      	str	r0, [r7, #4]
    return 0.693147181f*qFFMath_Log2(x);
 8002848:	6878      	ldr	r0, [r7, #4]
 800284a:	f7ff ff7f 	bl	800274c <qFFMath_Log2>
 800284e:	4603      	mov	r3, r0
 8002850:	4904      	ldr	r1, [pc, #16]	; (8002864 <qFFMath_Log+0x24>)
 8002852:	4618      	mov	r0, r3
 8002854:	f7fe fa76 	bl	8000d44 <__aeabi_fmul>
 8002858:	4603      	mov	r3, r0
}
 800285a:	4618      	mov	r0, r3
 800285c:	3708      	adds	r7, #8
 800285e:	46bd      	mov	sp, r7
 8002860:	bd80      	pop	{r7, pc}
 8002862:	bf00      	nop
 8002864:	3f317218 	.word	0x3f317218

08002868 <qFFMath_Pow>:
    return 0.301029996f*qFFMath_Log2(x);
}
/*============================================================================*/
float qFFMath_Pow( float b,
                   float e )
{
 8002868:	b580      	push	{r7, lr}
 800286a:	b082      	sub	sp, #8
 800286c:	af00      	add	r7, sp, #0
 800286e:	6078      	str	r0, [r7, #4]
 8002870:	6039      	str	r1, [r7, #0]
    return qFFMath_Exp2( e*qFFMath_Log2( b ) );
 8002872:	6878      	ldr	r0, [r7, #4]
 8002874:	f7ff ff6a 	bl	800274c <qFFMath_Log2>
 8002878:	4603      	mov	r3, r0
 800287a:	6839      	ldr	r1, [r7, #0]
 800287c:	4618      	mov	r0, r3
 800287e:	f7fe fa61 	bl	8000d44 <__aeabi_fmul>
 8002882:	4603      	mov	r3, r0
 8002884:	4618      	mov	r0, r3
 8002886:	f7ff fef7 	bl	8002678 <qFFMath_Exp2>
 800288a:	4603      	mov	r3, r0
}
 800288c:	4618      	mov	r0, r3
 800288e:	3708      	adds	r7, #8
 8002890:	46bd      	mov	sp, r7
 8002892:	bd80      	pop	{r7, pc}

08002894 <qFIS_SetParameter>:

/*============================================================================*/
int qFIS_SetParameter( qFIS_t * const f,
                       const qFIS_Parameter_t p,
                       const qFIS_ParamValue_t x )
{
 8002894:	b480      	push	{r7}
 8002896:	b085      	sub	sp, #20
 8002898:	af00      	add	r7, sp, #0
 800289a:	6078      	str	r0, [r7, #4]
 800289c:	460b      	mov	r3, r1
 800289e:	70fb      	strb	r3, [r7, #3]
 80028a0:	4613      	mov	r3, r2
 80028a2:	70bb      	strb	r3, [r7, #2]
    int retVal = 0;
 80028a4:	2300      	movs	r3, #0
 80028a6:	60fb      	str	r3, [r7, #12]
    typedef float (*methods_fcn)( const float a, const float b );
    static const methods_fcn method[ 5 ] = { &qFIS_Min, &qFIS_Prod, &qFIS_Max,
                                             &qFIS_ProbOR, &qFIS_Sum
                                           };

    if ( NULL != f ) {
 80028a8:	687b      	ldr	r3, [r7, #4]
 80028aa:	2b00      	cmp	r3, #0
 80028ac:	d05a      	beq.n	8002964 <qFIS_SetParameter+0xd0>
        switch ( p ) {
 80028ae:	78fb      	ldrb	r3, [r7, #3]
 80028b0:	2b04      	cmp	r3, #4
 80028b2:	d84c      	bhi.n	800294e <qFIS_SetParameter+0xba>
 80028b4:	a201      	add	r2, pc, #4	; (adr r2, 80028bc <qFIS_SetParameter+0x28>)
 80028b6:	f852 f023 	ldr.w	pc, [r2, r3, lsl #2]
 80028ba:	bf00      	nop
 80028bc:	080028d1 	.word	0x080028d1
 80028c0:	080028e9 	.word	0x080028e9
 80028c4:	08002907 	.word	0x08002907
 80028c8:	0800291f 	.word	0x0800291f
 80028cc:	0800293d 	.word	0x0800293d
            case qFIS_Implication:
                if ( x <= qFIS_PROD ) {
 80028d0:	78bb      	ldrb	r3, [r7, #2]
 80028d2:	2b01      	cmp	r3, #1
 80028d4:	d83d      	bhi.n	8002952 <qFIS_SetParameter+0xbe>
                    f->implicate = method[ x ];
 80028d6:	78bb      	ldrb	r3, [r7, #2]
 80028d8:	4a25      	ldr	r2, [pc, #148]	; (8002970 <qFIS_SetParameter+0xdc>)
 80028da:	f852 2023 	ldr.w	r2, [r2, r3, lsl #2]
 80028de:	687b      	ldr	r3, [r7, #4]
 80028e0:	619a      	str	r2, [r3, #24]
                    retVal = 1;
 80028e2:	2301      	movs	r3, #1
 80028e4:	60fb      	str	r3, [r7, #12]
                }
                break;
 80028e6:	e034      	b.n	8002952 <qFIS_SetParameter+0xbe>
            case qFIS_Aggregation:
                if ( ( x >= qFIS_MAX ) && ( x <= qFIS_SUM ) ) {
 80028e8:	78bb      	ldrb	r3, [r7, #2]
 80028ea:	2b01      	cmp	r3, #1
 80028ec:	d933      	bls.n	8002956 <qFIS_SetParameter+0xc2>
 80028ee:	78bb      	ldrb	r3, [r7, #2]
 80028f0:	2b04      	cmp	r3, #4
 80028f2:	d830      	bhi.n	8002956 <qFIS_SetParameter+0xc2>
                    f->aggregate = method[ x ];
 80028f4:	78bb      	ldrb	r3, [r7, #2]
 80028f6:	4a1e      	ldr	r2, [pc, #120]	; (8002970 <qFIS_SetParameter+0xdc>)
 80028f8:	f852 2023 	ldr.w	r2, [r2, r3, lsl #2]
 80028fc:	687b      	ldr	r3, [r7, #4]
 80028fe:	61da      	str	r2, [r3, #28]
                    retVal = 1;
 8002900:	2301      	movs	r3, #1
 8002902:	60fb      	str	r3, [r7, #12]
                }
                break;
 8002904:	e027      	b.n	8002956 <qFIS_SetParameter+0xc2>
            case qFIS_AND:
                if ( x <= qFIS_PROD ) {
 8002906:	78bb      	ldrb	r3, [r7, #2]
 8002908:	2b01      	cmp	r3, #1
 800290a:	d826      	bhi.n	800295a <qFIS_SetParameter+0xc6>
                    f->andOp = method[ x ];
 800290c:	78bb      	ldrb	r3, [r7, #2]
 800290e:	4a18      	ldr	r2, [pc, #96]	; (8002970 <qFIS_SetParameter+0xdc>)
 8002910:	f852 2023 	ldr.w	r2, [r2, r3, lsl #2]
 8002914:	687b      	ldr	r3, [r7, #4]
 8002916:	611a      	str	r2, [r3, #16]
                    retVal = 1;
 8002918:	2301      	movs	r3, #1
 800291a:	60fb      	str	r3, [r7, #12]
                }
                break;
 800291c:	e01d      	b.n	800295a <qFIS_SetParameter+0xc6>
            case qFIS_OR:
                if ( ( x >= qFIS_MAX ) && ( x <= qFIS_PROBOR ) ) {
 800291e:	78bb      	ldrb	r3, [r7, #2]
 8002920:	2b01      	cmp	r3, #1
 8002922:	d91c      	bls.n	800295e <qFIS_SetParameter+0xca>
 8002924:	78bb      	ldrb	r3, [r7, #2]
 8002926:	2b03      	cmp	r3, #3
 8002928:	d819      	bhi.n	800295e <qFIS_SetParameter+0xca>
                    f->orOp = method[ x ];
 800292a:	78bb      	ldrb	r3, [r7, #2]
 800292c:	4a10      	ldr	r2, [pc, #64]	; (8002970 <qFIS_SetParameter+0xdc>)
 800292e:	f852 2023 	ldr.w	r2, [r2, r3, lsl #2]
 8002932:	687b      	ldr	r3, [r7, #4]
 8002934:	615a      	str	r2, [r3, #20]
                    retVal = 1;
 8002936:	2301      	movs	r3, #1
 8002938:	60fb      	str	r3, [r7, #12]
                }
                break;
 800293a:	e010      	b.n	800295e <qFIS_SetParameter+0xca>
            case qFIS_EvalPoints:
                if ( (int)x >= 20 ) {
 800293c:	78bb      	ldrb	r3, [r7, #2]
 800293e:	2b13      	cmp	r3, #19
 8002940:	d90f      	bls.n	8002962 <qFIS_SetParameter+0xce>
                    f->nPoints = (size_t)x;
 8002942:	78ba      	ldrb	r2, [r7, #2]
 8002944:	687b      	ldr	r3, [r7, #4]
 8002946:	64da      	str	r2, [r3, #76]	; 0x4c
                    retVal = 1;
 8002948:	2301      	movs	r3, #1
 800294a:	60fb      	str	r3, [r7, #12]
                }
                break;
 800294c:	e009      	b.n	8002962 <qFIS_SetParameter+0xce>
            default:
                break;
 800294e:	bf00      	nop
 8002950:	e008      	b.n	8002964 <qFIS_SetParameter+0xd0>
                break;
 8002952:	bf00      	nop
 8002954:	e006      	b.n	8002964 <qFIS_SetParameter+0xd0>
                break;
 8002956:	bf00      	nop
 8002958:	e004      	b.n	8002964 <qFIS_SetParameter+0xd0>
                break;
 800295a:	bf00      	nop
 800295c:	e002      	b.n	8002964 <qFIS_SetParameter+0xd0>
                break;
 800295e:	bf00      	nop
 8002960:	e000      	b.n	8002964 <qFIS_SetParameter+0xd0>
                break;
 8002962:	bf00      	nop
        }
    }

    return retVal;
 8002964:	68fb      	ldr	r3, [r7, #12]
}
 8002966:	4618      	mov	r0, r3
 8002968:	3714      	adds	r7, #20
 800296a:	46bd      	mov	sp, r7
 800296c:	bc80      	pop	{r7}
 800296e:	4770      	bx	lr
 8002970:	08009ab0 	.word	0x08009ab0

08002974 <qFIS_Setup>:
                qFIS_MF_t *const mf_outputs,
                const size_t nmo,
                const qFIS_Rules_t * const r,
                float *wi,
                const size_t n )
{
 8002974:	b5b0      	push	{r4, r5, r7, lr}
 8002976:	b086      	sub	sp, #24
 8002978:	af00      	add	r7, sp, #0
 800297a:	60f8      	str	r0, [r7, #12]
 800297c:	607a      	str	r2, [r7, #4]
 800297e:	603b      	str	r3, [r7, #0]
 8002980:	460b      	mov	r3, r1
 8002982:	72fb      	strb	r3, [r7, #11]
    int retVal = 0;
 8002984:	2300      	movs	r3, #0
 8002986:	617b      	str	r3, [r7, #20]

    if ( ( NULL != f ) && ( t <= Tsukamoto ) && ( NULL != r ) && ( NULL != wi ) ) {
 8002988:	68fb      	ldr	r3, [r7, #12]
 800298a:	2b00      	cmp	r3, #0
 800298c:	f000 80bb 	beq.w	8002b06 <qFIS_Setup+0x192>
 8002990:	7afb      	ldrb	r3, [r7, #11]
 8002992:	2b02      	cmp	r3, #2
 8002994:	f200 80b7 	bhi.w	8002b06 <qFIS_Setup+0x192>
 8002998:	6c3b      	ldr	r3, [r7, #64]	; 0x40
 800299a:	2b00      	cmp	r3, #0
 800299c:	f000 80b3 	beq.w	8002b06 <qFIS_Setup+0x192>
 80029a0:	6c7b      	ldr	r3, [r7, #68]	; 0x44
 80029a2:	2b00      	cmp	r3, #0
 80029a4:	f000 80af 	beq.w	8002b06 <qFIS_Setup+0x192>
        size_t i;

        f->nInputs = ni/sizeof(qFIS_Input_t);
 80029a8:	683b      	ldr	r3, [r7, #0]
 80029aa:	4a59      	ldr	r2, [pc, #356]	; (8002b10 <qFIS_Setup+0x19c>)
 80029ac:	fba2 2303 	umull	r2, r3, r2, r3
 80029b0:	08da      	lsrs	r2, r3, #3
 80029b2:	68fb      	ldr	r3, [r7, #12]
 80029b4:	63da      	str	r2, [r3, #60]	; 0x3c
        f->nOutputs = no/sizeof(qFIS_Output_t);
 80029b6:	6afb      	ldr	r3, [r7, #44]	; 0x2c
 80029b8:	4a56      	ldr	r2, [pc, #344]	; (8002b14 <qFIS_Setup+0x1a0>)
 80029ba:	fba2 2303 	umull	r2, r3, r2, r3
 80029be:	091a      	lsrs	r2, r3, #4
 80029c0:	68fb      	ldr	r3, [r7, #12]
 80029c2:	641a      	str	r2, [r3, #64]	; 0x40
        f->nMFInputs = nmi/sizeof(qFIS_MF_t);
 80029c4:	6b7b      	ldr	r3, [r7, #52]	; 0x34
 80029c6:	4a54      	ldr	r2, [pc, #336]	; (8002b18 <qFIS_Setup+0x1a4>)
 80029c8:	fba2 2303 	umull	r2, r3, r2, r3
 80029cc:	091a      	lsrs	r2, r3, #4
 80029ce:	68fb      	ldr	r3, [r7, #12]
 80029d0:	645a      	str	r2, [r3, #68]	; 0x44
        f->nMFOutputs = nmo/sizeof(qFIS_MF_t);
 80029d2:	6bfb      	ldr	r3, [r7, #60]	; 0x3c
 80029d4:	4a50      	ldr	r2, [pc, #320]	; (8002b18 <qFIS_Setup+0x1a4>)
 80029d6:	fba2 2303 	umull	r2, r3, r2, r3
 80029da:	091a      	lsrs	r2, r3, #4
 80029dc:	68fb      	ldr	r3, [r7, #12]
 80029de:	649a      	str	r2, [r3, #72]	; 0x48
        f->input = inputs;
 80029e0:	68fb      	ldr	r3, [r7, #12]
 80029e2:	687a      	ldr	r2, [r7, #4]
 80029e4:	601a      	str	r2, [r3, #0]
        f->output = outputs;
 80029e6:	68fb      	ldr	r3, [r7, #12]
 80029e8:	6aba      	ldr	r2, [r7, #40]	; 0x28
 80029ea:	605a      	str	r2, [r3, #4]
        f->inMF = mf_inputs;
 80029ec:	68fb      	ldr	r3, [r7, #12]
 80029ee:	6b3a      	ldr	r2, [r7, #48]	; 0x30
 80029f0:	609a      	str	r2, [r3, #8]
        f->outMF = mf_outputs;
 80029f2:	68fb      	ldr	r3, [r7, #12]
 80029f4:	6bba      	ldr	r2, [r7, #56]	; 0x38
 80029f6:	60da      	str	r2, [r3, #12]
        f->wi = wi;
 80029f8:	68fb      	ldr	r3, [r7, #12]
 80029fa:	6c7a      	ldr	r2, [r7, #68]	; 0x44
 80029fc:	631a      	str	r2, [r3, #48]	; 0x30
        f->rules = r;
 80029fe:	68fb      	ldr	r3, [r7, #12]
 8002a00:	6c3a      	ldr	r2, [r7, #64]	; 0x40
 8002a02:	635a      	str	r2, [r3, #52]	; 0x34
        f->nRules = n;
 8002a04:	68fb      	ldr	r3, [r7, #12]
 8002a06:	6cba      	ldr	r2, [r7, #72]	; 0x48
 8002a08:	651a      	str	r2, [r3, #80]	; 0x50
        f->type = t;
 8002a0a:	68fb      	ldr	r3, [r7, #12]
 8002a0c:	7afa      	ldrb	r2, [r7, #11]
 8002a0e:	f883 205e 	strb.w	r2, [r3, #94]	; 0x5e
        retVal += qFIS_SetParameter( f, qFIS_EvalPoints, (qFIS_ParamValue_t)100 );
 8002a12:	2264      	movs	r2, #100	; 0x64
 8002a14:	2104      	movs	r1, #4
 8002a16:	68f8      	ldr	r0, [r7, #12]
 8002a18:	f7ff ff3c 	bl	8002894 <qFIS_SetParameter>
 8002a1c:	4602      	mov	r2, r0
 8002a1e:	697b      	ldr	r3, [r7, #20]
 8002a20:	4413      	add	r3, r2
 8002a22:	617b      	str	r3, [r7, #20]
        retVal += qFIS_SetParameter( f, qFIS_AND, qFIS_MIN );
 8002a24:	2200      	movs	r2, #0
 8002a26:	2102      	movs	r1, #2
 8002a28:	68f8      	ldr	r0, [r7, #12]
 8002a2a:	f7ff ff33 	bl	8002894 <qFIS_SetParameter>
 8002a2e:	4602      	mov	r2, r0
 8002a30:	697b      	ldr	r3, [r7, #20]
 8002a32:	4413      	add	r3, r2
 8002a34:	617b      	str	r3, [r7, #20]
        retVal += qFIS_SetParameter( f, qFIS_OR, qFIS_MAX );
 8002a36:	2202      	movs	r2, #2
 8002a38:	2103      	movs	r1, #3
 8002a3a:	68f8      	ldr	r0, [r7, #12]
 8002a3c:	f7ff ff2a 	bl	8002894 <qFIS_SetParameter>
 8002a40:	4602      	mov	r2, r0
 8002a42:	697b      	ldr	r3, [r7, #20]
 8002a44:	4413      	add	r3, r2
 8002a46:	617b      	str	r3, [r7, #20]
        retVal += qFIS_SetParameter( f, qFIS_Implication, qFIS_MIN );
 8002a48:	2200      	movs	r2, #0
 8002a4a:	2100      	movs	r1, #0
 8002a4c:	68f8      	ldr	r0, [r7, #12]
 8002a4e:	f7ff ff21 	bl	8002894 <qFIS_SetParameter>
 8002a52:	4602      	mov	r2, r0
 8002a54:	697b      	ldr	r3, [r7, #20]
 8002a56:	4413      	add	r3, r2
 8002a58:	617b      	str	r3, [r7, #20]
        retVal += qFIS_SetParameter( f, qFIS_Aggregation, qFIS_MAX );
 8002a5a:	2202      	movs	r2, #2
 8002a5c:	2101      	movs	r1, #1
 8002a5e:	68f8      	ldr	r0, [r7, #12]
 8002a60:	f7ff ff18 	bl	8002894 <qFIS_SetParameter>
 8002a64:	4602      	mov	r2, r0
 8002a66:	697b      	ldr	r3, [r7, #20]
 8002a68:	4413      	add	r3, r2
 8002a6a:	617b      	str	r3, [r7, #20]
        retVal = ( 5 == retVal ) ? 1 : 0;
 8002a6c:	697b      	ldr	r3, [r7, #20]
 8002a6e:	2b05      	cmp	r3, #5
 8002a70:	bf0c      	ite	eq
 8002a72:	2301      	moveq	r3, #1
 8002a74:	2300      	movne	r3, #0
 8002a76:	b2db      	uxtb	r3, r3
 8002a78:	617b      	str	r3, [r7, #20]
        f->deFuzz = ( Mamdani == t ) ? &qFIS_DeFuzz_Centroid
                                     : &qFIS_DeFuzz_WtAverage;
 8002a7a:	7afb      	ldrb	r3, [r7, #11]
 8002a7c:	2b00      	cmp	r3, #0
 8002a7e:	d101      	bne.n	8002a84 <qFIS_Setup+0x110>
 8002a80:	4a26      	ldr	r2, [pc, #152]	; (8002b1c <qFIS_Setup+0x1a8>)
 8002a82:	e000      	b.n	8002a86 <qFIS_Setup+0x112>
 8002a84:	4a26      	ldr	r2, [pc, #152]	; (8002b20 <qFIS_Setup+0x1ac>)
        f->deFuzz = ( Mamdani == t ) ? &qFIS_DeFuzz_Centroid
 8002a86:	68fb      	ldr	r3, [r7, #12]
 8002a88:	629a      	str	r2, [r3, #40]	; 0x28
        f->ruleWeight = NULL;
 8002a8a:	68fb      	ldr	r3, [r7, #12]
 8002a8c:	2200      	movs	r2, #0
 8002a8e:	62da      	str	r2, [r3, #44]	; 0x2c
        for ( i = 0 ; i < f->nOutputs ; ++i ) {
 8002a90:	2300      	movs	r3, #0
 8002a92:	613b      	str	r3, [r7, #16]
 8002a94:	e032      	b.n	8002afc <qFIS_Setup+0x188>
            /*cstat -CERT-FLP36-C*/
            f->output[ i ].res = ( f->output[ i ].b.max - f->output[ i ].b.min )/(float)f->nPoints;
 8002a96:	68fb      	ldr	r3, [r7, #12]
 8002a98:	685a      	ldr	r2, [r3, #4]
 8002a9a:	693b      	ldr	r3, [r7, #16]
 8002a9c:	2134      	movs	r1, #52	; 0x34
 8002a9e:	fb01 f303 	mul.w	r3, r1, r3
 8002aa2:	4413      	add	r3, r2
 8002aa4:	6858      	ldr	r0, [r3, #4]
 8002aa6:	68fb      	ldr	r3, [r7, #12]
 8002aa8:	685a      	ldr	r2, [r3, #4]
 8002aaa:	693b      	ldr	r3, [r7, #16]
 8002aac:	2134      	movs	r1, #52	; 0x34
 8002aae:	fb01 f303 	mul.w	r3, r1, r3
 8002ab2:	4413      	add	r3, r2
 8002ab4:	681b      	ldr	r3, [r3, #0]
 8002ab6:	4619      	mov	r1, r3
 8002ab8:	f7fe f83a 	bl	8000b30 <__aeabi_fsub>
 8002abc:	4603      	mov	r3, r0
 8002abe:	461d      	mov	r5, r3
 8002ac0:	68fb      	ldr	r3, [r7, #12]
 8002ac2:	6cdb      	ldr	r3, [r3, #76]	; 0x4c
 8002ac4:	4618      	mov	r0, r3
 8002ac6:	f7fe f8e5 	bl	8000c94 <__aeabi_ui2f>
 8002aca:	4601      	mov	r1, r0
 8002acc:	68fb      	ldr	r3, [r7, #12]
 8002ace:	685a      	ldr	r2, [r3, #4]
 8002ad0:	693b      	ldr	r3, [r7, #16]
 8002ad2:	2034      	movs	r0, #52	; 0x34
 8002ad4:	fb00 f303 	mul.w	r3, r0, r3
 8002ad8:	18d4      	adds	r4, r2, r3
 8002ada:	4628      	mov	r0, r5
 8002adc:	f7fe f9e6 	bl	8000eac <__aeabi_fdiv>
 8002ae0:	4603      	mov	r3, r0
 8002ae2:	60e3      	str	r3, [r4, #12]
            /*cstat +CERT-FLP36-C*/
            f->output[ i ].owner = f;
 8002ae4:	68fb      	ldr	r3, [r7, #12]
 8002ae6:	685a      	ldr	r2, [r3, #4]
 8002ae8:	693b      	ldr	r3, [r7, #16]
 8002aea:	2134      	movs	r1, #52	; 0x34
 8002aec:	fb01 f303 	mul.w	r3, r1, r3
 8002af0:	4413      	add	r3, r2
 8002af2:	68fa      	ldr	r2, [r7, #12]
 8002af4:	629a      	str	r2, [r3, #40]	; 0x28
        for ( i = 0 ; i < f->nOutputs ; ++i ) {
 8002af6:	693b      	ldr	r3, [r7, #16]
 8002af8:	3301      	adds	r3, #1
 8002afa:	613b      	str	r3, [r7, #16]
 8002afc:	68fb      	ldr	r3, [r7, #12]
 8002afe:	6c1b      	ldr	r3, [r3, #64]	; 0x40
 8002b00:	693a      	ldr	r2, [r7, #16]
 8002b02:	429a      	cmp	r2, r3
 8002b04:	d3c7      	bcc.n	8002a96 <qFIS_Setup+0x122>
        }
    }

    return retVal;
 8002b06:	697b      	ldr	r3, [r7, #20]
}
 8002b08:	4618      	mov	r0, r3
 8002b0a:	3718      	adds	r7, #24
 8002b0c:	46bd      	mov	sp, r7
 8002b0e:	bdb0      	pop	{r4, r5, r7, pc}
 8002b10:	aaaaaaab 	.word	0xaaaaaaab
 8002b14:	4ec4ec4f 	.word	0x4ec4ec4f
 8002b18:	cccccccd 	.word	0xcccccccd
 8002b1c:	08003395 	.word	0x08003395
 8002b20:	0800342d 	.word	0x0800342d

08002b24 <qFIS_InputSetup>:
/*============================================================================*/
int qFIS_InputSetup( qFIS_Input_t * const v,
                     const qFIS_Tag_t t,
                     const float min,
                     const float max )
{
 8002b24:	b480      	push	{r7}
 8002b26:	b087      	sub	sp, #28
 8002b28:	af00      	add	r7, sp, #0
 8002b2a:	60f8      	str	r0, [r7, #12]
 8002b2c:	60b9      	str	r1, [r7, #8]
 8002b2e:	607a      	str	r2, [r7, #4]
 8002b30:	603b      	str	r3, [r7, #0]
    int retVal = 0;
 8002b32:	2300      	movs	r3, #0
 8002b34:	617b      	str	r3, [r7, #20]

    if ( ( NULL != v ) && ( t >= 0 ) ) {
 8002b36:	68fb      	ldr	r3, [r7, #12]
 8002b38:	2b00      	cmp	r3, #0
 8002b3a:	d018      	beq.n	8002b6e <qFIS_InputSetup+0x4a>
 8002b3c:	68bb      	ldr	r3, [r7, #8]
 8002b3e:	2b00      	cmp	r3, #0
 8002b40:	db15      	blt.n	8002b6e <qFIS_InputSetup+0x4a>
        v[ t ].b.min = min;
 8002b42:	68ba      	ldr	r2, [r7, #8]
 8002b44:	4613      	mov	r3, r2
 8002b46:	005b      	lsls	r3, r3, #1
 8002b48:	4413      	add	r3, r2
 8002b4a:	009b      	lsls	r3, r3, #2
 8002b4c:	461a      	mov	r2, r3
 8002b4e:	68fb      	ldr	r3, [r7, #12]
 8002b50:	4413      	add	r3, r2
 8002b52:	687a      	ldr	r2, [r7, #4]
 8002b54:	601a      	str	r2, [r3, #0]
        v[ t ].b.max = max;
 8002b56:	68ba      	ldr	r2, [r7, #8]
 8002b58:	4613      	mov	r3, r2
 8002b5a:	005b      	lsls	r3, r3, #1
 8002b5c:	4413      	add	r3, r2
 8002b5e:	009b      	lsls	r3, r3, #2
 8002b60:	461a      	mov	r2, r3
 8002b62:	68fb      	ldr	r3, [r7, #12]
 8002b64:	4413      	add	r3, r2
 8002b66:	683a      	ldr	r2, [r7, #0]
 8002b68:	605a      	str	r2, [r3, #4]
        retVal = 1;
 8002b6a:	2301      	movs	r3, #1
 8002b6c:	617b      	str	r3, [r7, #20]
    }

    return retVal;
 8002b6e:	697b      	ldr	r3, [r7, #20]
}
 8002b70:	4618      	mov	r0, r3
 8002b72:	371c      	adds	r7, #28
 8002b74:	46bd      	mov	sp, r7
 8002b76:	bc80      	pop	{r7}
 8002b78:	4770      	bx	lr

08002b7a <qFIS_OutputSetup>:
/*============================================================================*/
int qFIS_OutputSetup( qFIS_Output_t * const v,
                      const qFIS_Tag_t t,
                      const float min,
                      const float max )
{
 8002b7a:	b480      	push	{r7}
 8002b7c:	b087      	sub	sp, #28
 8002b7e:	af00      	add	r7, sp, #0
 8002b80:	60f8      	str	r0, [r7, #12]
 8002b82:	60b9      	str	r1, [r7, #8]
 8002b84:	607a      	str	r2, [r7, #4]
 8002b86:	603b      	str	r3, [r7, #0]
    int retVal = 0;
 8002b88:	2300      	movs	r3, #0
 8002b8a:	617b      	str	r3, [r7, #20]

    if ( ( NULL != v ) && ( t >= 0 ) ) {
 8002b8c:	68fb      	ldr	r3, [r7, #12]
 8002b8e:	2b00      	cmp	r3, #0
 8002b90:	d05a      	beq.n	8002c48 <qFIS_OutputSetup+0xce>
 8002b92:	68bb      	ldr	r3, [r7, #8]
 8002b94:	2b00      	cmp	r3, #0
 8002b96:	db57      	blt.n	8002c48 <qFIS_OutputSetup+0xce>
        v[ t ].data[ 0 ] = 0.0f;
 8002b98:	68bb      	ldr	r3, [r7, #8]
 8002b9a:	2234      	movs	r2, #52	; 0x34
 8002b9c:	fb02 f303 	mul.w	r3, r2, r3
 8002ba0:	68fa      	ldr	r2, [r7, #12]
 8002ba2:	4413      	add	r3, r2
 8002ba4:	f04f 0200 	mov.w	r2, #0
 8002ba8:	619a      	str	r2, [r3, #24]
        v[ t ].data[ 1 ] = 0.0f;
 8002baa:	68bb      	ldr	r3, [r7, #8]
 8002bac:	2234      	movs	r2, #52	; 0x34
 8002bae:	fb02 f303 	mul.w	r3, r2, r3
 8002bb2:	68fa      	ldr	r2, [r7, #12]
 8002bb4:	4413      	add	r3, r2
 8002bb6:	f04f 0200 	mov.w	r2, #0
 8002bba:	61da      	str	r2, [r3, #28]
        v[ t ].data[ 2 ] = 0.0f;
 8002bbc:	68bb      	ldr	r3, [r7, #8]
 8002bbe:	2234      	movs	r2, #52	; 0x34
 8002bc0:	fb02 f303 	mul.w	r3, r2, r3
 8002bc4:	68fa      	ldr	r2, [r7, #12]
 8002bc6:	4413      	add	r3, r2
 8002bc8:	f04f 0200 	mov.w	r2, #0
 8002bcc:	621a      	str	r2, [r3, #32]
        v[ t ].data[ 3 ] = 0.0f;
 8002bce:	68bb      	ldr	r3, [r7, #8]
 8002bd0:	2234      	movs	r2, #52	; 0x34
 8002bd2:	fb02 f303 	mul.w	r3, r2, r3
 8002bd6:	68fa      	ldr	r2, [r7, #12]
 8002bd8:	4413      	add	r3, r2
 8002bda:	f04f 0200 	mov.w	r2, #0
 8002bde:	625a      	str	r2, [r3, #36]	; 0x24
        v[ t ].x = 0.0f;
 8002be0:	68bb      	ldr	r3, [r7, #8]
 8002be2:	2234      	movs	r2, #52	; 0x34
 8002be4:	fb02 f303 	mul.w	r3, r2, r3
 8002be8:	68fa      	ldr	r2, [r7, #12]
 8002bea:	4413      	add	r3, r2
 8002bec:	f04f 0200 	mov.w	r2, #0
 8002bf0:	611a      	str	r2, [r3, #16]
        v[ t ].y = 0.0f;
 8002bf2:	68bb      	ldr	r3, [r7, #8]
 8002bf4:	2234      	movs	r2, #52	; 0x34
 8002bf6:	fb02 f303 	mul.w	r3, r2, r3
 8002bfa:	68fa      	ldr	r2, [r7, #12]
 8002bfc:	4413      	add	r3, r2
 8002bfe:	f04f 0200 	mov.w	r2, #0
 8002c02:	615a      	str	r2, [r3, #20]
        v[ t ].b.min = min;
 8002c04:	68bb      	ldr	r3, [r7, #8]
 8002c06:	2234      	movs	r2, #52	; 0x34
 8002c08:	fb02 f303 	mul.w	r3, r2, r3
 8002c0c:	68fa      	ldr	r2, [r7, #12]
 8002c0e:	4413      	add	r3, r2
 8002c10:	687a      	ldr	r2, [r7, #4]
 8002c12:	601a      	str	r2, [r3, #0]
        v[ t ].b.max = max;
 8002c14:	68bb      	ldr	r3, [r7, #8]
 8002c16:	2234      	movs	r2, #52	; 0x34
 8002c18:	fb02 f303 	mul.w	r3, r2, r3
 8002c1c:	68fa      	ldr	r2, [r7, #12]
 8002c1e:	4413      	add	r3, r2
 8002c20:	683a      	ldr	r2, [r7, #0]
 8002c22:	605a      	str	r2, [r3, #4]
        v[ t ].xag = NULL;
 8002c24:	68bb      	ldr	r3, [r7, #8]
 8002c26:	2234      	movs	r2, #52	; 0x34
 8002c28:	fb02 f303 	mul.w	r3, r2, r3
 8002c2c:	68fa      	ldr	r2, [r7, #12]
 8002c2e:	4413      	add	r3, r2
 8002c30:	2200      	movs	r2, #0
 8002c32:	62da      	str	r2, [r3, #44]	; 0x2c
        v[ t ].yag = NULL;
 8002c34:	68bb      	ldr	r3, [r7, #8]
 8002c36:	2234      	movs	r2, #52	; 0x34
 8002c38:	fb02 f303 	mul.w	r3, r2, r3
 8002c3c:	68fa      	ldr	r2, [r7, #12]
 8002c3e:	4413      	add	r3, r2
 8002c40:	2200      	movs	r2, #0
 8002c42:	631a      	str	r2, [r3, #48]	; 0x30
        retVal = 1;
 8002c44:	2301      	movs	r3, #1
 8002c46:	617b      	str	r3, [r7, #20]
    }

    return retVal;
 8002c48:	697b      	ldr	r3, [r7, #20]
}
 8002c4a:	4618      	mov	r0, r3
 8002c4c:	371c      	adds	r7, #28
 8002c4e:	46bd      	mov	sp, r7
 8002c50:	bc80      	pop	{r7}
 8002c52:	4770      	bx	lr

08002c54 <qFIS_SetInput>:
/*============================================================================*/
int qFIS_SetInput( qFIS_Input_t * const v,
                   const qFIS_Tag_t t,
                   const float value )
{
 8002c54:	b480      	push	{r7}
 8002c56:	b087      	sub	sp, #28
 8002c58:	af00      	add	r7, sp, #0
 8002c5a:	60f8      	str	r0, [r7, #12]
 8002c5c:	60b9      	str	r1, [r7, #8]
 8002c5e:	607a      	str	r2, [r7, #4]
    int retVal = 0;
 8002c60:	2300      	movs	r3, #0
 8002c62:	617b      	str	r3, [r7, #20]

    if ( ( NULL != v ) && ( t >= 0 ) ) {
 8002c64:	68fb      	ldr	r3, [r7, #12]
 8002c66:	2b00      	cmp	r3, #0
 8002c68:	d00e      	beq.n	8002c88 <qFIS_SetInput+0x34>
 8002c6a:	68bb      	ldr	r3, [r7, #8]
 8002c6c:	2b00      	cmp	r3, #0
 8002c6e:	db0b      	blt.n	8002c88 <qFIS_SetInput+0x34>
        v[ t ].b.value = value;
 8002c70:	68ba      	ldr	r2, [r7, #8]
 8002c72:	4613      	mov	r3, r2
 8002c74:	005b      	lsls	r3, r3, #1
 8002c76:	4413      	add	r3, r2
 8002c78:	009b      	lsls	r3, r3, #2
 8002c7a:	461a      	mov	r2, r3
 8002c7c:	68fb      	ldr	r3, [r7, #12]
 8002c7e:	4413      	add	r3, r2
 8002c80:	687a      	ldr	r2, [r7, #4]
 8002c82:	609a      	str	r2, [r3, #8]
        retVal = 1;
 8002c84:	2301      	movs	r3, #1
 8002c86:	617b      	str	r3, [r7, #20]
    }

    return retVal;
 8002c88:	697b      	ldr	r3, [r7, #20]
}
 8002c8a:	4618      	mov	r0, r3
 8002c8c:	371c      	adds	r7, #28
 8002c8e:	46bd      	mov	sp, r7
 8002c90:	bc80      	pop	{r7}
 8002c92:	4770      	bx	lr

08002c94 <qFIS_GetOutput>:
/*============================================================================*/
float qFIS_GetOutput( const qFIS_Output_t * const v,
                      const qFIS_Tag_t t )
{
 8002c94:	b480      	push	{r7}
 8002c96:	b085      	sub	sp, #20
 8002c98:	af00      	add	r7, sp, #0
 8002c9a:	6078      	str	r0, [r7, #4]
 8002c9c:	6039      	str	r1, [r7, #0]
    float retVal = 0.0f;
 8002c9e:	f04f 0300 	mov.w	r3, #0
 8002ca2:	60fb      	str	r3, [r7, #12]

    if ( ( NULL != v ) && ( t >= 0 ) ) {
 8002ca4:	687b      	ldr	r3, [r7, #4]
 8002ca6:	2b00      	cmp	r3, #0
 8002ca8:	d00a      	beq.n	8002cc0 <qFIS_GetOutput+0x2c>
 8002caa:	683b      	ldr	r3, [r7, #0]
 8002cac:	2b00      	cmp	r3, #0
 8002cae:	db07      	blt.n	8002cc0 <qFIS_GetOutput+0x2c>
        retVal = v[ t ].b.value;
 8002cb0:	683b      	ldr	r3, [r7, #0]
 8002cb2:	2234      	movs	r2, #52	; 0x34
 8002cb4:	fb02 f303 	mul.w	r3, r2, r3
 8002cb8:	687a      	ldr	r2, [r7, #4]
 8002cba:	4413      	add	r3, r2
 8002cbc:	689b      	ldr	r3, [r3, #8]
 8002cbe:	60fb      	str	r3, [r7, #12]
    }

    return retVal;
 8002cc0:	68fb      	ldr	r3, [r7, #12]
}
 8002cc2:	4618      	mov	r0, r3
 8002cc4:	3714      	adds	r7, #20
 8002cc6:	46bd      	mov	sp, r7
 8002cc8:	bc80      	pop	{r7}
 8002cca:	4770      	bx	lr

08002ccc <qFIS_SetMF>:
                const qFIS_Tag_t mf,
                const qFIS_MF_Name_t s,
                qFIS_MF_Fcn_t custom_mf,
                const float *cp,
                float h )
{
 8002ccc:	b590      	push	{r4, r7, lr}
 8002cce:	b087      	sub	sp, #28
 8002cd0:	af00      	add	r7, sp, #0
 8002cd2:	60f8      	str	r0, [r7, #12]
 8002cd4:	60b9      	str	r1, [r7, #8]
 8002cd6:	607a      	str	r2, [r7, #4]
 8002cd8:	70fb      	strb	r3, [r7, #3]
    int retVal = 0;
 8002cda:	2300      	movs	r3, #0
 8002cdc:	617b      	str	r3, [r7, #20]
    /* Only for Tsukamoto consequents*/
    &qFIS_TLinSMF, &qFIS_TLinZMF, &qFIS_TConcaveMF,&qFIS_TSigMF, &qFIS_TSMF,
    &qFIS_TZMF
    };

    if ( ( NULL != m ) && ( io >= 0 ) && ( mf >= 0 ) && ( s < _NUM_MFS ) ) {
 8002cde:	68fb      	ldr	r3, [r7, #12]
 8002ce0:	2b00      	cmp	r3, #0
 8002ce2:	d055      	beq.n	8002d90 <qFIS_SetMF+0xc4>
 8002ce4:	68bb      	ldr	r3, [r7, #8]
 8002ce6:	2b00      	cmp	r3, #0
 8002ce8:	db52      	blt.n	8002d90 <qFIS_SetMF+0xc4>
 8002cea:	687b      	ldr	r3, [r7, #4]
 8002cec:	2b00      	cmp	r3, #0
 8002cee:	db4f      	blt.n	8002d90 <qFIS_SetMF+0xc4>
 8002cf0:	78fb      	ldrb	r3, [r7, #3]
 8002cf2:	2b1a      	cmp	r3, #26
 8002cf4:	d84c      	bhi.n	8002d90 <qFIS_SetMF+0xc4>
        if ( NULL != custom_mf ) {
 8002cf6:	6abb      	ldr	r3, [r7, #40]	; 0x28
 8002cf8:	2b00      	cmp	r3, #0
 8002cfa:	d00a      	beq.n	8002d12 <qFIS_SetMF+0x46>
            m[ mf ].shape = custom_mf; /*user-defined membership function*/
 8002cfc:	687a      	ldr	r2, [r7, #4]
 8002cfe:	4613      	mov	r3, r2
 8002d00:	009b      	lsls	r3, r3, #2
 8002d02:	4413      	add	r3, r2
 8002d04:	009b      	lsls	r3, r3, #2
 8002d06:	461a      	mov	r2, r3
 8002d08:	68fb      	ldr	r3, [r7, #12]
 8002d0a:	4413      	add	r3, r2
 8002d0c:	6aba      	ldr	r2, [r7, #40]	; 0x28
 8002d0e:	601a      	str	r2, [r3, #0]
 8002d10:	e00c      	b.n	8002d2c <qFIS_SetMF+0x60>
        }
        else {
            m[ mf ].shape = fShape[ s ];
 8002d12:	78f9      	ldrb	r1, [r7, #3]
 8002d14:	687a      	ldr	r2, [r7, #4]
 8002d16:	4613      	mov	r3, r2
 8002d18:	009b      	lsls	r3, r3, #2
 8002d1a:	4413      	add	r3, r2
 8002d1c:	009b      	lsls	r3, r3, #2
 8002d1e:	461a      	mov	r2, r3
 8002d20:	68fb      	ldr	r3, [r7, #12]
 8002d22:	4413      	add	r3, r2
 8002d24:	4a1d      	ldr	r2, [pc, #116]	; (8002d9c <qFIS_SetMF+0xd0>)
 8002d26:	f852 2021 	ldr.w	r2, [r2, r1, lsl #2]
 8002d2a:	601a      	str	r2, [r3, #0]
        }
        m[ mf ].index = (size_t)io;
 8002d2c:	687a      	ldr	r2, [r7, #4]
 8002d2e:	4613      	mov	r3, r2
 8002d30:	009b      	lsls	r3, r3, #2
 8002d32:	4413      	add	r3, r2
 8002d34:	009b      	lsls	r3, r3, #2
 8002d36:	461a      	mov	r2, r3
 8002d38:	68fb      	ldr	r3, [r7, #12]
 8002d3a:	4413      	add	r3, r2
 8002d3c:	68ba      	ldr	r2, [r7, #8]
 8002d3e:	611a      	str	r2, [r3, #16]
        m[ mf ].points = cp;
 8002d40:	687a      	ldr	r2, [r7, #4]
 8002d42:	4613      	mov	r3, r2
 8002d44:	009b      	lsls	r3, r3, #2
 8002d46:	4413      	add	r3, r2
 8002d48:	009b      	lsls	r3, r3, #2
 8002d4a:	461a      	mov	r2, r3
 8002d4c:	68fb      	ldr	r3, [r7, #12]
 8002d4e:	4413      	add	r3, r2
 8002d50:	6afa      	ldr	r2, [r7, #44]	; 0x2c
 8002d52:	605a      	str	r2, [r3, #4]
        m[ mf ].fx = 0.0f;
 8002d54:	687a      	ldr	r2, [r7, #4]
 8002d56:	4613      	mov	r3, r2
 8002d58:	009b      	lsls	r3, r3, #2
 8002d5a:	4413      	add	r3, r2
 8002d5c:	009b      	lsls	r3, r3, #2
 8002d5e:	461a      	mov	r2, r3
 8002d60:	68fb      	ldr	r3, [r7, #12]
 8002d62:	4413      	add	r3, r2
 8002d64:	f04f 0200 	mov.w	r2, #0
 8002d68:	609a      	str	r2, [r3, #8]
        m[ mf ].h = qFIS_Bound( h, 0.0f, 1.0f );
 8002d6a:	687a      	ldr	r2, [r7, #4]
 8002d6c:	4613      	mov	r3, r2
 8002d6e:	009b      	lsls	r3, r3, #2
 8002d70:	4413      	add	r3, r2
 8002d72:	009b      	lsls	r3, r3, #2
 8002d74:	461a      	mov	r2, r3
 8002d76:	68fb      	ldr	r3, [r7, #12]
 8002d78:	189c      	adds	r4, r3, r2
 8002d7a:	f04f 527e 	mov.w	r2, #1065353216	; 0x3f800000
 8002d7e:	f04f 0100 	mov.w	r1, #0
 8002d82:	6b38      	ldr	r0, [r7, #48]	; 0x30
 8002d84:	f001 fcf1 	bl	800476a <qFIS_Bound>
 8002d88:	4603      	mov	r3, r0
 8002d8a:	60e3      	str	r3, [r4, #12]
        retVal = 1;
 8002d8c:	2301      	movs	r3, #1
 8002d8e:	617b      	str	r3, [r7, #20]
    }

    return retVal;
 8002d90:	697b      	ldr	r3, [r7, #20]
}
 8002d92:	4618      	mov	r0, r3
 8002d94:	371c      	adds	r7, #28
 8002d96:	46bd      	mov	sp, r7
 8002d98:	bd90      	pop	{r4, r7, pc}
 8002d9a:	bf00      	nop
 8002d9c:	08009ac4 	.word	0x08009ac4

08002da0 <qFIS_EvalInputMFs>:

    return retVal;
}
/*============================================================================*/
static void qFIS_EvalInputMFs( qFIS_t * const f )
{
 8002da0:	b5b0      	push	{r4, r5, r7, lr}
 8002da2:	b084      	sub	sp, #16
 8002da4:	af00      	add	r7, sp, #0
 8002da6:	6078      	str	r0, [r7, #4]
    size_t i;
    qFIS_MF_t *mf;

    for ( i = 0 ; i < f->nMFInputs ; ++i ) {
 8002da8:	2300      	movs	r3, #0
 8002daa:	60fb      	str	r3, [r7, #12]
 8002dac:	e026      	b.n	8002dfc <qFIS_EvalInputMFs+0x5c>
        mf = &f->inMF[ i ];
 8002dae:	687b      	ldr	r3, [r7, #4]
 8002db0:	6899      	ldr	r1, [r3, #8]
 8002db2:	68fa      	ldr	r2, [r7, #12]
 8002db4:	4613      	mov	r3, r2
 8002db6:	009b      	lsls	r3, r3, #2
 8002db8:	4413      	add	r3, r2
 8002dba:	009b      	lsls	r3, r3, #2
 8002dbc:	440b      	add	r3, r1
 8002dbe:	60bb      	str	r3, [r7, #8]
        /*cstat -MISRAC2012-Rule-11.3 -CERT-EXP39-C_d*/
        mf->fx = mf->h*mf->shape( (qFIS_IO_Base_t*)&f->input[ mf->index ],
 8002dc0:	68bb      	ldr	r3, [r7, #8]
 8002dc2:	68dd      	ldr	r5, [r3, #12]
 8002dc4:	68bb      	ldr	r3, [r7, #8]
 8002dc6:	681c      	ldr	r4, [r3, #0]
 8002dc8:	687b      	ldr	r3, [r7, #4]
 8002dca:	6819      	ldr	r1, [r3, #0]
 8002dcc:	68bb      	ldr	r3, [r7, #8]
 8002dce:	691a      	ldr	r2, [r3, #16]
 8002dd0:	4613      	mov	r3, r2
 8002dd2:	005b      	lsls	r3, r3, #1
 8002dd4:	4413      	add	r3, r2
 8002dd6:	009b      	lsls	r3, r3, #2
 8002dd8:	18c8      	adds	r0, r1, r3
 8002dda:	68bb      	ldr	r3, [r7, #8]
 8002ddc:	685b      	ldr	r3, [r3, #4]
 8002dde:	2201      	movs	r2, #1
 8002de0:	4619      	mov	r1, r3
 8002de2:	47a0      	blx	r4
 8002de4:	4603      	mov	r3, r0
 8002de6:	4619      	mov	r1, r3
 8002de8:	4628      	mov	r0, r5
 8002dea:	f7fd ffab 	bl	8000d44 <__aeabi_fmul>
 8002dee:	4603      	mov	r3, r0
 8002df0:	461a      	mov	r2, r3
 8002df2:	68bb      	ldr	r3, [r7, #8]
 8002df4:	609a      	str	r2, [r3, #8]
    for ( i = 0 ; i < f->nMFInputs ; ++i ) {
 8002df6:	68fb      	ldr	r3, [r7, #12]
 8002df8:	3301      	adds	r3, #1
 8002dfa:	60fb      	str	r3, [r7, #12]
 8002dfc:	687b      	ldr	r3, [r7, #4]
 8002dfe:	6c5b      	ldr	r3, [r3, #68]	; 0x44
 8002e00:	68fa      	ldr	r2, [r7, #12]
 8002e02:	429a      	cmp	r2, r3
 8002e04:	d3d3      	bcc.n	8002dae <qFIS_EvalInputMFs+0xe>
                                  mf->points,
                                  1u );
        /*cstat +MISRAC2012-Rule-11.3 +CERT-EXP39-C_d*/
    }
}
 8002e06:	bf00      	nop
 8002e08:	bf00      	nop
 8002e0a:	3710      	adds	r7, #16
 8002e0c:	46bd      	mov	sp, r7
 8002e0e:	bdb0      	pop	{r4, r5, r7, pc}

08002e10 <qFIS_TruncateInputs>:
/*============================================================================*/
static void qFIS_TruncateInputs( qFIS_t * const f )
{
 8002e10:	b5f0      	push	{r4, r5, r6, r7, lr}
 8002e12:	b085      	sub	sp, #20
 8002e14:	af00      	add	r7, sp, #0
 8002e16:	6078      	str	r0, [r7, #4]
    size_t i;

    for ( i = 0 ; i < f->nInputs ; ++i ) {
 8002e18:	2300      	movs	r3, #0
 8002e1a:	60fb      	str	r3, [r7, #12]
 8002e1c:	e02b      	b.n	8002e76 <qFIS_TruncateInputs+0x66>
        f->input[ i ].b.value = qFIS_Bound( f->input[ i ].b.value,
 8002e1e:	687b      	ldr	r3, [r7, #4]
 8002e20:	6819      	ldr	r1, [r3, #0]
 8002e22:	68fa      	ldr	r2, [r7, #12]
 8002e24:	4613      	mov	r3, r2
 8002e26:	005b      	lsls	r3, r3, #1
 8002e28:	4413      	add	r3, r2
 8002e2a:	009b      	lsls	r3, r3, #2
 8002e2c:	440b      	add	r3, r1
 8002e2e:	6898      	ldr	r0, [r3, #8]
                                            f->input[ i ].b.min,
 8002e30:	687b      	ldr	r3, [r7, #4]
 8002e32:	6819      	ldr	r1, [r3, #0]
 8002e34:	68fa      	ldr	r2, [r7, #12]
 8002e36:	4613      	mov	r3, r2
 8002e38:	005b      	lsls	r3, r3, #1
 8002e3a:	4413      	add	r3, r2
 8002e3c:	009b      	lsls	r3, r3, #2
 8002e3e:	440b      	add	r3, r1
        f->input[ i ].b.value = qFIS_Bound( f->input[ i ].b.value,
 8002e40:	681d      	ldr	r5, [r3, #0]
                                            f->input[ i ].b.max );
 8002e42:	687b      	ldr	r3, [r7, #4]
 8002e44:	6819      	ldr	r1, [r3, #0]
 8002e46:	68fa      	ldr	r2, [r7, #12]
 8002e48:	4613      	mov	r3, r2
 8002e4a:	005b      	lsls	r3, r3, #1
 8002e4c:	4413      	add	r3, r2
 8002e4e:	009b      	lsls	r3, r3, #2
 8002e50:	440b      	add	r3, r1
        f->input[ i ].b.value = qFIS_Bound( f->input[ i ].b.value,
 8002e52:	685e      	ldr	r6, [r3, #4]
 8002e54:	687b      	ldr	r3, [r7, #4]
 8002e56:	6819      	ldr	r1, [r3, #0]
 8002e58:	68fa      	ldr	r2, [r7, #12]
 8002e5a:	4613      	mov	r3, r2
 8002e5c:	005b      	lsls	r3, r3, #1
 8002e5e:	4413      	add	r3, r2
 8002e60:	009b      	lsls	r3, r3, #2
 8002e62:	18cc      	adds	r4, r1, r3
 8002e64:	4632      	mov	r2, r6
 8002e66:	4629      	mov	r1, r5
 8002e68:	f001 fc7f 	bl	800476a <qFIS_Bound>
 8002e6c:	4603      	mov	r3, r0
 8002e6e:	60a3      	str	r3, [r4, #8]
    for ( i = 0 ; i < f->nInputs ; ++i ) {
 8002e70:	68fb      	ldr	r3, [r7, #12]
 8002e72:	3301      	adds	r3, #1
 8002e74:	60fb      	str	r3, [r7, #12]
 8002e76:	687b      	ldr	r3, [r7, #4]
 8002e78:	6bdb      	ldr	r3, [r3, #60]	; 0x3c
 8002e7a:	68fa      	ldr	r2, [r7, #12]
 8002e7c:	429a      	cmp	r2, r3
 8002e7e:	d3ce      	bcc.n	8002e1e <qFIS_TruncateInputs+0xe>
    }
}
 8002e80:	bf00      	nop
 8002e82:	bf00      	nop
 8002e84:	3714      	adds	r7, #20
 8002e86:	46bd      	mov	sp, r7
 8002e88:	bdf0      	pop	{r4, r5, r6, r7, pc}

08002e8a <qFIS_Fuzzify>:
/*============================================================================*/
int qFIS_Fuzzify( qFIS_t * const f )
{
 8002e8a:	b580      	push	{r7, lr}
 8002e8c:	b084      	sub	sp, #16
 8002e8e:	af00      	add	r7, sp, #0
 8002e90:	6078      	str	r0, [r7, #4]
    int retVal = 0;
 8002e92:	2300      	movs	r3, #0
 8002e94:	60fb      	str	r3, [r7, #12]

    if ( NULL != f ) {
 8002e96:	687b      	ldr	r3, [r7, #4]
 8002e98:	2b00      	cmp	r3, #0
 8002e9a:	d007      	beq.n	8002eac <qFIS_Fuzzify+0x22>
        qFIS_TruncateInputs( f );
 8002e9c:	6878      	ldr	r0, [r7, #4]
 8002e9e:	f7ff ffb7 	bl	8002e10 <qFIS_TruncateInputs>
        qFIS_EvalInputMFs( f );
 8002ea2:	6878      	ldr	r0, [r7, #4]
 8002ea4:	f7ff ff7c 	bl	8002da0 <qFIS_EvalInputMFs>
        retVal = 1;
 8002ea8:	2301      	movs	r3, #1
 8002eaa:	60fb      	str	r3, [r7, #12]
    }

    return retVal;
 8002eac:	68fb      	ldr	r3, [r7, #12]
}
 8002eae:	4618      	mov	r0, r3
 8002eb0:	3710      	adds	r7, #16
 8002eb2:	46bd      	mov	sp, r7
 8002eb4:	bd80      	pop	{r7, pc}

08002eb6 <qFIS_ParseFuzzValue>:
/*============================================================================*/
static float qFIS_ParseFuzzValue( qFIS_MF_t * const mfIO,
                                  qFIS_Rules_t index )
{
 8002eb6:	b580      	push	{r7, lr}
 8002eb8:	b084      	sub	sp, #16
 8002eba:	af00      	add	r7, sp, #0
 8002ebc:	6078      	str	r0, [r7, #4]
 8002ebe:	460b      	mov	r3, r1
 8002ec0:	807b      	strh	r3, [r7, #2]
    uint8_t neg = (uint8_t)( index < 0 );
 8002ec2:	887b      	ldrh	r3, [r7, #2]
 8002ec4:	0bdb      	lsrs	r3, r3, #15
 8002ec6:	b2db      	uxtb	r3, r3
 8002ec8:	73fb      	strb	r3, [r7, #15]
    float y;

    if ( 0u != neg ) {
 8002eca:	7bfb      	ldrb	r3, [r7, #15]
 8002ecc:	2b00      	cmp	r3, #0
 8002ece:	d003      	beq.n	8002ed8 <qFIS_ParseFuzzValue+0x22>
        index = -index;
 8002ed0:	887b      	ldrh	r3, [r7, #2]
 8002ed2:	425b      	negs	r3, r3
 8002ed4:	b29b      	uxth	r3, r3
 8002ed6:	807b      	strh	r3, [r7, #2]
    }
    /*cstat -CERT-INT32-C_a*/
    y = qFIS_Bound( mfIO[ index - 1 ].fx, 0.0f, 1.0f );
 8002ed8:	f9b7 2002 	ldrsh.w	r2, [r7, #2]
 8002edc:	4613      	mov	r3, r2
 8002ede:	009b      	lsls	r3, r3, #2
 8002ee0:	4413      	add	r3, r2
 8002ee2:	009b      	lsls	r3, r3, #2
 8002ee4:	3b14      	subs	r3, #20
 8002ee6:	687a      	ldr	r2, [r7, #4]
 8002ee8:	4413      	add	r3, r2
 8002eea:	689b      	ldr	r3, [r3, #8]
 8002eec:	f04f 527e 	mov.w	r2, #1065353216	; 0x3f800000
 8002ef0:	f04f 0100 	mov.w	r1, #0
 8002ef4:	4618      	mov	r0, r3
 8002ef6:	f001 fc38 	bl	800476a <qFIS_Bound>
 8002efa:	60b8      	str	r0, [r7, #8]
    /*cstat +CERT-INT32-C_a*/
    y = ( 0u != neg ) ? ( 1.0f - y ) : y ;
 8002efc:	7bfb      	ldrb	r3, [r7, #15]
 8002efe:	2b00      	cmp	r3, #0
 8002f00:	d006      	beq.n	8002f10 <qFIS_ParseFuzzValue+0x5a>
 8002f02:	68b9      	ldr	r1, [r7, #8]
 8002f04:	f04f 507e 	mov.w	r0, #1065353216	; 0x3f800000
 8002f08:	f7fd fe12 	bl	8000b30 <__aeabi_fsub>
 8002f0c:	4603      	mov	r3, r0
 8002f0e:	e000      	b.n	8002f12 <qFIS_ParseFuzzValue+0x5c>
 8002f10:	68bb      	ldr	r3, [r7, #8]
 8002f12:	60bb      	str	r3, [r7, #8]

    return y;
 8002f14:	68bb      	ldr	r3, [r7, #8]
}
 8002f16:	4618      	mov	r0, r3
 8002f18:	3710      	adds	r7, #16
 8002f1a:	46bd      	mov	sp, r7
 8002f1c:	bd80      	pop	{r7, pc}
	...

08002f20 <qFIS_GetFuzzOperator>:
/*============================================================================*/
static qFIS_FuzzyOperator_t qFIS_GetFuzzOperator( const qFIS_t * const f )
{
 8002f20:	b480      	push	{r7}
 8002f22:	b085      	sub	sp, #20
 8002f24:	af00      	add	r7, sp, #0
 8002f26:	6078      	str	r0, [r7, #4]
    qFIS_FuzzyOperator_t oper;

    switch ( f->lastConnector ) {
 8002f28:	687b      	ldr	r3, [r7, #4]
 8002f2a:	f9b3 305c 	ldrsh.w	r3, [r3, #92]	; 0x5c
 8002f2e:	4a0c      	ldr	r2, [pc, #48]	; (8002f60 <qFIS_GetFuzzOperator+0x40>)
 8002f30:	4293      	cmp	r3, r2
 8002f32:	d003      	beq.n	8002f3c <qFIS_GetFuzzOperator+0x1c>
 8002f34:	4a0b      	ldr	r2, [pc, #44]	; (8002f64 <qFIS_GetFuzzOperator+0x44>)
 8002f36:	4293      	cmp	r3, r2
 8002f38:	d004      	beq.n	8002f44 <qFIS_GetFuzzOperator+0x24>
 8002f3a:	e007      	b.n	8002f4c <qFIS_GetFuzzOperator+0x2c>
        case _QFIS_AND:
            oper = f->andOp;
 8002f3c:	687b      	ldr	r3, [r7, #4]
 8002f3e:	691b      	ldr	r3, [r3, #16]
 8002f40:	60fb      	str	r3, [r7, #12]
            break;
 8002f42:	e006      	b.n	8002f52 <qFIS_GetFuzzOperator+0x32>
        case _QFIS_OR:
            oper = f->orOp;
 8002f44:	687b      	ldr	r3, [r7, #4]
 8002f46:	695b      	ldr	r3, [r3, #20]
 8002f48:	60fb      	str	r3, [r7, #12]
            break;
 8002f4a:	e002      	b.n	8002f52 <qFIS_GetFuzzOperator+0x32>
        default:
            oper = &qFIS_Sum;
 8002f4c:	4b06      	ldr	r3, [pc, #24]	; (8002f68 <qFIS_GetFuzzOperator+0x48>)
 8002f4e:	60fb      	str	r3, [r7, #12]
            break;
 8002f50:	bf00      	nop
    }

    return oper;
 8002f52:	68fb      	ldr	r3, [r7, #12]
}
 8002f54:	4618      	mov	r0, r3
 8002f56:	3714      	adds	r7, #20
 8002f58:	46bd      	mov	sp, r7
 8002f5a:	bc80      	pop	{r7}
 8002f5c:	4770      	bx	lr
 8002f5e:	bf00      	nop
 8002f60:	ffff8002 	.word	0xffff8002
 8002f64:	ffff8003 	.word	0xffff8003
 8002f68:	0800473f 	.word	0x0800473f

08002f6c <qFIS_InferenceAntecedent>:
/*============================================================================*/
static size_t qFIS_InferenceAntecedent( struct _qFIS_s * const f,
                                        size_t i )
{
 8002f6c:	b590      	push	{r4, r7, lr}
 8002f6e:	b087      	sub	sp, #28
 8002f70:	af00      	add	r7, sp, #0
 8002f72:	6078      	str	r0, [r7, #4]
 8002f74:	6039      	str	r1, [r7, #0]
    int16_t inIndex, MFInIndex, connector;
    qFIS_FuzzyOperator_t op;
    /*cstat -CERT-INT30-C_a*/
    inIndex = f->rules[ i ];
 8002f76:	687b      	ldr	r3, [r7, #4]
 8002f78:	6b5a      	ldr	r2, [r3, #52]	; 0x34
 8002f7a:	683b      	ldr	r3, [r7, #0]
 8002f7c:	005b      	lsls	r3, r3, #1
 8002f7e:	4413      	add	r3, r2
 8002f80:	881b      	ldrh	r3, [r3, #0]
 8002f82:	82fb      	strh	r3, [r7, #22]
    MFInIndex = f->rules[ i + 1u ];
 8002f84:	687b      	ldr	r3, [r7, #4]
 8002f86:	6b5a      	ldr	r2, [r3, #52]	; 0x34
 8002f88:	683b      	ldr	r3, [r7, #0]
 8002f8a:	3301      	adds	r3, #1
 8002f8c:	005b      	lsls	r3, r3, #1
 8002f8e:	4413      	add	r3, r2
 8002f90:	881b      	ldrh	r3, [r3, #0]
 8002f92:	82bb      	strh	r3, [r7, #20]
    connector = f->rules[ i + 2u ];
 8002f94:	687b      	ldr	r3, [r7, #4]
 8002f96:	6b5a      	ldr	r2, [r3, #52]	; 0x34
 8002f98:	683b      	ldr	r3, [r7, #0]
 8002f9a:	3302      	adds	r3, #2
 8002f9c:	005b      	lsls	r3, r3, #1
 8002f9e:	4413      	add	r3, r2
 8002fa0:	881b      	ldrh	r3, [r3, #0]
 8002fa2:	827b      	strh	r3, [r7, #18]
    /*cstat -CERT-INT30-C_a*/
    op = qFIS_GetFuzzOperator( f );
 8002fa4:	6878      	ldr	r0, [r7, #4]
 8002fa6:	f7ff ffbb 	bl	8002f20 <qFIS_GetFuzzOperator>
 8002faa:	60f8      	str	r0, [r7, #12]
    f->rStrength = op( f->rStrength, qFIS_ParseFuzzValue( f->inMF, MFInIndex ) );
 8002fac:	687b      	ldr	r3, [r7, #4]
 8002fae:	6d9c      	ldr	r4, [r3, #88]	; 0x58
 8002fb0:	687b      	ldr	r3, [r7, #4]
 8002fb2:	689b      	ldr	r3, [r3, #8]
 8002fb4:	f9b7 2014 	ldrsh.w	r2, [r7, #20]
 8002fb8:	4611      	mov	r1, r2
 8002fba:	4618      	mov	r0, r3
 8002fbc:	f7ff ff7b 	bl	8002eb6 <qFIS_ParseFuzzValue>
 8002fc0:	4602      	mov	r2, r0
 8002fc2:	68fb      	ldr	r3, [r7, #12]
 8002fc4:	4611      	mov	r1, r2
 8002fc6:	4620      	mov	r0, r4
 8002fc8:	4798      	blx	r3
 8002fca:	4602      	mov	r2, r0
 8002fcc:	687b      	ldr	r3, [r7, #4]
 8002fce:	659a      	str	r2, [r3, #88]	; 0x58

    if ( ( inIndex < 0 ) || ( (size_t)inIndex > f->nInputs ) ) {
 8002fd0:	f9b7 3016 	ldrsh.w	r3, [r7, #22]
 8002fd4:	2b00      	cmp	r3, #0
 8002fd6:	db05      	blt.n	8002fe4 <qFIS_InferenceAntecedent+0x78>
 8002fd8:	f9b7 2016 	ldrsh.w	r2, [r7, #22]
 8002fdc:	687b      	ldr	r3, [r7, #4]
 8002fde:	6bdb      	ldr	r3, [r3, #60]	; 0x3c
 8002fe0:	429a      	cmp	r2, r3
 8002fe2:	d902      	bls.n	8002fea <qFIS_InferenceAntecedent+0x7e>
        i = QFIS_INFERENCE_ERROR;
 8002fe4:	2300      	movs	r3, #0
 8002fe6:	603b      	str	r3, [r7, #0]
 8002fe8:	e022      	b.n	8003030 <qFIS_InferenceAntecedent+0xc4>
    }
    else {
        if ( ( _QFIS_AND == connector ) || ( _QFIS_OR == connector ) ) {
 8002fea:	f9b7 3012 	ldrsh.w	r3, [r7, #18]
 8002fee:	4a13      	ldr	r2, [pc, #76]	; (800303c <qFIS_InferenceAntecedent+0xd0>)
 8002ff0:	4293      	cmp	r3, r2
 8002ff2:	d004      	beq.n	8002ffe <qFIS_InferenceAntecedent+0x92>
 8002ff4:	f9b7 3012 	ldrsh.w	r3, [r7, #18]
 8002ff8:	4a11      	ldr	r2, [pc, #68]	; (8003040 <qFIS_InferenceAntecedent+0xd4>)
 8002ffa:	4293      	cmp	r3, r2
 8002ffc:	d10a      	bne.n	8003014 <qFIS_InferenceAntecedent+0xa8>
            f->lastConnector = connector;
 8002ffe:	687b      	ldr	r3, [r7, #4]
 8003000:	8a7a      	ldrh	r2, [r7, #18]
 8003002:	f8a3 205c 	strh.w	r2, [r3, #92]	; 0x5c
            f->inferenceState = &qFIS_InferenceAntecedent;
 8003006:	687b      	ldr	r3, [r7, #4]
 8003008:	4a0e      	ldr	r2, [pc, #56]	; (8003044 <qFIS_InferenceAntecedent+0xd8>)
 800300a:	621a      	str	r2, [r3, #32]
            i += 2u;
 800300c:	683b      	ldr	r3, [r7, #0]
 800300e:	3302      	adds	r3, #2
 8003010:	603b      	str	r3, [r7, #0]
 8003012:	e00d      	b.n	8003030 <qFIS_InferenceAntecedent+0xc4>
        }
        else if ( _QFIS_THEN == connector ) {
 8003014:	f9b7 3012 	ldrsh.w	r3, [r7, #18]
 8003018:	4a0b      	ldr	r2, [pc, #44]	; (8003048 <qFIS_InferenceAntecedent+0xdc>)
 800301a:	4293      	cmp	r3, r2
 800301c:	d106      	bne.n	800302c <qFIS_InferenceAntecedent+0xc0>
            f->inferenceState = &qFIS_InferenceReachEnd;
 800301e:	687b      	ldr	r3, [r7, #4]
 8003020:	4a0a      	ldr	r2, [pc, #40]	; (800304c <qFIS_InferenceAntecedent+0xe0>)
 8003022:	621a      	str	r2, [r3, #32]
            i += 2u;
 8003024:	683b      	ldr	r3, [r7, #0]
 8003026:	3302      	adds	r3, #2
 8003028:	603b      	str	r3, [r7, #0]
 800302a:	e001      	b.n	8003030 <qFIS_InferenceAntecedent+0xc4>
        }
        else {
            i = QFIS_INFERENCE_ERROR;
 800302c:	2300      	movs	r3, #0
 800302e:	603b      	str	r3, [r7, #0]
        }
    }

    return i;
 8003030:	683b      	ldr	r3, [r7, #0]
}
 8003032:	4618      	mov	r0, r3
 8003034:	371c      	adds	r7, #28
 8003036:	46bd      	mov	sp, r7
 8003038:	bd90      	pop	{r4, r7, pc}
 800303a:	bf00      	nop
 800303c:	ffff8002 	.word	0xffff8002
 8003040:	ffff8003 	.word	0xffff8003
 8003044:	08002f6d 	.word	0x08002f6d
 8003048:	ffff8004 	.word	0xffff8004
 800304c:	08003051 	.word	0x08003051

08003050 <qFIS_InferenceReachEnd>:
/*============================================================================*/
static size_t qFIS_InferenceReachEnd( struct _qFIS_s * const f,
                                      size_t i )
{
 8003050:	b590      	push	{r4, r7, lr}
 8003052:	b085      	sub	sp, #20
 8003054:	af00      	add	r7, sp, #0
 8003056:	6078      	str	r0, [r7, #4]
 8003058:	6039      	str	r1, [r7, #0]
    int16_t  connector;

    connector = ( f->nOutputs > 1u )? f->rules[ i + 2u ] : -1;
 800305a:	687b      	ldr	r3, [r7, #4]
 800305c:	6c1b      	ldr	r3, [r3, #64]	; 0x40
 800305e:	2b01      	cmp	r3, #1
 8003060:	d908      	bls.n	8003074 <qFIS_InferenceReachEnd+0x24>
 8003062:	687b      	ldr	r3, [r7, #4]
 8003064:	6b5a      	ldr	r2, [r3, #52]	; 0x34
 8003066:	683b      	ldr	r3, [r7, #0]
 8003068:	3302      	adds	r3, #2
 800306a:	005b      	lsls	r3, r3, #1
 800306c:	4413      	add	r3, r2
 800306e:	f9b3 3000 	ldrsh.w	r3, [r3]
 8003072:	e001      	b.n	8003078 <qFIS_InferenceReachEnd+0x28>
 8003074:	f04f 33ff 	mov.w	r3, #4294967295
 8003078:	81fb      	strh	r3, [r7, #14]
    i += 2u;
 800307a:	683b      	ldr	r3, [r7, #0]
 800307c:	3302      	adds	r3, #2
 800307e:	603b      	str	r3, [r7, #0]
    if ( _QFIS_AND != connector ) {
 8003080:	f9b7 300e 	ldrsh.w	r3, [r7, #14]
 8003084:	4a23      	ldr	r2, [pc, #140]	; (8003114 <qFIS_InferenceReachEnd+0xc4>)
 8003086:	4293      	cmp	r3, r2
 8003088:	d03f      	beq.n	800310a <qFIS_InferenceReachEnd+0xba>
        f->inferenceState = &qFIS_InferenceAntecedent;
 800308a:	687b      	ldr	r3, [r7, #4]
 800308c:	4a22      	ldr	r2, [pc, #136]	; (8003118 <qFIS_InferenceReachEnd+0xc8>)
 800308e:	621a      	str	r2, [r3, #32]
        f->lastConnector = -1;
 8003090:	687b      	ldr	r3, [r7, #4]
 8003092:	f64f 72ff 	movw	r2, #65535	; 0xffff
 8003096:	f8a3 205c 	strh.w	r2, [r3, #92]	; 0x5c
        f->wi[ f->ruleCount ] = f->rStrength;
 800309a:	687b      	ldr	r3, [r7, #4]
 800309c:	6b1a      	ldr	r2, [r3, #48]	; 0x30
 800309e:	687b      	ldr	r3, [r7, #4]
 80030a0:	6d5b      	ldr	r3, [r3, #84]	; 0x54
 80030a2:	009b      	lsls	r3, r3, #2
 80030a4:	4413      	add	r3, r2
 80030a6:	687a      	ldr	r2, [r7, #4]
 80030a8:	6d92      	ldr	r2, [r2, #88]	; 0x58
 80030aa:	601a      	str	r2, [r3, #0]
        if ( NULL != f->ruleWeight ) {
 80030ac:	687b      	ldr	r3, [r7, #4]
 80030ae:	6adb      	ldr	r3, [r3, #44]	; 0x2c
 80030b0:	2b00      	cmp	r3, #0
 80030b2:	d01e      	beq.n	80030f2 <qFIS_InferenceReachEnd+0xa2>
            f->wi[ f->ruleCount ] *= qFIS_Bound( f->ruleWeight[ f->ruleCount ], 0.0f, 1.0f );
 80030b4:	687b      	ldr	r3, [r7, #4]
 80030b6:	6ada      	ldr	r2, [r3, #44]	; 0x2c
 80030b8:	687b      	ldr	r3, [r7, #4]
 80030ba:	6d5b      	ldr	r3, [r3, #84]	; 0x54
 80030bc:	009b      	lsls	r3, r3, #2
 80030be:	4413      	add	r3, r2
 80030c0:	681b      	ldr	r3, [r3, #0]
 80030c2:	f04f 527e 	mov.w	r2, #1065353216	; 0x3f800000
 80030c6:	f04f 0100 	mov.w	r1, #0
 80030ca:	4618      	mov	r0, r3
 80030cc:	f001 fb4d 	bl	800476a <qFIS_Bound>
 80030d0:	687b      	ldr	r3, [r7, #4]
 80030d2:	6b1a      	ldr	r2, [r3, #48]	; 0x30
 80030d4:	687b      	ldr	r3, [r7, #4]
 80030d6:	6d5b      	ldr	r3, [r3, #84]	; 0x54
 80030d8:	009b      	lsls	r3, r3, #2
 80030da:	4413      	add	r3, r2
 80030dc:	6819      	ldr	r1, [r3, #0]
 80030de:	687b      	ldr	r3, [r7, #4]
 80030e0:	6b1a      	ldr	r2, [r3, #48]	; 0x30
 80030e2:	687b      	ldr	r3, [r7, #4]
 80030e4:	6d5b      	ldr	r3, [r3, #84]	; 0x54
 80030e6:	009b      	lsls	r3, r3, #2
 80030e8:	18d4      	adds	r4, r2, r3
 80030ea:	f7fd fe2b 	bl	8000d44 <__aeabi_fmul>
 80030ee:	4603      	mov	r3, r0
 80030f0:	6023      	str	r3, [r4, #0]
        }
        f->rStrength = 0.0f;
 80030f2:	687b      	ldr	r3, [r7, #4]
 80030f4:	f04f 0200 	mov.w	r2, #0
 80030f8:	659a      	str	r2, [r3, #88]	; 0x58
        ++f->ruleCount;
 80030fa:	687b      	ldr	r3, [r7, #4]
 80030fc:	6d5b      	ldr	r3, [r3, #84]	; 0x54
 80030fe:	1c5a      	adds	r2, r3, #1
 8003100:	687b      	ldr	r3, [r7, #4]
 8003102:	655a      	str	r2, [r3, #84]	; 0x54
        --i;
 8003104:	683b      	ldr	r3, [r7, #0]
 8003106:	3b01      	subs	r3, #1
 8003108:	603b      	str	r3, [r7, #0]
    }

    return i;
 800310a:	683b      	ldr	r3, [r7, #0]
}
 800310c:	4618      	mov	r0, r3
 800310e:	3714      	adds	r7, #20
 8003110:	46bd      	mov	sp, r7
 8003112:	bd90      	pop	{r4, r7, pc}
 8003114:	ffff8002 	.word	0xffff8002
 8003118:	08002f6d 	.word	0x08002f6d

0800311c <qFIS_AggregationFindConsequent>:
/*============================================================================*/
static size_t qFIS_AggregationFindConsequent( struct _qFIS_s * const f,
                                              size_t i )
{
 800311c:	b480      	push	{r7}
 800311e:	b083      	sub	sp, #12
 8003120:	af00      	add	r7, sp, #0
 8003122:	6078      	str	r0, [r7, #4]
 8003124:	6039      	str	r1, [r7, #0]
    while ( _QFIS_THEN != f->rules[ i++ ] ) {}
 8003126:	bf00      	nop
 8003128:	687b      	ldr	r3, [r7, #4]
 800312a:	6b5a      	ldr	r2, [r3, #52]	; 0x34
 800312c:	683b      	ldr	r3, [r7, #0]
 800312e:	1c59      	adds	r1, r3, #1
 8003130:	6039      	str	r1, [r7, #0]
 8003132:	005b      	lsls	r3, r3, #1
 8003134:	4413      	add	r3, r2
 8003136:	f9b3 3000 	ldrsh.w	r3, [r3]
 800313a:	4a07      	ldr	r2, [pc, #28]	; (8003158 <qFIS_AggregationFindConsequent+0x3c>)
 800313c:	4293      	cmp	r3, r2
 800313e:	d1f3      	bne.n	8003128 <qFIS_AggregationFindConsequent+0xc>
    f->aggregationState = &qFIS_InferenceConsequent;
 8003140:	687b      	ldr	r3, [r7, #4]
 8003142:	4a06      	ldr	r2, [pc, #24]	; (800315c <qFIS_AggregationFindConsequent+0x40>)
 8003144:	625a      	str	r2, [r3, #36]	; 0x24

    return --i;
 8003146:	683b      	ldr	r3, [r7, #0]
 8003148:	3b01      	subs	r3, #1
 800314a:	603b      	str	r3, [r7, #0]
 800314c:	683b      	ldr	r3, [r7, #0]
}
 800314e:	4618      	mov	r0, r3
 8003150:	370c      	adds	r7, #12
 8003152:	46bd      	mov	sp, r7
 8003154:	bc80      	pop	{r7}
 8003156:	4770      	bx	lr
 8003158:	ffff8004 	.word	0xffff8004
 800315c:	08003161 	.word	0x08003161

08003160 <qFIS_InferenceConsequent>:
/*============================================================================*/
static size_t qFIS_InferenceConsequent( struct _qFIS_s * const f,
                                        size_t i )
{
 8003160:	b5b0      	push	{r4, r5, r7, lr}
 8003162:	b088      	sub	sp, #32
 8003164:	af00      	add	r7, sp, #0
 8003166:	6078      	str	r0, [r7, #4]
 8003168:	6039      	str	r1, [r7, #0]
    int16_t outIndex, MFOutIndex, connector;
    uint8_t neg = 0u;
 800316a:	2300      	movs	r3, #0
 800316c:	777b      	strb	r3, [r7, #29]

    outIndex = f->rules[ i ];
 800316e:	687b      	ldr	r3, [r7, #4]
 8003170:	6b5a      	ldr	r2, [r3, #52]	; 0x34
 8003172:	683b      	ldr	r3, [r7, #0]
 8003174:	005b      	lsls	r3, r3, #1
 8003176:	4413      	add	r3, r2
 8003178:	881b      	ldrh	r3, [r3, #0]
 800317a:	837b      	strh	r3, [r7, #26]
    MFOutIndex = f->rules[ i + 1u ];
 800317c:	687b      	ldr	r3, [r7, #4]
 800317e:	6b5a      	ldr	r2, [r3, #52]	; 0x34
 8003180:	683b      	ldr	r3, [r7, #0]
 8003182:	3301      	adds	r3, #1
 8003184:	005b      	lsls	r3, r3, #1
 8003186:	4413      	add	r3, r2
 8003188:	881b      	ldrh	r3, [r3, #0]
 800318a:	83fb      	strh	r3, [r7, #30]
    connector = ( f->nOutputs > 1u )? f->rules[ i + 2u ] : -1;
 800318c:	687b      	ldr	r3, [r7, #4]
 800318e:	6c1b      	ldr	r3, [r3, #64]	; 0x40
 8003190:	2b01      	cmp	r3, #1
 8003192:	d908      	bls.n	80031a6 <qFIS_InferenceConsequent+0x46>
 8003194:	687b      	ldr	r3, [r7, #4]
 8003196:	6b5a      	ldr	r2, [r3, #52]	; 0x34
 8003198:	683b      	ldr	r3, [r7, #0]
 800319a:	3302      	adds	r3, #2
 800319c:	005b      	lsls	r3, r3, #1
 800319e:	4413      	add	r3, r2
 80031a0:	f9b3 3000 	ldrsh.w	r3, [r3]
 80031a4:	e001      	b.n	80031aa <qFIS_InferenceConsequent+0x4a>
 80031a6:	f04f 33ff 	mov.w	r3, #4294967295
 80031aa:	833b      	strh	r3, [r7, #24]
    if ( MFOutIndex < 0 ) {
 80031ac:	f9b7 301e 	ldrsh.w	r3, [r7, #30]
 80031b0:	2b00      	cmp	r3, #0
 80031b2:	da05      	bge.n	80031c0 <qFIS_InferenceConsequent+0x60>
        MFOutIndex = -MFOutIndex;
 80031b4:	8bfb      	ldrh	r3, [r7, #30]
 80031b6:	425b      	negs	r3, r3
 80031b8:	b29b      	uxth	r3, r3
 80031ba:	83fb      	strh	r3, [r7, #30]
        neg = 1u;
 80031bc:	2301      	movs	r3, #1
 80031be:	777b      	strb	r3, [r7, #29]
    }
    MFOutIndex -= 1;
 80031c0:	8bfb      	ldrh	r3, [r7, #30]
 80031c2:	3b01      	subs	r3, #1
 80031c4:	b29b      	uxth	r3, r3
 80031c6:	83fb      	strh	r3, [r7, #30]

    if ( f->wi[ f->ruleCount ] > 0.0f ) {
 80031c8:	687b      	ldr	r3, [r7, #4]
 80031ca:	6b1a      	ldr	r2, [r3, #48]	; 0x30
 80031cc:	687b      	ldr	r3, [r7, #4]
 80031ce:	6d5b      	ldr	r3, [r3, #84]	; 0x54
 80031d0:	009b      	lsls	r3, r3, #2
 80031d2:	4413      	add	r3, r2
 80031d4:	681b      	ldr	r3, [r3, #0]
 80031d6:	f04f 0100 	mov.w	r1, #0
 80031da:	4618      	mov	r0, r3
 80031dc:	f7fd ff6e 	bl	80010bc <__aeabi_fcmpgt>
 80031e0:	4603      	mov	r3, r0
 80031e2:	2b00      	cmp	r3, #0
 80031e4:	d07b      	beq.n	80032de <qFIS_InferenceConsequent+0x17e>
        qFIS_Output_t *o = &f->output[ outIndex ];
 80031e6:	687b      	ldr	r3, [r7, #4]
 80031e8:	685a      	ldr	r2, [r3, #4]
 80031ea:	f9b7 301a 	ldrsh.w	r3, [r7, #26]
 80031ee:	2134      	movs	r1, #52	; 0x34
 80031f0:	fb01 f303 	mul.w	r3, r1, r3
 80031f4:	4413      	add	r3, r2
 80031f6:	617b      	str	r3, [r7, #20]
        qFIS_MF_t *m = &f->outMF[ MFOutIndex ];
 80031f8:	687b      	ldr	r3, [r7, #4]
 80031fa:	68d9      	ldr	r1, [r3, #12]
 80031fc:	f9b7 201e 	ldrsh.w	r2, [r7, #30]
 8003200:	4613      	mov	r3, r2
 8003202:	009b      	lsls	r3, r3, #2
 8003204:	4413      	add	r3, r2
 8003206:	009b      	lsls	r3, r3, #2
 8003208:	440b      	add	r3, r1
 800320a:	613b      	str	r3, [r7, #16]

        if ( Mamdani == f->type ) {
 800320c:	687b      	ldr	r3, [r7, #4]
 800320e:	f893 305e 	ldrb.w	r3, [r3, #94]	; 0x5e
 8003212:	2b00      	cmp	r3, #0
 8003214:	d133      	bne.n	800327e <qFIS_InferenceConsequent+0x11e>
            float v;
            /*cstat -MISRAC2012-Rule-11.3 -CERT-EXP39-C_d*/
            v = m->h*m->shape( (qFIS_IO_Base_t*)o, m->points, 1u );
 8003216:	693b      	ldr	r3, [r7, #16]
 8003218:	68dc      	ldr	r4, [r3, #12]
 800321a:	693b      	ldr	r3, [r7, #16]
 800321c:	681b      	ldr	r3, [r3, #0]
 800321e:	693a      	ldr	r2, [r7, #16]
 8003220:	6851      	ldr	r1, [r2, #4]
 8003222:	2201      	movs	r2, #1
 8003224:	6978      	ldr	r0, [r7, #20]
 8003226:	4798      	blx	r3
 8003228:	4603      	mov	r3, r0
 800322a:	4619      	mov	r1, r3
 800322c:	4620      	mov	r0, r4
 800322e:	f7fd fd89 	bl	8000d44 <__aeabi_fmul>
 8003232:	4603      	mov	r3, r0
 8003234:	60bb      	str	r3, [r7, #8]
            /*cstat +MISRAC2012-Rule-11.3 +CERT-EXP39-C_d*/
            v = ( 1u == neg )? ( 1.0f - v ) : v;
 8003236:	7f7b      	ldrb	r3, [r7, #29]
 8003238:	2b01      	cmp	r3, #1
 800323a:	d106      	bne.n	800324a <qFIS_InferenceConsequent+0xea>
 800323c:	68b9      	ldr	r1, [r7, #8]
 800323e:	f04f 507e 	mov.w	r0, #1065353216	; 0x3f800000
 8003242:	f7fd fc75 	bl	8000b30 <__aeabi_fsub>
 8003246:	4603      	mov	r3, r0
 8003248:	e000      	b.n	800324c <qFIS_InferenceConsequent+0xec>
 800324a:	68bb      	ldr	r3, [r7, #8]
 800324c:	60bb      	str	r3, [r7, #8]
            o->y = f->aggregate( o->y, f->implicate( f->wi[ f->ruleCount ], v ) );
 800324e:	687b      	ldr	r3, [r7, #4]
 8003250:	69dc      	ldr	r4, [r3, #28]
 8003252:	697b      	ldr	r3, [r7, #20]
 8003254:	695d      	ldr	r5, [r3, #20]
 8003256:	687b      	ldr	r3, [r7, #4]
 8003258:	699b      	ldr	r3, [r3, #24]
 800325a:	687a      	ldr	r2, [r7, #4]
 800325c:	6b11      	ldr	r1, [r2, #48]	; 0x30
 800325e:	687a      	ldr	r2, [r7, #4]
 8003260:	6d52      	ldr	r2, [r2, #84]	; 0x54
 8003262:	0092      	lsls	r2, r2, #2
 8003264:	440a      	add	r2, r1
 8003266:	6812      	ldr	r2, [r2, #0]
 8003268:	68b9      	ldr	r1, [r7, #8]
 800326a:	4610      	mov	r0, r2
 800326c:	4798      	blx	r3
 800326e:	4603      	mov	r3, r0
 8003270:	4619      	mov	r1, r3
 8003272:	4628      	mov	r0, r5
 8003274:	47a0      	blx	r4
 8003276:	4602      	mov	r2, r0
 8003278:	697b      	ldr	r3, [r7, #20]
 800327a:	615a      	str	r2, [r3, #20]
 800327c:	e02f      	b.n	80032de <qFIS_InferenceConsequent+0x17e>
        }
        else { /* Sugeno and Tsukamoto*/
            float zi;
            /*cstat -MISRAC2012-Rule-11.3 -CERT-EXP39-C_d*/
            zi = m->shape( (qFIS_IO_Base_t*)f->input, m->points, f->nInputs );
 800327e:	693b      	ldr	r3, [r7, #16]
 8003280:	681b      	ldr	r3, [r3, #0]
 8003282:	687a      	ldr	r2, [r7, #4]
 8003284:	6810      	ldr	r0, [r2, #0]
 8003286:	693a      	ldr	r2, [r7, #16]
 8003288:	6851      	ldr	r1, [r2, #4]
 800328a:	687a      	ldr	r2, [r7, #4]
 800328c:	6bd2      	ldr	r2, [r2, #60]	; 0x3c
 800328e:	4798      	blx	r3
 8003290:	60f8      	str	r0, [r7, #12]
            /*cstat +MISRAC2012-Rule-11.3 +CERT-EXP39-C_d*/
            o->data[ 0 ] += zi*f->wi[ f->ruleCount ];
 8003292:	697b      	ldr	r3, [r7, #20]
 8003294:	699c      	ldr	r4, [r3, #24]
 8003296:	687b      	ldr	r3, [r7, #4]
 8003298:	6b1a      	ldr	r2, [r3, #48]	; 0x30
 800329a:	687b      	ldr	r3, [r7, #4]
 800329c:	6d5b      	ldr	r3, [r3, #84]	; 0x54
 800329e:	009b      	lsls	r3, r3, #2
 80032a0:	4413      	add	r3, r2
 80032a2:	681b      	ldr	r3, [r3, #0]
 80032a4:	68f9      	ldr	r1, [r7, #12]
 80032a6:	4618      	mov	r0, r3
 80032a8:	f7fd fd4c 	bl	8000d44 <__aeabi_fmul>
 80032ac:	4603      	mov	r3, r0
 80032ae:	4619      	mov	r1, r3
 80032b0:	4620      	mov	r0, r4
 80032b2:	f7fd fc3f 	bl	8000b34 <__addsf3>
 80032b6:	4603      	mov	r3, r0
 80032b8:	461a      	mov	r2, r3
 80032ba:	697b      	ldr	r3, [r7, #20]
 80032bc:	619a      	str	r2, [r3, #24]
            o->data[ 1 ] += f->wi[ f->ruleCount ];
 80032be:	697b      	ldr	r3, [r7, #20]
 80032c0:	69d8      	ldr	r0, [r3, #28]
 80032c2:	687b      	ldr	r3, [r7, #4]
 80032c4:	6b1a      	ldr	r2, [r3, #48]	; 0x30
 80032c6:	687b      	ldr	r3, [r7, #4]
 80032c8:	6d5b      	ldr	r3, [r3, #84]	; 0x54
 80032ca:	009b      	lsls	r3, r3, #2
 80032cc:	4413      	add	r3, r2
 80032ce:	681b      	ldr	r3, [r3, #0]
 80032d0:	4619      	mov	r1, r3
 80032d2:	f7fd fc2f 	bl	8000b34 <__addsf3>
 80032d6:	4603      	mov	r3, r0
 80032d8:	461a      	mov	r2, r3
 80032da:	697b      	ldr	r3, [r7, #20]
 80032dc:	61da      	str	r2, [r3, #28]
        }
    }

    i += 2u;
 80032de:	683b      	ldr	r3, [r7, #0]
 80032e0:	3302      	adds	r3, #2
 80032e2:	603b      	str	r3, [r7, #0]
    if ( _QFIS_AND != connector ) {
 80032e4:	f9b7 3018 	ldrsh.w	r3, [r7, #24]
 80032e8:	4a09      	ldr	r2, [pc, #36]	; (8003310 <qFIS_InferenceConsequent+0x1b0>)
 80032ea:	4293      	cmp	r3, r2
 80032ec:	d00a      	beq.n	8003304 <qFIS_InferenceConsequent+0x1a4>
        f->aggregationState = &qFIS_AggregationFindConsequent;
 80032ee:	687b      	ldr	r3, [r7, #4]
 80032f0:	4a08      	ldr	r2, [pc, #32]	; (8003314 <qFIS_InferenceConsequent+0x1b4>)
 80032f2:	625a      	str	r2, [r3, #36]	; 0x24
        ++f->ruleCount;
 80032f4:	687b      	ldr	r3, [r7, #4]
 80032f6:	6d5b      	ldr	r3, [r3, #84]	; 0x54
 80032f8:	1c5a      	adds	r2, r3, #1
 80032fa:	687b      	ldr	r3, [r7, #4]
 80032fc:	655a      	str	r2, [r3, #84]	; 0x54
        --i;
 80032fe:	683b      	ldr	r3, [r7, #0]
 8003300:	3b01      	subs	r3, #1
 8003302:	603b      	str	r3, [r7, #0]
    }

    return i;
 8003304:	683b      	ldr	r3, [r7, #0]
}
 8003306:	4618      	mov	r0, r3
 8003308:	3720      	adds	r7, #32
 800330a:	46bd      	mov	sp, r7
 800330c:	bdb0      	pop	{r4, r5, r7, pc}
 800330e:	bf00      	nop
 8003310:	ffff8002 	.word	0xffff8002
 8003314:	0800311d 	.word	0x0800311d

08003318 <qFIS_Aggregate>:
/*============================================================================*/
static void qFIS_Aggregate( qFIS_t * const f )
{
 8003318:	b580      	push	{r7, lr}
 800331a:	b084      	sub	sp, #16
 800331c:	af00      	add	r7, sp, #0
 800331e:	6078      	str	r0, [r7, #4]
    if ( NULL != f ) {
 8003320:	687b      	ldr	r3, [r7, #4]
 8003322:	2b00      	cmp	r3, #0
 8003324:	d02d      	beq.n	8003382 <qFIS_Aggregate+0x6a>
        if ( QFIS_RULES_BEGIN == f->rules[ 0 ] ) {
 8003326:	687b      	ldr	r3, [r7, #4]
 8003328:	6b5b      	ldr	r3, [r3, #52]	; 0x34
 800332a:	f9b3 3000 	ldrsh.w	r3, [r3]
 800332e:	f513 4f00 	cmn.w	r3, #32768	; 0x8000
 8003332:	d126      	bne.n	8003382 <qFIS_Aggregate+0x6a>
            size_t i = 1u;
 8003334:	2301      	movs	r3, #1
 8003336:	60fb      	str	r3, [r7, #12]

            f->aggregationState = &qFIS_AggregationFindConsequent;
 8003338:	687b      	ldr	r3, [r7, #4]
 800333a:	4a14      	ldr	r2, [pc, #80]	; (800338c <qFIS_Aggregate+0x74>)
 800333c:	625a      	str	r2, [r3, #36]	; 0x24
            f->ruleCount = 0u;
 800333e:	687b      	ldr	r3, [r7, #4]
 8003340:	2200      	movs	r2, #0
 8003342:	655a      	str	r2, [r3, #84]	; 0x54
            while ( ( _QFIS_RULES_END != f->rules[ i ] ) && ( f->ruleCount < f->nRules ) ) {
 8003344:	e00b      	b.n	800335e <qFIS_Aggregate+0x46>
                i = f->aggregationState( f, i );
 8003346:	687b      	ldr	r3, [r7, #4]
 8003348:	6a5b      	ldr	r3, [r3, #36]	; 0x24
 800334a:	68f9      	ldr	r1, [r7, #12]
 800334c:	6878      	ldr	r0, [r7, #4]
 800334e:	4798      	blx	r3
 8003350:	60f8      	str	r0, [r7, #12]
                if ( QFIS_INFERENCE_ERROR == i ) {
 8003352:	68fb      	ldr	r3, [r7, #12]
 8003354:	2b00      	cmp	r3, #0
 8003356:	d013      	beq.n	8003380 <qFIS_Aggregate+0x68>
                    break;
                }
                ++i;
 8003358:	68fb      	ldr	r3, [r7, #12]
 800335a:	3301      	adds	r3, #1
 800335c:	60fb      	str	r3, [r7, #12]
            while ( ( _QFIS_RULES_END != f->rules[ i ] ) && ( f->ruleCount < f->nRules ) ) {
 800335e:	687b      	ldr	r3, [r7, #4]
 8003360:	6b5a      	ldr	r2, [r3, #52]	; 0x34
 8003362:	68fb      	ldr	r3, [r7, #12]
 8003364:	005b      	lsls	r3, r3, #1
 8003366:	4413      	add	r3, r2
 8003368:	f9b3 3000 	ldrsh.w	r3, [r3]
 800336c:	4a08      	ldr	r2, [pc, #32]	; (8003390 <qFIS_Aggregate+0x78>)
 800336e:	4293      	cmp	r3, r2
 8003370:	d007      	beq.n	8003382 <qFIS_Aggregate+0x6a>
 8003372:	687b      	ldr	r3, [r7, #4]
 8003374:	6d5a      	ldr	r2, [r3, #84]	; 0x54
 8003376:	687b      	ldr	r3, [r7, #4]
 8003378:	6d1b      	ldr	r3, [r3, #80]	; 0x50
 800337a:	429a      	cmp	r2, r3
 800337c:	d3e3      	bcc.n	8003346 <qFIS_Aggregate+0x2e>
            }
        }
    }
}
 800337e:	e000      	b.n	8003382 <qFIS_Aggregate+0x6a>
                    break;
 8003380:	bf00      	nop
}
 8003382:	bf00      	nop
 8003384:	3710      	adds	r7, #16
 8003386:	46bd      	mov	sp, r7
 8003388:	bd80      	pop	{r7, pc}
 800338a:	bf00      	nop
 800338c:	0800311d 	.word	0x0800311d
 8003390:	ffff8001 	.word	0xffff8001

08003394 <qFIS_DeFuzz_Centroid>:
/*============================================================================*/
static float qFIS_DeFuzz_Centroid( qFIS_Output_t * const o,
                                   const qFIS_DeFuzzState_t stage )
{
 8003394:	b590      	push	{r4, r7, lr}
 8003396:	b085      	sub	sp, #20
 8003398:	af00      	add	r7, sp, #0
 800339a:	6078      	str	r0, [r7, #4]
 800339c:	460b      	mov	r3, r1
 800339e:	70fb      	strb	r3, [r7, #3]
    float d = 0.0f;
 80033a0:	f04f 0300 	mov.w	r3, #0
 80033a4:	60fb      	str	r3, [r7, #12]

    switch ( stage ) {
 80033a6:	78fb      	ldrb	r3, [r7, #3]
 80033a8:	2b02      	cmp	r3, #2
 80033aa:	d02e      	beq.n	800340a <qFIS_DeFuzz_Centroid+0x76>
 80033ac:	2b02      	cmp	r3, #2
 80033ae:	dc37      	bgt.n	8003420 <qFIS_DeFuzz_Centroid+0x8c>
 80033b0:	2b00      	cmp	r3, #0
 80033b2:	d021      	beq.n	80033f8 <qFIS_DeFuzz_Centroid+0x64>
 80033b4:	2b01      	cmp	r3, #1
 80033b6:	d133      	bne.n	8003420 <qFIS_DeFuzz_Centroid+0x8c>
        case DeFuzz_Compute:
            o->data[ 0 ] += o->x*o->y;
 80033b8:	687b      	ldr	r3, [r7, #4]
 80033ba:	699c      	ldr	r4, [r3, #24]
 80033bc:	687b      	ldr	r3, [r7, #4]
 80033be:	691a      	ldr	r2, [r3, #16]
 80033c0:	687b      	ldr	r3, [r7, #4]
 80033c2:	695b      	ldr	r3, [r3, #20]
 80033c4:	4619      	mov	r1, r3
 80033c6:	4610      	mov	r0, r2
 80033c8:	f7fd fcbc 	bl	8000d44 <__aeabi_fmul>
 80033cc:	4603      	mov	r3, r0
 80033ce:	4619      	mov	r1, r3
 80033d0:	4620      	mov	r0, r4
 80033d2:	f7fd fbaf 	bl	8000b34 <__addsf3>
 80033d6:	4603      	mov	r3, r0
 80033d8:	461a      	mov	r2, r3
 80033da:	687b      	ldr	r3, [r7, #4]
 80033dc:	619a      	str	r2, [r3, #24]
            o->data[ 1 ] += o->y;
 80033de:	687b      	ldr	r3, [r7, #4]
 80033e0:	69da      	ldr	r2, [r3, #28]
 80033e2:	687b      	ldr	r3, [r7, #4]
 80033e4:	695b      	ldr	r3, [r3, #20]
 80033e6:	4619      	mov	r1, r3
 80033e8:	4610      	mov	r0, r2
 80033ea:	f7fd fba3 	bl	8000b34 <__addsf3>
 80033ee:	4603      	mov	r3, r0
 80033f0:	461a      	mov	r2, r3
 80033f2:	687b      	ldr	r3, [r7, #4]
 80033f4:	61da      	str	r2, [r3, #28]
            break;
 80033f6:	e014      	b.n	8003422 <qFIS_DeFuzz_Centroid+0x8e>
        case DeFuzz_Init:
            o->data[ 0 ] = 0.0f; /*store sum(y)*/
 80033f8:	687b      	ldr	r3, [r7, #4]
 80033fa:	f04f 0200 	mov.w	r2, #0
 80033fe:	619a      	str	r2, [r3, #24]
            o->data[ 1 ] = 0.0f; /*store sum(x*y)*/
 8003400:	687b      	ldr	r3, [r7, #4]
 8003402:	f04f 0200 	mov.w	r2, #0
 8003406:	61da      	str	r2, [r3, #28]
            break;
 8003408:	e00b      	b.n	8003422 <qFIS_DeFuzz_Centroid+0x8e>
        case DeFuzz_End:
            d = o->data[ 0 ]/o->data[ 1 ]; /*sum(x*y)/sum(y)*/
 800340a:	687b      	ldr	r3, [r7, #4]
 800340c:	699a      	ldr	r2, [r3, #24]
 800340e:	687b      	ldr	r3, [r7, #4]
 8003410:	69db      	ldr	r3, [r3, #28]
 8003412:	4619      	mov	r1, r3
 8003414:	4610      	mov	r0, r2
 8003416:	f7fd fd49 	bl	8000eac <__aeabi_fdiv>
 800341a:	4603      	mov	r3, r0
 800341c:	60fb      	str	r3, [r7, #12]
            break;
 800341e:	e000      	b.n	8003422 <qFIS_DeFuzz_Centroid+0x8e>
        default:
            break;
 8003420:	bf00      	nop
    }

    return d;
 8003422:	68fb      	ldr	r3, [r7, #12]
}
 8003424:	4618      	mov	r0, r3
 8003426:	3714      	adds	r7, #20
 8003428:	46bd      	mov	sp, r7
 800342a:	bd90      	pop	{r4, r7, pc}

0800342c <qFIS_DeFuzz_WtAverage>:
    return d;
}
/*============================================================================*/
static float qFIS_DeFuzz_WtAverage( qFIS_Output_t * const o,
                                    const qFIS_DeFuzzState_t stage )
{
 800342c:	b580      	push	{r7, lr}
 800342e:	b084      	sub	sp, #16
 8003430:	af00      	add	r7, sp, #0
 8003432:	6078      	str	r0, [r7, #4]
 8003434:	460b      	mov	r3, r1
 8003436:	70fb      	strb	r3, [r7, #3]
    float d = 0.0f;
 8003438:	f04f 0300 	mov.w	r3, #0
 800343c:	60fb      	str	r3, [r7, #12]

    if ( DeFuzz_End == stage ) {
 800343e:	78fb      	ldrb	r3, [r7, #3]
 8003440:	2b02      	cmp	r3, #2
 8003442:	d109      	bne.n	8003458 <qFIS_DeFuzz_WtAverage+0x2c>
        d = o->data[ 0 ]/o->data[ 1 ];
 8003444:	687b      	ldr	r3, [r7, #4]
 8003446:	699a      	ldr	r2, [r3, #24]
 8003448:	687b      	ldr	r3, [r7, #4]
 800344a:	69db      	ldr	r3, [r3, #28]
 800344c:	4619      	mov	r1, r3
 800344e:	4610      	mov	r0, r2
 8003450:	f7fd fd2c 	bl	8000eac <__aeabi_fdiv>
 8003454:	4603      	mov	r3, r0
 8003456:	60fb      	str	r3, [r7, #12]
    }

    return d;
 8003458:	68fb      	ldr	r3, [r7, #12]
}
 800345a:	4618      	mov	r0, r3
 800345c:	3710      	adds	r7, #16
 800345e:	46bd      	mov	sp, r7
 8003460:	bd80      	pop	{r7, pc}

08003462 <qFIS_DeFuzzify>:

    return d;
}
/*============================================================================*/
int qFIS_DeFuzzify( qFIS_t * const f )
{
 8003462:	b5b0      	push	{r4, r5, r7, lr}
 8003464:	b086      	sub	sp, #24
 8003466:	af00      	add	r7, sp, #0
 8003468:	6078      	str	r0, [r7, #4]
    int retVal = 0;
 800346a:	2300      	movs	r3, #0
 800346c:	60fb      	str	r3, [r7, #12]

    if ( NULL != f ) {
 800346e:	687b      	ldr	r3, [r7, #4]
 8003470:	2b00      	cmp	r3, #0
 8003472:	f000 8133 	beq.w	80036dc <qFIS_DeFuzzify+0x27a>
        size_t i;

        for ( i = 0; i < f->nOutputs ; ++i ) {
 8003476:	2300      	movs	r3, #0
 8003478:	617b      	str	r3, [r7, #20]
 800347a:	e00e      	b.n	800349a <qFIS_DeFuzzify+0x38>
            f->deFuzz( &f->output[ i ] , DeFuzz_Init );
 800347c:	687b      	ldr	r3, [r7, #4]
 800347e:	6a9b      	ldr	r3, [r3, #40]	; 0x28
 8003480:	687a      	ldr	r2, [r7, #4]
 8003482:	6851      	ldr	r1, [r2, #4]
 8003484:	697a      	ldr	r2, [r7, #20]
 8003486:	2034      	movs	r0, #52	; 0x34
 8003488:	fb00 f202 	mul.w	r2, r0, r2
 800348c:	440a      	add	r2, r1
 800348e:	2100      	movs	r1, #0
 8003490:	4610      	mov	r0, r2
 8003492:	4798      	blx	r3
        for ( i = 0; i < f->nOutputs ; ++i ) {
 8003494:	697b      	ldr	r3, [r7, #20]
 8003496:	3301      	adds	r3, #1
 8003498:	617b      	str	r3, [r7, #20]
 800349a:	687b      	ldr	r3, [r7, #4]
 800349c:	6c1b      	ldr	r3, [r3, #64]	; 0x40
 800349e:	697a      	ldr	r2, [r7, #20]
 80034a0:	429a      	cmp	r2, r3
 80034a2:	d3eb      	bcc.n	800347c <qFIS_DeFuzzify+0x1a>
        }

        if ( Mamdani == f->type  ) {
 80034a4:	687b      	ldr	r3, [r7, #4]
 80034a6:	f893 305e 	ldrb.w	r3, [r3, #94]	; 0x5e
 80034aa:	2b00      	cmp	r3, #0
 80034ac:	f040 809a 	bne.w	80035e4 <qFIS_DeFuzzify+0x182>
            size_t k;

            for ( k = 0u ; k < f->nPoints ; ++k ) {
 80034b0:	2300      	movs	r3, #0
 80034b2:	613b      	str	r3, [r7, #16]
 80034b4:	e08f      	b.n	80035d6 <qFIS_DeFuzzify+0x174>
                for ( i = 0; i < f->nOutputs ; ++i ) { /* initialize*/
 80034b6:	2300      	movs	r3, #0
 80034b8:	617b      	str	r3, [r7, #20]
 80034ba:	e038      	b.n	800352e <qFIS_DeFuzzify+0xcc>
                    f->output[ i ].y = 0.0f;
 80034bc:	687b      	ldr	r3, [r7, #4]
 80034be:	685a      	ldr	r2, [r3, #4]
 80034c0:	697b      	ldr	r3, [r7, #20]
 80034c2:	2134      	movs	r1, #52	; 0x34
 80034c4:	fb01 f303 	mul.w	r3, r1, r3
 80034c8:	4413      	add	r3, r2
 80034ca:	f04f 0200 	mov.w	r2, #0
 80034ce:	615a      	str	r2, [r3, #20]
                    f->output[ i ].x = qFIS_GetNextX( f->output[ i ].b.min,
 80034d0:	687b      	ldr	r3, [r7, #4]
 80034d2:	685a      	ldr	r2, [r3, #4]
 80034d4:	697b      	ldr	r3, [r7, #20]
 80034d6:	2134      	movs	r1, #52	; 0x34
 80034d8:	fb01 f303 	mul.w	r3, r1, r3
 80034dc:	4413      	add	r3, r2
 80034de:	6818      	ldr	r0, [r3, #0]
                                                      f->output[ i ].res,
 80034e0:	687b      	ldr	r3, [r7, #4]
 80034e2:	685a      	ldr	r2, [r3, #4]
 80034e4:	697b      	ldr	r3, [r7, #20]
 80034e6:	2134      	movs	r1, #52	; 0x34
 80034e8:	fb01 f303 	mul.w	r3, r1, r3
 80034ec:	4413      	add	r3, r2
                    f->output[ i ].x = qFIS_GetNextX( f->output[ i ].b.min,
 80034ee:	68d9      	ldr	r1, [r3, #12]
 80034f0:	687b      	ldr	r3, [r7, #4]
 80034f2:	685a      	ldr	r2, [r3, #4]
 80034f4:	697b      	ldr	r3, [r7, #20]
 80034f6:	2434      	movs	r4, #52	; 0x34
 80034f8:	fb04 f303 	mul.w	r3, r4, r3
 80034fc:	18d4      	adds	r4, r2, r3
 80034fe:	693a      	ldr	r2, [r7, #16]
 8003500:	f000 f950 	bl	80037a4 <qFIS_GetNextX>
 8003504:	4603      	mov	r3, r0
 8003506:	6123      	str	r3, [r4, #16]
                                                      k );
                    f->output[ i ].b.value = f->output[ i ].x;
 8003508:	687b      	ldr	r3, [r7, #4]
 800350a:	685a      	ldr	r2, [r3, #4]
 800350c:	697b      	ldr	r3, [r7, #20]
 800350e:	2134      	movs	r1, #52	; 0x34
 8003510:	fb01 f303 	mul.w	r3, r1, r3
 8003514:	441a      	add	r2, r3
 8003516:	687b      	ldr	r3, [r7, #4]
 8003518:	6859      	ldr	r1, [r3, #4]
 800351a:	697b      	ldr	r3, [r7, #20]
 800351c:	2034      	movs	r0, #52	; 0x34
 800351e:	fb00 f303 	mul.w	r3, r0, r3
 8003522:	440b      	add	r3, r1
 8003524:	6912      	ldr	r2, [r2, #16]
 8003526:	609a      	str	r2, [r3, #8]
                for ( i = 0; i < f->nOutputs ; ++i ) { /* initialize*/
 8003528:	697b      	ldr	r3, [r7, #20]
 800352a:	3301      	adds	r3, #1
 800352c:	617b      	str	r3, [r7, #20]
 800352e:	687b      	ldr	r3, [r7, #4]
 8003530:	6c1b      	ldr	r3, [r3, #64]	; 0x40
 8003532:	697a      	ldr	r2, [r7, #20]
 8003534:	429a      	cmp	r2, r3
 8003536:	d3c1      	bcc.n	80034bc <qFIS_DeFuzzify+0x5a>
                }
                qFIS_Aggregate( f );
 8003538:	6878      	ldr	r0, [r7, #4]
 800353a:	f7ff feed 	bl	8003318 <qFIS_Aggregate>
                for ( i = 0; i < f->nOutputs ; ++i ) {
 800353e:	2300      	movs	r3, #0
 8003540:	617b      	str	r3, [r7, #20]
 8003542:	e040      	b.n	80035c6 <qFIS_DeFuzzify+0x164>
                    f->deFuzz( &f->output[ i ] , DeFuzz_Compute );
 8003544:	687b      	ldr	r3, [r7, #4]
 8003546:	6a9b      	ldr	r3, [r3, #40]	; 0x28
 8003548:	687a      	ldr	r2, [r7, #4]
 800354a:	6851      	ldr	r1, [r2, #4]
 800354c:	697a      	ldr	r2, [r7, #20]
 800354e:	2034      	movs	r0, #52	; 0x34
 8003550:	fb00 f202 	mul.w	r2, r0, r2
 8003554:	440a      	add	r2, r1
 8003556:	2101      	movs	r1, #1
 8003558:	4610      	mov	r0, r2
 800355a:	4798      	blx	r3
                    if ( NULL != f->output[ i ].xag ) { /*store aggregated*/
 800355c:	687b      	ldr	r3, [r7, #4]
 800355e:	685a      	ldr	r2, [r3, #4]
 8003560:	697b      	ldr	r3, [r7, #20]
 8003562:	2134      	movs	r1, #52	; 0x34
 8003564:	fb01 f303 	mul.w	r3, r1, r3
 8003568:	4413      	add	r3, r2
 800356a:	6adb      	ldr	r3, [r3, #44]	; 0x2c
 800356c:	2b00      	cmp	r3, #0
 800356e:	d027      	beq.n	80035c0 <qFIS_DeFuzzify+0x15e>
                        f->output[ i ].xag[ k ] = f->output[ i ].x;
 8003570:	687b      	ldr	r3, [r7, #4]
 8003572:	685a      	ldr	r2, [r3, #4]
 8003574:	697b      	ldr	r3, [r7, #20]
 8003576:	2134      	movs	r1, #52	; 0x34
 8003578:	fb01 f303 	mul.w	r3, r1, r3
 800357c:	441a      	add	r2, r3
 800357e:	687b      	ldr	r3, [r7, #4]
 8003580:	6859      	ldr	r1, [r3, #4]
 8003582:	697b      	ldr	r3, [r7, #20]
 8003584:	2034      	movs	r0, #52	; 0x34
 8003586:	fb00 f303 	mul.w	r3, r0, r3
 800358a:	440b      	add	r3, r1
 800358c:	6ad9      	ldr	r1, [r3, #44]	; 0x2c
 800358e:	693b      	ldr	r3, [r7, #16]
 8003590:	009b      	lsls	r3, r3, #2
 8003592:	440b      	add	r3, r1
 8003594:	6912      	ldr	r2, [r2, #16]
 8003596:	601a      	str	r2, [r3, #0]
                        f->output[ i ].yag[ k ] = f->output[ i ].y;
 8003598:	687b      	ldr	r3, [r7, #4]
 800359a:	685a      	ldr	r2, [r3, #4]
 800359c:	697b      	ldr	r3, [r7, #20]
 800359e:	2134      	movs	r1, #52	; 0x34
 80035a0:	fb01 f303 	mul.w	r3, r1, r3
 80035a4:	441a      	add	r2, r3
 80035a6:	687b      	ldr	r3, [r7, #4]
 80035a8:	6859      	ldr	r1, [r3, #4]
 80035aa:	697b      	ldr	r3, [r7, #20]
 80035ac:	2034      	movs	r0, #52	; 0x34
 80035ae:	fb00 f303 	mul.w	r3, r0, r3
 80035b2:	440b      	add	r3, r1
 80035b4:	6b19      	ldr	r1, [r3, #48]	; 0x30
 80035b6:	693b      	ldr	r3, [r7, #16]
 80035b8:	009b      	lsls	r3, r3, #2
 80035ba:	440b      	add	r3, r1
 80035bc:	6952      	ldr	r2, [r2, #20]
 80035be:	601a      	str	r2, [r3, #0]
                for ( i = 0; i < f->nOutputs ; ++i ) {
 80035c0:	697b      	ldr	r3, [r7, #20]
 80035c2:	3301      	adds	r3, #1
 80035c4:	617b      	str	r3, [r7, #20]
 80035c6:	687b      	ldr	r3, [r7, #4]
 80035c8:	6c1b      	ldr	r3, [r3, #64]	; 0x40
 80035ca:	697a      	ldr	r2, [r7, #20]
 80035cc:	429a      	cmp	r2, r3
 80035ce:	d3b9      	bcc.n	8003544 <qFIS_DeFuzzify+0xe2>
            for ( k = 0u ; k < f->nPoints ; ++k ) {
 80035d0:	693b      	ldr	r3, [r7, #16]
 80035d2:	3301      	adds	r3, #1
 80035d4:	613b      	str	r3, [r7, #16]
 80035d6:	687b      	ldr	r3, [r7, #4]
 80035d8:	6cdb      	ldr	r3, [r3, #76]	; 0x4c
 80035da:	693a      	ldr	r2, [r7, #16]
 80035dc:	429a      	cmp	r2, r3
 80035de:	f4ff af6a 	bcc.w	80034b6 <qFIS_DeFuzzify+0x54>
 80035e2:	e038      	b.n	8003656 <qFIS_DeFuzzify+0x1f4>
                    }
                }
            }
        }
        else { /*Sugeno and Tsukamoto systems*/
            for ( i = 0; i < f->nOutputs ; ++i ) { /* initialize*/
 80035e4:	2300      	movs	r3, #0
 80035e6:	617b      	str	r3, [r7, #20]
 80035e8:	e016      	b.n	8003618 <qFIS_DeFuzzify+0x1b6>
                f->output[ i ].data[ 0 ] = 0.0f; /*store sum wi*/
 80035ea:	687b      	ldr	r3, [r7, #4]
 80035ec:	685a      	ldr	r2, [r3, #4]
 80035ee:	697b      	ldr	r3, [r7, #20]
 80035f0:	2134      	movs	r1, #52	; 0x34
 80035f2:	fb01 f303 	mul.w	r3, r1, r3
 80035f6:	4413      	add	r3, r2
 80035f8:	f04f 0200 	mov.w	r2, #0
 80035fc:	619a      	str	r2, [r3, #24]
                f->output[ i ].data[ 1 ] = 0.0f; /*store sum zi*wi*/
 80035fe:	687b      	ldr	r3, [r7, #4]
 8003600:	685a      	ldr	r2, [r3, #4]
 8003602:	697b      	ldr	r3, [r7, #20]
 8003604:	2134      	movs	r1, #52	; 0x34
 8003606:	fb01 f303 	mul.w	r3, r1, r3
 800360a:	4413      	add	r3, r2
 800360c:	f04f 0200 	mov.w	r2, #0
 8003610:	61da      	str	r2, [r3, #28]
            for ( i = 0; i < f->nOutputs ; ++i ) { /* initialize*/
 8003612:	697b      	ldr	r3, [r7, #20]
 8003614:	3301      	adds	r3, #1
 8003616:	617b      	str	r3, [r7, #20]
 8003618:	687b      	ldr	r3, [r7, #4]
 800361a:	6c1b      	ldr	r3, [r3, #64]	; 0x40
 800361c:	697a      	ldr	r2, [r7, #20]
 800361e:	429a      	cmp	r2, r3
 8003620:	d3e3      	bcc.n	80035ea <qFIS_DeFuzzify+0x188>
            }
            qFIS_Aggregate( f );
 8003622:	6878      	ldr	r0, [r7, #4]
 8003624:	f7ff fe78 	bl	8003318 <qFIS_Aggregate>
            for ( i = 0; i < f->nOutputs ; ++i ) { /* initialize*/
 8003628:	2300      	movs	r3, #0
 800362a:	617b      	str	r3, [r7, #20]
 800362c:	e00e      	b.n	800364c <qFIS_DeFuzzify+0x1ea>
                f->deFuzz( &f->output[ i ] , DeFuzz_Compute );
 800362e:	687b      	ldr	r3, [r7, #4]
 8003630:	6a9b      	ldr	r3, [r3, #40]	; 0x28
 8003632:	687a      	ldr	r2, [r7, #4]
 8003634:	6851      	ldr	r1, [r2, #4]
 8003636:	697a      	ldr	r2, [r7, #20]
 8003638:	2034      	movs	r0, #52	; 0x34
 800363a:	fb00 f202 	mul.w	r2, r0, r2
 800363e:	440a      	add	r2, r1
 8003640:	2101      	movs	r1, #1
 8003642:	4610      	mov	r0, r2
 8003644:	4798      	blx	r3
            for ( i = 0; i < f->nOutputs ; ++i ) { /* initialize*/
 8003646:	697b      	ldr	r3, [r7, #20]
 8003648:	3301      	adds	r3, #1
 800364a:	617b      	str	r3, [r7, #20]
 800364c:	687b      	ldr	r3, [r7, #4]
 800364e:	6c1b      	ldr	r3, [r3, #64]	; 0x40
 8003650:	697a      	ldr	r2, [r7, #20]
 8003652:	429a      	cmp	r2, r3
 8003654:	d3eb      	bcc.n	800362e <qFIS_DeFuzzify+0x1cc>
            }
        }

        for ( i = 0; i < f->nOutputs ; ++i ) {
 8003656:	2300      	movs	r3, #0
 8003658:	617b      	str	r3, [r7, #20]
 800365a:	e03a      	b.n	80036d2 <qFIS_DeFuzzify+0x270>
            f->output[ i ].b.value = f->deFuzz( &f->output[ i ] , DeFuzz_End );
 800365c:	687b      	ldr	r3, [r7, #4]
 800365e:	6a9b      	ldr	r3, [r3, #40]	; 0x28
 8003660:	687a      	ldr	r2, [r7, #4]
 8003662:	6851      	ldr	r1, [r2, #4]
 8003664:	697a      	ldr	r2, [r7, #20]
 8003666:	2034      	movs	r0, #52	; 0x34
 8003668:	fb00 f202 	mul.w	r2, r0, r2
 800366c:	1888      	adds	r0, r1, r2
 800366e:	687a      	ldr	r2, [r7, #4]
 8003670:	6851      	ldr	r1, [r2, #4]
 8003672:	697a      	ldr	r2, [r7, #20]
 8003674:	2434      	movs	r4, #52	; 0x34
 8003676:	fb04 f202 	mul.w	r2, r4, r2
 800367a:	188c      	adds	r4, r1, r2
 800367c:	2102      	movs	r1, #2
 800367e:	4798      	blx	r3
 8003680:	4603      	mov	r3, r0
 8003682:	60a3      	str	r3, [r4, #8]
            f->output[ i ].b.value = qFIS_Bound( f->output[ i ].b.value,
 8003684:	687b      	ldr	r3, [r7, #4]
 8003686:	685a      	ldr	r2, [r3, #4]
 8003688:	697b      	ldr	r3, [r7, #20]
 800368a:	2134      	movs	r1, #52	; 0x34
 800368c:	fb01 f303 	mul.w	r3, r1, r3
 8003690:	4413      	add	r3, r2
 8003692:	6898      	ldr	r0, [r3, #8]
                                                 f->output[ i ].b.min,
 8003694:	687b      	ldr	r3, [r7, #4]
 8003696:	685a      	ldr	r2, [r3, #4]
 8003698:	697b      	ldr	r3, [r7, #20]
 800369a:	2134      	movs	r1, #52	; 0x34
 800369c:	fb01 f303 	mul.w	r3, r1, r3
 80036a0:	4413      	add	r3, r2
            f->output[ i ].b.value = qFIS_Bound( f->output[ i ].b.value,
 80036a2:	6819      	ldr	r1, [r3, #0]
                                                 f->output[ i ].b.max );
 80036a4:	687b      	ldr	r3, [r7, #4]
 80036a6:	685a      	ldr	r2, [r3, #4]
 80036a8:	697b      	ldr	r3, [r7, #20]
 80036aa:	2434      	movs	r4, #52	; 0x34
 80036ac:	fb04 f303 	mul.w	r3, r4, r3
 80036b0:	4413      	add	r3, r2
            f->output[ i ].b.value = qFIS_Bound( f->output[ i ].b.value,
 80036b2:	685d      	ldr	r5, [r3, #4]
 80036b4:	687b      	ldr	r3, [r7, #4]
 80036b6:	685a      	ldr	r2, [r3, #4]
 80036b8:	697b      	ldr	r3, [r7, #20]
 80036ba:	2434      	movs	r4, #52	; 0x34
 80036bc:	fb04 f303 	mul.w	r3, r4, r3
 80036c0:	18d4      	adds	r4, r2, r3
 80036c2:	462a      	mov	r2, r5
 80036c4:	f001 f851 	bl	800476a <qFIS_Bound>
 80036c8:	4603      	mov	r3, r0
 80036ca:	60a3      	str	r3, [r4, #8]
        for ( i = 0; i < f->nOutputs ; ++i ) {
 80036cc:	697b      	ldr	r3, [r7, #20]
 80036ce:	3301      	adds	r3, #1
 80036d0:	617b      	str	r3, [r7, #20]
 80036d2:	687b      	ldr	r3, [r7, #4]
 80036d4:	6c1b      	ldr	r3, [r3, #64]	; 0x40
 80036d6:	697a      	ldr	r2, [r7, #20]
 80036d8:	429a      	cmp	r2, r3
 80036da:	d3bf      	bcc.n	800365c <qFIS_DeFuzzify+0x1fa>
        }
    }

    return retVal;
 80036dc:	68fb      	ldr	r3, [r7, #12]
}
 80036de:	4618      	mov	r0, r3
 80036e0:	3718      	adds	r7, #24
 80036e2:	46bd      	mov	sp, r7
 80036e4:	bdb0      	pop	{r4, r5, r7, pc}
	...

080036e8 <qFIS_Inference>:

    return retVal;
}
/*============================================================================*/
int qFIS_Inference( qFIS_t * const f )
{
 80036e8:	b580      	push	{r7, lr}
 80036ea:	b084      	sub	sp, #16
 80036ec:	af00      	add	r7, sp, #0
 80036ee:	6078      	str	r0, [r7, #4]
    int retVal = 0;
 80036f0:	2300      	movs	r3, #0
 80036f2:	60fb      	str	r3, [r7, #12]

    if ( NULL != f  ) {
 80036f4:	687b      	ldr	r3, [r7, #4]
 80036f6:	2b00      	cmp	r3, #0
 80036f8:	d04a      	beq.n	8003790 <qFIS_Inference+0xa8>
        size_t i = 0u;
 80036fa:	2300      	movs	r3, #0
 80036fc:	60bb      	str	r3, [r7, #8]

        if ( QFIS_RULES_BEGIN == f->rules[ 0 ] ) {
 80036fe:	687b      	ldr	r3, [r7, #4]
 8003700:	6b5b      	ldr	r3, [r3, #52]	; 0x34
 8003702:	f9b3 3000 	ldrsh.w	r3, [r3]
 8003706:	f513 4f00 	cmn.w	r3, #32768	; 0x8000
 800370a:	d12f      	bne.n	800376c <qFIS_Inference+0x84>
            f->inferenceState = &qFIS_InferenceAntecedent;
 800370c:	687b      	ldr	r3, [r7, #4]
 800370e:	4a23      	ldr	r2, [pc, #140]	; (800379c <qFIS_Inference+0xb4>)
 8003710:	621a      	str	r2, [r3, #32]
            f->rStrength = 0.0f;
 8003712:	687b      	ldr	r3, [r7, #4]
 8003714:	f04f 0200 	mov.w	r2, #0
 8003718:	659a      	str	r2, [r3, #88]	; 0x58
            f->lastConnector = -1;
 800371a:	687b      	ldr	r3, [r7, #4]
 800371c:	f64f 72ff 	movw	r2, #65535	; 0xffff
 8003720:	f8a3 205c 	strh.w	r2, [r3, #92]	; 0x5c
            f->ruleCount = 0u;
 8003724:	687b      	ldr	r3, [r7, #4]
 8003726:	2200      	movs	r2, #0
 8003728:	655a      	str	r2, [r3, #84]	; 0x54
            i = 1u;
 800372a:	2301      	movs	r3, #1
 800372c:	60bb      	str	r3, [r7, #8]
            while ( ( _QFIS_RULES_END != f->rules[ i ] ) && ( f->ruleCount < f->nRules ) ) {
 800372e:	e00b      	b.n	8003748 <qFIS_Inference+0x60>
                i = f->inferenceState( f, i );
 8003730:	687b      	ldr	r3, [r7, #4]
 8003732:	6a1b      	ldr	r3, [r3, #32]
 8003734:	68b9      	ldr	r1, [r7, #8]
 8003736:	6878      	ldr	r0, [r7, #4]
 8003738:	4798      	blx	r3
 800373a:	60b8      	str	r0, [r7, #8]
                if ( QFIS_INFERENCE_ERROR == i ) {
 800373c:	68bb      	ldr	r3, [r7, #8]
 800373e:	2b00      	cmp	r3, #0
 8003740:	d013      	beq.n	800376a <qFIS_Inference+0x82>
                    break;
                }
                ++i;
 8003742:	68bb      	ldr	r3, [r7, #8]
 8003744:	3301      	adds	r3, #1
 8003746:	60bb      	str	r3, [r7, #8]
            while ( ( _QFIS_RULES_END != f->rules[ i ] ) && ( f->ruleCount < f->nRules ) ) {
 8003748:	687b      	ldr	r3, [r7, #4]
 800374a:	6b5a      	ldr	r2, [r3, #52]	; 0x34
 800374c:	68bb      	ldr	r3, [r7, #8]
 800374e:	005b      	lsls	r3, r3, #1
 8003750:	4413      	add	r3, r2
 8003752:	f9b3 3000 	ldrsh.w	r3, [r3]
 8003756:	4a12      	ldr	r2, [pc, #72]	; (80037a0 <qFIS_Inference+0xb8>)
 8003758:	4293      	cmp	r3, r2
 800375a:	d007      	beq.n	800376c <qFIS_Inference+0x84>
 800375c:	687b      	ldr	r3, [r7, #4]
 800375e:	6d5a      	ldr	r2, [r3, #84]	; 0x54
 8003760:	687b      	ldr	r3, [r7, #4]
 8003762:	6d1b      	ldr	r3, [r3, #80]	; 0x50
 8003764:	429a      	cmp	r2, r3
 8003766:	d3e3      	bcc.n	8003730 <qFIS_Inference+0x48>
 8003768:	e000      	b.n	800376c <qFIS_Inference+0x84>
                    break;
 800376a:	bf00      	nop
            }
        }
        if ( ( _QFIS_RULES_END == f->rules[ i ] ) && ( f->ruleCount == f->nRules) ) {
 800376c:	687b      	ldr	r3, [r7, #4]
 800376e:	6b5a      	ldr	r2, [r3, #52]	; 0x34
 8003770:	68bb      	ldr	r3, [r7, #8]
 8003772:	005b      	lsls	r3, r3, #1
 8003774:	4413      	add	r3, r2
 8003776:	f9b3 3000 	ldrsh.w	r3, [r3]
 800377a:	4a09      	ldr	r2, [pc, #36]	; (80037a0 <qFIS_Inference+0xb8>)
 800377c:	4293      	cmp	r3, r2
 800377e:	d107      	bne.n	8003790 <qFIS_Inference+0xa8>
 8003780:	687b      	ldr	r3, [r7, #4]
 8003782:	6d5a      	ldr	r2, [r3, #84]	; 0x54
 8003784:	687b      	ldr	r3, [r7, #4]
 8003786:	6d1b      	ldr	r3, [r3, #80]	; 0x50
 8003788:	429a      	cmp	r2, r3
 800378a:	d101      	bne.n	8003790 <qFIS_Inference+0xa8>
            retVal = 1;
 800378c:	2301      	movs	r3, #1
 800378e:	60fb      	str	r3, [r7, #12]
        }
    }

    return retVal;
 8003790:	68fb      	ldr	r3, [r7, #12]
}
 8003792:	4618      	mov	r0, r3
 8003794:	3710      	adds	r7, #16
 8003796:	46bd      	mov	sp, r7
 8003798:	bd80      	pop	{r7, pc}
 800379a:	bf00      	nop
 800379c:	08002f6d 	.word	0x08002f6d
 80037a0:	ffff8001 	.word	0xffff8001

080037a4 <qFIS_GetNextX>:
/*============================================================================*/
static float qFIS_GetNextX( const float init,
                            const float res,
                            const size_t i )
{
 80037a4:	b580      	push	{r7, lr}
 80037a6:	b084      	sub	sp, #16
 80037a8:	af00      	add	r7, sp, #0
 80037aa:	60f8      	str	r0, [r7, #12]
 80037ac:	60b9      	str	r1, [r7, #8]
 80037ae:	607a      	str	r2, [r7, #4]
    /*cstat -CERT-FLP36-C*/
    return init + ( ( (float)i + 0.5f )*res );
 80037b0:	6878      	ldr	r0, [r7, #4]
 80037b2:	f7fd fa6f 	bl	8000c94 <__aeabi_ui2f>
 80037b6:	4603      	mov	r3, r0
 80037b8:	f04f 517c 	mov.w	r1, #1056964608	; 0x3f000000
 80037bc:	4618      	mov	r0, r3
 80037be:	f7fd f9b9 	bl	8000b34 <__addsf3>
 80037c2:	4603      	mov	r3, r0
 80037c4:	68b9      	ldr	r1, [r7, #8]
 80037c6:	4618      	mov	r0, r3
 80037c8:	f7fd fabc 	bl	8000d44 <__aeabi_fmul>
 80037cc:	4603      	mov	r3, r0
 80037ce:	68f9      	ldr	r1, [r7, #12]
 80037d0:	4618      	mov	r0, r3
 80037d2:	f7fd f9af 	bl	8000b34 <__addsf3>
 80037d6:	4603      	mov	r3, r0
    /*cstat +CERT-FLP36-C*/
}
 80037d8:	4618      	mov	r0, r3
 80037da:	3710      	adds	r7, #16
 80037dc:	46bd      	mov	sp, r7
 80037de:	bd80      	pop	{r7, pc}

080037e0 <qFIS_TriMF>:
/*============================================================================*/
static float qFIS_TriMF( const qFIS_IO_Base_t * const in,
                         const float *p,
                         const size_t n )
{
 80037e0:	b5b0      	push	{r4, r5, r7, lr}
 80037e2:	b08a      	sub	sp, #40	; 0x28
 80037e4:	af00      	add	r7, sp, #0
 80037e6:	60f8      	str	r0, [r7, #12]
 80037e8:	60b9      	str	r1, [r7, #8]
 80037ea:	607a      	str	r2, [r7, #4]
    float a, b, c, tmp;
    float x = in[ 0 ].value;
 80037ec:	68fb      	ldr	r3, [r7, #12]
 80037ee:	689b      	ldr	r3, [r3, #8]
 80037f0:	627b      	str	r3, [r7, #36]	; 0x24
    (void)n;

    a = p[ 0 ];
 80037f2:	68bb      	ldr	r3, [r7, #8]
 80037f4:	681b      	ldr	r3, [r3, #0]
 80037f6:	623b      	str	r3, [r7, #32]
    b = p[ 1 ];
 80037f8:	68bb      	ldr	r3, [r7, #8]
 80037fa:	3304      	adds	r3, #4
 80037fc:	681b      	ldr	r3, [r3, #0]
 80037fe:	61fb      	str	r3, [r7, #28]
    c = p[ 2 ];
 8003800:	68bb      	ldr	r3, [r7, #8]
 8003802:	3308      	adds	r3, #8
 8003804:	681b      	ldr	r3, [r3, #0]
 8003806:	61bb      	str	r3, [r7, #24]
    tmp = qFIS_Min( ( x - a )/( b - a ) , ( c - x )/( c - b ) );
 8003808:	6a39      	ldr	r1, [r7, #32]
 800380a:	6a78      	ldr	r0, [r7, #36]	; 0x24
 800380c:	f7fd f990 	bl	8000b30 <__aeabi_fsub>
 8003810:	4603      	mov	r3, r0
 8003812:	461c      	mov	r4, r3
 8003814:	6a39      	ldr	r1, [r7, #32]
 8003816:	69f8      	ldr	r0, [r7, #28]
 8003818:	f7fd f98a 	bl	8000b30 <__aeabi_fsub>
 800381c:	4603      	mov	r3, r0
 800381e:	4619      	mov	r1, r3
 8003820:	4620      	mov	r0, r4
 8003822:	f7fd fb43 	bl	8000eac <__aeabi_fdiv>
 8003826:	4603      	mov	r3, r0
 8003828:	461c      	mov	r4, r3
 800382a:	6a79      	ldr	r1, [r7, #36]	; 0x24
 800382c:	69b8      	ldr	r0, [r7, #24]
 800382e:	f7fd f97f 	bl	8000b30 <__aeabi_fsub>
 8003832:	4603      	mov	r3, r0
 8003834:	461d      	mov	r5, r3
 8003836:	69f9      	ldr	r1, [r7, #28]
 8003838:	69b8      	ldr	r0, [r7, #24]
 800383a:	f7fd f979 	bl	8000b30 <__aeabi_fsub>
 800383e:	4603      	mov	r3, r0
 8003840:	4619      	mov	r1, r3
 8003842:	4628      	mov	r0, r5
 8003844:	f7fd fb32 	bl	8000eac <__aeabi_fdiv>
 8003848:	4603      	mov	r3, r0
 800384a:	4619      	mov	r1, r3
 800384c:	4620      	mov	r0, r4
 800384e:	f000 ff09 	bl	8004664 <qFIS_Min>
 8003852:	6178      	str	r0, [r7, #20]

    return qFIS_Max( tmp , 0.0f );
 8003854:	f04f 0100 	mov.w	r1, #0
 8003858:	6978      	ldr	r0, [r7, #20]
 800385a:	f000 ff1e 	bl	800469a <qFIS_Max>
 800385e:	4603      	mov	r3, r0
}
 8003860:	4618      	mov	r0, r3
 8003862:	3728      	adds	r7, #40	; 0x28
 8003864:	46bd      	mov	sp, r7
 8003866:	bdb0      	pop	{r4, r5, r7, pc}

08003868 <qFIS_TrapMF>:
/*============================================================================*/
static float qFIS_TrapMF( const qFIS_IO_Base_t * const in,
                          const float *p,
                          const size_t n )
{
 8003868:	b590      	push	{r4, r7, lr}
 800386a:	b08b      	sub	sp, #44	; 0x2c
 800386c:	af00      	add	r7, sp, #0
 800386e:	60f8      	str	r0, [r7, #12]
 8003870:	60b9      	str	r1, [r7, #8]
 8003872:	607a      	str	r2, [r7, #4]
    float a, b, c, d, tmp;
    float x = in[ 0 ].value;
 8003874:	68fb      	ldr	r3, [r7, #12]
 8003876:	689b      	ldr	r3, [r3, #8]
 8003878:	627b      	str	r3, [r7, #36]	; 0x24
    (void)n;

    a = p[ 0 ];
 800387a:	68bb      	ldr	r3, [r7, #8]
 800387c:	681b      	ldr	r3, [r3, #0]
 800387e:	623b      	str	r3, [r7, #32]
    b = p[ 1 ];
 8003880:	68bb      	ldr	r3, [r7, #8]
 8003882:	3304      	adds	r3, #4
 8003884:	681b      	ldr	r3, [r3, #0]
 8003886:	61fb      	str	r3, [r7, #28]
    c = p[ 2 ];
 8003888:	68bb      	ldr	r3, [r7, #8]
 800388a:	3308      	adds	r3, #8
 800388c:	681b      	ldr	r3, [r3, #0]
 800388e:	61bb      	str	r3, [r7, #24]
    d = p[ 3 ];
 8003890:	68bb      	ldr	r3, [r7, #8]
 8003892:	330c      	adds	r3, #12
 8003894:	681b      	ldr	r3, [r3, #0]
 8003896:	617b      	str	r3, [r7, #20]
    tmp = qFIS_Min( ( x - a )/( b - a ) , 1.0f );
 8003898:	6a39      	ldr	r1, [r7, #32]
 800389a:	6a78      	ldr	r0, [r7, #36]	; 0x24
 800389c:	f7fd f948 	bl	8000b30 <__aeabi_fsub>
 80038a0:	4603      	mov	r3, r0
 80038a2:	461c      	mov	r4, r3
 80038a4:	6a39      	ldr	r1, [r7, #32]
 80038a6:	69f8      	ldr	r0, [r7, #28]
 80038a8:	f7fd f942 	bl	8000b30 <__aeabi_fsub>
 80038ac:	4603      	mov	r3, r0
 80038ae:	4619      	mov	r1, r3
 80038b0:	4620      	mov	r0, r4
 80038b2:	f7fd fafb 	bl	8000eac <__aeabi_fdiv>
 80038b6:	4603      	mov	r3, r0
 80038b8:	f04f 517e 	mov.w	r1, #1065353216	; 0x3f800000
 80038bc:	4618      	mov	r0, r3
 80038be:	f000 fed1 	bl	8004664 <qFIS_Min>
 80038c2:	6138      	str	r0, [r7, #16]
    tmp = qFIS_Min( tmp, ( d - x )/( d - c ) ) ;
 80038c4:	6a79      	ldr	r1, [r7, #36]	; 0x24
 80038c6:	6978      	ldr	r0, [r7, #20]
 80038c8:	f7fd f932 	bl	8000b30 <__aeabi_fsub>
 80038cc:	4603      	mov	r3, r0
 80038ce:	461c      	mov	r4, r3
 80038d0:	69b9      	ldr	r1, [r7, #24]
 80038d2:	6978      	ldr	r0, [r7, #20]
 80038d4:	f7fd f92c 	bl	8000b30 <__aeabi_fsub>
 80038d8:	4603      	mov	r3, r0
 80038da:	4619      	mov	r1, r3
 80038dc:	4620      	mov	r0, r4
 80038de:	f7fd fae5 	bl	8000eac <__aeabi_fdiv>
 80038e2:	4603      	mov	r3, r0
 80038e4:	4619      	mov	r1, r3
 80038e6:	6938      	ldr	r0, [r7, #16]
 80038e8:	f000 febc 	bl	8004664 <qFIS_Min>
 80038ec:	6138      	str	r0, [r7, #16]

    return qFIS_Max( tmp , 0.0f );
 80038ee:	f04f 0100 	mov.w	r1, #0
 80038f2:	6938      	ldr	r0, [r7, #16]
 80038f4:	f000 fed1 	bl	800469a <qFIS_Max>
 80038f8:	4603      	mov	r3, r0
}
 80038fa:	4618      	mov	r0, r3
 80038fc:	372c      	adds	r7, #44	; 0x2c
 80038fe:	46bd      	mov	sp, r7
 8003900:	bd90      	pop	{r4, r7, pc}

08003902 <qFIS_GBellMF>:
/*============================================================================*/
static float qFIS_GBellMF( const qFIS_IO_Base_t * const in,
                           const float *p,
                           const size_t n )
{
 8003902:	b590      	push	{r4, r7, lr}
 8003904:	b089      	sub	sp, #36	; 0x24
 8003906:	af00      	add	r7, sp, #0
 8003908:	60f8      	str	r0, [r7, #12]
 800390a:	60b9      	str	r1, [r7, #8]
 800390c:	607a      	str	r2, [r7, #4]
    float a, b, c;
    float x = in[ 0 ].value;
 800390e:	68fb      	ldr	r3, [r7, #12]
 8003910:	689b      	ldr	r3, [r3, #8]
 8003912:	61fb      	str	r3, [r7, #28]
    (void)n;

    a = p[ 0 ];
 8003914:	68bb      	ldr	r3, [r7, #8]
 8003916:	681b      	ldr	r3, [r3, #0]
 8003918:	61bb      	str	r3, [r7, #24]
    b = p[ 1 ];
 800391a:	68bb      	ldr	r3, [r7, #8]
 800391c:	3304      	adds	r3, #4
 800391e:	681b      	ldr	r3, [r3, #0]
 8003920:	617b      	str	r3, [r7, #20]
    c = p[ 2 ];
 8003922:	68bb      	ldr	r3, [r7, #8]
 8003924:	3308      	adds	r3, #8
 8003926:	681b      	ldr	r3, [r3, #0]
 8003928:	613b      	str	r3, [r7, #16]

    return ( 1.0f/( 1.0f + QLIB_POW( QLIB_ABS( ( x - c )/a ) , 2.0f*b ) ) );
 800392a:	6939      	ldr	r1, [r7, #16]
 800392c:	69f8      	ldr	r0, [r7, #28]
 800392e:	f7fd f8ff 	bl	8000b30 <__aeabi_fsub>
 8003932:	4603      	mov	r3, r0
 8003934:	69b9      	ldr	r1, [r7, #24]
 8003936:	4618      	mov	r0, r3
 8003938:	f7fd fab8 	bl	8000eac <__aeabi_fdiv>
 800393c:	4603      	mov	r3, r0
 800393e:	4618      	mov	r0, r3
 8003940:	f7fe fde0 	bl	8002504 <qFFMath_Abs>
 8003944:	4604      	mov	r4, r0
 8003946:	697b      	ldr	r3, [r7, #20]
 8003948:	4619      	mov	r1, r3
 800394a:	4618      	mov	r0, r3
 800394c:	f7fd f8f2 	bl	8000b34 <__addsf3>
 8003950:	4603      	mov	r3, r0
 8003952:	4619      	mov	r1, r3
 8003954:	4620      	mov	r0, r4
 8003956:	f7fe ff87 	bl	8002868 <qFFMath_Pow>
 800395a:	4603      	mov	r3, r0
 800395c:	f04f 517e 	mov.w	r1, #1065353216	; 0x3f800000
 8003960:	4618      	mov	r0, r3
 8003962:	f7fd f8e7 	bl	8000b34 <__addsf3>
 8003966:	4603      	mov	r3, r0
 8003968:	4619      	mov	r1, r3
 800396a:	f04f 507e 	mov.w	r0, #1065353216	; 0x3f800000
 800396e:	f7fd fa9d 	bl	8000eac <__aeabi_fdiv>
 8003972:	4603      	mov	r3, r0
}
 8003974:	4618      	mov	r0, r3
 8003976:	3724      	adds	r7, #36	; 0x24
 8003978:	46bd      	mov	sp, r7
 800397a:	bd90      	pop	{r4, r7, pc}

0800397c <qFIS_GaussMF>:
/*============================================================================*/
static float qFIS_GaussMF( const qFIS_IO_Base_t * const in,
                           const float *p,
                           const size_t n )
{
 800397c:	b580      	push	{r7, lr}
 800397e:	b088      	sub	sp, #32
 8003980:	af00      	add	r7, sp, #0
 8003982:	60f8      	str	r0, [r7, #12]
 8003984:	60b9      	str	r1, [r7, #8]
 8003986:	607a      	str	r2, [r7, #4]
    float a, c, tmp;
    float x = in[ 0 ].value;
 8003988:	68fb      	ldr	r3, [r7, #12]
 800398a:	689b      	ldr	r3, [r3, #8]
 800398c:	61fb      	str	r3, [r7, #28]
    (void)n;

    a = p[ 0 ];
 800398e:	68bb      	ldr	r3, [r7, #8]
 8003990:	681b      	ldr	r3, [r3, #0]
 8003992:	61bb      	str	r3, [r7, #24]
    c = p[ 1 ];
 8003994:	68bb      	ldr	r3, [r7, #8]
 8003996:	3304      	adds	r3, #4
 8003998:	681b      	ldr	r3, [r3, #0]
 800399a:	617b      	str	r3, [r7, #20]
    tmp = ( x - c )/a;
 800399c:	6979      	ldr	r1, [r7, #20]
 800399e:	69f8      	ldr	r0, [r7, #28]
 80039a0:	f7fd f8c6 	bl	8000b30 <__aeabi_fsub>
 80039a4:	4603      	mov	r3, r0
 80039a6:	69b9      	ldr	r1, [r7, #24]
 80039a8:	4618      	mov	r0, r3
 80039aa:	f7fd fa7f 	bl	8000eac <__aeabi_fdiv>
 80039ae:	4603      	mov	r3, r0
 80039b0:	613b      	str	r3, [r7, #16]

    return QLIB_EXP( -0.5f*tmp*tmp );
 80039b2:	f04f 413f 	mov.w	r1, #3204448256	; 0xbf000000
 80039b6:	6938      	ldr	r0, [r7, #16]
 80039b8:	f7fd f9c4 	bl	8000d44 <__aeabi_fmul>
 80039bc:	4603      	mov	r3, r0
 80039be:	6939      	ldr	r1, [r7, #16]
 80039c0:	4618      	mov	r0, r3
 80039c2:	f7fd f9bf 	bl	8000d44 <__aeabi_fmul>
 80039c6:	4603      	mov	r3, r0
 80039c8:	4618      	mov	r0, r3
 80039ca:	f7fe ff25 	bl	8002818 <qFFMath_Exp>
 80039ce:	4603      	mov	r3, r0
}
 80039d0:	4618      	mov	r0, r3
 80039d2:	3720      	adds	r7, #32
 80039d4:	46bd      	mov	sp, r7
 80039d6:	bd80      	pop	{r7, pc}

080039d8 <qFIS_Gauss2MF>:
/*============================================================================*/
static float qFIS_Gauss2MF( const qFIS_IO_Base_t * const in,
                            const float *p,
                            const size_t n )
{
 80039d8:	b580      	push	{r7, lr}
 80039da:	b08a      	sub	sp, #40	; 0x28
 80039dc:	af00      	add	r7, sp, #0
 80039de:	60f8      	str	r0, [r7, #12]
 80039e0:	60b9      	str	r1, [r7, #8]
 80039e2:	607a      	str	r2, [r7, #4]
    float c1, c2, f1, f2;
    float x = in[ 0 ].value;
 80039e4:	68fb      	ldr	r3, [r7, #12]
 80039e6:	689b      	ldr	r3, [r3, #8]
 80039e8:	627b      	str	r3, [r7, #36]	; 0x24

    c1 = p[ 1 ];
 80039ea:	68bb      	ldr	r3, [r7, #8]
 80039ec:	3304      	adds	r3, #4
 80039ee:	681b      	ldr	r3, [r3, #0]
 80039f0:	623b      	str	r3, [r7, #32]
    c2 = p[ 3 ];
 80039f2:	68bb      	ldr	r3, [r7, #8]
 80039f4:	330c      	adds	r3, #12
 80039f6:	681b      	ldr	r3, [r3, #0]
 80039f8:	61fb      	str	r3, [r7, #28]
    f1 = ( x <= c1 ) ? qFIS_GaussMF( in , p, n ) : 1.0f;
 80039fa:	6a39      	ldr	r1, [r7, #32]
 80039fc:	6a78      	ldr	r0, [r7, #36]	; 0x24
 80039fe:	f7fd fb49 	bl	8001094 <__aeabi_fcmple>
 8003a02:	4603      	mov	r3, r0
 8003a04:	2b00      	cmp	r3, #0
 8003a06:	d006      	beq.n	8003a16 <qFIS_Gauss2MF+0x3e>
 8003a08:	687a      	ldr	r2, [r7, #4]
 8003a0a:	68b9      	ldr	r1, [r7, #8]
 8003a0c:	68f8      	ldr	r0, [r7, #12]
 8003a0e:	f7ff ffb5 	bl	800397c <qFIS_GaussMF>
 8003a12:	4603      	mov	r3, r0
 8003a14:	e001      	b.n	8003a1a <qFIS_Gauss2MF+0x42>
 8003a16:	f04f 537e 	mov.w	r3, #1065353216	; 0x3f800000
 8003a1a:	61bb      	str	r3, [r7, #24]
    f2 = ( x <= c2 ) ? qFIS_GaussMF( in , &p[ 2 ], n ) : 1.0f;
 8003a1c:	69f9      	ldr	r1, [r7, #28]
 8003a1e:	6a78      	ldr	r0, [r7, #36]	; 0x24
 8003a20:	f7fd fb38 	bl	8001094 <__aeabi_fcmple>
 8003a24:	4603      	mov	r3, r0
 8003a26:	2b00      	cmp	r3, #0
 8003a28:	d008      	beq.n	8003a3c <qFIS_Gauss2MF+0x64>
 8003a2a:	68bb      	ldr	r3, [r7, #8]
 8003a2c:	3308      	adds	r3, #8
 8003a2e:	687a      	ldr	r2, [r7, #4]
 8003a30:	4619      	mov	r1, r3
 8003a32:	68f8      	ldr	r0, [r7, #12]
 8003a34:	f7ff ffa2 	bl	800397c <qFIS_GaussMF>
 8003a38:	4603      	mov	r3, r0
 8003a3a:	e001      	b.n	8003a40 <qFIS_Gauss2MF+0x68>
 8003a3c:	f04f 537e 	mov.w	r3, #1065353216	; 0x3f800000
 8003a40:	617b      	str	r3, [r7, #20]

    return f1*f2;
 8003a42:	6979      	ldr	r1, [r7, #20]
 8003a44:	69b8      	ldr	r0, [r7, #24]
 8003a46:	f7fd f97d 	bl	8000d44 <__aeabi_fmul>
 8003a4a:	4603      	mov	r3, r0
}
 8003a4c:	4618      	mov	r0, r3
 8003a4e:	3728      	adds	r7, #40	; 0x28
 8003a50:	46bd      	mov	sp, r7
 8003a52:	bd80      	pop	{r7, pc}

08003a54 <qFIS_SigMF>:
/*============================================================================*/
static float qFIS_SigMF( const qFIS_IO_Base_t * const in,
                         const float *p,
                         const size_t n )
{
 8003a54:	b590      	push	{r4, r7, lr}
 8003a56:	b089      	sub	sp, #36	; 0x24
 8003a58:	af00      	add	r7, sp, #0
 8003a5a:	60f8      	str	r0, [r7, #12]
 8003a5c:	60b9      	str	r1, [r7, #8]
 8003a5e:	607a      	str	r2, [r7, #4]
    float a, b;
    float x = in[ 0 ].value;
 8003a60:	68fb      	ldr	r3, [r7, #12]
 8003a62:	689b      	ldr	r3, [r3, #8]
 8003a64:	61fb      	str	r3, [r7, #28]
    (void)n;

    a = p[ 0 ];
 8003a66:	68bb      	ldr	r3, [r7, #8]
 8003a68:	681b      	ldr	r3, [r3, #0]
 8003a6a:	61bb      	str	r3, [r7, #24]
    b = p[ 1 ];
 8003a6c:	68bb      	ldr	r3, [r7, #8]
 8003a6e:	3304      	adds	r3, #4
 8003a70:	681b      	ldr	r3, [r3, #0]
 8003a72:	617b      	str	r3, [r7, #20]

    return 1.0f/( 1.0f + QLIB_EXP( -a*( x - b ) ) );
 8003a74:	69bb      	ldr	r3, [r7, #24]
 8003a76:	f083 4400 	eor.w	r4, r3, #2147483648	; 0x80000000
 8003a7a:	6979      	ldr	r1, [r7, #20]
 8003a7c:	69f8      	ldr	r0, [r7, #28]
 8003a7e:	f7fd f857 	bl	8000b30 <__aeabi_fsub>
 8003a82:	4603      	mov	r3, r0
 8003a84:	4619      	mov	r1, r3
 8003a86:	4620      	mov	r0, r4
 8003a88:	f7fd f95c 	bl	8000d44 <__aeabi_fmul>
 8003a8c:	4603      	mov	r3, r0
 8003a8e:	4618      	mov	r0, r3
 8003a90:	f7fe fec2 	bl	8002818 <qFFMath_Exp>
 8003a94:	4603      	mov	r3, r0
 8003a96:	f04f 517e 	mov.w	r1, #1065353216	; 0x3f800000
 8003a9a:	4618      	mov	r0, r3
 8003a9c:	f7fd f84a 	bl	8000b34 <__addsf3>
 8003aa0:	4603      	mov	r3, r0
 8003aa2:	4619      	mov	r1, r3
 8003aa4:	f04f 507e 	mov.w	r0, #1065353216	; 0x3f800000
 8003aa8:	f7fd fa00 	bl	8000eac <__aeabi_fdiv>
 8003aac:	4603      	mov	r3, r0
}
 8003aae:	4618      	mov	r0, r3
 8003ab0:	3724      	adds	r7, #36	; 0x24
 8003ab2:	46bd      	mov	sp, r7
 8003ab4:	bd90      	pop	{r4, r7, pc}

08003ab6 <qFIS_TSigMF>:
/*============================================================================*/
static float qFIS_TSigMF( const qFIS_IO_Base_t * const in,
                          const float *p,
                          const size_t n )
{
 8003ab6:	b580      	push	{r7, lr}
 8003ab8:	b08a      	sub	sp, #40	; 0x28
 8003aba:	af00      	add	r7, sp, #0
 8003abc:	60f8      	str	r0, [r7, #12]
 8003abe:	60b9      	str	r1, [r7, #8]
 8003ac0:	607a      	str	r2, [r7, #4]
    float a, b, y;
    float x = in[ 0 ].value;
 8003ac2:	68fb      	ldr	r3, [r7, #12]
 8003ac4:	689b      	ldr	r3, [r3, #8]
 8003ac6:	623b      	str	r3, [r7, #32]
    float min = in[ 0 ].min;
 8003ac8:	68fb      	ldr	r3, [r7, #12]
 8003aca:	681b      	ldr	r3, [r3, #0]
 8003acc:	61fb      	str	r3, [r7, #28]
    float max = in[ 0 ].max;
 8003ace:	68fb      	ldr	r3, [r7, #12]
 8003ad0:	685b      	ldr	r3, [r3, #4]
 8003ad2:	61bb      	str	r3, [r7, #24]
    (void)n;

    a = p[ 0 ]; /*slope*/
 8003ad4:	68bb      	ldr	r3, [r7, #8]
 8003ad6:	681b      	ldr	r3, [r3, #0]
 8003ad8:	617b      	str	r3, [r7, #20]
    b = p[ 1 ]; /*inflection*/
 8003ada:	68bb      	ldr	r3, [r7, #8]
 8003adc:	3304      	adds	r3, #4
 8003ade:	681b      	ldr	r3, [r3, #0]
 8003ae0:	613b      	str	r3, [r7, #16]
    if ( qFMathEx_Equal( x, 1.0f ) ) {
 8003ae2:	f04f 517e 	mov.w	r1, #1065353216	; 0x3f800000
 8003ae6:	6a38      	ldr	r0, [r7, #32]
 8003ae8:	f000 fea9 	bl	800483e <qFMathEx_Equal>
 8003aec:	4603      	mov	r3, r0
 8003aee:	2b00      	cmp	r3, #0
 8003af0:	d00d      	beq.n	8003b0e <qFIS_TSigMF+0x58>
        if ( a >= 0.0f ) {
 8003af2:	f04f 0100 	mov.w	r1, #0
 8003af6:	6978      	ldr	r0, [r7, #20]
 8003af8:	f7fd fad6 	bl	80010a8 <__aeabi_fcmpge>
 8003afc:	4603      	mov	r3, r0
 8003afe:	2b00      	cmp	r3, #0
 8003b00:	d002      	beq.n	8003b08 <qFIS_TSigMF+0x52>
            y = max;
 8003b02:	69bb      	ldr	r3, [r7, #24]
 8003b04:	627b      	str	r3, [r7, #36]	; 0x24
 8003b06:	e033      	b.n	8003b70 <qFIS_TSigMF+0xba>
        }
        else {
            y = min;
 8003b08:	69fb      	ldr	r3, [r7, #28]
 8003b0a:	627b      	str	r3, [r7, #36]	; 0x24
 8003b0c:	e030      	b.n	8003b70 <qFIS_TSigMF+0xba>
        }
    }
    else if ( qFMathEx_Equal( x, 0.0f ) ) {
 8003b0e:	f04f 0100 	mov.w	r1, #0
 8003b12:	6a38      	ldr	r0, [r7, #32]
 8003b14:	f000 fe93 	bl	800483e <qFMathEx_Equal>
 8003b18:	4603      	mov	r3, r0
 8003b1a:	2b00      	cmp	r3, #0
 8003b1c:	d00d      	beq.n	8003b3a <qFIS_TSigMF+0x84>
        if ( a >= 0.0f ) {
 8003b1e:	f04f 0100 	mov.w	r1, #0
 8003b22:	6978      	ldr	r0, [r7, #20]
 8003b24:	f7fd fac0 	bl	80010a8 <__aeabi_fcmpge>
 8003b28:	4603      	mov	r3, r0
 8003b2a:	2b00      	cmp	r3, #0
 8003b2c:	d002      	beq.n	8003b34 <qFIS_TSigMF+0x7e>
            y = min;
 8003b2e:	69fb      	ldr	r3, [r7, #28]
 8003b30:	627b      	str	r3, [r7, #36]	; 0x24
 8003b32:	e01d      	b.n	8003b70 <qFIS_TSigMF+0xba>
        }
        else {
            y = max;
 8003b34:	69bb      	ldr	r3, [r7, #24]
 8003b36:	627b      	str	r3, [r7, #36]	; 0x24
 8003b38:	e01a      	b.n	8003b70 <qFIS_TSigMF+0xba>
        }
    }
    else {
        /*cstat -MISRAC2012-Dir-4.11_a*/
        y = b - ( QLIB_LOG( ( 1.0f/x ) - 1.0f )/a );
 8003b3a:	6a39      	ldr	r1, [r7, #32]
 8003b3c:	f04f 507e 	mov.w	r0, #1065353216	; 0x3f800000
 8003b40:	f7fd f9b4 	bl	8000eac <__aeabi_fdiv>
 8003b44:	4603      	mov	r3, r0
 8003b46:	f04f 517e 	mov.w	r1, #1065353216	; 0x3f800000
 8003b4a:	4618      	mov	r0, r3
 8003b4c:	f7fc fff0 	bl	8000b30 <__aeabi_fsub>
 8003b50:	4603      	mov	r3, r0
 8003b52:	4618      	mov	r0, r3
 8003b54:	f7fe fe74 	bl	8002840 <qFFMath_Log>
 8003b58:	4603      	mov	r3, r0
 8003b5a:	6979      	ldr	r1, [r7, #20]
 8003b5c:	4618      	mov	r0, r3
 8003b5e:	f7fd f9a5 	bl	8000eac <__aeabi_fdiv>
 8003b62:	4603      	mov	r3, r0
 8003b64:	4619      	mov	r1, r3
 8003b66:	6938      	ldr	r0, [r7, #16]
 8003b68:	f7fc ffe2 	bl	8000b30 <__aeabi_fsub>
 8003b6c:	4603      	mov	r3, r0
 8003b6e:	627b      	str	r3, [r7, #36]	; 0x24
        /*cstat +MISRAC2012-Dir-4.11_a*/
    }

    return y;
 8003b70:	6a7b      	ldr	r3, [r7, #36]	; 0x24
}
 8003b72:	4618      	mov	r0, r3
 8003b74:	3728      	adds	r7, #40	; 0x28
 8003b76:	46bd      	mov	sp, r7
 8003b78:	bd80      	pop	{r7, pc}

08003b7a <qFIS_DSigMF>:
/*============================================================================*/
static float qFIS_DSigMF( const qFIS_IO_Base_t * const in,
                          const float *p,
                          const size_t n )
{
 8003b7a:	b590      	push	{r4, r7, lr}
 8003b7c:	b085      	sub	sp, #20
 8003b7e:	af00      	add	r7, sp, #0
 8003b80:	60f8      	str	r0, [r7, #12]
 8003b82:	60b9      	str	r1, [r7, #8]
 8003b84:	607a      	str	r2, [r7, #4]
    return QLIB_ABS( qFIS_SigMF( in , p, n ) - qFIS_SigMF( in , &p[ 2 ], n ) );
 8003b86:	687a      	ldr	r2, [r7, #4]
 8003b88:	68b9      	ldr	r1, [r7, #8]
 8003b8a:	68f8      	ldr	r0, [r7, #12]
 8003b8c:	f7ff ff62 	bl	8003a54 <qFIS_SigMF>
 8003b90:	4604      	mov	r4, r0
 8003b92:	68bb      	ldr	r3, [r7, #8]
 8003b94:	3308      	adds	r3, #8
 8003b96:	687a      	ldr	r2, [r7, #4]
 8003b98:	4619      	mov	r1, r3
 8003b9a:	68f8      	ldr	r0, [r7, #12]
 8003b9c:	f7ff ff5a 	bl	8003a54 <qFIS_SigMF>
 8003ba0:	4603      	mov	r3, r0
 8003ba2:	4619      	mov	r1, r3
 8003ba4:	4620      	mov	r0, r4
 8003ba6:	f7fc ffc3 	bl	8000b30 <__aeabi_fsub>
 8003baa:	4603      	mov	r3, r0
 8003bac:	4618      	mov	r0, r3
 8003bae:	f7fe fca9 	bl	8002504 <qFFMath_Abs>
 8003bb2:	4603      	mov	r3, r0
}
 8003bb4:	4618      	mov	r0, r3
 8003bb6:	3714      	adds	r7, #20
 8003bb8:	46bd      	mov	sp, r7
 8003bba:	bd90      	pop	{r4, r7, pc}

08003bbc <qFIS_PSigMF>:
/*============================================================================*/
static float qFIS_PSigMF( const qFIS_IO_Base_t * const in,
                          const float *p,
                          const size_t n )
{
 8003bbc:	b590      	push	{r4, r7, lr}
 8003bbe:	b085      	sub	sp, #20
 8003bc0:	af00      	add	r7, sp, #0
 8003bc2:	60f8      	str	r0, [r7, #12]
 8003bc4:	60b9      	str	r1, [r7, #8]
 8003bc6:	607a      	str	r2, [r7, #4]
    return QLIB_ABS( qFIS_SigMF( in , p, n )*qFIS_SigMF( in , &p[ 2 ], n ) );
 8003bc8:	687a      	ldr	r2, [r7, #4]
 8003bca:	68b9      	ldr	r1, [r7, #8]
 8003bcc:	68f8      	ldr	r0, [r7, #12]
 8003bce:	f7ff ff41 	bl	8003a54 <qFIS_SigMF>
 8003bd2:	4604      	mov	r4, r0
 8003bd4:	68bb      	ldr	r3, [r7, #8]
 8003bd6:	3308      	adds	r3, #8
 8003bd8:	687a      	ldr	r2, [r7, #4]
 8003bda:	4619      	mov	r1, r3
 8003bdc:	68f8      	ldr	r0, [r7, #12]
 8003bde:	f7ff ff39 	bl	8003a54 <qFIS_SigMF>
 8003be2:	4603      	mov	r3, r0
 8003be4:	4619      	mov	r1, r3
 8003be6:	4620      	mov	r0, r4
 8003be8:	f7fd f8ac 	bl	8000d44 <__aeabi_fmul>
 8003bec:	4603      	mov	r3, r0
 8003bee:	4618      	mov	r0, r3
 8003bf0:	f7fe fc88 	bl	8002504 <qFFMath_Abs>
 8003bf4:	4603      	mov	r3, r0
}
 8003bf6:	4618      	mov	r0, r3
 8003bf8:	3714      	adds	r7, #20
 8003bfa:	46bd      	mov	sp, r7
 8003bfc:	bd90      	pop	{r4, r7, pc}

08003bfe <qFIS_SMF>:
/*============================================================================*/
static float qFIS_SMF( const qFIS_IO_Base_t * const in,
                       const float *p,
                       const size_t n )
{
 8003bfe:	b590      	push	{r4, r7, lr}
 8003c00:	b08b      	sub	sp, #44	; 0x2c
 8003c02:	af00      	add	r7, sp, #0
 8003c04:	60f8      	str	r0, [r7, #12]
 8003c06:	60b9      	str	r1, [r7, #8]
 8003c08:	607a      	str	r2, [r7, #4]
    float a, b, tmp, y;
    float x = in[ 0 ].value;
 8003c0a:	68fb      	ldr	r3, [r7, #12]
 8003c0c:	689b      	ldr	r3, [r3, #8]
 8003c0e:	623b      	str	r3, [r7, #32]
    (void)n;

    a = p[ 0 ];
 8003c10:	68bb      	ldr	r3, [r7, #8]
 8003c12:	681b      	ldr	r3, [r3, #0]
 8003c14:	61fb      	str	r3, [r7, #28]
    b = p[ 1 ];
 8003c16:	68bb      	ldr	r3, [r7, #8]
 8003c18:	3304      	adds	r3, #4
 8003c1a:	681b      	ldr	r3, [r3, #0]
 8003c1c:	61bb      	str	r3, [r7, #24]
    if ( x <= a ) {
 8003c1e:	69f9      	ldr	r1, [r7, #28]
 8003c20:	6a38      	ldr	r0, [r7, #32]
 8003c22:	f7fd fa37 	bl	8001094 <__aeabi_fcmple>
 8003c26:	4603      	mov	r3, r0
 8003c28:	2b00      	cmp	r3, #0
 8003c2a:	d003      	beq.n	8003c34 <qFIS_SMF+0x36>
        y =  0.0f;
 8003c2c:	f04f 0300 	mov.w	r3, #0
 8003c30:	627b      	str	r3, [r7, #36]	; 0x24
 8003c32:	e081      	b.n	8003d38 <qFIS_SMF+0x13a>
    }
    else if ( x >= b ) {
 8003c34:	69b9      	ldr	r1, [r7, #24]
 8003c36:	6a38      	ldr	r0, [r7, #32]
 8003c38:	f7fd fa36 	bl	80010a8 <__aeabi_fcmpge>
 8003c3c:	4603      	mov	r3, r0
 8003c3e:	2b00      	cmp	r3, #0
 8003c40:	d003      	beq.n	8003c4a <qFIS_SMF+0x4c>
        y = 1.0f;
 8003c42:	f04f 537e 	mov.w	r3, #1065353216	; 0x3f800000
 8003c46:	627b      	str	r3, [r7, #36]	; 0x24
 8003c48:	e076      	b.n	8003d38 <qFIS_SMF+0x13a>
    }
    else if ( ( x >= a ) && ( x <= ( ( a + b )*0.5f ) ) ) {
 8003c4a:	69f9      	ldr	r1, [r7, #28]
 8003c4c:	6a38      	ldr	r0, [r7, #32]
 8003c4e:	f7fd fa2b 	bl	80010a8 <__aeabi_fcmpge>
 8003c52:	4603      	mov	r3, r0
 8003c54:	2b00      	cmp	r3, #0
 8003c56:	d02f      	beq.n	8003cb8 <qFIS_SMF+0xba>
 8003c58:	69b9      	ldr	r1, [r7, #24]
 8003c5a:	69f8      	ldr	r0, [r7, #28]
 8003c5c:	f7fc ff6a 	bl	8000b34 <__addsf3>
 8003c60:	4603      	mov	r3, r0
 8003c62:	f04f 517c 	mov.w	r1, #1056964608	; 0x3f000000
 8003c66:	4618      	mov	r0, r3
 8003c68:	f7fd f86c 	bl	8000d44 <__aeabi_fmul>
 8003c6c:	4603      	mov	r3, r0
 8003c6e:	4619      	mov	r1, r3
 8003c70:	6a38      	ldr	r0, [r7, #32]
 8003c72:	f7fd fa0f 	bl	8001094 <__aeabi_fcmple>
 8003c76:	4603      	mov	r3, r0
 8003c78:	2b00      	cmp	r3, #0
 8003c7a:	d01d      	beq.n	8003cb8 <qFIS_SMF+0xba>
        tmp = ( x - a )/( b - a );
 8003c7c:	69f9      	ldr	r1, [r7, #28]
 8003c7e:	6a38      	ldr	r0, [r7, #32]
 8003c80:	f7fc ff56 	bl	8000b30 <__aeabi_fsub>
 8003c84:	4603      	mov	r3, r0
 8003c86:	461c      	mov	r4, r3
 8003c88:	69f9      	ldr	r1, [r7, #28]
 8003c8a:	69b8      	ldr	r0, [r7, #24]
 8003c8c:	f7fc ff50 	bl	8000b30 <__aeabi_fsub>
 8003c90:	4603      	mov	r3, r0
 8003c92:	4619      	mov	r1, r3
 8003c94:	4620      	mov	r0, r4
 8003c96:	f7fd f909 	bl	8000eac <__aeabi_fdiv>
 8003c9a:	4603      	mov	r3, r0
 8003c9c:	617b      	str	r3, [r7, #20]
        y = 2.0f*tmp*tmp;
 8003c9e:	697b      	ldr	r3, [r7, #20]
 8003ca0:	4619      	mov	r1, r3
 8003ca2:	4618      	mov	r0, r3
 8003ca4:	f7fc ff46 	bl	8000b34 <__addsf3>
 8003ca8:	4603      	mov	r3, r0
 8003caa:	4619      	mov	r1, r3
 8003cac:	6978      	ldr	r0, [r7, #20]
 8003cae:	f7fd f849 	bl	8000d44 <__aeabi_fmul>
 8003cb2:	4603      	mov	r3, r0
 8003cb4:	627b      	str	r3, [r7, #36]	; 0x24
 8003cb6:	e03f      	b.n	8003d38 <qFIS_SMF+0x13a>
    }
    else if ( ( x <= b ) && ( x >= ( ( a + b )*0.5f ) ) ) {
 8003cb8:	69b9      	ldr	r1, [r7, #24]
 8003cba:	6a38      	ldr	r0, [r7, #32]
 8003cbc:	f7fd f9ea 	bl	8001094 <__aeabi_fcmple>
 8003cc0:	4603      	mov	r3, r0
 8003cc2:	2b00      	cmp	r3, #0
 8003cc4:	d035      	beq.n	8003d32 <qFIS_SMF+0x134>
 8003cc6:	69b9      	ldr	r1, [r7, #24]
 8003cc8:	69f8      	ldr	r0, [r7, #28]
 8003cca:	f7fc ff33 	bl	8000b34 <__addsf3>
 8003cce:	4603      	mov	r3, r0
 8003cd0:	f04f 517c 	mov.w	r1, #1056964608	; 0x3f000000
 8003cd4:	4618      	mov	r0, r3
 8003cd6:	f7fd f835 	bl	8000d44 <__aeabi_fmul>
 8003cda:	4603      	mov	r3, r0
 8003cdc:	4619      	mov	r1, r3
 8003cde:	6a38      	ldr	r0, [r7, #32]
 8003ce0:	f7fd f9e2 	bl	80010a8 <__aeabi_fcmpge>
 8003ce4:	4603      	mov	r3, r0
 8003ce6:	2b00      	cmp	r3, #0
 8003ce8:	d023      	beq.n	8003d32 <qFIS_SMF+0x134>
        tmp = ( x - b )/( b - a );
 8003cea:	69b9      	ldr	r1, [r7, #24]
 8003cec:	6a38      	ldr	r0, [r7, #32]
 8003cee:	f7fc ff1f 	bl	8000b30 <__aeabi_fsub>
 8003cf2:	4603      	mov	r3, r0
 8003cf4:	461c      	mov	r4, r3
 8003cf6:	69f9      	ldr	r1, [r7, #28]
 8003cf8:	69b8      	ldr	r0, [r7, #24]
 8003cfa:	f7fc ff19 	bl	8000b30 <__aeabi_fsub>
 8003cfe:	4603      	mov	r3, r0
 8003d00:	4619      	mov	r1, r3
 8003d02:	4620      	mov	r0, r4
 8003d04:	f7fd f8d2 	bl	8000eac <__aeabi_fdiv>
 8003d08:	4603      	mov	r3, r0
 8003d0a:	617b      	str	r3, [r7, #20]
        y = ( 1.0f - ( 2.0f*tmp*tmp ) );
 8003d0c:	697b      	ldr	r3, [r7, #20]
 8003d0e:	4619      	mov	r1, r3
 8003d10:	4618      	mov	r0, r3
 8003d12:	f7fc ff0f 	bl	8000b34 <__addsf3>
 8003d16:	4603      	mov	r3, r0
 8003d18:	6979      	ldr	r1, [r7, #20]
 8003d1a:	4618      	mov	r0, r3
 8003d1c:	f7fd f812 	bl	8000d44 <__aeabi_fmul>
 8003d20:	4603      	mov	r3, r0
 8003d22:	4619      	mov	r1, r3
 8003d24:	f04f 507e 	mov.w	r0, #1065353216	; 0x3f800000
 8003d28:	f7fc ff02 	bl	8000b30 <__aeabi_fsub>
 8003d2c:	4603      	mov	r3, r0
 8003d2e:	627b      	str	r3, [r7, #36]	; 0x24
 8003d30:	e002      	b.n	8003d38 <qFIS_SMF+0x13a>
    }
    else {
        y = 0.0f;
 8003d32:	f04f 0300 	mov.w	r3, #0
 8003d36:	627b      	str	r3, [r7, #36]	; 0x24
    }

    return y;
 8003d38:	6a7b      	ldr	r3, [r7, #36]	; 0x24
}
 8003d3a:	4618      	mov	r0, r3
 8003d3c:	372c      	adds	r7, #44	; 0x2c
 8003d3e:	46bd      	mov	sp, r7
 8003d40:	bd90      	pop	{r4, r7, pc}

08003d42 <qFIS_TSMF>:
/*============================================================================*/
static float qFIS_TSMF( const qFIS_IO_Base_t * const in,
                        const float *p,
                        const size_t n )
{
 8003d42:	b590      	push	{r4, r7, lr}
 8003d44:	b091      	sub	sp, #68	; 0x44
 8003d46:	af00      	add	r7, sp, #0
 8003d48:	60f8      	str	r0, [r7, #12]
 8003d4a:	60b9      	str	r1, [r7, #8]
 8003d4c:	607a      	str	r2, [r7, #4]
    float diff, a, b, ta, tb, ma, mb;
    float x = in[ 0 ].value;
 8003d4e:	68fb      	ldr	r3, [r7, #12]
 8003d50:	689b      	ldr	r3, [r3, #8]
 8003d52:	63fb      	str	r3, [r7, #60]	; 0x3c
    (void)n;
    qFIS_IO_Base_t tmp;

    a = p[ 0 ]; /*start*/
 8003d54:	68bb      	ldr	r3, [r7, #8]
 8003d56:	681b      	ldr	r3, [r3, #0]
 8003d58:	63bb      	str	r3, [r7, #56]	; 0x38
    b = p[ 1 ]; /*end*/
 8003d5a:	68bb      	ldr	r3, [r7, #8]
 8003d5c:	3304      	adds	r3, #4
 8003d5e:	681b      	ldr	r3, [r3, #0]
 8003d60:	637b      	str	r3, [r7, #52]	; 0x34
    diff = b - a;
 8003d62:	6bb9      	ldr	r1, [r7, #56]	; 0x38
 8003d64:	6b78      	ldr	r0, [r7, #52]	; 0x34
 8003d66:	f7fc fee3 	bl	8000b30 <__aeabi_fsub>
 8003d6a:	4603      	mov	r3, r0
 8003d6c:	633b      	str	r3, [r7, #48]	; 0x30
    diff = 0.5f*diff*diff;
 8003d6e:	f04f 517c 	mov.w	r1, #1056964608	; 0x3f000000
 8003d72:	6b38      	ldr	r0, [r7, #48]	; 0x30
 8003d74:	f7fc ffe6 	bl	8000d44 <__aeabi_fmul>
 8003d78:	4603      	mov	r3, r0
 8003d7a:	4619      	mov	r1, r3
 8003d7c:	6b38      	ldr	r0, [r7, #48]	; 0x30
 8003d7e:	f7fc ffe1 	bl	8000d44 <__aeabi_fmul>
 8003d82:	4603      	mov	r3, r0
 8003d84:	633b      	str	r3, [r7, #48]	; 0x30
    /*cstat -MISRAC2012-Dir-4.11_a -MISRAC2012-Dir-4.11_b*/
    ta = a + QLIB_SQRT( x*diff );
 8003d86:	6b39      	ldr	r1, [r7, #48]	; 0x30
 8003d88:	6bf8      	ldr	r0, [r7, #60]	; 0x3c
 8003d8a:	f7fc ffdb 	bl	8000d44 <__aeabi_fmul>
 8003d8e:	4603      	mov	r3, r0
 8003d90:	4618      	mov	r0, r3
 8003d92:	f7fe fbcc 	bl	800252e <qFFMath_Sqrt>
 8003d96:	4603      	mov	r3, r0
 8003d98:	4619      	mov	r1, r3
 8003d9a:	6bb8      	ldr	r0, [r7, #56]	; 0x38
 8003d9c:	f7fc feca 	bl	8000b34 <__addsf3>
 8003da0:	4603      	mov	r3, r0
 8003da2:	62fb      	str	r3, [r7, #44]	; 0x2c
    tmp.value = ta;
 8003da4:	6afb      	ldr	r3, [r7, #44]	; 0x2c
 8003da6:	61fb      	str	r3, [r7, #28]
    ma = qFIS_SMF( &tmp, p, n );
 8003da8:	f107 0314 	add.w	r3, r7, #20
 8003dac:	687a      	ldr	r2, [r7, #4]
 8003dae:	68b9      	ldr	r1, [r7, #8]
 8003db0:	4618      	mov	r0, r3
 8003db2:	f7ff ff24 	bl	8003bfe <qFIS_SMF>
 8003db6:	62b8      	str	r0, [r7, #40]	; 0x28
    tb = b + QLIB_SQRT( -( x - 1.0f )*diff );
 8003db8:	f04f 517e 	mov.w	r1, #1065353216	; 0x3f800000
 8003dbc:	6bf8      	ldr	r0, [r7, #60]	; 0x3c
 8003dbe:	f7fc feb7 	bl	8000b30 <__aeabi_fsub>
 8003dc2:	4603      	mov	r3, r0
 8003dc4:	f083 4300 	eor.w	r3, r3, #2147483648	; 0x80000000
 8003dc8:	6b39      	ldr	r1, [r7, #48]	; 0x30
 8003dca:	4618      	mov	r0, r3
 8003dcc:	f7fc ffba 	bl	8000d44 <__aeabi_fmul>
 8003dd0:	4603      	mov	r3, r0
 8003dd2:	4618      	mov	r0, r3
 8003dd4:	f7fe fbab 	bl	800252e <qFFMath_Sqrt>
 8003dd8:	4603      	mov	r3, r0
 8003dda:	4619      	mov	r1, r3
 8003ddc:	6b78      	ldr	r0, [r7, #52]	; 0x34
 8003dde:	f7fc fea9 	bl	8000b34 <__addsf3>
 8003de2:	4603      	mov	r3, r0
 8003de4:	627b      	str	r3, [r7, #36]	; 0x24
    tmp.value = tb;
 8003de6:	6a7b      	ldr	r3, [r7, #36]	; 0x24
 8003de8:	61fb      	str	r3, [r7, #28]
    mb = qFIS_SMF( &tmp, p, n );
 8003dea:	f107 0314 	add.w	r3, r7, #20
 8003dee:	687a      	ldr	r2, [r7, #4]
 8003df0:	68b9      	ldr	r1, [r7, #8]
 8003df2:	4618      	mov	r0, r3
 8003df4:	f7ff ff03 	bl	8003bfe <qFIS_SMF>
 8003df8:	6238      	str	r0, [r7, #32]
    /*cstat +MISRAC2012-Dir-4.11_a +MISRAC2012-Dir-4.11_b*/
    return  ( QLIB_ABS( x - ma ) < QLIB_ABS( x - mb ) ) ? ta : tb;
 8003dfa:	6ab9      	ldr	r1, [r7, #40]	; 0x28
 8003dfc:	6bf8      	ldr	r0, [r7, #60]	; 0x3c
 8003dfe:	f7fc fe97 	bl	8000b30 <__aeabi_fsub>
 8003e02:	4603      	mov	r3, r0
 8003e04:	4618      	mov	r0, r3
 8003e06:	f7fe fb7d 	bl	8002504 <qFFMath_Abs>
 8003e0a:	4604      	mov	r4, r0
 8003e0c:	6a39      	ldr	r1, [r7, #32]
 8003e0e:	6bf8      	ldr	r0, [r7, #60]	; 0x3c
 8003e10:	f7fc fe8e 	bl	8000b30 <__aeabi_fsub>
 8003e14:	4603      	mov	r3, r0
 8003e16:	4618      	mov	r0, r3
 8003e18:	f7fe fb74 	bl	8002504 <qFFMath_Abs>
 8003e1c:	4603      	mov	r3, r0
 8003e1e:	4619      	mov	r1, r3
 8003e20:	4620      	mov	r0, r4
 8003e22:	f7fd f92d 	bl	8001080 <__aeabi_fcmplt>
 8003e26:	4603      	mov	r3, r0
 8003e28:	2b00      	cmp	r3, #0
 8003e2a:	d001      	beq.n	8003e30 <qFIS_TSMF+0xee>
 8003e2c:	6afb      	ldr	r3, [r7, #44]	; 0x2c
 8003e2e:	e000      	b.n	8003e32 <qFIS_TSMF+0xf0>
 8003e30:	6a7b      	ldr	r3, [r7, #36]	; 0x24
}
 8003e32:	4618      	mov	r0, r3
 8003e34:	3744      	adds	r7, #68	; 0x44
 8003e36:	46bd      	mov	sp, r7
 8003e38:	bd90      	pop	{r4, r7, pc}

08003e3a <qFIS_ZMF>:
/*============================================================================*/
static float qFIS_ZMF( const qFIS_IO_Base_t * const in,
                       const float *p,
                       const size_t n )
{
 8003e3a:	b590      	push	{r4, r7, lr}
 8003e3c:	b08b      	sub	sp, #44	; 0x2c
 8003e3e:	af00      	add	r7, sp, #0
 8003e40:	60f8      	str	r0, [r7, #12]
 8003e42:	60b9      	str	r1, [r7, #8]
 8003e44:	607a      	str	r2, [r7, #4]
    float a, b, tmp, y;
    float x = in[ 0 ].value;
 8003e46:	68fb      	ldr	r3, [r7, #12]
 8003e48:	689b      	ldr	r3, [r3, #8]
 8003e4a:	623b      	str	r3, [r7, #32]
    (void)n;

    a = p[ 0 ];
 8003e4c:	68bb      	ldr	r3, [r7, #8]
 8003e4e:	681b      	ldr	r3, [r3, #0]
 8003e50:	61fb      	str	r3, [r7, #28]
    b = p[ 1 ];
 8003e52:	68bb      	ldr	r3, [r7, #8]
 8003e54:	3304      	adds	r3, #4
 8003e56:	681b      	ldr	r3, [r3, #0]
 8003e58:	61bb      	str	r3, [r7, #24]
    if ( x <= a ) {
 8003e5a:	69f9      	ldr	r1, [r7, #28]
 8003e5c:	6a38      	ldr	r0, [r7, #32]
 8003e5e:	f7fd f919 	bl	8001094 <__aeabi_fcmple>
 8003e62:	4603      	mov	r3, r0
 8003e64:	2b00      	cmp	r3, #0
 8003e66:	d003      	beq.n	8003e70 <qFIS_ZMF+0x36>
        y = 1.0f;
 8003e68:	f04f 537e 	mov.w	r3, #1065353216	; 0x3f800000
 8003e6c:	627b      	str	r3, [r7, #36]	; 0x24
 8003e6e:	e081      	b.n	8003f74 <qFIS_ZMF+0x13a>
    }
    else if ( x >= b ) {
 8003e70:	69b9      	ldr	r1, [r7, #24]
 8003e72:	6a38      	ldr	r0, [r7, #32]
 8003e74:	f7fd f918 	bl	80010a8 <__aeabi_fcmpge>
 8003e78:	4603      	mov	r3, r0
 8003e7a:	2b00      	cmp	r3, #0
 8003e7c:	d003      	beq.n	8003e86 <qFIS_ZMF+0x4c>
        y = 0.0f;
 8003e7e:	f04f 0300 	mov.w	r3, #0
 8003e82:	627b      	str	r3, [r7, #36]	; 0x24
 8003e84:	e076      	b.n	8003f74 <qFIS_ZMF+0x13a>
    }
    else if ( ( x >= a ) && ( x <= ( ( a + b )*0.5f ) ) ) {
 8003e86:	69f9      	ldr	r1, [r7, #28]
 8003e88:	6a38      	ldr	r0, [r7, #32]
 8003e8a:	f7fd f90d 	bl	80010a8 <__aeabi_fcmpge>
 8003e8e:	4603      	mov	r3, r0
 8003e90:	2b00      	cmp	r3, #0
 8003e92:	d035      	beq.n	8003f00 <qFIS_ZMF+0xc6>
 8003e94:	69b9      	ldr	r1, [r7, #24]
 8003e96:	69f8      	ldr	r0, [r7, #28]
 8003e98:	f7fc fe4c 	bl	8000b34 <__addsf3>
 8003e9c:	4603      	mov	r3, r0
 8003e9e:	f04f 517c 	mov.w	r1, #1056964608	; 0x3f000000
 8003ea2:	4618      	mov	r0, r3
 8003ea4:	f7fc ff4e 	bl	8000d44 <__aeabi_fmul>
 8003ea8:	4603      	mov	r3, r0
 8003eaa:	4619      	mov	r1, r3
 8003eac:	6a38      	ldr	r0, [r7, #32]
 8003eae:	f7fd f8f1 	bl	8001094 <__aeabi_fcmple>
 8003eb2:	4603      	mov	r3, r0
 8003eb4:	2b00      	cmp	r3, #0
 8003eb6:	d023      	beq.n	8003f00 <qFIS_ZMF+0xc6>
        tmp = ( x - a )/( b - a );
 8003eb8:	69f9      	ldr	r1, [r7, #28]
 8003eba:	6a38      	ldr	r0, [r7, #32]
 8003ebc:	f7fc fe38 	bl	8000b30 <__aeabi_fsub>
 8003ec0:	4603      	mov	r3, r0
 8003ec2:	461c      	mov	r4, r3
 8003ec4:	69f9      	ldr	r1, [r7, #28]
 8003ec6:	69b8      	ldr	r0, [r7, #24]
 8003ec8:	f7fc fe32 	bl	8000b30 <__aeabi_fsub>
 8003ecc:	4603      	mov	r3, r0
 8003ece:	4619      	mov	r1, r3
 8003ed0:	4620      	mov	r0, r4
 8003ed2:	f7fc ffeb 	bl	8000eac <__aeabi_fdiv>
 8003ed6:	4603      	mov	r3, r0
 8003ed8:	617b      	str	r3, [r7, #20]
        y = 1.0f - ( 2.0f*tmp*tmp );
 8003eda:	697b      	ldr	r3, [r7, #20]
 8003edc:	4619      	mov	r1, r3
 8003ede:	4618      	mov	r0, r3
 8003ee0:	f7fc fe28 	bl	8000b34 <__addsf3>
 8003ee4:	4603      	mov	r3, r0
 8003ee6:	6979      	ldr	r1, [r7, #20]
 8003ee8:	4618      	mov	r0, r3
 8003eea:	f7fc ff2b 	bl	8000d44 <__aeabi_fmul>
 8003eee:	4603      	mov	r3, r0
 8003ef0:	4619      	mov	r1, r3
 8003ef2:	f04f 507e 	mov.w	r0, #1065353216	; 0x3f800000
 8003ef6:	f7fc fe1b 	bl	8000b30 <__aeabi_fsub>
 8003efa:	4603      	mov	r3, r0
 8003efc:	627b      	str	r3, [r7, #36]	; 0x24
 8003efe:	e039      	b.n	8003f74 <qFIS_ZMF+0x13a>
    }
    else if ( ( x <= b ) && ( x >= ( ( a + b )*0.5f ) ) ) {
 8003f00:	69b9      	ldr	r1, [r7, #24]
 8003f02:	6a38      	ldr	r0, [r7, #32]
 8003f04:	f7fd f8c6 	bl	8001094 <__aeabi_fcmple>
 8003f08:	4603      	mov	r3, r0
 8003f0a:	2b00      	cmp	r3, #0
 8003f0c:	d02f      	beq.n	8003f6e <qFIS_ZMF+0x134>
 8003f0e:	69b9      	ldr	r1, [r7, #24]
 8003f10:	69f8      	ldr	r0, [r7, #28]
 8003f12:	f7fc fe0f 	bl	8000b34 <__addsf3>
 8003f16:	4603      	mov	r3, r0
 8003f18:	f04f 517c 	mov.w	r1, #1056964608	; 0x3f000000
 8003f1c:	4618      	mov	r0, r3
 8003f1e:	f7fc ff11 	bl	8000d44 <__aeabi_fmul>
 8003f22:	4603      	mov	r3, r0
 8003f24:	4619      	mov	r1, r3
 8003f26:	6a38      	ldr	r0, [r7, #32]
 8003f28:	f7fd f8be 	bl	80010a8 <__aeabi_fcmpge>
 8003f2c:	4603      	mov	r3, r0
 8003f2e:	2b00      	cmp	r3, #0
 8003f30:	d01d      	beq.n	8003f6e <qFIS_ZMF+0x134>
        tmp = ( x - b )/( b - a );
 8003f32:	69b9      	ldr	r1, [r7, #24]
 8003f34:	6a38      	ldr	r0, [r7, #32]
 8003f36:	f7fc fdfb 	bl	8000b30 <__aeabi_fsub>
 8003f3a:	4603      	mov	r3, r0
 8003f3c:	461c      	mov	r4, r3
 8003f3e:	69f9      	ldr	r1, [r7, #28]
 8003f40:	69b8      	ldr	r0, [r7, #24]
 8003f42:	f7fc fdf5 	bl	8000b30 <__aeabi_fsub>
 8003f46:	4603      	mov	r3, r0
 8003f48:	4619      	mov	r1, r3
 8003f4a:	4620      	mov	r0, r4
 8003f4c:	f7fc ffae 	bl	8000eac <__aeabi_fdiv>
 8003f50:	4603      	mov	r3, r0
 8003f52:	617b      	str	r3, [r7, #20]
        y = 2.0f*tmp*tmp;
 8003f54:	697b      	ldr	r3, [r7, #20]
 8003f56:	4619      	mov	r1, r3
 8003f58:	4618      	mov	r0, r3
 8003f5a:	f7fc fdeb 	bl	8000b34 <__addsf3>
 8003f5e:	4603      	mov	r3, r0
 8003f60:	4619      	mov	r1, r3
 8003f62:	6978      	ldr	r0, [r7, #20]
 8003f64:	f7fc feee 	bl	8000d44 <__aeabi_fmul>
 8003f68:	4603      	mov	r3, r0
 8003f6a:	627b      	str	r3, [r7, #36]	; 0x24
 8003f6c:	e002      	b.n	8003f74 <qFIS_ZMF+0x13a>
    }
    else {
        y = 0.0f;
 8003f6e:	f04f 0300 	mov.w	r3, #0
 8003f72:	627b      	str	r3, [r7, #36]	; 0x24
    }

    return y;
 8003f74:	6a7b      	ldr	r3, [r7, #36]	; 0x24
}
 8003f76:	4618      	mov	r0, r3
 8003f78:	372c      	adds	r7, #44	; 0x2c
 8003f7a:	46bd      	mov	sp, r7
 8003f7c:	bd90      	pop	{r4, r7, pc}

08003f7e <qFIS_LinSMF>:
/*============================================================================*/
static float qFIS_LinSMF( const qFIS_IO_Base_t * const in,
                          const float *p,
                          const size_t n )
{
 8003f7e:	b590      	push	{r4, r7, lr}
 8003f80:	b089      	sub	sp, #36	; 0x24
 8003f82:	af00      	add	r7, sp, #0
 8003f84:	60f8      	str	r0, [r7, #12]
 8003f86:	60b9      	str	r1, [r7, #8]
 8003f88:	607a      	str	r2, [r7, #4]
    float a, b, y;
    float x = in[ 0 ].value;
 8003f8a:	68fb      	ldr	r3, [r7, #12]
 8003f8c:	689b      	ldr	r3, [r3, #8]
 8003f8e:	61bb      	str	r3, [r7, #24]
    (void)n;

    a = p[ 0 ];
 8003f90:	68bb      	ldr	r3, [r7, #8]
 8003f92:	681b      	ldr	r3, [r3, #0]
 8003f94:	617b      	str	r3, [r7, #20]
    b = p[ 1 ];
 8003f96:	68bb      	ldr	r3, [r7, #8]
 8003f98:	3304      	adds	r3, #4
 8003f9a:	681b      	ldr	r3, [r3, #0]
 8003f9c:	613b      	str	r3, [r7, #16]
    if ( a < b ) {
 8003f9e:	6939      	ldr	r1, [r7, #16]
 8003fa0:	6978      	ldr	r0, [r7, #20]
 8003fa2:	f7fd f86d 	bl	8001080 <__aeabi_fcmplt>
 8003fa6:	4603      	mov	r3, r0
 8003fa8:	2b00      	cmp	r3, #0
 8003faa:	d027      	beq.n	8003ffc <qFIS_LinSMF+0x7e>
        if ( x < a ) {
 8003fac:	6979      	ldr	r1, [r7, #20]
 8003fae:	69b8      	ldr	r0, [r7, #24]
 8003fb0:	f7fd f866 	bl	8001080 <__aeabi_fcmplt>
 8003fb4:	4603      	mov	r3, r0
 8003fb6:	2b00      	cmp	r3, #0
 8003fb8:	d003      	beq.n	8003fc2 <qFIS_LinSMF+0x44>
            y = 0.0f;
 8003fba:	f04f 0300 	mov.w	r3, #0
 8003fbe:	61fb      	str	r3, [r7, #28]
 8003fc0:	e034      	b.n	800402c <qFIS_LinSMF+0xae>
        }
        else if ( x > b ) {
 8003fc2:	6939      	ldr	r1, [r7, #16]
 8003fc4:	69b8      	ldr	r0, [r7, #24]
 8003fc6:	f7fd f879 	bl	80010bc <__aeabi_fcmpgt>
 8003fca:	4603      	mov	r3, r0
 8003fcc:	2b00      	cmp	r3, #0
 8003fce:	d003      	beq.n	8003fd8 <qFIS_LinSMF+0x5a>
            y = 1.0f;
 8003fd0:	f04f 537e 	mov.w	r3, #1065353216	; 0x3f800000
 8003fd4:	61fb      	str	r3, [r7, #28]
 8003fd6:	e029      	b.n	800402c <qFIS_LinSMF+0xae>
        }
        else {
            y = ( x - a )/( b - a );
 8003fd8:	6979      	ldr	r1, [r7, #20]
 8003fda:	69b8      	ldr	r0, [r7, #24]
 8003fdc:	f7fc fda8 	bl	8000b30 <__aeabi_fsub>
 8003fe0:	4603      	mov	r3, r0
 8003fe2:	461c      	mov	r4, r3
 8003fe4:	6979      	ldr	r1, [r7, #20]
 8003fe6:	6938      	ldr	r0, [r7, #16]
 8003fe8:	f7fc fda2 	bl	8000b30 <__aeabi_fsub>
 8003fec:	4603      	mov	r3, r0
 8003fee:	4619      	mov	r1, r3
 8003ff0:	4620      	mov	r0, r4
 8003ff2:	f7fc ff5b 	bl	8000eac <__aeabi_fdiv>
 8003ff6:	4603      	mov	r3, r0
 8003ff8:	61fb      	str	r3, [r7, #28]
 8003ffa:	e017      	b.n	800402c <qFIS_LinSMF+0xae>
        }
    }
    else if ( qFMathEx_Equal( a, b ) ) {
 8003ffc:	6939      	ldr	r1, [r7, #16]
 8003ffe:	6978      	ldr	r0, [r7, #20]
 8004000:	f000 fc1d 	bl	800483e <qFMathEx_Equal>
 8004004:	4603      	mov	r3, r0
 8004006:	2b00      	cmp	r3, #0
 8004008:	d00d      	beq.n	8004026 <qFIS_LinSMF+0xa8>
        y = ( x < a ) ? 0.0f : 1.0f;
 800400a:	6979      	ldr	r1, [r7, #20]
 800400c:	69b8      	ldr	r0, [r7, #24]
 800400e:	f7fd f837 	bl	8001080 <__aeabi_fcmplt>
 8004012:	4603      	mov	r3, r0
 8004014:	2b00      	cmp	r3, #0
 8004016:	d002      	beq.n	800401e <qFIS_LinSMF+0xa0>
 8004018:	f04f 0300 	mov.w	r3, #0
 800401c:	e001      	b.n	8004022 <qFIS_LinSMF+0xa4>
 800401e:	f04f 537e 	mov.w	r3, #1065353216	; 0x3f800000
 8004022:	61fb      	str	r3, [r7, #28]
 8004024:	e002      	b.n	800402c <qFIS_LinSMF+0xae>
    }
    else {
        y = 0.0f;
 8004026:	f04f 0300 	mov.w	r3, #0
 800402a:	61fb      	str	r3, [r7, #28]
    }

    return y;
 800402c:	69fb      	ldr	r3, [r7, #28]
}
 800402e:	4618      	mov	r0, r3
 8004030:	3724      	adds	r7, #36	; 0x24
 8004032:	46bd      	mov	sp, r7
 8004034:	bd90      	pop	{r4, r7, pc}

08004036 <qFIS_LinZMF>:
/*============================================================================*/
static float qFIS_LinZMF( const qFIS_IO_Base_t * const in,
                          const float *p,
                          const size_t n )
{
 8004036:	b590      	push	{r4, r7, lr}
 8004038:	b089      	sub	sp, #36	; 0x24
 800403a:	af00      	add	r7, sp, #0
 800403c:	60f8      	str	r0, [r7, #12]
 800403e:	60b9      	str	r1, [r7, #8]
 8004040:	607a      	str	r2, [r7, #4]
    float a, b, y;
    float x = in[ 0 ].value;
 8004042:	68fb      	ldr	r3, [r7, #12]
 8004044:	689b      	ldr	r3, [r3, #8]
 8004046:	61bb      	str	r3, [r7, #24]
    (void)n;

    a = p[ 0 ];
 8004048:	68bb      	ldr	r3, [r7, #8]
 800404a:	681b      	ldr	r3, [r3, #0]
 800404c:	617b      	str	r3, [r7, #20]
    b = p[ 1 ];
 800404e:	68bb      	ldr	r3, [r7, #8]
 8004050:	3304      	adds	r3, #4
 8004052:	681b      	ldr	r3, [r3, #0]
 8004054:	613b      	str	r3, [r7, #16]
    if ( a < b ) {
 8004056:	6939      	ldr	r1, [r7, #16]
 8004058:	6978      	ldr	r0, [r7, #20]
 800405a:	f7fd f811 	bl	8001080 <__aeabi_fcmplt>
 800405e:	4603      	mov	r3, r0
 8004060:	2b00      	cmp	r3, #0
 8004062:	d027      	beq.n	80040b4 <qFIS_LinZMF+0x7e>
        if ( x < a ) {
 8004064:	6979      	ldr	r1, [r7, #20]
 8004066:	69b8      	ldr	r0, [r7, #24]
 8004068:	f7fd f80a 	bl	8001080 <__aeabi_fcmplt>
 800406c:	4603      	mov	r3, r0
 800406e:	2b00      	cmp	r3, #0
 8004070:	d003      	beq.n	800407a <qFIS_LinZMF+0x44>
            y = 1.0f;
 8004072:	f04f 537e 	mov.w	r3, #1065353216	; 0x3f800000
 8004076:	61fb      	str	r3, [r7, #28]
 8004078:	e034      	b.n	80040e4 <qFIS_LinZMF+0xae>
        }
        else if ( x > b ) {
 800407a:	6939      	ldr	r1, [r7, #16]
 800407c:	69b8      	ldr	r0, [r7, #24]
 800407e:	f7fd f81d 	bl	80010bc <__aeabi_fcmpgt>
 8004082:	4603      	mov	r3, r0
 8004084:	2b00      	cmp	r3, #0
 8004086:	d003      	beq.n	8004090 <qFIS_LinZMF+0x5a>
            y = 0.0f;
 8004088:	f04f 0300 	mov.w	r3, #0
 800408c:	61fb      	str	r3, [r7, #28]
 800408e:	e029      	b.n	80040e4 <qFIS_LinZMF+0xae>
        }
        else {
            y = ( a - x )/( a - b );
 8004090:	69b9      	ldr	r1, [r7, #24]
 8004092:	6978      	ldr	r0, [r7, #20]
 8004094:	f7fc fd4c 	bl	8000b30 <__aeabi_fsub>
 8004098:	4603      	mov	r3, r0
 800409a:	461c      	mov	r4, r3
 800409c:	6939      	ldr	r1, [r7, #16]
 800409e:	6978      	ldr	r0, [r7, #20]
 80040a0:	f7fc fd46 	bl	8000b30 <__aeabi_fsub>
 80040a4:	4603      	mov	r3, r0
 80040a6:	4619      	mov	r1, r3
 80040a8:	4620      	mov	r0, r4
 80040aa:	f7fc feff 	bl	8000eac <__aeabi_fdiv>
 80040ae:	4603      	mov	r3, r0
 80040b0:	61fb      	str	r3, [r7, #28]
 80040b2:	e017      	b.n	80040e4 <qFIS_LinZMF+0xae>
        }
    }
    else if ( qFMathEx_Equal( a, b ) ) {
 80040b4:	6939      	ldr	r1, [r7, #16]
 80040b6:	6978      	ldr	r0, [r7, #20]
 80040b8:	f000 fbc1 	bl	800483e <qFMathEx_Equal>
 80040bc:	4603      	mov	r3, r0
 80040be:	2b00      	cmp	r3, #0
 80040c0:	d00d      	beq.n	80040de <qFIS_LinZMF+0xa8>
        y = ( x < a ) ? 1.0f : 0.0f;
 80040c2:	6979      	ldr	r1, [r7, #20]
 80040c4:	69b8      	ldr	r0, [r7, #24]
 80040c6:	f7fc ffdb 	bl	8001080 <__aeabi_fcmplt>
 80040ca:	4603      	mov	r3, r0
 80040cc:	2b00      	cmp	r3, #0
 80040ce:	d002      	beq.n	80040d6 <qFIS_LinZMF+0xa0>
 80040d0:	f04f 537e 	mov.w	r3, #1065353216	; 0x3f800000
 80040d4:	e001      	b.n	80040da <qFIS_LinZMF+0xa4>
 80040d6:	f04f 0300 	mov.w	r3, #0
 80040da:	61fb      	str	r3, [r7, #28]
 80040dc:	e002      	b.n	80040e4 <qFIS_LinZMF+0xae>
    }
    else {
        y = 0.0f;
 80040de:	f04f 0300 	mov.w	r3, #0
 80040e2:	61fb      	str	r3, [r7, #28]
    }

    return y;
 80040e4:	69fb      	ldr	r3, [r7, #28]
}
 80040e6:	4618      	mov	r0, r3
 80040e8:	3724      	adds	r7, #36	; 0x24
 80040ea:	46bd      	mov	sp, r7
 80040ec:	bd90      	pop	{r4, r7, pc}

080040ee <qFIS_TZMF>:
/*============================================================================*/
static float qFIS_TZMF( const qFIS_IO_Base_t * const in,
                        const float *p,
                        const size_t n )
{
 80040ee:	b590      	push	{r4, r7, lr}
 80040f0:	b091      	sub	sp, #68	; 0x44
 80040f2:	af00      	add	r7, sp, #0
 80040f4:	60f8      	str	r0, [r7, #12]
 80040f6:	60b9      	str	r1, [r7, #8]
 80040f8:	607a      	str	r2, [r7, #4]
    float diff, a, b, ta, tb, ma, mb;
    float x = in[ 0 ].value;
 80040fa:	68fb      	ldr	r3, [r7, #12]
 80040fc:	689b      	ldr	r3, [r3, #8]
 80040fe:	63fb      	str	r3, [r7, #60]	; 0x3c
    (void)n;
    qFIS_IO_Base_t tmp;

    a = p[ 0 ]; /*start*/
 8004100:	68bb      	ldr	r3, [r7, #8]
 8004102:	681b      	ldr	r3, [r3, #0]
 8004104:	63bb      	str	r3, [r7, #56]	; 0x38
    b = p[ 1 ]; /*end*/
 8004106:	68bb      	ldr	r3, [r7, #8]
 8004108:	3304      	adds	r3, #4
 800410a:	681b      	ldr	r3, [r3, #0]
 800410c:	637b      	str	r3, [r7, #52]	; 0x34
    diff = b - a;
 800410e:	6bb9      	ldr	r1, [r7, #56]	; 0x38
 8004110:	6b78      	ldr	r0, [r7, #52]	; 0x34
 8004112:	f7fc fd0d 	bl	8000b30 <__aeabi_fsub>
 8004116:	4603      	mov	r3, r0
 8004118:	633b      	str	r3, [r7, #48]	; 0x30
    diff = 0.5f*diff*diff;
 800411a:	f04f 517c 	mov.w	r1, #1056964608	; 0x3f000000
 800411e:	6b38      	ldr	r0, [r7, #48]	; 0x30
 8004120:	f7fc fe10 	bl	8000d44 <__aeabi_fmul>
 8004124:	4603      	mov	r3, r0
 8004126:	4619      	mov	r1, r3
 8004128:	6b38      	ldr	r0, [r7, #48]	; 0x30
 800412a:	f7fc fe0b 	bl	8000d44 <__aeabi_fmul>
 800412e:	4603      	mov	r3, r0
 8004130:	633b      	str	r3, [r7, #48]	; 0x30
    /*cstat -MISRAC2012-Dir-4.11_a -MISRAC2012-Dir-4.11_b*/
    ta = a + QLIB_SQRT( -( x - 1.0f )*diff );
 8004132:	f04f 517e 	mov.w	r1, #1065353216	; 0x3f800000
 8004136:	6bf8      	ldr	r0, [r7, #60]	; 0x3c
 8004138:	f7fc fcfa 	bl	8000b30 <__aeabi_fsub>
 800413c:	4603      	mov	r3, r0
 800413e:	f083 4300 	eor.w	r3, r3, #2147483648	; 0x80000000
 8004142:	6b39      	ldr	r1, [r7, #48]	; 0x30
 8004144:	4618      	mov	r0, r3
 8004146:	f7fc fdfd 	bl	8000d44 <__aeabi_fmul>
 800414a:	4603      	mov	r3, r0
 800414c:	4618      	mov	r0, r3
 800414e:	f7fe f9ee 	bl	800252e <qFFMath_Sqrt>
 8004152:	4603      	mov	r3, r0
 8004154:	4619      	mov	r1, r3
 8004156:	6bb8      	ldr	r0, [r7, #56]	; 0x38
 8004158:	f7fc fcec 	bl	8000b34 <__addsf3>
 800415c:	4603      	mov	r3, r0
 800415e:	62fb      	str	r3, [r7, #44]	; 0x2c
    tmp.value = ta;
 8004160:	6afb      	ldr	r3, [r7, #44]	; 0x2c
 8004162:	61fb      	str	r3, [r7, #28]
    ma = qFIS_SMF( &tmp, p, n );
 8004164:	f107 0314 	add.w	r3, r7, #20
 8004168:	687a      	ldr	r2, [r7, #4]
 800416a:	68b9      	ldr	r1, [r7, #8]
 800416c:	4618      	mov	r0, r3
 800416e:	f7ff fd46 	bl	8003bfe <qFIS_SMF>
 8004172:	62b8      	str	r0, [r7, #40]	; 0x28
    tb = b + QLIB_SQRT( x*diff );
 8004174:	6b39      	ldr	r1, [r7, #48]	; 0x30
 8004176:	6bf8      	ldr	r0, [r7, #60]	; 0x3c
 8004178:	f7fc fde4 	bl	8000d44 <__aeabi_fmul>
 800417c:	4603      	mov	r3, r0
 800417e:	4618      	mov	r0, r3
 8004180:	f7fe f9d5 	bl	800252e <qFFMath_Sqrt>
 8004184:	4603      	mov	r3, r0
 8004186:	4619      	mov	r1, r3
 8004188:	6b78      	ldr	r0, [r7, #52]	; 0x34
 800418a:	f7fc fcd3 	bl	8000b34 <__addsf3>
 800418e:	4603      	mov	r3, r0
 8004190:	627b      	str	r3, [r7, #36]	; 0x24
    tmp.value = tb;
 8004192:	6a7b      	ldr	r3, [r7, #36]	; 0x24
 8004194:	61fb      	str	r3, [r7, #28]
    mb = qFIS_SMF( &tmp, p, n );
 8004196:	f107 0314 	add.w	r3, r7, #20
 800419a:	687a      	ldr	r2, [r7, #4]
 800419c:	68b9      	ldr	r1, [r7, #8]
 800419e:	4618      	mov	r0, r3
 80041a0:	f7ff fd2d 	bl	8003bfe <qFIS_SMF>
 80041a4:	6238      	str	r0, [r7, #32]
    /*cstat +MISRAC2012-Dir-4.11_a +MISRAC2012-Dir-4.11_b*/
    return  ( QLIB_ABS( x - ma ) < QLIB_ABS( x - mb ) ) ? ta : tb;
 80041a6:	6ab9      	ldr	r1, [r7, #40]	; 0x28
 80041a8:	6bf8      	ldr	r0, [r7, #60]	; 0x3c
 80041aa:	f7fc fcc1 	bl	8000b30 <__aeabi_fsub>
 80041ae:	4603      	mov	r3, r0
 80041b0:	4618      	mov	r0, r3
 80041b2:	f7fe f9a7 	bl	8002504 <qFFMath_Abs>
 80041b6:	4604      	mov	r4, r0
 80041b8:	6a39      	ldr	r1, [r7, #32]
 80041ba:	6bf8      	ldr	r0, [r7, #60]	; 0x3c
 80041bc:	f7fc fcb8 	bl	8000b30 <__aeabi_fsub>
 80041c0:	4603      	mov	r3, r0
 80041c2:	4618      	mov	r0, r3
 80041c4:	f7fe f99e 	bl	8002504 <qFFMath_Abs>
 80041c8:	4603      	mov	r3, r0
 80041ca:	4619      	mov	r1, r3
 80041cc:	4620      	mov	r0, r4
 80041ce:	f7fc ff57 	bl	8001080 <__aeabi_fcmplt>
 80041d2:	4603      	mov	r3, r0
 80041d4:	2b00      	cmp	r3, #0
 80041d6:	d001      	beq.n	80041dc <qFIS_TZMF+0xee>
 80041d8:	6afb      	ldr	r3, [r7, #44]	; 0x2c
 80041da:	e000      	b.n	80041de <qFIS_TZMF+0xf0>
 80041dc:	6a7b      	ldr	r3, [r7, #36]	; 0x24
}
 80041de:	4618      	mov	r0, r3
 80041e0:	3744      	adds	r7, #68	; 0x44
 80041e2:	46bd      	mov	sp, r7
 80041e4:	bd90      	pop	{r4, r7, pc}

080041e6 <qFIS_PiMF>:
/*============================================================================*/
static float qFIS_PiMF( const qFIS_IO_Base_t * const in,
                        const float *p,
                        const size_t n )
{
 80041e6:	b590      	push	{r4, r7, lr}
 80041e8:	b085      	sub	sp, #20
 80041ea:	af00      	add	r7, sp, #0
 80041ec:	60f8      	str	r0, [r7, #12]
 80041ee:	60b9      	str	r1, [r7, #8]
 80041f0:	607a      	str	r2, [r7, #4]
    return QLIB_ABS( qFIS_SMF( in , p, n )*qFIS_ZMF( in , &p[ 2 ], n ) );
 80041f2:	687a      	ldr	r2, [r7, #4]
 80041f4:	68b9      	ldr	r1, [r7, #8]
 80041f6:	68f8      	ldr	r0, [r7, #12]
 80041f8:	f7ff fd01 	bl	8003bfe <qFIS_SMF>
 80041fc:	4604      	mov	r4, r0
 80041fe:	68bb      	ldr	r3, [r7, #8]
 8004200:	3308      	adds	r3, #8
 8004202:	687a      	ldr	r2, [r7, #4]
 8004204:	4619      	mov	r1, r3
 8004206:	68f8      	ldr	r0, [r7, #12]
 8004208:	f7ff fe17 	bl	8003e3a <qFIS_ZMF>
 800420c:	4603      	mov	r3, r0
 800420e:	4619      	mov	r1, r3
 8004210:	4620      	mov	r0, r4
 8004212:	f7fc fd97 	bl	8000d44 <__aeabi_fmul>
 8004216:	4603      	mov	r3, r0
 8004218:	4618      	mov	r0, r3
 800421a:	f7fe f973 	bl	8002504 <qFFMath_Abs>
 800421e:	4603      	mov	r3, r0
}
 8004220:	4618      	mov	r0, r3
 8004222:	3714      	adds	r7, #20
 8004224:	46bd      	mov	sp, r7
 8004226:	bd90      	pop	{r4, r7, pc}

08004228 <qFIS_SingletonMF>:
/*============================================================================*/
static float qFIS_SingletonMF( const qFIS_IO_Base_t * const in,
                               const float *p,
                               const size_t n )
{
 8004228:	b580      	push	{r7, lr}
 800422a:	b086      	sub	sp, #24
 800422c:	af00      	add	r7, sp, #0
 800422e:	60f8      	str	r0, [r7, #12]
 8004230:	60b9      	str	r1, [r7, #8]
 8004232:	607a      	str	r2, [r7, #4]
    float x = in[ 0 ].value;
 8004234:	68fb      	ldr	r3, [r7, #12]
 8004236:	689b      	ldr	r3, [r3, #8]
 8004238:	617b      	str	r3, [r7, #20]
    (void)n;

    return ( qFMathEx_Equal( x, p[ 0 ] ) ) ? 1.0f : 0.0f;
 800423a:	68bb      	ldr	r3, [r7, #8]
 800423c:	681b      	ldr	r3, [r3, #0]
 800423e:	4619      	mov	r1, r3
 8004240:	6978      	ldr	r0, [r7, #20]
 8004242:	f000 fafc 	bl	800483e <qFMathEx_Equal>
 8004246:	4603      	mov	r3, r0
 8004248:	2b00      	cmp	r3, #0
 800424a:	d002      	beq.n	8004252 <qFIS_SingletonMF+0x2a>
 800424c:	f04f 537e 	mov.w	r3, #1065353216	; 0x3f800000
 8004250:	e001      	b.n	8004256 <qFIS_SingletonMF+0x2e>
 8004252:	f04f 0300 	mov.w	r3, #0
}
 8004256:	4618      	mov	r0, r3
 8004258:	3718      	adds	r7, #24
 800425a:	46bd      	mov	sp, r7
 800425c:	bd80      	pop	{r7, pc}

0800425e <qFIS_ConcaveMF>:
/*============================================================================*/
static float qFIS_ConcaveMF( const qFIS_IO_Base_t * const in,
                             const float *p,
                             const size_t n )
{
 800425e:	b590      	push	{r4, r7, lr}
 8004260:	b089      	sub	sp, #36	; 0x24
 8004262:	af00      	add	r7, sp, #0
 8004264:	60f8      	str	r0, [r7, #12]
 8004266:	60b9      	str	r1, [r7, #8]
 8004268:	607a      	str	r2, [r7, #4]
    float x = in[ 0 ].value;
 800426a:	68fb      	ldr	r3, [r7, #12]
 800426c:	689b      	ldr	r3, [r3, #8]
 800426e:	61bb      	str	r3, [r7, #24]
    float i, e, y;
    (void)n;

    i = p[ 0 ];
 8004270:	68bb      	ldr	r3, [r7, #8]
 8004272:	681b      	ldr	r3, [r3, #0]
 8004274:	617b      	str	r3, [r7, #20]
    e = p[ 1 ];
 8004276:	68bb      	ldr	r3, [r7, #8]
 8004278:	3304      	adds	r3, #4
 800427a:	681b      	ldr	r3, [r3, #0]
 800427c:	613b      	str	r3, [r7, #16]
    if ( ( i <= e ) && ( x < e ) ) {
 800427e:	6939      	ldr	r1, [r7, #16]
 8004280:	6978      	ldr	r0, [r7, #20]
 8004282:	f7fc ff07 	bl	8001094 <__aeabi_fcmple>
 8004286:	4603      	mov	r3, r0
 8004288:	2b00      	cmp	r3, #0
 800428a:	d023      	beq.n	80042d4 <qFIS_ConcaveMF+0x76>
 800428c:	6939      	ldr	r1, [r7, #16]
 800428e:	69b8      	ldr	r0, [r7, #24]
 8004290:	f7fc fef6 	bl	8001080 <__aeabi_fcmplt>
 8004294:	4603      	mov	r3, r0
 8004296:	2b00      	cmp	r3, #0
 8004298:	d01c      	beq.n	80042d4 <qFIS_ConcaveMF+0x76>
        y = ( e - i )/( ( 2.0f*e ) - i -x );
 800429a:	6979      	ldr	r1, [r7, #20]
 800429c:	6938      	ldr	r0, [r7, #16]
 800429e:	f7fc fc47 	bl	8000b30 <__aeabi_fsub>
 80042a2:	4603      	mov	r3, r0
 80042a4:	461c      	mov	r4, r3
 80042a6:	693b      	ldr	r3, [r7, #16]
 80042a8:	4619      	mov	r1, r3
 80042aa:	4618      	mov	r0, r3
 80042ac:	f7fc fc42 	bl	8000b34 <__addsf3>
 80042b0:	4603      	mov	r3, r0
 80042b2:	6979      	ldr	r1, [r7, #20]
 80042b4:	4618      	mov	r0, r3
 80042b6:	f7fc fc3b 	bl	8000b30 <__aeabi_fsub>
 80042ba:	4603      	mov	r3, r0
 80042bc:	69b9      	ldr	r1, [r7, #24]
 80042be:	4618      	mov	r0, r3
 80042c0:	f7fc fc36 	bl	8000b30 <__aeabi_fsub>
 80042c4:	4603      	mov	r3, r0
 80042c6:	4619      	mov	r1, r3
 80042c8:	4620      	mov	r0, r4
 80042ca:	f7fc fdef 	bl	8000eac <__aeabi_fdiv>
 80042ce:	4603      	mov	r3, r0
 80042d0:	61fb      	str	r3, [r7, #28]
 80042d2:	e02d      	b.n	8004330 <qFIS_ConcaveMF+0xd2>
    }
    else if ( ( i > e ) && ( x > e ) ) {
 80042d4:	6939      	ldr	r1, [r7, #16]
 80042d6:	6978      	ldr	r0, [r7, #20]
 80042d8:	f7fc fef0 	bl	80010bc <__aeabi_fcmpgt>
 80042dc:	4603      	mov	r3, r0
 80042de:	2b00      	cmp	r3, #0
 80042e0:	d023      	beq.n	800432a <qFIS_ConcaveMF+0xcc>
 80042e2:	6939      	ldr	r1, [r7, #16]
 80042e4:	69b8      	ldr	r0, [r7, #24]
 80042e6:	f7fc fee9 	bl	80010bc <__aeabi_fcmpgt>
 80042ea:	4603      	mov	r3, r0
 80042ec:	2b00      	cmp	r3, #0
 80042ee:	d01c      	beq.n	800432a <qFIS_ConcaveMF+0xcc>
        y = ( i - e )/( -( 2.0f*e ) + i +x );
 80042f0:	6939      	ldr	r1, [r7, #16]
 80042f2:	6978      	ldr	r0, [r7, #20]
 80042f4:	f7fc fc1c 	bl	8000b30 <__aeabi_fsub>
 80042f8:	4603      	mov	r3, r0
 80042fa:	461c      	mov	r4, r3
 80042fc:	693b      	ldr	r3, [r7, #16]
 80042fe:	4619      	mov	r1, r3
 8004300:	4618      	mov	r0, r3
 8004302:	f7fc fc17 	bl	8000b34 <__addsf3>
 8004306:	4603      	mov	r3, r0
 8004308:	4619      	mov	r1, r3
 800430a:	6978      	ldr	r0, [r7, #20]
 800430c:	f7fc fc10 	bl	8000b30 <__aeabi_fsub>
 8004310:	4603      	mov	r3, r0
 8004312:	69b9      	ldr	r1, [r7, #24]
 8004314:	4618      	mov	r0, r3
 8004316:	f7fc fc0d 	bl	8000b34 <__addsf3>
 800431a:	4603      	mov	r3, r0
 800431c:	4619      	mov	r1, r3
 800431e:	4620      	mov	r0, r4
 8004320:	f7fc fdc4 	bl	8000eac <__aeabi_fdiv>
 8004324:	4603      	mov	r3, r0
 8004326:	61fb      	str	r3, [r7, #28]
 8004328:	e002      	b.n	8004330 <qFIS_ConcaveMF+0xd2>
    }
    else {
        y = 1.0f;
 800432a:	f04f 537e 	mov.w	r3, #1065353216	; 0x3f800000
 800432e:	61fb      	str	r3, [r7, #28]
    }

    return y;
 8004330:	69fb      	ldr	r3, [r7, #28]
}
 8004332:	4618      	mov	r0, r3
 8004334:	3724      	adds	r7, #36	; 0x24
 8004336:	46bd      	mov	sp, r7
 8004338:	bd90      	pop	{r4, r7, pc}

0800433a <qFIS_TConcaveMF>:
/*============================================================================*/
static float qFIS_TConcaveMF( const qFIS_IO_Base_t * const in,
                              const float *p,
                              const size_t n )
{
 800433a:	b590      	push	{r4, r7, lr}
 800433c:	b087      	sub	sp, #28
 800433e:	af00      	add	r7, sp, #0
 8004340:	60f8      	str	r0, [r7, #12]
 8004342:	60b9      	str	r1, [r7, #8]
 8004344:	607a      	str	r2, [r7, #4]
    float i, e;

    i = p[ 0 ];
 8004346:	68bb      	ldr	r3, [r7, #8]
 8004348:	681b      	ldr	r3, [r3, #0]
 800434a:	617b      	str	r3, [r7, #20]
    e = p[ 1 ];
 800434c:	68bb      	ldr	r3, [r7, #8]
 800434e:	3304      	adds	r3, #4
 8004350:	681b      	ldr	r3, [r3, #0]
 8004352:	613b      	str	r3, [r7, #16]

    return ( ( i - e )/qFIS_ConcaveMF( in, p, n ) ) + ( 2.0f*e ) - i;
 8004354:	6939      	ldr	r1, [r7, #16]
 8004356:	6978      	ldr	r0, [r7, #20]
 8004358:	f7fc fbea 	bl	8000b30 <__aeabi_fsub>
 800435c:	4603      	mov	r3, r0
 800435e:	461c      	mov	r4, r3
 8004360:	687a      	ldr	r2, [r7, #4]
 8004362:	68b9      	ldr	r1, [r7, #8]
 8004364:	68f8      	ldr	r0, [r7, #12]
 8004366:	f7ff ff7a 	bl	800425e <qFIS_ConcaveMF>
 800436a:	4603      	mov	r3, r0
 800436c:	4619      	mov	r1, r3
 800436e:	4620      	mov	r0, r4
 8004370:	f7fc fd9c 	bl	8000eac <__aeabi_fdiv>
 8004374:	4603      	mov	r3, r0
 8004376:	461c      	mov	r4, r3
 8004378:	693b      	ldr	r3, [r7, #16]
 800437a:	4619      	mov	r1, r3
 800437c:	4618      	mov	r0, r3
 800437e:	f7fc fbd9 	bl	8000b34 <__addsf3>
 8004382:	4603      	mov	r3, r0
 8004384:	4619      	mov	r1, r3
 8004386:	4620      	mov	r0, r4
 8004388:	f7fc fbd4 	bl	8000b34 <__addsf3>
 800438c:	4603      	mov	r3, r0
 800438e:	6979      	ldr	r1, [r7, #20]
 8004390:	4618      	mov	r0, r3
 8004392:	f7fc fbcd 	bl	8000b30 <__aeabi_fsub>
 8004396:	4603      	mov	r3, r0
}
 8004398:	4618      	mov	r0, r3
 800439a:	371c      	adds	r7, #28
 800439c:	46bd      	mov	sp, r7
 800439e:	bd90      	pop	{r4, r7, pc}

080043a0 <qFIS_SpikeMF>:
/*============================================================================*/
static float qFIS_SpikeMF( const qFIS_IO_Base_t * const in,
                           const float *p,
                           const size_t n )
{
 80043a0:	b580      	push	{r7, lr}
 80043a2:	b088      	sub	sp, #32
 80043a4:	af00      	add	r7, sp, #0
 80043a6:	60f8      	str	r0, [r7, #12]
 80043a8:	60b9      	str	r1, [r7, #8]
 80043aa:	607a      	str	r2, [r7, #4]
    float x = in[ 0 ].value;
 80043ac:	68fb      	ldr	r3, [r7, #12]
 80043ae:	689b      	ldr	r3, [r3, #8]
 80043b0:	61fb      	str	r3, [r7, #28]
    float w, c;
    (void)n;

    w = p[ 0 ];
 80043b2:	68bb      	ldr	r3, [r7, #8]
 80043b4:	681b      	ldr	r3, [r3, #0]
 80043b6:	61bb      	str	r3, [r7, #24]
    c = p[ 1 ];
 80043b8:	68bb      	ldr	r3, [r7, #8]
 80043ba:	3304      	adds	r3, #4
 80043bc:	681b      	ldr	r3, [r3, #0]
 80043be:	617b      	str	r3, [r7, #20]

    return QLIB_EXP( -QLIB_ABS( 10.0f*( x - c )/w ) );
 80043c0:	6979      	ldr	r1, [r7, #20]
 80043c2:	69f8      	ldr	r0, [r7, #28]
 80043c4:	f7fc fbb4 	bl	8000b30 <__aeabi_fsub>
 80043c8:	4603      	mov	r3, r0
 80043ca:	490c      	ldr	r1, [pc, #48]	; (80043fc <qFIS_SpikeMF+0x5c>)
 80043cc:	4618      	mov	r0, r3
 80043ce:	f7fc fcb9 	bl	8000d44 <__aeabi_fmul>
 80043d2:	4603      	mov	r3, r0
 80043d4:	69b9      	ldr	r1, [r7, #24]
 80043d6:	4618      	mov	r0, r3
 80043d8:	f7fc fd68 	bl	8000eac <__aeabi_fdiv>
 80043dc:	4603      	mov	r3, r0
 80043de:	4618      	mov	r0, r3
 80043e0:	f7fe f890 	bl	8002504 <qFFMath_Abs>
 80043e4:	4603      	mov	r3, r0
 80043e6:	f083 4300 	eor.w	r3, r3, #2147483648	; 0x80000000
 80043ea:	4618      	mov	r0, r3
 80043ec:	f7fe fa14 	bl	8002818 <qFFMath_Exp>
 80043f0:	4603      	mov	r3, r0
}
 80043f2:	4618      	mov	r0, r3
 80043f4:	3720      	adds	r7, #32
 80043f6:	46bd      	mov	sp, r7
 80043f8:	bd80      	pop	{r7, pc}
 80043fa:	bf00      	nop
 80043fc:	41200000 	.word	0x41200000

08004400 <qFIS_TLinSMF>:
/*============================================================================*/
static float qFIS_TLinSMF( const qFIS_IO_Base_t * const in,
                           const float *p,
                           const size_t n )
{
 8004400:	b580      	push	{r7, lr}
 8004402:	b088      	sub	sp, #32
 8004404:	af00      	add	r7, sp, #0
 8004406:	60f8      	str	r0, [r7, #12]
 8004408:	60b9      	str	r1, [r7, #8]
 800440a:	607a      	str	r2, [r7, #4]
    float x = in[ 0 ].value;
 800440c:	68fb      	ldr	r3, [r7, #12]
 800440e:	689b      	ldr	r3, [r3, #8]
 8004410:	61fb      	str	r3, [r7, #28]
    float a, b;
    (void)n;

    a = p[ 0 ];
 8004412:	68bb      	ldr	r3, [r7, #8]
 8004414:	681b      	ldr	r3, [r3, #0]
 8004416:	61bb      	str	r3, [r7, #24]
    b = p[ 1 ];
 8004418:	68bb      	ldr	r3, [r7, #8]
 800441a:	3304      	adds	r3, #4
 800441c:	681b      	ldr	r3, [r3, #0]
 800441e:	617b      	str	r3, [r7, #20]

    return ( ( b - a )*x ) + a;
 8004420:	69b9      	ldr	r1, [r7, #24]
 8004422:	6978      	ldr	r0, [r7, #20]
 8004424:	f7fc fb84 	bl	8000b30 <__aeabi_fsub>
 8004428:	4603      	mov	r3, r0
 800442a:	69f9      	ldr	r1, [r7, #28]
 800442c:	4618      	mov	r0, r3
 800442e:	f7fc fc89 	bl	8000d44 <__aeabi_fmul>
 8004432:	4603      	mov	r3, r0
 8004434:	69b9      	ldr	r1, [r7, #24]
 8004436:	4618      	mov	r0, r3
 8004438:	f7fc fb7c 	bl	8000b34 <__addsf3>
 800443c:	4603      	mov	r3, r0
}
 800443e:	4618      	mov	r0, r3
 8004440:	3720      	adds	r7, #32
 8004442:	46bd      	mov	sp, r7
 8004444:	bd80      	pop	{r7, pc}

08004446 <qFIS_TLinZMF>:
/*============================================================================*/
static float qFIS_TLinZMF( const qFIS_IO_Base_t * const in,
                           const float *p,
                           const size_t n )
{
 8004446:	b580      	push	{r7, lr}
 8004448:	b088      	sub	sp, #32
 800444a:	af00      	add	r7, sp, #0
 800444c:	60f8      	str	r0, [r7, #12]
 800444e:	60b9      	str	r1, [r7, #8]
 8004450:	607a      	str	r2, [r7, #4]
    float x = in[ 0 ].value;
 8004452:	68fb      	ldr	r3, [r7, #12]
 8004454:	689b      	ldr	r3, [r3, #8]
 8004456:	61fb      	str	r3, [r7, #28]
    float a, b;
    (void)n;

    a = p[ 0 ];
 8004458:	68bb      	ldr	r3, [r7, #8]
 800445a:	681b      	ldr	r3, [r3, #0]
 800445c:	61bb      	str	r3, [r7, #24]
    b = p[ 1 ];
 800445e:	68bb      	ldr	r3, [r7, #8]
 8004460:	3304      	adds	r3, #4
 8004462:	681b      	ldr	r3, [r3, #0]
 8004464:	617b      	str	r3, [r7, #20]

    return + a - ( ( a - b )*x );
 8004466:	6979      	ldr	r1, [r7, #20]
 8004468:	69b8      	ldr	r0, [r7, #24]
 800446a:	f7fc fb61 	bl	8000b30 <__aeabi_fsub>
 800446e:	4603      	mov	r3, r0
 8004470:	69f9      	ldr	r1, [r7, #28]
 8004472:	4618      	mov	r0, r3
 8004474:	f7fc fc66 	bl	8000d44 <__aeabi_fmul>
 8004478:	4603      	mov	r3, r0
 800447a:	4619      	mov	r1, r3
 800447c:	69b8      	ldr	r0, [r7, #24]
 800447e:	f7fc fb57 	bl	8000b30 <__aeabi_fsub>
 8004482:	4603      	mov	r3, r0
}
 8004484:	4618      	mov	r0, r3
 8004486:	3720      	adds	r7, #32
 8004488:	46bd      	mov	sp, r7
 800448a:	bd80      	pop	{r7, pc}

0800448c <qFIS_RectangleMF>:
/*============================================================================*/
static float qFIS_RectangleMF( const qFIS_IO_Base_t * const in,
                               const float *p,
                               const size_t n )
{
 800448c:	b580      	push	{r7, lr}
 800448e:	b088      	sub	sp, #32
 8004490:	af00      	add	r7, sp, #0
 8004492:	60f8      	str	r0, [r7, #12]
 8004494:	60b9      	str	r1, [r7, #8]
 8004496:	607a      	str	r2, [r7, #4]
    float x = in[ 0 ].value;
 8004498:	68fb      	ldr	r3, [r7, #12]
 800449a:	689b      	ldr	r3, [r3, #8]
 800449c:	61fb      	str	r3, [r7, #28]
    float s, e;
    (void)n;

    s = p[ 0 ];
 800449e:	68bb      	ldr	r3, [r7, #8]
 80044a0:	681b      	ldr	r3, [r3, #0]
 80044a2:	61bb      	str	r3, [r7, #24]
    e = p[ 1 ];
 80044a4:	68bb      	ldr	r3, [r7, #8]
 80044a6:	3304      	adds	r3, #4
 80044a8:	681b      	ldr	r3, [r3, #0]
 80044aa:	617b      	str	r3, [r7, #20]

    return ( ( x >= s ) && ( x <= e ) ) ? 1.0f : 0.0f;
 80044ac:	69b9      	ldr	r1, [r7, #24]
 80044ae:	69f8      	ldr	r0, [r7, #28]
 80044b0:	f7fc fdfa 	bl	80010a8 <__aeabi_fcmpge>
 80044b4:	4603      	mov	r3, r0
 80044b6:	2b00      	cmp	r3, #0
 80044b8:	d009      	beq.n	80044ce <qFIS_RectangleMF+0x42>
 80044ba:	6979      	ldr	r1, [r7, #20]
 80044bc:	69f8      	ldr	r0, [r7, #28]
 80044be:	f7fc fde9 	bl	8001094 <__aeabi_fcmple>
 80044c2:	4603      	mov	r3, r0
 80044c4:	2b00      	cmp	r3, #0
 80044c6:	d002      	beq.n	80044ce <qFIS_RectangleMF+0x42>
 80044c8:	f04f 537e 	mov.w	r3, #1065353216	; 0x3f800000
 80044cc:	e001      	b.n	80044d2 <qFIS_RectangleMF+0x46>
 80044ce:	f04f 0300 	mov.w	r3, #0
}
 80044d2:	4618      	mov	r0, r3
 80044d4:	3720      	adds	r7, #32
 80044d6:	46bd      	mov	sp, r7
 80044d8:	bd80      	pop	{r7, pc}
	...

080044dc <qFIS_CosineMF>:
/*============================================================================*/
static float qFIS_CosineMF( const qFIS_IO_Base_t * const in,
                            const float *p,
                            const size_t n )
{
 80044dc:	e92d 43b0 	stmdb	sp!, {r4, r5, r7, r8, r9, lr}
 80044e0:	b08a      	sub	sp, #40	; 0x28
 80044e2:	af00      	add	r7, sp, #0
 80044e4:	60f8      	str	r0, [r7, #12]
 80044e6:	60b9      	str	r1, [r7, #8]
 80044e8:	607a      	str	r2, [r7, #4]
    float x = in[ 0 ].value;
 80044ea:	68fb      	ldr	r3, [r7, #12]
 80044ec:	689b      	ldr	r3, [r3, #8]
 80044ee:	623b      	str	r3, [r7, #32]
    float c, w, y;
    const float pi = 3.14159265358979323846f;
 80044f0:	4b36      	ldr	r3, [pc, #216]	; (80045cc <qFIS_CosineMF+0xf0>)
 80044f2:	61fb      	str	r3, [r7, #28]
    (void)n;

    c = p[ 0 ];
 80044f4:	68bb      	ldr	r3, [r7, #8]
 80044f6:	681b      	ldr	r3, [r3, #0]
 80044f8:	61bb      	str	r3, [r7, #24]
    w = p[ 1 ];
 80044fa:	68bb      	ldr	r3, [r7, #8]
 80044fc:	3304      	adds	r3, #4
 80044fe:	681b      	ldr	r3, [r3, #0]
 8004500:	617b      	str	r3, [r7, #20]
    if ( ( x < ( c - ( 0.5*w ) ) ) || ( x > ( c + ( 0.5f*w ) ) ) ) {
 8004502:	6a38      	ldr	r0, [r7, #32]
 8004504:	f7fb ff90 	bl	8000428 <__aeabi_f2d>
 8004508:	4604      	mov	r4, r0
 800450a:	460d      	mov	r5, r1
 800450c:	69b8      	ldr	r0, [r7, #24]
 800450e:	f7fb ff8b 	bl	8000428 <__aeabi_f2d>
 8004512:	4680      	mov	r8, r0
 8004514:	4689      	mov	r9, r1
 8004516:	6978      	ldr	r0, [r7, #20]
 8004518:	f7fb ff86 	bl	8000428 <__aeabi_f2d>
 800451c:	f04f 0200 	mov.w	r2, #0
 8004520:	4b2b      	ldr	r3, [pc, #172]	; (80045d0 <qFIS_CosineMF+0xf4>)
 8004522:	f7fb ffd9 	bl	80004d8 <__aeabi_dmul>
 8004526:	4602      	mov	r2, r0
 8004528:	460b      	mov	r3, r1
 800452a:	4640      	mov	r0, r8
 800452c:	4649      	mov	r1, r9
 800452e:	f7fb fe1b 	bl	8000168 <__aeabi_dsub>
 8004532:	4602      	mov	r2, r0
 8004534:	460b      	mov	r3, r1
 8004536:	4620      	mov	r0, r4
 8004538:	4629      	mov	r1, r5
 800453a:	f7fc fa3f 	bl	80009bc <__aeabi_dcmplt>
 800453e:	4603      	mov	r3, r0
 8004540:	2b00      	cmp	r3, #0
 8004542:	d111      	bne.n	8004568 <qFIS_CosineMF+0x8c>
 8004544:	f04f 517c 	mov.w	r1, #1056964608	; 0x3f000000
 8004548:	6978      	ldr	r0, [r7, #20]
 800454a:	f7fc fbfb 	bl	8000d44 <__aeabi_fmul>
 800454e:	4603      	mov	r3, r0
 8004550:	69b9      	ldr	r1, [r7, #24]
 8004552:	4618      	mov	r0, r3
 8004554:	f7fc faee 	bl	8000b34 <__addsf3>
 8004558:	4603      	mov	r3, r0
 800455a:	4619      	mov	r1, r3
 800455c:	6a38      	ldr	r0, [r7, #32]
 800455e:	f7fc fdad 	bl	80010bc <__aeabi_fcmpgt>
 8004562:	4603      	mov	r3, r0
 8004564:	2b00      	cmp	r3, #0
 8004566:	d003      	beq.n	8004570 <qFIS_CosineMF+0x94>
        y = 0.0f;
 8004568:	f04f 0300 	mov.w	r3, #0
 800456c:	627b      	str	r3, [r7, #36]	; 0x24
 800456e:	e026      	b.n	80045be <qFIS_CosineMF+0xe2>
    }
    else {
        y = 0.5f*( 1.0f + QLIB_COS( 2.0f/w*pi*( x - c) ) );
 8004570:	6979      	ldr	r1, [r7, #20]
 8004572:	f04f 4080 	mov.w	r0, #1073741824	; 0x40000000
 8004576:	f7fc fc99 	bl	8000eac <__aeabi_fdiv>
 800457a:	4603      	mov	r3, r0
 800457c:	69f9      	ldr	r1, [r7, #28]
 800457e:	4618      	mov	r0, r3
 8004580:	f7fc fbe0 	bl	8000d44 <__aeabi_fmul>
 8004584:	4603      	mov	r3, r0
 8004586:	461c      	mov	r4, r3
 8004588:	69b9      	ldr	r1, [r7, #24]
 800458a:	6a38      	ldr	r0, [r7, #32]
 800458c:	f7fc fad0 	bl	8000b30 <__aeabi_fsub>
 8004590:	4603      	mov	r3, r0
 8004592:	4619      	mov	r1, r3
 8004594:	4620      	mov	r0, r4
 8004596:	f7fc fbd5 	bl	8000d44 <__aeabi_fmul>
 800459a:	4603      	mov	r3, r0
 800459c:	4618      	mov	r0, r3
 800459e:	f7fe f857 	bl	8002650 <qFFMath_Cos>
 80045a2:	4603      	mov	r3, r0
 80045a4:	f04f 517e 	mov.w	r1, #1065353216	; 0x3f800000
 80045a8:	4618      	mov	r0, r3
 80045aa:	f7fc fac3 	bl	8000b34 <__addsf3>
 80045ae:	4603      	mov	r3, r0
 80045b0:	f04f 517c 	mov.w	r1, #1056964608	; 0x3f000000
 80045b4:	4618      	mov	r0, r3
 80045b6:	f7fc fbc5 	bl	8000d44 <__aeabi_fmul>
 80045ba:	4603      	mov	r3, r0
 80045bc:	627b      	str	r3, [r7, #36]	; 0x24
    }

    return y;
 80045be:	6a7b      	ldr	r3, [r7, #36]	; 0x24
}
 80045c0:	4618      	mov	r0, r3
 80045c2:	3728      	adds	r7, #40	; 0x28
 80045c4:	46bd      	mov	sp, r7
 80045c6:	e8bd 83b0 	ldmia.w	sp!, {r4, r5, r7, r8, r9, pc}
 80045ca:	bf00      	nop
 80045cc:	40490fdb 	.word	0x40490fdb
 80045d0:	3fe00000 	.word	0x3fe00000

080045d4 <qFIS_ConstantMF>:
/*============================================================================*/
static float qFIS_ConstantMF( const qFIS_IO_Base_t * const in,
                              const float *p,
                              const size_t n )
{
 80045d4:	b480      	push	{r7}
 80045d6:	b085      	sub	sp, #20
 80045d8:	af00      	add	r7, sp, #0
 80045da:	60f8      	str	r0, [r7, #12]
 80045dc:	60b9      	str	r1, [r7, #8]
 80045de:	607a      	str	r2, [r7, #4]
    (void)in;
    (void)n;
    return p[ 0 ];
 80045e0:	68bb      	ldr	r3, [r7, #8]
 80045e2:	681b      	ldr	r3, [r3, #0]
}
 80045e4:	4618      	mov	r0, r3
 80045e6:	3714      	adds	r7, #20
 80045e8:	46bd      	mov	sp, r7
 80045ea:	bc80      	pop	{r7}
 80045ec:	4770      	bx	lr

080045ee <qFIS_LinearMF>:
/*============================================================================*/
static float qFIS_LinearMF( const qFIS_IO_Base_t * const in,
                            const float *p,
                            const size_t n )
{
 80045ee:	b580      	push	{r7, lr}
 80045f0:	b086      	sub	sp, #24
 80045f2:	af00      	add	r7, sp, #0
 80045f4:	60f8      	str	r0, [r7, #12]
 80045f6:	60b9      	str	r1, [r7, #8]
 80045f8:	607a      	str	r2, [r7, #4]
    float px = 0.0f;
 80045fa:	f04f 0300 	mov.w	r3, #0
 80045fe:	617b      	str	r3, [r7, #20]
    size_t i;

    for ( i = 0u ; i < n ; ++i ) {
 8004600:	2300      	movs	r3, #0
 8004602:	613b      	str	r3, [r7, #16]
 8004604:	e01a      	b.n	800463c <qFIS_LinearMF+0x4e>
        px += in[ i ].value*p[ i ];
 8004606:	693a      	ldr	r2, [r7, #16]
 8004608:	4613      	mov	r3, r2
 800460a:	005b      	lsls	r3, r3, #1
 800460c:	4413      	add	r3, r2
 800460e:	009b      	lsls	r3, r3, #2
 8004610:	461a      	mov	r2, r3
 8004612:	68fb      	ldr	r3, [r7, #12]
 8004614:	4413      	add	r3, r2
 8004616:	6898      	ldr	r0, [r3, #8]
 8004618:	693b      	ldr	r3, [r7, #16]
 800461a:	009b      	lsls	r3, r3, #2
 800461c:	68ba      	ldr	r2, [r7, #8]
 800461e:	4413      	add	r3, r2
 8004620:	681b      	ldr	r3, [r3, #0]
 8004622:	4619      	mov	r1, r3
 8004624:	f7fc fb8e 	bl	8000d44 <__aeabi_fmul>
 8004628:	4603      	mov	r3, r0
 800462a:	4619      	mov	r1, r3
 800462c:	6978      	ldr	r0, [r7, #20]
 800462e:	f7fc fa81 	bl	8000b34 <__addsf3>
 8004632:	4603      	mov	r3, r0
 8004634:	617b      	str	r3, [r7, #20]
    for ( i = 0u ; i < n ; ++i ) {
 8004636:	693b      	ldr	r3, [r7, #16]
 8004638:	3301      	adds	r3, #1
 800463a:	613b      	str	r3, [r7, #16]
 800463c:	693a      	ldr	r2, [r7, #16]
 800463e:	687b      	ldr	r3, [r7, #4]
 8004640:	429a      	cmp	r2, r3
 8004642:	d3e0      	bcc.n	8004606 <qFIS_LinearMF+0x18>
    }
    px += p[ i ];
 8004644:	693b      	ldr	r3, [r7, #16]
 8004646:	009b      	lsls	r3, r3, #2
 8004648:	68ba      	ldr	r2, [r7, #8]
 800464a:	4413      	add	r3, r2
 800464c:	681b      	ldr	r3, [r3, #0]
 800464e:	4619      	mov	r1, r3
 8004650:	6978      	ldr	r0, [r7, #20]
 8004652:	f7fc fa6f 	bl	8000b34 <__addsf3>
 8004656:	4603      	mov	r3, r0
 8004658:	617b      	str	r3, [r7, #20]

    return px;
 800465a:	697b      	ldr	r3, [r7, #20]
}
 800465c:	4618      	mov	r0, r3
 800465e:	3718      	adds	r7, #24
 8004660:	46bd      	mov	sp, r7
 8004662:	bd80      	pop	{r7, pc}

08004664 <qFIS_Min>:
/*============================================================================*/
static float qFIS_Min( const float a,
                       const float b )
{
 8004664:	b580      	push	{r7, lr}
 8004666:	b082      	sub	sp, #8
 8004668:	af00      	add	r7, sp, #0
 800466a:	6078      	str	r0, [r7, #4]
 800466c:	6039      	str	r1, [r7, #0]
    return qFIS_Bound( ( a < b ) ? a : b, 0.0f, 1.0f );
 800466e:	6839      	ldr	r1, [r7, #0]
 8004670:	6878      	ldr	r0, [r7, #4]
 8004672:	f7fc fd05 	bl	8001080 <__aeabi_fcmplt>
 8004676:	4603      	mov	r3, r0
 8004678:	2b00      	cmp	r3, #0
 800467a:	d001      	beq.n	8004680 <qFIS_Min+0x1c>
 800467c:	687b      	ldr	r3, [r7, #4]
 800467e:	e000      	b.n	8004682 <qFIS_Min+0x1e>
 8004680:	683b      	ldr	r3, [r7, #0]
 8004682:	f04f 527e 	mov.w	r2, #1065353216	; 0x3f800000
 8004686:	f04f 0100 	mov.w	r1, #0
 800468a:	4618      	mov	r0, r3
 800468c:	f000 f86d 	bl	800476a <qFIS_Bound>
 8004690:	4603      	mov	r3, r0
}
 8004692:	4618      	mov	r0, r3
 8004694:	3708      	adds	r7, #8
 8004696:	46bd      	mov	sp, r7
 8004698:	bd80      	pop	{r7, pc}

0800469a <qFIS_Max>:
/*============================================================================*/
static float qFIS_Max( const float a,
                       const float b )
{
 800469a:	b580      	push	{r7, lr}
 800469c:	b082      	sub	sp, #8
 800469e:	af00      	add	r7, sp, #0
 80046a0:	6078      	str	r0, [r7, #4]
 80046a2:	6039      	str	r1, [r7, #0]
    return qFIS_Bound( ( a > b ) ? a : b, 0.0f, 1.0f );
 80046a4:	6839      	ldr	r1, [r7, #0]
 80046a6:	6878      	ldr	r0, [r7, #4]
 80046a8:	f7fc fd08 	bl	80010bc <__aeabi_fcmpgt>
 80046ac:	4603      	mov	r3, r0
 80046ae:	2b00      	cmp	r3, #0
 80046b0:	d001      	beq.n	80046b6 <qFIS_Max+0x1c>
 80046b2:	687b      	ldr	r3, [r7, #4]
 80046b4:	e000      	b.n	80046b8 <qFIS_Max+0x1e>
 80046b6:	683b      	ldr	r3, [r7, #0]
 80046b8:	f04f 527e 	mov.w	r2, #1065353216	; 0x3f800000
 80046bc:	f04f 0100 	mov.w	r1, #0
 80046c0:	4618      	mov	r0, r3
 80046c2:	f000 f852 	bl	800476a <qFIS_Bound>
 80046c6:	4603      	mov	r3, r0
}
 80046c8:	4618      	mov	r0, r3
 80046ca:	3708      	adds	r7, #8
 80046cc:	46bd      	mov	sp, r7
 80046ce:	bd80      	pop	{r7, pc}

080046d0 <qFIS_Prod>:
/*============================================================================*/
static float qFIS_Prod( const float a,
                        const float b )
{
 80046d0:	b580      	push	{r7, lr}
 80046d2:	b082      	sub	sp, #8
 80046d4:	af00      	add	r7, sp, #0
 80046d6:	6078      	str	r0, [r7, #4]
 80046d8:	6039      	str	r1, [r7, #0]
    return qFIS_Bound( a*b, 0.0f, 1.0f );
 80046da:	6839      	ldr	r1, [r7, #0]
 80046dc:	6878      	ldr	r0, [r7, #4]
 80046de:	f7fc fb31 	bl	8000d44 <__aeabi_fmul>
 80046e2:	4603      	mov	r3, r0
 80046e4:	f04f 527e 	mov.w	r2, #1065353216	; 0x3f800000
 80046e8:	f04f 0100 	mov.w	r1, #0
 80046ec:	4618      	mov	r0, r3
 80046ee:	f000 f83c 	bl	800476a <qFIS_Bound>
 80046f2:	4603      	mov	r3, r0
}
 80046f4:	4618      	mov	r0, r3
 80046f6:	3708      	adds	r7, #8
 80046f8:	46bd      	mov	sp, r7
 80046fa:	bd80      	pop	{r7, pc}

080046fc <qFIS_ProbOR>:
/*============================================================================*/
static float qFIS_ProbOR( const float a,
                          const float b )
{
 80046fc:	b590      	push	{r4, r7, lr}
 80046fe:	b083      	sub	sp, #12
 8004700:	af00      	add	r7, sp, #0
 8004702:	6078      	str	r0, [r7, #4]
 8004704:	6039      	str	r1, [r7, #0]
    return qFIS_Bound( a + b - ( a*b ), 0.0f, 1.0f );
 8004706:	6839      	ldr	r1, [r7, #0]
 8004708:	6878      	ldr	r0, [r7, #4]
 800470a:	f7fc fa13 	bl	8000b34 <__addsf3>
 800470e:	4603      	mov	r3, r0
 8004710:	461c      	mov	r4, r3
 8004712:	6839      	ldr	r1, [r7, #0]
 8004714:	6878      	ldr	r0, [r7, #4]
 8004716:	f7fc fb15 	bl	8000d44 <__aeabi_fmul>
 800471a:	4603      	mov	r3, r0
 800471c:	4619      	mov	r1, r3
 800471e:	4620      	mov	r0, r4
 8004720:	f7fc fa06 	bl	8000b30 <__aeabi_fsub>
 8004724:	4603      	mov	r3, r0
 8004726:	f04f 527e 	mov.w	r2, #1065353216	; 0x3f800000
 800472a:	f04f 0100 	mov.w	r1, #0
 800472e:	4618      	mov	r0, r3
 8004730:	f000 f81b 	bl	800476a <qFIS_Bound>
 8004734:	4603      	mov	r3, r0
}
 8004736:	4618      	mov	r0, r3
 8004738:	370c      	adds	r7, #12
 800473a:	46bd      	mov	sp, r7
 800473c:	bd90      	pop	{r4, r7, pc}

0800473e <qFIS_Sum>:
/*============================================================================*/
static float qFIS_Sum( const float a,
                       const float b )
{
 800473e:	b580      	push	{r7, lr}
 8004740:	b082      	sub	sp, #8
 8004742:	af00      	add	r7, sp, #0
 8004744:	6078      	str	r0, [r7, #4]
 8004746:	6039      	str	r1, [r7, #0]
    return qFIS_Bound( a + b, 0.0f, 1.0f );
 8004748:	6839      	ldr	r1, [r7, #0]
 800474a:	6878      	ldr	r0, [r7, #4]
 800474c:	f7fc f9f2 	bl	8000b34 <__addsf3>
 8004750:	4603      	mov	r3, r0
 8004752:	f04f 527e 	mov.w	r2, #1065353216	; 0x3f800000
 8004756:	f04f 0100 	mov.w	r1, #0
 800475a:	4618      	mov	r0, r3
 800475c:	f000 f805 	bl	800476a <qFIS_Bound>
 8004760:	4603      	mov	r3, r0
}
 8004762:	4618      	mov	r0, r3
 8004764:	3708      	adds	r7, #8
 8004766:	46bd      	mov	sp, r7
 8004768:	bd80      	pop	{r7, pc}

0800476a <qFIS_Bound>:
/*============================================================================*/
static float qFIS_Bound( float y,
                         const float yMin,
                         const float yMax )
{
 800476a:	b580      	push	{r7, lr}
 800476c:	b084      	sub	sp, #16
 800476e:	af00      	add	r7, sp, #0
 8004770:	60f8      	str	r0, [r7, #12]
 8004772:	60b9      	str	r1, [r7, #8]
 8004774:	607a      	str	r2, [r7, #4]
    (void)qFMathEx_InRangeCoerce( &y, yMin, yMax );
 8004776:	f107 030c 	add.w	r3, r7, #12
 800477a:	687a      	ldr	r2, [r7, #4]
 800477c:	68b9      	ldr	r1, [r7, #8]
 800477e:	4618      	mov	r0, r3
 8004780:	f000 f805 	bl	800478e <qFMathEx_InRangeCoerce>

    return y;
 8004784:	68fb      	ldr	r3, [r7, #12]
}
 8004786:	4618      	mov	r0, r3
 8004788:	3710      	adds	r7, #16
 800478a:	46bd      	mov	sp, r7
 800478c:	bd80      	pop	{r7, pc}

0800478e <qFMathEx_InRangeCoerce>:
}
/*============================================================================*/
bool qFMathEx_InRangeCoerce( float * const x,
                             const float lowerL,
                             const float upperL )
{
 800478e:	b580      	push	{r7, lr}
 8004790:	b086      	sub	sp, #24
 8004792:	af00      	add	r7, sp, #0
 8004794:	60f8      	str	r0, [r7, #12]
 8004796:	60b9      	str	r1, [r7, #8]
 8004798:	607a      	str	r2, [r7, #4]
    bool retVal = false;
 800479a:	2300      	movs	r3, #0
 800479c:	75fb      	strb	r3, [r7, #23]

    if ( 1 == (int)QLIB_ISNAN( x[ 0 ] ) ) {
 800479e:	68fb      	ldr	r3, [r7, #12]
 80047a0:	681b      	ldr	r3, [r3, #0]
 80047a2:	4618      	mov	r0, r3
 80047a4:	f7fd fe9d 	bl	80024e2 <qFFMath_IsNaN>
 80047a8:	4603      	mov	r3, r0
 80047aa:	2b00      	cmp	r3, #0
 80047ac:	d003      	beq.n	80047b6 <qFMathEx_InRangeCoerce+0x28>
        x[ 0 ] = lowerL;
 80047ae:	68fb      	ldr	r3, [r7, #12]
 80047b0:	68ba      	ldr	r2, [r7, #8]
 80047b2:	601a      	str	r2, [r3, #0]
 80047b4:	e01b      	b.n	80047ee <qFMathEx_InRangeCoerce+0x60>
    }
    else {
        if ( x[ 0 ] < lowerL ) {
 80047b6:	68fb      	ldr	r3, [r7, #12]
 80047b8:	681b      	ldr	r3, [r3, #0]
 80047ba:	4619      	mov	r1, r3
 80047bc:	68b8      	ldr	r0, [r7, #8]
 80047be:	f7fc fc7d 	bl	80010bc <__aeabi_fcmpgt>
 80047c2:	4603      	mov	r3, r0
 80047c4:	2b00      	cmp	r3, #0
 80047c6:	d003      	beq.n	80047d0 <qFMathEx_InRangeCoerce+0x42>
            x[ 0 ] = lowerL;
 80047c8:	68fb      	ldr	r3, [r7, #12]
 80047ca:	68ba      	ldr	r2, [r7, #8]
 80047cc:	601a      	str	r2, [r3, #0]
 80047ce:	e00e      	b.n	80047ee <qFMathEx_InRangeCoerce+0x60>
        }
        else if ( x[ 0 ] > upperL ) {
 80047d0:	68fb      	ldr	r3, [r7, #12]
 80047d2:	681b      	ldr	r3, [r3, #0]
 80047d4:	4619      	mov	r1, r3
 80047d6:	6878      	ldr	r0, [r7, #4]
 80047d8:	f7fc fc52 	bl	8001080 <__aeabi_fcmplt>
 80047dc:	4603      	mov	r3, r0
 80047de:	2b00      	cmp	r3, #0
 80047e0:	d003      	beq.n	80047ea <qFMathEx_InRangeCoerce+0x5c>
            x[ 0 ] = upperL;
 80047e2:	68fb      	ldr	r3, [r7, #12]
 80047e4:	687a      	ldr	r2, [r7, #4]
 80047e6:	601a      	str	r2, [r3, #0]
 80047e8:	e001      	b.n	80047ee <qFMathEx_InRangeCoerce+0x60>
        }
        else {
            retVal = true;
 80047ea:	2301      	movs	r3, #1
 80047ec:	75fb      	strb	r3, [r7, #23]
        }
    }

    return retVal;
 80047ee:	7dfb      	ldrb	r3, [r7, #23]
}
 80047f0:	4618      	mov	r0, r3
 80047f2:	3718      	adds	r7, #24
 80047f4:	46bd      	mov	sp, r7
 80047f6:	bd80      	pop	{r7, pc}

080047f8 <qFMathEx_AlmostEqual>:
/*============================================================================*/
bool qFMathEx_AlmostEqual( const float a,
                           const float b,
                           const float tol )
{
 80047f8:	b5b0      	push	{r4, r5, r7, lr}
 80047fa:	b084      	sub	sp, #16
 80047fc:	af00      	add	r7, sp, #0
 80047fe:	60f8      	str	r0, [r7, #12]
 8004800:	60b9      	str	r1, [r7, #8]
 8004802:	607a      	str	r2, [r7, #4]
    return ( QLIB_ABS( a - b ) <= QLIB_ABS( tol ) );
 8004804:	68b9      	ldr	r1, [r7, #8]
 8004806:	68f8      	ldr	r0, [r7, #12]
 8004808:	f7fc f992 	bl	8000b30 <__aeabi_fsub>
 800480c:	4603      	mov	r3, r0
 800480e:	4618      	mov	r0, r3
 8004810:	f7fd fe78 	bl	8002504 <qFFMath_Abs>
 8004814:	4604      	mov	r4, r0
 8004816:	6878      	ldr	r0, [r7, #4]
 8004818:	f7fd fe74 	bl	8002504 <qFFMath_Abs>
 800481c:	4603      	mov	r3, r0
 800481e:	2201      	movs	r2, #1
 8004820:	4615      	mov	r5, r2
 8004822:	4619      	mov	r1, r3
 8004824:	4620      	mov	r0, r4
 8004826:	f7fc fc35 	bl	8001094 <__aeabi_fcmple>
 800482a:	4603      	mov	r3, r0
 800482c:	2b00      	cmp	r3, #0
 800482e:	d101      	bne.n	8004834 <qFMathEx_AlmostEqual+0x3c>
 8004830:	2300      	movs	r3, #0
 8004832:	461d      	mov	r5, r3
 8004834:	b2eb      	uxtb	r3, r5
}
 8004836:	4618      	mov	r0, r3
 8004838:	3710      	adds	r7, #16
 800483a:	46bd      	mov	sp, r7
 800483c:	bdb0      	pop	{r4, r5, r7, pc}

0800483e <qFMathEx_Equal>:
/*============================================================================*/
bool qFMathEx_Equal( const float a,
                     const float b )
{
 800483e:	b580      	push	{r7, lr}
 8004840:	b082      	sub	sp, #8
 8004842:	af00      	add	r7, sp, #0
 8004844:	6078      	str	r0, [r7, #4]
 8004846:	6039      	str	r1, [r7, #0]
    return qFMathEx_AlmostEqual( a, b, FLT_MIN );
 8004848:	f44f 0200 	mov.w	r2, #8388608	; 0x800000
 800484c:	6839      	ldr	r1, [r7, #0]
 800484e:	6878      	ldr	r0, [r7, #4]
 8004850:	f7ff ffd2 	bl	80047f8 <qFMathEx_AlmostEqual>
 8004854:	4603      	mov	r3, r0
}
 8004856:	4618      	mov	r0, r3
 8004858:	3708      	adds	r7, #8
 800485a:	46bd      	mov	sp, r7
 800485c:	bd80      	pop	{r7, pc}
	...

08004860 <HAL_MspInit>:
void HAL_TIM_MspPostInit(TIM_HandleTypeDef *htim);
                                        /**
  * Initializes the Global MSP.
  */
void HAL_MspInit(void)
{
 8004860:	b480      	push	{r7}
 8004862:	b085      	sub	sp, #20
 8004864:	af00      	add	r7, sp, #0
  /* USER CODE BEGIN MspInit 0 */

  /* USER CODE END MspInit 0 */

  __HAL_RCC_AFIO_CLK_ENABLE();
 8004866:	4b15      	ldr	r3, [pc, #84]	; (80048bc <HAL_MspInit+0x5c>)
 8004868:	699b      	ldr	r3, [r3, #24]
 800486a:	4a14      	ldr	r2, [pc, #80]	; (80048bc <HAL_MspInit+0x5c>)
 800486c:	f043 0301 	orr.w	r3, r3, #1
 8004870:	6193      	str	r3, [r2, #24]
 8004872:	4b12      	ldr	r3, [pc, #72]	; (80048bc <HAL_MspInit+0x5c>)
 8004874:	699b      	ldr	r3, [r3, #24]
 8004876:	f003 0301 	and.w	r3, r3, #1
 800487a:	60bb      	str	r3, [r7, #8]
 800487c:	68bb      	ldr	r3, [r7, #8]
  __HAL_RCC_PWR_CLK_ENABLE();
 800487e:	4b0f      	ldr	r3, [pc, #60]	; (80048bc <HAL_MspInit+0x5c>)
 8004880:	69db      	ldr	r3, [r3, #28]
 8004882:	4a0e      	ldr	r2, [pc, #56]	; (80048bc <HAL_MspInit+0x5c>)
 8004884:	f043 5380 	orr.w	r3, r3, #268435456	; 0x10000000
 8004888:	61d3      	str	r3, [r2, #28]
 800488a:	4b0c      	ldr	r3, [pc, #48]	; (80048bc <HAL_MspInit+0x5c>)
 800488c:	69db      	ldr	r3, [r3, #28]
 800488e:	f003 5380 	and.w	r3, r3, #268435456	; 0x10000000
 8004892:	607b      	str	r3, [r7, #4]
 8004894:	687b      	ldr	r3, [r7, #4]

  /* System interrupt init*/

  /** NOJTAG: JTAG-DP Disabled and SW-DP Enabled
  */
  __HAL_AFIO_REMAP_SWJ_NOJTAG();
 8004896:	4b0a      	ldr	r3, [pc, #40]	; (80048c0 <HAL_MspInit+0x60>)
 8004898:	685b      	ldr	r3, [r3, #4]
 800489a:	60fb      	str	r3, [r7, #12]
 800489c:	68fb      	ldr	r3, [r7, #12]
 800489e:	f023 63e0 	bic.w	r3, r3, #117440512	; 0x7000000
 80048a2:	60fb      	str	r3, [r7, #12]
 80048a4:	68fb      	ldr	r3, [r7, #12]
 80048a6:	f043 7300 	orr.w	r3, r3, #33554432	; 0x2000000
 80048aa:	60fb      	str	r3, [r7, #12]
 80048ac:	4a04      	ldr	r2, [pc, #16]	; (80048c0 <HAL_MspInit+0x60>)
 80048ae:	68fb      	ldr	r3, [r7, #12]
 80048b0:	6053      	str	r3, [r2, #4]

  /* USER CODE BEGIN MspInit 1 */

  /* USER CODE END MspInit 1 */
}
 80048b2:	bf00      	nop
 80048b4:	3714      	adds	r7, #20
 80048b6:	46bd      	mov	sp, r7
 80048b8:	bc80      	pop	{r7}
 80048ba:	4770      	bx	lr
 80048bc:	40021000 	.word	0x40021000
 80048c0:	40010000 	.word	0x40010000

080048c4 <HAL_I2C_MspInit>:
* This function configures the hardware resources used in this example
* @param hi2c: I2C handle pointer
* @retval None
*/
void HAL_I2C_MspInit(I2C_HandleTypeDef* hi2c)
{
 80048c4:	b580      	push	{r7, lr}
 80048c6:	b08a      	sub	sp, #40	; 0x28
 80048c8:	af00      	add	r7, sp, #0
 80048ca:	6078      	str	r0, [r7, #4]
  GPIO_InitTypeDef GPIO_InitStruct = {0};
 80048cc:	f107 0314 	add.w	r3, r7, #20
 80048d0:	2200      	movs	r2, #0
 80048d2:	601a      	str	r2, [r3, #0]
 80048d4:	605a      	str	r2, [r3, #4]
 80048d6:	609a      	str	r2, [r3, #8]
 80048d8:	60da      	str	r2, [r3, #12]
  if(hi2c->Instance==I2C1)
 80048da:	687b      	ldr	r3, [r7, #4]
 80048dc:	681b      	ldr	r3, [r3, #0]
 80048de:	4a1d      	ldr	r2, [pc, #116]	; (8004954 <HAL_I2C_MspInit+0x90>)
 80048e0:	4293      	cmp	r3, r2
 80048e2:	d132      	bne.n	800494a <HAL_I2C_MspInit+0x86>
  {
  /* USER CODE BEGIN I2C1_MspInit 0 */

  /* USER CODE END I2C1_MspInit 0 */

    __HAL_RCC_GPIOB_CLK_ENABLE();
 80048e4:	4b1c      	ldr	r3, [pc, #112]	; (8004958 <HAL_I2C_MspInit+0x94>)
 80048e6:	699b      	ldr	r3, [r3, #24]
 80048e8:	4a1b      	ldr	r2, [pc, #108]	; (8004958 <HAL_I2C_MspInit+0x94>)
 80048ea:	f043 0308 	orr.w	r3, r3, #8
 80048ee:	6193      	str	r3, [r2, #24]
 80048f0:	4b19      	ldr	r3, [pc, #100]	; (8004958 <HAL_I2C_MspInit+0x94>)
 80048f2:	699b      	ldr	r3, [r3, #24]
 80048f4:	f003 0308 	and.w	r3, r3, #8
 80048f8:	613b      	str	r3, [r7, #16]
 80048fa:	693b      	ldr	r3, [r7, #16]
    /**I2C1 GPIO Configuration
    PB8     ------> I2C1_SCL
    PB9     ------> I2C1_SDA
    */
    GPIO_InitStruct.Pin = GPIO_PIN_8|GPIO_PIN_9;
 80048fc:	f44f 7340 	mov.w	r3, #768	; 0x300
 8004900:	617b      	str	r3, [r7, #20]
    GPIO_InitStruct.Mode = GPIO_MODE_AF_OD;
 8004902:	2312      	movs	r3, #18
 8004904:	61bb      	str	r3, [r7, #24]
    GPIO_InitStruct.Speed = GPIO_SPEED_FREQ_HIGH;
 8004906:	2303      	movs	r3, #3
 8004908:	623b      	str	r3, [r7, #32]
    HAL_GPIO_Init(GPIOB, &GPIO_InitStruct);
 800490a:	f107 0314 	add.w	r3, r7, #20
 800490e:	4619      	mov	r1, r3
 8004910:	4812      	ldr	r0, [pc, #72]	; (800495c <HAL_I2C_MspInit+0x98>)
 8004912:	f000 fbf9 	bl	8005108 <HAL_GPIO_Init>

    __HAL_AFIO_REMAP_I2C1_ENABLE();
 8004916:	4b12      	ldr	r3, [pc, #72]	; (8004960 <HAL_I2C_MspInit+0x9c>)
 8004918:	685b      	ldr	r3, [r3, #4]
 800491a:	627b      	str	r3, [r7, #36]	; 0x24
 800491c:	6a7b      	ldr	r3, [r7, #36]	; 0x24
 800491e:	f043 63e0 	orr.w	r3, r3, #117440512	; 0x7000000
 8004922:	627b      	str	r3, [r7, #36]	; 0x24
 8004924:	6a7b      	ldr	r3, [r7, #36]	; 0x24
 8004926:	f043 0302 	orr.w	r3, r3, #2
 800492a:	627b      	str	r3, [r7, #36]	; 0x24
 800492c:	4a0c      	ldr	r2, [pc, #48]	; (8004960 <HAL_I2C_MspInit+0x9c>)
 800492e:	6a7b      	ldr	r3, [r7, #36]	; 0x24
 8004930:	6053      	str	r3, [r2, #4]

    /* Peripheral clock enable */
    __HAL_RCC_I2C1_CLK_ENABLE();
 8004932:	4b09      	ldr	r3, [pc, #36]	; (8004958 <HAL_I2C_MspInit+0x94>)
 8004934:	69db      	ldr	r3, [r3, #28]
 8004936:	4a08      	ldr	r2, [pc, #32]	; (8004958 <HAL_I2C_MspInit+0x94>)
 8004938:	f443 1300 	orr.w	r3, r3, #2097152	; 0x200000
 800493c:	61d3      	str	r3, [r2, #28]
 800493e:	4b06      	ldr	r3, [pc, #24]	; (8004958 <HAL_I2C_MspInit+0x94>)
 8004940:	69db      	ldr	r3, [r3, #28]
 8004942:	f403 1300 	and.w	r3, r3, #2097152	; 0x200000
 8004946:	60fb      	str	r3, [r7, #12]
 8004948:	68fb      	ldr	r3, [r7, #12]
  /* USER CODE BEGIN I2C1_MspInit 1 */

  /* USER CODE END I2C1_MspInit 1 */
  }

}
 800494a:	bf00      	nop
 800494c:	3728      	adds	r7, #40	; 0x28
 800494e:	46bd      	mov	sp, r7
 8004950:	bd80      	pop	{r7, pc}
 8004952:	bf00      	nop
 8004954:	40005400 	.word	0x40005400
 8004958:	40021000 	.word	0x40021000
 800495c:	40010c00 	.word	0x40010c00
 8004960:	40010000 	.word	0x40010000

08004964 <HAL_TIM_Base_MspInit>:
* This function configures the hardware resources used in this example
* @param htim_base: TIM_Base handle pointer
* @retval None
*/
void HAL_TIM_Base_MspInit(TIM_HandleTypeDef* htim_base)
{
 8004964:	b580      	push	{r7, lr}
 8004966:	b084      	sub	sp, #16
 8004968:	af00      	add	r7, sp, #0
 800496a:	6078      	str	r0, [r7, #4]
  if(htim_base->Instance==TIM1)
 800496c:	687b      	ldr	r3, [r7, #4]
 800496e:	681b      	ldr	r3, [r3, #0]
 8004970:	4a0d      	ldr	r2, [pc, #52]	; (80049a8 <HAL_TIM_Base_MspInit+0x44>)
 8004972:	4293      	cmp	r3, r2
 8004974:	d113      	bne.n	800499e <HAL_TIM_Base_MspInit+0x3a>
  {
  /* USER CODE BEGIN TIM1_MspInit 0 */

  /* USER CODE END TIM1_MspInit 0 */
    /* Peripheral clock enable */
    __HAL_RCC_TIM1_CLK_ENABLE();
 8004976:	4b0d      	ldr	r3, [pc, #52]	; (80049ac <HAL_TIM_Base_MspInit+0x48>)
 8004978:	699b      	ldr	r3, [r3, #24]
 800497a:	4a0c      	ldr	r2, [pc, #48]	; (80049ac <HAL_TIM_Base_MspInit+0x48>)
 800497c:	f443 6300 	orr.w	r3, r3, #2048	; 0x800
 8004980:	6193      	str	r3, [r2, #24]
 8004982:	4b0a      	ldr	r3, [pc, #40]	; (80049ac <HAL_TIM_Base_MspInit+0x48>)
 8004984:	699b      	ldr	r3, [r3, #24]
 8004986:	f403 6300 	and.w	r3, r3, #2048	; 0x800
 800498a:	60fb      	str	r3, [r7, #12]
 800498c:	68fb      	ldr	r3, [r7, #12]
    /* TIM1 interrupt Init */
    HAL_NVIC_SetPriority(TIM1_UP_IRQn, 0, 0);
 800498e:	2200      	movs	r2, #0
 8004990:	2100      	movs	r1, #0
 8004992:	2019      	movs	r0, #25
 8004994:	f000 facf 	bl	8004f36 <HAL_NVIC_SetPriority>
    HAL_NVIC_EnableIRQ(TIM1_UP_IRQn);
 8004998:	2019      	movs	r0, #25
 800499a:	f000 fae8 	bl	8004f6e <HAL_NVIC_EnableIRQ>
  /* USER CODE BEGIN TIM1_MspInit 1 */

  /* USER CODE END TIM1_MspInit 1 */
  }

}
 800499e:	bf00      	nop
 80049a0:	3710      	adds	r7, #16
 80049a2:	46bd      	mov	sp, r7
 80049a4:	bd80      	pop	{r7, pc}
 80049a6:	bf00      	nop
 80049a8:	40012c00 	.word	0x40012c00
 80049ac:	40021000 	.word	0x40021000

080049b0 <HAL_TIM_PWM_MspInit>:
* This function configures the hardware resources used in this example
* @param htim_pwm: TIM_PWM handle pointer
* @retval None
*/
void HAL_TIM_PWM_MspInit(TIM_HandleTypeDef* htim_pwm)
{
 80049b0:	b480      	push	{r7}
 80049b2:	b085      	sub	sp, #20
 80049b4:	af00      	add	r7, sp, #0
 80049b6:	6078      	str	r0, [r7, #4]
  if(htim_pwm->Instance==TIM3)
 80049b8:	687b      	ldr	r3, [r7, #4]
 80049ba:	681b      	ldr	r3, [r3, #0]
 80049bc:	4a12      	ldr	r2, [pc, #72]	; (8004a08 <HAL_TIM_PWM_MspInit+0x58>)
 80049be:	4293      	cmp	r3, r2
 80049c0:	d10c      	bne.n	80049dc <HAL_TIM_PWM_MspInit+0x2c>
  {
  /* USER CODE BEGIN TIM3_MspInit 0 */

  /* USER CODE END TIM3_MspInit 0 */
    /* Peripheral clock enable */
    __HAL_RCC_TIM3_CLK_ENABLE();
 80049c2:	4b12      	ldr	r3, [pc, #72]	; (8004a0c <HAL_TIM_PWM_MspInit+0x5c>)
 80049c4:	69db      	ldr	r3, [r3, #28]
 80049c6:	4a11      	ldr	r2, [pc, #68]	; (8004a0c <HAL_TIM_PWM_MspInit+0x5c>)
 80049c8:	f043 0302 	orr.w	r3, r3, #2
 80049cc:	61d3      	str	r3, [r2, #28]
 80049ce:	4b0f      	ldr	r3, [pc, #60]	; (8004a0c <HAL_TIM_PWM_MspInit+0x5c>)
 80049d0:	69db      	ldr	r3, [r3, #28]
 80049d2:	f003 0302 	and.w	r3, r3, #2
 80049d6:	60fb      	str	r3, [r7, #12]
 80049d8:	68fb      	ldr	r3, [r7, #12]
  /* USER CODE BEGIN TIM4_MspInit 1 */

  /* USER CODE END TIM4_MspInit 1 */
  }

}
 80049da:	e010      	b.n	80049fe <HAL_TIM_PWM_MspInit+0x4e>
  else if(htim_pwm->Instance==TIM4)
 80049dc:	687b      	ldr	r3, [r7, #4]
 80049de:	681b      	ldr	r3, [r3, #0]
 80049e0:	4a0b      	ldr	r2, [pc, #44]	; (8004a10 <HAL_TIM_PWM_MspInit+0x60>)
 80049e2:	4293      	cmp	r3, r2
 80049e4:	d10b      	bne.n	80049fe <HAL_TIM_PWM_MspInit+0x4e>
    __HAL_RCC_TIM4_CLK_ENABLE();
 80049e6:	4b09      	ldr	r3, [pc, #36]	; (8004a0c <HAL_TIM_PWM_MspInit+0x5c>)
 80049e8:	69db      	ldr	r3, [r3, #28]
 80049ea:	4a08      	ldr	r2, [pc, #32]	; (8004a0c <HAL_TIM_PWM_MspInit+0x5c>)
 80049ec:	f043 0304 	orr.w	r3, r3, #4
 80049f0:	61d3      	str	r3, [r2, #28]
 80049f2:	4b06      	ldr	r3, [pc, #24]	; (8004a0c <HAL_TIM_PWM_MspInit+0x5c>)
 80049f4:	69db      	ldr	r3, [r3, #28]
 80049f6:	f003 0304 	and.w	r3, r3, #4
 80049fa:	60bb      	str	r3, [r7, #8]
 80049fc:	68bb      	ldr	r3, [r7, #8]
}
 80049fe:	bf00      	nop
 8004a00:	3714      	adds	r7, #20
 8004a02:	46bd      	mov	sp, r7
 8004a04:	bc80      	pop	{r7}
 8004a06:	4770      	bx	lr
 8004a08:	40000400 	.word	0x40000400
 8004a0c:	40021000 	.word	0x40021000
 8004a10:	40000800 	.word	0x40000800

08004a14 <HAL_TIM_MspPostInit>:

void HAL_TIM_MspPostInit(TIM_HandleTypeDef* htim)
{
 8004a14:	b580      	push	{r7, lr}
 8004a16:	b08a      	sub	sp, #40	; 0x28
 8004a18:	af00      	add	r7, sp, #0
 8004a1a:	6078      	str	r0, [r7, #4]
  GPIO_InitTypeDef GPIO_InitStruct = {0};
 8004a1c:	f107 0314 	add.w	r3, r7, #20
 8004a20:	2200      	movs	r2, #0
 8004a22:	601a      	str	r2, [r3, #0]
 8004a24:	605a      	str	r2, [r3, #4]
 8004a26:	609a      	str	r2, [r3, #8]
 8004a28:	60da      	str	r2, [r3, #12]
  if(htim->Instance==TIM3)
 8004a2a:	687b      	ldr	r3, [r7, #4]
 8004a2c:	681b      	ldr	r3, [r3, #0]
 8004a2e:	4a27      	ldr	r2, [pc, #156]	; (8004acc <HAL_TIM_MspPostInit+0xb8>)
 8004a30:	4293      	cmp	r3, r2
 8004a32:	d12a      	bne.n	8004a8a <HAL_TIM_MspPostInit+0x76>
  {
  /* USER CODE BEGIN TIM3_MspPostInit 0 */

  /* USER CODE END TIM3_MspPostInit 0 */
    __HAL_RCC_GPIOB_CLK_ENABLE();
 8004a34:	4b26      	ldr	r3, [pc, #152]	; (8004ad0 <HAL_TIM_MspPostInit+0xbc>)
 8004a36:	699b      	ldr	r3, [r3, #24]
 8004a38:	4a25      	ldr	r2, [pc, #148]	; (8004ad0 <HAL_TIM_MspPostInit+0xbc>)
 8004a3a:	f043 0308 	orr.w	r3, r3, #8
 8004a3e:	6193      	str	r3, [r2, #24]
 8004a40:	4b23      	ldr	r3, [pc, #140]	; (8004ad0 <HAL_TIM_MspPostInit+0xbc>)
 8004a42:	699b      	ldr	r3, [r3, #24]
 8004a44:	f003 0308 	and.w	r3, r3, #8
 8004a48:	613b      	str	r3, [r7, #16]
 8004a4a:	693b      	ldr	r3, [r7, #16]
    /**TIM3 GPIO Configuration
    PB4     ------> TIM3_CH1
    PB5     ------> TIM3_CH2
    */
    GPIO_InitStruct.Pin = GPIO_PIN_4|GPIO_PIN_5;
 8004a4c:	2330      	movs	r3, #48	; 0x30
 8004a4e:	617b      	str	r3, [r7, #20]
    GPIO_InitStruct.Mode = GPIO_MODE_AF_PP;
 8004a50:	2302      	movs	r3, #2
 8004a52:	61bb      	str	r3, [r7, #24]
    GPIO_InitStruct.Speed = GPIO_SPEED_FREQ_LOW;
 8004a54:	2302      	movs	r3, #2
 8004a56:	623b      	str	r3, [r7, #32]
    HAL_GPIO_Init(GPIOB, &GPIO_InitStruct);
 8004a58:	f107 0314 	add.w	r3, r7, #20
 8004a5c:	4619      	mov	r1, r3
 8004a5e:	481d      	ldr	r0, [pc, #116]	; (8004ad4 <HAL_TIM_MspPostInit+0xc0>)
 8004a60:	f000 fb52 	bl	8005108 <HAL_GPIO_Init>

    __HAL_AFIO_REMAP_TIM3_PARTIAL();
 8004a64:	4b1c      	ldr	r3, [pc, #112]	; (8004ad8 <HAL_TIM_MspPostInit+0xc4>)
 8004a66:	685b      	ldr	r3, [r3, #4]
 8004a68:	627b      	str	r3, [r7, #36]	; 0x24
 8004a6a:	6a7b      	ldr	r3, [r7, #36]	; 0x24
 8004a6c:	f423 6340 	bic.w	r3, r3, #3072	; 0xc00
 8004a70:	627b      	str	r3, [r7, #36]	; 0x24
 8004a72:	6a7b      	ldr	r3, [r7, #36]	; 0x24
 8004a74:	f043 63e0 	orr.w	r3, r3, #117440512	; 0x7000000
 8004a78:	627b      	str	r3, [r7, #36]	; 0x24
 8004a7a:	6a7b      	ldr	r3, [r7, #36]	; 0x24
 8004a7c:	f443 6300 	orr.w	r3, r3, #2048	; 0x800
 8004a80:	627b      	str	r3, [r7, #36]	; 0x24
 8004a82:	4a15      	ldr	r2, [pc, #84]	; (8004ad8 <HAL_TIM_MspPostInit+0xc4>)
 8004a84:	6a7b      	ldr	r3, [r7, #36]	; 0x24
 8004a86:	6053      	str	r3, [r2, #4]
  /* USER CODE BEGIN TIM4_MspPostInit 1 */

  /* USER CODE END TIM4_MspPostInit 1 */
  }

}
 8004a88:	e01c      	b.n	8004ac4 <HAL_TIM_MspPostInit+0xb0>
  else if(htim->Instance==TIM4)
 8004a8a:	687b      	ldr	r3, [r7, #4]
 8004a8c:	681b      	ldr	r3, [r3, #0]
 8004a8e:	4a13      	ldr	r2, [pc, #76]	; (8004adc <HAL_TIM_MspPostInit+0xc8>)
 8004a90:	4293      	cmp	r3, r2
 8004a92:	d117      	bne.n	8004ac4 <HAL_TIM_MspPostInit+0xb0>
    __HAL_RCC_GPIOB_CLK_ENABLE();
 8004a94:	4b0e      	ldr	r3, [pc, #56]	; (8004ad0 <HAL_TIM_MspPostInit+0xbc>)
 8004a96:	699b      	ldr	r3, [r3, #24]
 8004a98:	4a0d      	ldr	r2, [pc, #52]	; (8004ad0 <HAL_TIM_MspPostInit+0xbc>)
 8004a9a:	f043 0308 	orr.w	r3, r3, #8
 8004a9e:	6193      	str	r3, [r2, #24]
 8004aa0:	4b0b      	ldr	r3, [pc, #44]	; (8004ad0 <HAL_TIM_MspPostInit+0xbc>)
 8004aa2:	699b      	ldr	r3, [r3, #24]
 8004aa4:	f003 0308 	and.w	r3, r3, #8
 8004aa8:	60fb      	str	r3, [r7, #12]
 8004aaa:	68fb      	ldr	r3, [r7, #12]
    GPIO_InitStruct.Pin = GPIO_PIN_6|GPIO_PIN_7;
 8004aac:	23c0      	movs	r3, #192	; 0xc0
 8004aae:	617b      	str	r3, [r7, #20]
    GPIO_InitStruct.Mode = GPIO_MODE_AF_PP;
 8004ab0:	2302      	movs	r3, #2
 8004ab2:	61bb      	str	r3, [r7, #24]
    GPIO_InitStruct.Speed = GPIO_SPEED_FREQ_LOW;
 8004ab4:	2302      	movs	r3, #2
 8004ab6:	623b      	str	r3, [r7, #32]
    HAL_GPIO_Init(GPIOB, &GPIO_InitStruct);
 8004ab8:	f107 0314 	add.w	r3, r7, #20
 8004abc:	4619      	mov	r1, r3
 8004abe:	4805      	ldr	r0, [pc, #20]	; (8004ad4 <HAL_TIM_MspPostInit+0xc0>)
 8004ac0:	f000 fb22 	bl	8005108 <HAL_GPIO_Init>
}
 8004ac4:	bf00      	nop
 8004ac6:	3728      	adds	r7, #40	; 0x28
 8004ac8:	46bd      	mov	sp, r7
 8004aca:	bd80      	pop	{r7, pc}
 8004acc:	40000400 	.word	0x40000400
 8004ad0:	40021000 	.word	0x40021000
 8004ad4:	40010c00 	.word	0x40010c00
 8004ad8:	40010000 	.word	0x40010000
 8004adc:	40000800 	.word	0x40000800

08004ae0 <HAL_UART_MspInit>:
* This function configures the hardware resources used in this example
* @param huart: UART handle pointer
* @retval None
*/
void HAL_UART_MspInit(UART_HandleTypeDef* huart)
{
 8004ae0:	b580      	push	{r7, lr}
 8004ae2:	b088      	sub	sp, #32
 8004ae4:	af00      	add	r7, sp, #0
 8004ae6:	6078      	str	r0, [r7, #4]
  GPIO_InitTypeDef GPIO_InitStruct = {0};
 8004ae8:	f107 0310 	add.w	r3, r7, #16
 8004aec:	2200      	movs	r2, #0
 8004aee:	601a      	str	r2, [r3, #0]
 8004af0:	605a      	str	r2, [r3, #4]
 8004af2:	609a      	str	r2, [r3, #8]
 8004af4:	60da      	str	r2, [r3, #12]
  if(huart->Instance==USART1)
 8004af6:	687b      	ldr	r3, [r7, #4]
 8004af8:	681b      	ldr	r3, [r3, #0]
 8004afa:	4a20      	ldr	r2, [pc, #128]	; (8004b7c <HAL_UART_MspInit+0x9c>)
 8004afc:	4293      	cmp	r3, r2
 8004afe:	d139      	bne.n	8004b74 <HAL_UART_MspInit+0x94>
  {
  /* USER CODE BEGIN USART1_MspInit 0 */

  /* USER CODE END USART1_MspInit 0 */
    /* Peripheral clock enable */
    __HAL_RCC_USART1_CLK_ENABLE();
 8004b00:	4b1f      	ldr	r3, [pc, #124]	; (8004b80 <HAL_UART_MspInit+0xa0>)
 8004b02:	699b      	ldr	r3, [r3, #24]
 8004b04:	4a1e      	ldr	r2, [pc, #120]	; (8004b80 <HAL_UART_MspInit+0xa0>)
 8004b06:	f443 4380 	orr.w	r3, r3, #16384	; 0x4000
 8004b0a:	6193      	str	r3, [r2, #24]
 8004b0c:	4b1c      	ldr	r3, [pc, #112]	; (8004b80 <HAL_UART_MspInit+0xa0>)
 8004b0e:	699b      	ldr	r3, [r3, #24]
 8004b10:	f403 4380 	and.w	r3, r3, #16384	; 0x4000
 8004b14:	60fb      	str	r3, [r7, #12]
 8004b16:	68fb      	ldr	r3, [r7, #12]

    __HAL_RCC_GPIOA_CLK_ENABLE();
 8004b18:	4b19      	ldr	r3, [pc, #100]	; (8004b80 <HAL_UART_MspInit+0xa0>)
 8004b1a:	699b      	ldr	r3, [r3, #24]
 8004b1c:	4a18      	ldr	r2, [pc, #96]	; (8004b80 <HAL_UART_MspInit+0xa0>)
 8004b1e:	f043 0304 	orr.w	r3, r3, #4
 8004b22:	6193      	str	r3, [r2, #24]
 8004b24:	4b16      	ldr	r3, [pc, #88]	; (8004b80 <HAL_UART_MspInit+0xa0>)
 8004b26:	699b      	ldr	r3, [r3, #24]
 8004b28:	f003 0304 	and.w	r3, r3, #4
 8004b2c:	60bb      	str	r3, [r7, #8]
 8004b2e:	68bb      	ldr	r3, [r7, #8]
    /**USART1 GPIO Configuration
    PA9     ------> USART1_TX
    PA10     ------> USART1_RX
    */
    GPIO_InitStruct.Pin = GPIO_PIN_9;
 8004b30:	f44f 7300 	mov.w	r3, #512	; 0x200
 8004b34:	613b      	str	r3, [r7, #16]
    GPIO_InitStruct.Mode = GPIO_MODE_AF_PP;
 8004b36:	2302      	movs	r3, #2
 8004b38:	617b      	str	r3, [r7, #20]
    GPIO_InitStruct.Speed = GPIO_SPEED_FREQ_HIGH;
 8004b3a:	2303      	movs	r3, #3
 8004b3c:	61fb      	str	r3, [r7, #28]
    HAL_GPIO_Init(GPIOA, &GPIO_InitStruct);
 8004b3e:	f107 0310 	add.w	r3, r7, #16
 8004b42:	4619      	mov	r1, r3
 8004b44:	480f      	ldr	r0, [pc, #60]	; (8004b84 <HAL_UART_MspInit+0xa4>)
 8004b46:	f000 fadf 	bl	8005108 <HAL_GPIO_Init>

    GPIO_InitStruct.Pin = GPIO_PIN_10;
 8004b4a:	f44f 6380 	mov.w	r3, #1024	; 0x400
 8004b4e:	613b      	str	r3, [r7, #16]
    GPIO_InitStruct.Mode = GPIO_MODE_INPUT;
 8004b50:	2300      	movs	r3, #0
 8004b52:	617b      	str	r3, [r7, #20]
    GPIO_InitStruct.Pull = GPIO_NOPULL;
 8004b54:	2300      	movs	r3, #0
 8004b56:	61bb      	str	r3, [r7, #24]
    HAL_GPIO_Init(GPIOA, &GPIO_InitStruct);
 8004b58:	f107 0310 	add.w	r3, r7, #16
 8004b5c:	4619      	mov	r1, r3
 8004b5e:	4809      	ldr	r0, [pc, #36]	; (8004b84 <HAL_UART_MspInit+0xa4>)
 8004b60:	f000 fad2 	bl	8005108 <HAL_GPIO_Init>

    /* USART1 interrupt Init */
    HAL_NVIC_SetPriority(USART1_IRQn, 0, 0);
 8004b64:	2200      	movs	r2, #0
 8004b66:	2100      	movs	r1, #0
 8004b68:	2025      	movs	r0, #37	; 0x25
 8004b6a:	f000 f9e4 	bl	8004f36 <HAL_NVIC_SetPriority>
    HAL_NVIC_EnableIRQ(USART1_IRQn);
 8004b6e:	2025      	movs	r0, #37	; 0x25
 8004b70:	f000 f9fd 	bl	8004f6e <HAL_NVIC_EnableIRQ>
  /* USER CODE BEGIN USART1_MspInit 1 */

  /* USER CODE END USART1_MspInit 1 */
  }

}
 8004b74:	bf00      	nop
 8004b76:	3720      	adds	r7, #32
 8004b78:	46bd      	mov	sp, r7
 8004b7a:	bd80      	pop	{r7, pc}
 8004b7c:	40013800 	.word	0x40013800
 8004b80:	40021000 	.word	0x40021000
 8004b84:	40010800 	.word	0x40010800

08004b88 <NMI_Handler>:
/******************************************************************************/
/**
  * @brief This function handles Non maskable interrupt.
  */
void NMI_Handler(void)
{
 8004b88:	b480      	push	{r7}
 8004b8a:	af00      	add	r7, sp, #0
  /* USER CODE BEGIN NonMaskableInt_IRQn 0 */

  /* USER CODE END NonMaskableInt_IRQn 0 */
  /* USER CODE BEGIN NonMaskableInt_IRQn 1 */
   while (1)
 8004b8c:	e7fe      	b.n	8004b8c <NMI_Handler+0x4>

08004b8e <HardFault_Handler>:

/**
  * @brief This function handles Hard fault interrupt.
  */
void HardFault_Handler(void)
{
 8004b8e:	b480      	push	{r7}
 8004b90:	af00      	add	r7, sp, #0
  /* USER CODE BEGIN HardFault_IRQn 0 */

  /* USER CODE END HardFault_IRQn 0 */
  while (1)
 8004b92:	e7fe      	b.n	8004b92 <HardFault_Handler+0x4>

08004b94 <MemManage_Handler>:

/**
  * @brief This function handles Memory management fault.
  */
void MemManage_Handler(void)
{
 8004b94:	b480      	push	{r7}
 8004b96:	af00      	add	r7, sp, #0
  /* USER CODE BEGIN MemoryManagement_IRQn 0 */

  /* USER CODE END MemoryManagement_IRQn 0 */
  while (1)
 8004b98:	e7fe      	b.n	8004b98 <MemManage_Handler+0x4>

08004b9a <BusFault_Handler>:

/**
  * @brief This function handles Prefetch fault, memory access fault.
  */
void BusFault_Handler(void)
{
 8004b9a:	b480      	push	{r7}
 8004b9c:	af00      	add	r7, sp, #0
  /* USER CODE BEGIN BusFault_IRQn 0 */

  /* USER CODE END BusFault_IRQn 0 */
  while (1)
 8004b9e:	e7fe      	b.n	8004b9e <BusFault_Handler+0x4>

08004ba0 <UsageFault_Handler>:

/**
  * @brief This function handles Undefined instruction or illegal state.
  */
void UsageFault_Handler(void)
{
 8004ba0:	b480      	push	{r7}
 8004ba2:	af00      	add	r7, sp, #0
  /* USER CODE BEGIN UsageFault_IRQn 0 */

  /* USER CODE END UsageFault_IRQn 0 */
  while (1)
 8004ba4:	e7fe      	b.n	8004ba4 <UsageFault_Handler+0x4>

08004ba6 <SVC_Handler>:

/**
  * @brief This function handles System service call via SWI instruction.
  */
void SVC_Handler(void)
{
 8004ba6:	b480      	push	{r7}
 8004ba8:	af00      	add	r7, sp, #0

  /* USER CODE END SVCall_IRQn 0 */
  /* USER CODE BEGIN SVCall_IRQn 1 */

  /* USER CODE END SVCall_IRQn 1 */
}
 8004baa:	bf00      	nop
 8004bac:	46bd      	mov	sp, r7
 8004bae:	bc80      	pop	{r7}
 8004bb0:	4770      	bx	lr

08004bb2 <DebugMon_Handler>:

/**
  * @brief This function handles Debug monitor.
  */
void DebugMon_Handler(void)
{
 8004bb2:	b480      	push	{r7}
 8004bb4:	af00      	add	r7, sp, #0

  /* USER CODE END DebugMonitor_IRQn 0 */
  /* USER CODE BEGIN DebugMonitor_IRQn 1 */

  /* USER CODE END DebugMonitor_IRQn 1 */
}
 8004bb6:	bf00      	nop
 8004bb8:	46bd      	mov	sp, r7
 8004bba:	bc80      	pop	{r7}
 8004bbc:	4770      	bx	lr

08004bbe <PendSV_Handler>:

/**
  * @brief This function handles Pendable request for system service.
  */
void PendSV_Handler(void)
{
 8004bbe:	b480      	push	{r7}
 8004bc0:	af00      	add	r7, sp, #0

  /* USER CODE END PendSV_IRQn 0 */
  /* USER CODE BEGIN PendSV_IRQn 1 */

  /* USER CODE END PendSV_IRQn 1 */
}
 8004bc2:	bf00      	nop
 8004bc4:	46bd      	mov	sp, r7
 8004bc6:	bc80      	pop	{r7}
 8004bc8:	4770      	bx	lr

08004bca <SysTick_Handler>:

/**
  * @brief This function handles System tick timer.
  */
void SysTick_Handler(void)
{
 8004bca:	b580      	push	{r7, lr}
 8004bcc:	af00      	add	r7, sp, #0
  /* USER CODE BEGIN SysTick_IRQn 0 */

  /* USER CODE END SysTick_IRQn 0 */
  HAL_IncTick();
 8004bce:	f000 f8bf 	bl	8004d50 <HAL_IncTick>
  /* USER CODE BEGIN SysTick_IRQn 1 */

  /* USER CODE END SysTick_IRQn 1 */
}
 8004bd2:	bf00      	nop
 8004bd4:	bd80      	pop	{r7, pc}
	...

08004bd8 <TIM1_UP_IRQHandler>:

/**
  * @brief This function handles TIM1 update interrupt.
  */
void TIM1_UP_IRQHandler(void)
{
 8004bd8:	b580      	push	{r7, lr}
 8004bda:	af00      	add	r7, sp, #0
  /* USER CODE BEGIN TIM1_UP_IRQn 0 */

  /* USER CODE END TIM1_UP_IRQn 0 */
  HAL_TIM_IRQHandler(&htim1);
 8004bdc:	4802      	ldr	r0, [pc, #8]	; (8004be8 <TIM1_UP_IRQHandler+0x10>)
 8004bde:	f002 fa2d 	bl	800703c <HAL_TIM_IRQHandler>
  /* USER CODE BEGIN TIM1_UP_IRQn 1 */

  /* USER CODE END TIM1_UP_IRQn 1 */
}
 8004be2:	bf00      	nop
 8004be4:	bd80      	pop	{r7, pc}
 8004be6:	bf00      	nop
 8004be8:	200003ec 	.word	0x200003ec

08004bec <USART1_IRQHandler>:

/**
  * @brief This function handles USART1 global interrupt.
  */
void USART1_IRQHandler(void)
{
 8004bec:	b580      	push	{r7, lr}
 8004bee:	af00      	add	r7, sp, #0
  /* USER CODE BEGIN USART1_IRQn 0 */

  /* USER CODE END USART1_IRQn 0 */
  HAL_UART_IRQHandler(&huart1);
 8004bf0:	4802      	ldr	r0, [pc, #8]	; (8004bfc <USART1_IRQHandler+0x10>)
 8004bf2:	f003 f8c1 	bl	8007d78 <HAL_UART_IRQHandler>
  /* USER CODE BEGIN USART1_IRQn 1 */

  /* USER CODE END USART1_IRQn 1 */
}
 8004bf6:	bf00      	nop
 8004bf8:	bd80      	pop	{r7, pc}
 8004bfa:	bf00      	nop
 8004bfc:	200004c4 	.word	0x200004c4

08004c00 <_sbrk>:
 *
 * @param incr Memory size
 * @return Pointer to allocated memory
 */
void *_sbrk(ptrdiff_t incr)
{
 8004c00:	b580      	push	{r7, lr}
 8004c02:	b086      	sub	sp, #24
 8004c04:	af00      	add	r7, sp, #0
 8004c06:	6078      	str	r0, [r7, #4]
  extern uint8_t _end; /* Symbol defined in the linker script */
  extern uint8_t _estack; /* Symbol defined in the linker script */
  extern uint32_t _Min_Stack_Size; /* Symbol defined in the linker script */
  const uint32_t stack_limit = (uint32_t)&_estack - (uint32_t)&_Min_Stack_Size;
 8004c08:	4a14      	ldr	r2, [pc, #80]	; (8004c5c <_sbrk+0x5c>)
 8004c0a:	4b15      	ldr	r3, [pc, #84]	; (8004c60 <_sbrk+0x60>)
 8004c0c:	1ad3      	subs	r3, r2, r3
 8004c0e:	617b      	str	r3, [r7, #20]
  const uint8_t *max_heap = (uint8_t *)stack_limit;
 8004c10:	697b      	ldr	r3, [r7, #20]
 8004c12:	613b      	str	r3, [r7, #16]
  uint8_t *prev_heap_end;

  /* Initialize heap end at first call */
  if (NULL == __sbrk_heap_end)
 8004c14:	4b13      	ldr	r3, [pc, #76]	; (8004c64 <_sbrk+0x64>)
 8004c16:	681b      	ldr	r3, [r3, #0]
 8004c18:	2b00      	cmp	r3, #0
 8004c1a:	d102      	bne.n	8004c22 <_sbrk+0x22>
  {
    __sbrk_heap_end = &_end;
 8004c1c:	4b11      	ldr	r3, [pc, #68]	; (8004c64 <_sbrk+0x64>)
 8004c1e:	4a12      	ldr	r2, [pc, #72]	; (8004c68 <_sbrk+0x68>)
 8004c20:	601a      	str	r2, [r3, #0]
  }

  /* Protect heap from growing into the reserved MSP stack */
  if (__sbrk_heap_end + incr > max_heap)
 8004c22:	4b10      	ldr	r3, [pc, #64]	; (8004c64 <_sbrk+0x64>)
 8004c24:	681a      	ldr	r2, [r3, #0]
 8004c26:	687b      	ldr	r3, [r7, #4]
 8004c28:	4413      	add	r3, r2
 8004c2a:	693a      	ldr	r2, [r7, #16]
 8004c2c:	429a      	cmp	r2, r3
 8004c2e:	d207      	bcs.n	8004c40 <_sbrk+0x40>
  {
    errno = ENOMEM;
 8004c30:	f003 fe1a 	bl	8008868 <__errno>
 8004c34:	4603      	mov	r3, r0
 8004c36:	220c      	movs	r2, #12
 8004c38:	601a      	str	r2, [r3, #0]
    return (void *)-1;
 8004c3a:	f04f 33ff 	mov.w	r3, #4294967295
 8004c3e:	e009      	b.n	8004c54 <_sbrk+0x54>
  }

  prev_heap_end = __sbrk_heap_end;
 8004c40:	4b08      	ldr	r3, [pc, #32]	; (8004c64 <_sbrk+0x64>)
 8004c42:	681b      	ldr	r3, [r3, #0]
 8004c44:	60fb      	str	r3, [r7, #12]
  __sbrk_heap_end += incr;
 8004c46:	4b07      	ldr	r3, [pc, #28]	; (8004c64 <_sbrk+0x64>)
 8004c48:	681a      	ldr	r2, [r3, #0]
 8004c4a:	687b      	ldr	r3, [r7, #4]
 8004c4c:	4413      	add	r3, r2
 8004c4e:	4a05      	ldr	r2, [pc, #20]	; (8004c64 <_sbrk+0x64>)
 8004c50:	6013      	str	r3, [r2, #0]

  return (void *)prev_heap_end;
 8004c52:	68fb      	ldr	r3, [r7, #12]
}
 8004c54:	4618      	mov	r0, r3
 8004c56:	3718      	adds	r7, #24
 8004c58:	46bd      	mov	sp, r7
 8004c5a:	bd80      	pop	{r7, pc}
 8004c5c:	20005000 	.word	0x20005000
 8004c60:	00000400 	.word	0x00000400
 8004c64:	200005e0 	.word	0x200005e0
 8004c68:	20000730 	.word	0x20000730

08004c6c <SystemInit>:
  * @note   This function should be used only after reset.
  * @param  None
  * @retval None
  */
void SystemInit (void)
{
 8004c6c:	b480      	push	{r7}
 8004c6e:	af00      	add	r7, sp, #0

  /* Configure the Vector Table location -------------------------------------*/
#if defined(USER_VECT_TAB_ADDRESS)
  SCB->VTOR = VECT_TAB_BASE_ADDRESS | VECT_TAB_OFFSET; /* Vector Table Relocation in Internal SRAM. */
#endif /* USER_VECT_TAB_ADDRESS */
}
 8004c70:	bf00      	nop
 8004c72:	46bd      	mov	sp, r7
 8004c74:	bc80      	pop	{r7}
 8004c76:	4770      	bx	lr

08004c78 <Reset_Handler>:
  .section .text.Reset_Handler
  .weak Reset_Handler
  .type Reset_Handler, %function
Reset_Handler:

/* Call the clock system initialization function.*/    bl  SystemInit
 8004c78:	f7ff fff8 	bl	8004c6c <SystemInit>

/* Copy the data segment initializers from flash to SRAM */
  ldr r0, =_sdata
 8004c7c:	480b      	ldr	r0, [pc, #44]	; (8004cac <LoopFillZerobss+0xe>)
  ldr r1, =_edata
 8004c7e:	490c      	ldr	r1, [pc, #48]	; (8004cb0 <LoopFillZerobss+0x12>)
  ldr r2, =_sidata
 8004c80:	4a0c      	ldr	r2, [pc, #48]	; (8004cb4 <LoopFillZerobss+0x16>)
  movs r3, #0
 8004c82:	2300      	movs	r3, #0
  b LoopCopyDataInit
 8004c84:	e002      	b.n	8004c8c <LoopCopyDataInit>

08004c86 <CopyDataInit>:

CopyDataInit:
  ldr r4, [r2, r3]
 8004c86:	58d4      	ldr	r4, [r2, r3]
  str r4, [r0, r3]
 8004c88:	50c4      	str	r4, [r0, r3]
  adds r3, r3, #4
 8004c8a:	3304      	adds	r3, #4

08004c8c <LoopCopyDataInit>:

LoopCopyDataInit:
  adds r4, r0, r3
 8004c8c:	18c4      	adds	r4, r0, r3
  cmp r4, r1
 8004c8e:	428c      	cmp	r4, r1
  bcc CopyDataInit
 8004c90:	d3f9      	bcc.n	8004c86 <CopyDataInit>
  
/* Zero fill the bss segment. */
  ldr r2, =_sbss
 8004c92:	4a09      	ldr	r2, [pc, #36]	; (8004cb8 <LoopFillZerobss+0x1a>)
  ldr r4, =_ebss
 8004c94:	4c09      	ldr	r4, [pc, #36]	; (8004cbc <LoopFillZerobss+0x1e>)
  movs r3, #0
 8004c96:	2300      	movs	r3, #0
  b LoopFillZerobss
 8004c98:	e001      	b.n	8004c9e <LoopFillZerobss>

08004c9a <FillZerobss>:

FillZerobss:
  str  r3, [r2]
 8004c9a:	6013      	str	r3, [r2, #0]
  adds r2, r2, #4
 8004c9c:	3204      	adds	r2, #4

08004c9e <LoopFillZerobss>:

LoopFillZerobss:
  cmp r2, r4
 8004c9e:	42a2      	cmp	r2, r4
  bcc FillZerobss
 8004ca0:	d3fb      	bcc.n	8004c9a <FillZerobss>

/* Call static constructors */
    bl __libc_init_array
 8004ca2:	f003 fde7 	bl	8008874 <__libc_init_array>
/* Call the application's entry point.*/
  bl main
 8004ca6:	f7fc fbf3 	bl	8001490 <main>
  bx lr
 8004caa:	4770      	bx	lr
  ldr r0, =_sdata
 8004cac:	20000000 	.word	0x20000000
  ldr r1, =_edata
 8004cb0:	20000118 	.word	0x20000118
  ldr r2, =_sidata
 8004cb4:	08009c08 	.word	0x08009c08
  ldr r2, =_sbss
 8004cb8:	20000118 	.word	0x20000118
  ldr r4, =_ebss
 8004cbc:	20000730 	.word	0x20000730

08004cc0 <ADC1_2_IRQHandler>:
 * @retval : None
*/
    .section .text.Default_Handler,"ax",%progbits
Default_Handler:
Infinite_Loop:
  b Infinite_Loop
 8004cc0:	e7fe      	b.n	8004cc0 <ADC1_2_IRQHandler>
	...

08004cc4 <HAL_Init>:
  *         need to ensure that the SysTick time base is always set to 1 millisecond
  *         to have correct HAL operation.
  * @retval HAL status
  */
HAL_StatusTypeDef HAL_Init(void)
{
 8004cc4:	b580      	push	{r7, lr}
 8004cc6:	af00      	add	r7, sp, #0
    defined(STM32F102x6) || defined(STM32F102xB) || \
    defined(STM32F103x6) || defined(STM32F103xB) || defined(STM32F103xE) || defined(STM32F103xG) || \
    defined(STM32F105xC) || defined(STM32F107xC)

  /* Prefetch buffer is not available on value line devices */
  __HAL_FLASH_PREFETCH_BUFFER_ENABLE();
 8004cc8:	4b08      	ldr	r3, [pc, #32]	; (8004cec <HAL_Init+0x28>)
 8004cca:	681b      	ldr	r3, [r3, #0]
 8004ccc:	4a07      	ldr	r2, [pc, #28]	; (8004cec <HAL_Init+0x28>)
 8004cce:	f043 0310 	orr.w	r3, r3, #16
 8004cd2:	6013      	str	r3, [r2, #0]
#endif
#endif /* PREFETCH_ENABLE */

  /* Set Interrupt Group Priority */
  HAL_NVIC_SetPriorityGrouping(NVIC_PRIORITYGROUP_4);
 8004cd4:	2003      	movs	r0, #3
 8004cd6:	f000 f923 	bl	8004f20 <HAL_NVIC_SetPriorityGrouping>

  /* Use systick as time base source and configure 1ms tick (default clock after Reset is HSI) */
  HAL_InitTick(TICK_INT_PRIORITY);
 8004cda:	200f      	movs	r0, #15
 8004cdc:	f000 f808 	bl	8004cf0 <HAL_InitTick>

  /* Init the low level hardware */
  HAL_MspInit();
 8004ce0:	f7ff fdbe 	bl	8004860 <HAL_MspInit>

  /* Return function status */
  return HAL_OK;
 8004ce4:	2300      	movs	r3, #0
}
 8004ce6:	4618      	mov	r0, r3
 8004ce8:	bd80      	pop	{r7, pc}
 8004cea:	bf00      	nop
 8004cec:	40022000 	.word	0x40022000

08004cf0 <HAL_InitTick>:
  *       implementation  in user file.
  * @param TickPriority Tick interrupt priority.
  * @retval HAL status
  */
__weak HAL_StatusTypeDef HAL_InitTick(uint32_t TickPriority)
{
 8004cf0:	b580      	push	{r7, lr}
 8004cf2:	b082      	sub	sp, #8
 8004cf4:	af00      	add	r7, sp, #0
 8004cf6:	6078      	str	r0, [r7, #4]
  /* Configure the SysTick to have interrupt in 1ms time basis*/
  if (HAL_SYSTICK_Config(SystemCoreClock / (1000U / uwTickFreq)) > 0U)
 8004cf8:	4b12      	ldr	r3, [pc, #72]	; (8004d44 <HAL_InitTick+0x54>)
 8004cfa:	681a      	ldr	r2, [r3, #0]
 8004cfc:	4b12      	ldr	r3, [pc, #72]	; (8004d48 <HAL_InitTick+0x58>)
 8004cfe:	781b      	ldrb	r3, [r3, #0]
 8004d00:	4619      	mov	r1, r3
 8004d02:	f44f 737a 	mov.w	r3, #1000	; 0x3e8
 8004d06:	fbb3 f3f1 	udiv	r3, r3, r1
 8004d0a:	fbb2 f3f3 	udiv	r3, r2, r3
 8004d0e:	4618      	mov	r0, r3
 8004d10:	f000 f93b 	bl	8004f8a <HAL_SYSTICK_Config>
 8004d14:	4603      	mov	r3, r0
 8004d16:	2b00      	cmp	r3, #0
 8004d18:	d001      	beq.n	8004d1e <HAL_InitTick+0x2e>
  {
    return HAL_ERROR;
 8004d1a:	2301      	movs	r3, #1
 8004d1c:	e00e      	b.n	8004d3c <HAL_InitTick+0x4c>
  }

  /* Configure the SysTick IRQ priority */
  if (TickPriority < (1UL << __NVIC_PRIO_BITS))
 8004d1e:	687b      	ldr	r3, [r7, #4]
 8004d20:	2b0f      	cmp	r3, #15
 8004d22:	d80a      	bhi.n	8004d3a <HAL_InitTick+0x4a>
  {
    HAL_NVIC_SetPriority(SysTick_IRQn, TickPriority, 0U);
 8004d24:	2200      	movs	r2, #0
 8004d26:	6879      	ldr	r1, [r7, #4]
 8004d28:	f04f 30ff 	mov.w	r0, #4294967295
 8004d2c:	f000 f903 	bl	8004f36 <HAL_NVIC_SetPriority>
    uwTickPrio = TickPriority;
 8004d30:	4a06      	ldr	r2, [pc, #24]	; (8004d4c <HAL_InitTick+0x5c>)
 8004d32:	687b      	ldr	r3, [r7, #4]
 8004d34:	6013      	str	r3, [r2, #0]
  {
    return HAL_ERROR;
  }

  /* Return function status */
  return HAL_OK;
 8004d36:	2300      	movs	r3, #0
 8004d38:	e000      	b.n	8004d3c <HAL_InitTick+0x4c>
    return HAL_ERROR;
 8004d3a:	2301      	movs	r3, #1
}
 8004d3c:	4618      	mov	r0, r3
 8004d3e:	3708      	adds	r7, #8
 8004d40:	46bd      	mov	sp, r7
 8004d42:	bd80      	pop	{r7, pc}
 8004d44:	200000ac 	.word	0x200000ac
 8004d48:	200000b4 	.word	0x200000b4
 8004d4c:	200000b0 	.word	0x200000b0

08004d50 <HAL_IncTick>:
  * @note This function is declared as __weak to be overwritten in case of other
  *      implementations in user file.
  * @retval None
  */
__weak void HAL_IncTick(void)
{
 8004d50:	b480      	push	{r7}
 8004d52:	af00      	add	r7, sp, #0
  uwTick += uwTickFreq;
 8004d54:	4b05      	ldr	r3, [pc, #20]	; (8004d6c <HAL_IncTick+0x1c>)
 8004d56:	781b      	ldrb	r3, [r3, #0]
 8004d58:	461a      	mov	r2, r3
 8004d5a:	4b05      	ldr	r3, [pc, #20]	; (8004d70 <HAL_IncTick+0x20>)
 8004d5c:	681b      	ldr	r3, [r3, #0]
 8004d5e:	4413      	add	r3, r2
 8004d60:	4a03      	ldr	r2, [pc, #12]	; (8004d70 <HAL_IncTick+0x20>)
 8004d62:	6013      	str	r3, [r2, #0]
}
 8004d64:	bf00      	nop
 8004d66:	46bd      	mov	sp, r7
 8004d68:	bc80      	pop	{r7}
 8004d6a:	4770      	bx	lr
 8004d6c:	200000b4 	.word	0x200000b4
 8004d70:	200005e4 	.word	0x200005e4

08004d74 <HAL_GetTick>:
  * @note  This function is declared as __weak to be overwritten in case of other
  *       implementations in user file.
  * @retval tick value
  */
__weak uint32_t HAL_GetTick(void)
{
 8004d74:	b480      	push	{r7}
 8004d76:	af00      	add	r7, sp, #0
  return uwTick;
 8004d78:	4b02      	ldr	r3, [pc, #8]	; (8004d84 <HAL_GetTick+0x10>)
 8004d7a:	681b      	ldr	r3, [r3, #0]
}
 8004d7c:	4618      	mov	r0, r3
 8004d7e:	46bd      	mov	sp, r7
 8004d80:	bc80      	pop	{r7}
 8004d82:	4770      	bx	lr
 8004d84:	200005e4 	.word	0x200005e4

08004d88 <__NVIC_SetPriorityGrouping>:
           In case of a conflict between priority grouping and available
           priority bits (__NVIC_PRIO_BITS), the smallest possible priority group is set.
  \param [in]      PriorityGroup  Priority grouping field.
 */
__STATIC_INLINE void __NVIC_SetPriorityGrouping(uint32_t PriorityGroup)
{
 8004d88:	b480      	push	{r7}
 8004d8a:	b085      	sub	sp, #20
 8004d8c:	af00      	add	r7, sp, #0
 8004d8e:	6078      	str	r0, [r7, #4]
  uint32_t reg_value;
  uint32_t PriorityGroupTmp = (PriorityGroup & (uint32_t)0x07UL);             /* only values 0..7 are used          */
 8004d90:	687b      	ldr	r3, [r7, #4]
 8004d92:	f003 0307 	and.w	r3, r3, #7
 8004d96:	60fb      	str	r3, [r7, #12]

  reg_value  =  SCB->AIRCR;                                                   /* read old register configuration    */
 8004d98:	4b0c      	ldr	r3, [pc, #48]	; (8004dcc <__NVIC_SetPriorityGrouping+0x44>)
 8004d9a:	68db      	ldr	r3, [r3, #12]
 8004d9c:	60bb      	str	r3, [r7, #8]
  reg_value &= ~((uint32_t)(SCB_AIRCR_VECTKEY_Msk | SCB_AIRCR_PRIGROUP_Msk)); /* clear bits to change               */
 8004d9e:	68ba      	ldr	r2, [r7, #8]
 8004da0:	f64f 03ff 	movw	r3, #63743	; 0xf8ff
 8004da4:	4013      	ands	r3, r2
 8004da6:	60bb      	str	r3, [r7, #8]
  reg_value  =  (reg_value                                   |
                ((uint32_t)0x5FAUL << SCB_AIRCR_VECTKEY_Pos) |
                (PriorityGroupTmp << SCB_AIRCR_PRIGROUP_Pos) );               /* Insert write key and priority group */
 8004da8:	68fb      	ldr	r3, [r7, #12]
 8004daa:	021a      	lsls	r2, r3, #8
                ((uint32_t)0x5FAUL << SCB_AIRCR_VECTKEY_Pos) |
 8004dac:	68bb      	ldr	r3, [r7, #8]
 8004dae:	4313      	orrs	r3, r2
  reg_value  =  (reg_value                                   |
 8004db0:	f043 63bf 	orr.w	r3, r3, #100139008	; 0x5f80000
 8004db4:	f443 3300 	orr.w	r3, r3, #131072	; 0x20000
 8004db8:	60bb      	str	r3, [r7, #8]
  SCB->AIRCR =  reg_value;
 8004dba:	4a04      	ldr	r2, [pc, #16]	; (8004dcc <__NVIC_SetPriorityGrouping+0x44>)
 8004dbc:	68bb      	ldr	r3, [r7, #8]
 8004dbe:	60d3      	str	r3, [r2, #12]
}
 8004dc0:	bf00      	nop
 8004dc2:	3714      	adds	r7, #20
 8004dc4:	46bd      	mov	sp, r7
 8004dc6:	bc80      	pop	{r7}
 8004dc8:	4770      	bx	lr
 8004dca:	bf00      	nop
 8004dcc:	e000ed00 	.word	0xe000ed00

08004dd0 <__NVIC_GetPriorityGrouping>:
  \brief   Get Priority Grouping
  \details Reads the priority grouping field from the NVIC Interrupt Controller.
  \return                Priority grouping field (SCB->AIRCR [10:8] PRIGROUP field).
 */
__STATIC_INLINE uint32_t __NVIC_GetPriorityGrouping(void)
{
 8004dd0:	b480      	push	{r7}
 8004dd2:	af00      	add	r7, sp, #0
  return ((uint32_t)((SCB->AIRCR & SCB_AIRCR_PRIGROUP_Msk) >> SCB_AIRCR_PRIGROUP_Pos));
 8004dd4:	4b04      	ldr	r3, [pc, #16]	; (8004de8 <__NVIC_GetPriorityGrouping+0x18>)
 8004dd6:	68db      	ldr	r3, [r3, #12]
 8004dd8:	0a1b      	lsrs	r3, r3, #8
 8004dda:	f003 0307 	and.w	r3, r3, #7
}
 8004dde:	4618      	mov	r0, r3
 8004de0:	46bd      	mov	sp, r7
 8004de2:	bc80      	pop	{r7}
 8004de4:	4770      	bx	lr
 8004de6:	bf00      	nop
 8004de8:	e000ed00 	.word	0xe000ed00

08004dec <__NVIC_EnableIRQ>:
  \details Enables a device specific interrupt in the NVIC interrupt controller.
  \param [in]      IRQn  Device specific interrupt number.
  \note    IRQn must not be negative.
 */
__STATIC_INLINE void __NVIC_EnableIRQ(IRQn_Type IRQn)
{
 8004dec:	b480      	push	{r7}
 8004dee:	b083      	sub	sp, #12
 8004df0:	af00      	add	r7, sp, #0
 8004df2:	4603      	mov	r3, r0
 8004df4:	71fb      	strb	r3, [r7, #7]
  if ((int32_t)(IRQn) >= 0)
 8004df6:	f997 3007 	ldrsb.w	r3, [r7, #7]
 8004dfa:	2b00      	cmp	r3, #0
 8004dfc:	db0b      	blt.n	8004e16 <__NVIC_EnableIRQ+0x2a>
  {
    NVIC->ISER[(((uint32_t)IRQn) >> 5UL)] = (uint32_t)(1UL << (((uint32_t)IRQn) & 0x1FUL));
 8004dfe:	79fb      	ldrb	r3, [r7, #7]
 8004e00:	f003 021f 	and.w	r2, r3, #31
 8004e04:	4906      	ldr	r1, [pc, #24]	; (8004e20 <__NVIC_EnableIRQ+0x34>)
 8004e06:	f997 3007 	ldrsb.w	r3, [r7, #7]
 8004e0a:	095b      	lsrs	r3, r3, #5
 8004e0c:	2001      	movs	r0, #1
 8004e0e:	fa00 f202 	lsl.w	r2, r0, r2
 8004e12:	f841 2023 	str.w	r2, [r1, r3, lsl #2]
  }
}
 8004e16:	bf00      	nop
 8004e18:	370c      	adds	r7, #12
 8004e1a:	46bd      	mov	sp, r7
 8004e1c:	bc80      	pop	{r7}
 8004e1e:	4770      	bx	lr
 8004e20:	e000e100 	.word	0xe000e100

08004e24 <__NVIC_SetPriority>:
  \param [in]      IRQn  Interrupt number.
  \param [in]  priority  Priority to set.
  \note    The priority cannot be set for every processor exception.
 */
__STATIC_INLINE void __NVIC_SetPriority(IRQn_Type IRQn, uint32_t priority)
{
 8004e24:	b480      	push	{r7}
 8004e26:	b083      	sub	sp, #12
 8004e28:	af00      	add	r7, sp, #0
 8004e2a:	4603      	mov	r3, r0
 8004e2c:	6039      	str	r1, [r7, #0]
 8004e2e:	71fb      	strb	r3, [r7, #7]
  if ((int32_t)(IRQn) >= 0)
 8004e30:	f997 3007 	ldrsb.w	r3, [r7, #7]
 8004e34:	2b00      	cmp	r3, #0
 8004e36:	db0a      	blt.n	8004e4e <__NVIC_SetPriority+0x2a>
  {
    NVIC->IP[((uint32_t)IRQn)]               = (uint8_t)((priority << (8U - __NVIC_PRIO_BITS)) & (uint32_t)0xFFUL);
 8004e38:	683b      	ldr	r3, [r7, #0]
 8004e3a:	b2da      	uxtb	r2, r3
 8004e3c:	490c      	ldr	r1, [pc, #48]	; (8004e70 <__NVIC_SetPriority+0x4c>)
 8004e3e:	f997 3007 	ldrsb.w	r3, [r7, #7]
 8004e42:	0112      	lsls	r2, r2, #4
 8004e44:	b2d2      	uxtb	r2, r2
 8004e46:	440b      	add	r3, r1
 8004e48:	f883 2300 	strb.w	r2, [r3, #768]	; 0x300
  }
  else
  {
    SCB->SHP[(((uint32_t)IRQn) & 0xFUL)-4UL] = (uint8_t)((priority << (8U - __NVIC_PRIO_BITS)) & (uint32_t)0xFFUL);
  }
}
 8004e4c:	e00a      	b.n	8004e64 <__NVIC_SetPriority+0x40>
    SCB->SHP[(((uint32_t)IRQn) & 0xFUL)-4UL] = (uint8_t)((priority << (8U - __NVIC_PRIO_BITS)) & (uint32_t)0xFFUL);
 8004e4e:	683b      	ldr	r3, [r7, #0]
 8004e50:	b2da      	uxtb	r2, r3
 8004e52:	4908      	ldr	r1, [pc, #32]	; (8004e74 <__NVIC_SetPriority+0x50>)
 8004e54:	79fb      	ldrb	r3, [r7, #7]
 8004e56:	f003 030f 	and.w	r3, r3, #15
 8004e5a:	3b04      	subs	r3, #4
 8004e5c:	0112      	lsls	r2, r2, #4
 8004e5e:	b2d2      	uxtb	r2, r2
 8004e60:	440b      	add	r3, r1
 8004e62:	761a      	strb	r2, [r3, #24]
}
 8004e64:	bf00      	nop
 8004e66:	370c      	adds	r7, #12
 8004e68:	46bd      	mov	sp, r7
 8004e6a:	bc80      	pop	{r7}
 8004e6c:	4770      	bx	lr
 8004e6e:	bf00      	nop
 8004e70:	e000e100 	.word	0xe000e100
 8004e74:	e000ed00 	.word	0xe000ed00

08004e78 <NVIC_EncodePriority>:
  \param [in]   PreemptPriority  Preemptive priority value (starting from 0).
  \param [in]       SubPriority  Subpriority value (starting from 0).
  \return                        Encoded priority. Value can be used in the function \ref NVIC_SetPriority().
 */
__STATIC_INLINE uint32_t NVIC_EncodePriority (uint32_t PriorityGroup, uint32_t PreemptPriority, uint32_t SubPriority)
{
 8004e78:	b480      	push	{r7}
 8004e7a:	b089      	sub	sp, #36	; 0x24
 8004e7c:	af00      	add	r7, sp, #0
 8004e7e:	60f8      	str	r0, [r7, #12]
 8004e80:	60b9      	str	r1, [r7, #8]
 8004e82:	607a      	str	r2, [r7, #4]
  uint32_t PriorityGroupTmp = (PriorityGroup & (uint32_t)0x07UL);   /* only values 0..7 are used          */
 8004e84:	68fb      	ldr	r3, [r7, #12]
 8004e86:	f003 0307 	and.w	r3, r3, #7
 8004e8a:	61fb      	str	r3, [r7, #28]
  uint32_t PreemptPriorityBits;
  uint32_t SubPriorityBits;

  PreemptPriorityBits = ((7UL - PriorityGroupTmp) > (uint32_t)(__NVIC_PRIO_BITS)) ? (uint32_t)(__NVIC_PRIO_BITS) : (uint32_t)(7UL - PriorityGroupTmp);
 8004e8c:	69fb      	ldr	r3, [r7, #28]
 8004e8e:	f1c3 0307 	rsb	r3, r3, #7
 8004e92:	2b04      	cmp	r3, #4
 8004e94:	bf28      	it	cs
 8004e96:	2304      	movcs	r3, #4
 8004e98:	61bb      	str	r3, [r7, #24]
  SubPriorityBits     = ((PriorityGroupTmp + (uint32_t)(__NVIC_PRIO_BITS)) < (uint32_t)7UL) ? (uint32_t)0UL : (uint32_t)((PriorityGroupTmp - 7UL) + (uint32_t)(__NVIC_PRIO_BITS));
 8004e9a:	69fb      	ldr	r3, [r7, #28]
 8004e9c:	3304      	adds	r3, #4
 8004e9e:	2b06      	cmp	r3, #6
 8004ea0:	d902      	bls.n	8004ea8 <NVIC_EncodePriority+0x30>
 8004ea2:	69fb      	ldr	r3, [r7, #28]
 8004ea4:	3b03      	subs	r3, #3
 8004ea6:	e000      	b.n	8004eaa <NVIC_EncodePriority+0x32>
 8004ea8:	2300      	movs	r3, #0
 8004eaa:	617b      	str	r3, [r7, #20]

  return (
           ((PreemptPriority & (uint32_t)((1UL << (PreemptPriorityBits)) - 1UL)) << SubPriorityBits) |
 8004eac:	f04f 32ff 	mov.w	r2, #4294967295
 8004eb0:	69bb      	ldr	r3, [r7, #24]
 8004eb2:	fa02 f303 	lsl.w	r3, r2, r3
 8004eb6:	43da      	mvns	r2, r3
 8004eb8:	68bb      	ldr	r3, [r7, #8]
 8004eba:	401a      	ands	r2, r3
 8004ebc:	697b      	ldr	r3, [r7, #20]
 8004ebe:	409a      	lsls	r2, r3
           ((SubPriority     & (uint32_t)((1UL << (SubPriorityBits    )) - 1UL)))
 8004ec0:	f04f 31ff 	mov.w	r1, #4294967295
 8004ec4:	697b      	ldr	r3, [r7, #20]
 8004ec6:	fa01 f303 	lsl.w	r3, r1, r3
 8004eca:	43d9      	mvns	r1, r3
 8004ecc:	687b      	ldr	r3, [r7, #4]
 8004ece:	400b      	ands	r3, r1
           ((PreemptPriority & (uint32_t)((1UL << (PreemptPriorityBits)) - 1UL)) << SubPriorityBits) |
 8004ed0:	4313      	orrs	r3, r2
         );
}
 8004ed2:	4618      	mov	r0, r3
 8004ed4:	3724      	adds	r7, #36	; 0x24
 8004ed6:	46bd      	mov	sp, r7
 8004ed8:	bc80      	pop	{r7}
 8004eda:	4770      	bx	lr

08004edc <SysTick_Config>:
  \note    When the variable <b>__Vendor_SysTickConfig</b> is set to 1, then the
           function <b>SysTick_Config</b> is not included. In this case, the file <b><i>device</i>.h</b>
           must contain a vendor-specific implementation of this function.
 */
__STATIC_INLINE uint32_t SysTick_Config(uint32_t ticks)
{
 8004edc:	b580      	push	{r7, lr}
 8004ede:	b082      	sub	sp, #8
 8004ee0:	af00      	add	r7, sp, #0
 8004ee2:	6078      	str	r0, [r7, #4]
  if ((ticks - 1UL) > SysTick_LOAD_RELOAD_Msk)
 8004ee4:	687b      	ldr	r3, [r7, #4]
 8004ee6:	3b01      	subs	r3, #1
 8004ee8:	f1b3 7f80 	cmp.w	r3, #16777216	; 0x1000000
 8004eec:	d301      	bcc.n	8004ef2 <SysTick_Config+0x16>
  {
    return (1UL);                                                   /* Reload value impossible */
 8004eee:	2301      	movs	r3, #1
 8004ef0:	e00f      	b.n	8004f12 <SysTick_Config+0x36>
  }

  SysTick->LOAD  = (uint32_t)(ticks - 1UL);                         /* set reload register */
 8004ef2:	4a0a      	ldr	r2, [pc, #40]	; (8004f1c <SysTick_Config+0x40>)
 8004ef4:	687b      	ldr	r3, [r7, #4]
 8004ef6:	3b01      	subs	r3, #1
 8004ef8:	6053      	str	r3, [r2, #4]
  NVIC_SetPriority (SysTick_IRQn, (1UL << __NVIC_PRIO_BITS) - 1UL); /* set Priority for Systick Interrupt */
 8004efa:	210f      	movs	r1, #15
 8004efc:	f04f 30ff 	mov.w	r0, #4294967295
 8004f00:	f7ff ff90 	bl	8004e24 <__NVIC_SetPriority>
  SysTick->VAL   = 0UL;                                             /* Load the SysTick Counter Value */
 8004f04:	4b05      	ldr	r3, [pc, #20]	; (8004f1c <SysTick_Config+0x40>)
 8004f06:	2200      	movs	r2, #0
 8004f08:	609a      	str	r2, [r3, #8]
  SysTick->CTRL  = SysTick_CTRL_CLKSOURCE_Msk |
 8004f0a:	4b04      	ldr	r3, [pc, #16]	; (8004f1c <SysTick_Config+0x40>)
 8004f0c:	2207      	movs	r2, #7
 8004f0e:	601a      	str	r2, [r3, #0]
                   SysTick_CTRL_TICKINT_Msk   |
                   SysTick_CTRL_ENABLE_Msk;                         /* Enable SysTick IRQ and SysTick Timer */
  return (0UL);                                                     /* Function successful */
 8004f10:	2300      	movs	r3, #0
}
 8004f12:	4618      	mov	r0, r3
 8004f14:	3708      	adds	r7, #8
 8004f16:	46bd      	mov	sp, r7
 8004f18:	bd80      	pop	{r7, pc}
 8004f1a:	bf00      	nop
 8004f1c:	e000e010 	.word	0xe000e010

08004f20 <HAL_NVIC_SetPriorityGrouping>:
  * @note   When the NVIC_PriorityGroup_0 is selected, IRQ preemption is no more possible. 
  *         The pending IRQ priority will be managed only by the subpriority. 
  * @retval None
  */
void HAL_NVIC_SetPriorityGrouping(uint32_t PriorityGroup)
{
 8004f20:	b580      	push	{r7, lr}
 8004f22:	b082      	sub	sp, #8
 8004f24:	af00      	add	r7, sp, #0
 8004f26:	6078      	str	r0, [r7, #4]
  /* Check the parameters */
  assert_param(IS_NVIC_PRIORITY_GROUP(PriorityGroup));
  
  /* Set the PRIGROUP[10:8] bits according to the PriorityGroup parameter value */
  NVIC_SetPriorityGrouping(PriorityGroup);
 8004f28:	6878      	ldr	r0, [r7, #4]
 8004f2a:	f7ff ff2d 	bl	8004d88 <__NVIC_SetPriorityGrouping>
}
 8004f2e:	bf00      	nop
 8004f30:	3708      	adds	r7, #8
 8004f32:	46bd      	mov	sp, r7
 8004f34:	bd80      	pop	{r7, pc}

08004f36 <HAL_NVIC_SetPriority>:
  *         This parameter can be a value between 0 and 15
  *         A lower priority value indicates a higher priority.          
  * @retval None
  */
void HAL_NVIC_SetPriority(IRQn_Type IRQn, uint32_t PreemptPriority, uint32_t SubPriority)
{ 
 8004f36:	b580      	push	{r7, lr}
 8004f38:	b086      	sub	sp, #24
 8004f3a:	af00      	add	r7, sp, #0
 8004f3c:	4603      	mov	r3, r0
 8004f3e:	60b9      	str	r1, [r7, #8]
 8004f40:	607a      	str	r2, [r7, #4]
 8004f42:	73fb      	strb	r3, [r7, #15]
  uint32_t prioritygroup = 0x00U;
 8004f44:	2300      	movs	r3, #0
 8004f46:	617b      	str	r3, [r7, #20]
  
  /* Check the parameters */
  assert_param(IS_NVIC_SUB_PRIORITY(SubPriority));
  assert_param(IS_NVIC_PREEMPTION_PRIORITY(PreemptPriority));
  
  prioritygroup = NVIC_GetPriorityGrouping();
 8004f48:	f7ff ff42 	bl	8004dd0 <__NVIC_GetPriorityGrouping>
 8004f4c:	6178      	str	r0, [r7, #20]
  
  NVIC_SetPriority(IRQn, NVIC_EncodePriority(prioritygroup, PreemptPriority, SubPriority));
 8004f4e:	687a      	ldr	r2, [r7, #4]
 8004f50:	68b9      	ldr	r1, [r7, #8]
 8004f52:	6978      	ldr	r0, [r7, #20]
 8004f54:	f7ff ff90 	bl	8004e78 <NVIC_EncodePriority>
 8004f58:	4602      	mov	r2, r0
 8004f5a:	f997 300f 	ldrsb.w	r3, [r7, #15]
 8004f5e:	4611      	mov	r1, r2
 8004f60:	4618      	mov	r0, r3
 8004f62:	f7ff ff5f 	bl	8004e24 <__NVIC_SetPriority>
}
 8004f66:	bf00      	nop
 8004f68:	3718      	adds	r7, #24
 8004f6a:	46bd      	mov	sp, r7
 8004f6c:	bd80      	pop	{r7, pc}

08004f6e <HAL_NVIC_EnableIRQ>:
  *         This parameter can be an enumerator of IRQn_Type enumeration
  *         (For the complete STM32 Devices IRQ Channels list, please refer to the appropriate CMSIS device file (stm32f10xxx.h))
  * @retval None
  */
void HAL_NVIC_EnableIRQ(IRQn_Type IRQn)
{
 8004f6e:	b580      	push	{r7, lr}
 8004f70:	b082      	sub	sp, #8
 8004f72:	af00      	add	r7, sp, #0
 8004f74:	4603      	mov	r3, r0
 8004f76:	71fb      	strb	r3, [r7, #7]
  /* Check the parameters */
  assert_param(IS_NVIC_DEVICE_IRQ(IRQn));

  /* Enable interrupt */
  NVIC_EnableIRQ(IRQn);
 8004f78:	f997 3007 	ldrsb.w	r3, [r7, #7]
 8004f7c:	4618      	mov	r0, r3
 8004f7e:	f7ff ff35 	bl	8004dec <__NVIC_EnableIRQ>
}
 8004f82:	bf00      	nop
 8004f84:	3708      	adds	r7, #8
 8004f86:	46bd      	mov	sp, r7
 8004f88:	bd80      	pop	{r7, pc}

08004f8a <HAL_SYSTICK_Config>:
  * @param  TicksNumb: Specifies the ticks Number of ticks between two interrupts.
  * @retval status:  - 0  Function succeeded.
  *                  - 1  Function failed.
  */
uint32_t HAL_SYSTICK_Config(uint32_t TicksNumb)
{
 8004f8a:	b580      	push	{r7, lr}
 8004f8c:	b082      	sub	sp, #8
 8004f8e:	af00      	add	r7, sp, #0
 8004f90:	6078      	str	r0, [r7, #4]
   return SysTick_Config(TicksNumb);
 8004f92:	6878      	ldr	r0, [r7, #4]
 8004f94:	f7ff ffa2 	bl	8004edc <SysTick_Config>
 8004f98:	4603      	mov	r3, r0
}
 8004f9a:	4618      	mov	r0, r3
 8004f9c:	3708      	adds	r7, #8
 8004f9e:	46bd      	mov	sp, r7
 8004fa0:	bd80      	pop	{r7, pc}

08004fa2 <HAL_DMA_Abort>:
  * @param  hdma: pointer to a DMA_HandleTypeDef structure that contains
  *               the configuration information for the specified DMA Channel.
  * @retval HAL status
  */
HAL_StatusTypeDef HAL_DMA_Abort(DMA_HandleTypeDef *hdma)
{
 8004fa2:	b480      	push	{r7}
 8004fa4:	b085      	sub	sp, #20
 8004fa6:	af00      	add	r7, sp, #0
 8004fa8:	6078      	str	r0, [r7, #4]
  HAL_StatusTypeDef status = HAL_OK;
 8004faa:	2300      	movs	r3, #0
 8004fac:	73fb      	strb	r3, [r7, #15]
  
  if(hdma->State != HAL_DMA_STATE_BUSY)
 8004fae:	687b      	ldr	r3, [r7, #4]
 8004fb0:	f893 3021 	ldrb.w	r3, [r3, #33]	; 0x21
 8004fb4:	b2db      	uxtb	r3, r3
 8004fb6:	2b02      	cmp	r3, #2
 8004fb8:	d008      	beq.n	8004fcc <HAL_DMA_Abort+0x2a>
  {
    /* no transfer ongoing */
    hdma->ErrorCode = HAL_DMA_ERROR_NO_XFER;
 8004fba:	687b      	ldr	r3, [r7, #4]
 8004fbc:	2204      	movs	r2, #4
 8004fbe:	639a      	str	r2, [r3, #56]	; 0x38
    
    /* Process Unlocked */
    __HAL_UNLOCK(hdma);
 8004fc0:	687b      	ldr	r3, [r7, #4]
 8004fc2:	2200      	movs	r2, #0
 8004fc4:	f883 2020 	strb.w	r2, [r3, #32]
    
    return HAL_ERROR;
 8004fc8:	2301      	movs	r3, #1
 8004fca:	e020      	b.n	800500e <HAL_DMA_Abort+0x6c>
  }
  else

  {
    /* Disable DMA IT */
    __HAL_DMA_DISABLE_IT(hdma, (DMA_IT_TC | DMA_IT_HT | DMA_IT_TE));
 8004fcc:	687b      	ldr	r3, [r7, #4]
 8004fce:	681b      	ldr	r3, [r3, #0]
 8004fd0:	681a      	ldr	r2, [r3, #0]
 8004fd2:	687b      	ldr	r3, [r7, #4]
 8004fd4:	681b      	ldr	r3, [r3, #0]
 8004fd6:	f022 020e 	bic.w	r2, r2, #14
 8004fda:	601a      	str	r2, [r3, #0]
      
    /* Disable the channel */
    __HAL_DMA_DISABLE(hdma);
 8004fdc:	687b      	ldr	r3, [r7, #4]
 8004fde:	681b      	ldr	r3, [r3, #0]
 8004fe0:	681a      	ldr	r2, [r3, #0]
 8004fe2:	687b      	ldr	r3, [r7, #4]
 8004fe4:	681b      	ldr	r3, [r3, #0]
 8004fe6:	f022 0201 	bic.w	r2, r2, #1
 8004fea:	601a      	str	r2, [r3, #0]
      
    /* Clear all flags */
    hdma->DmaBaseAddress->IFCR = (DMA_ISR_GIF1 << hdma->ChannelIndex);
 8004fec:	687b      	ldr	r3, [r7, #4]
 8004fee:	6c1a      	ldr	r2, [r3, #64]	; 0x40
 8004ff0:	687b      	ldr	r3, [r7, #4]
 8004ff2:	6bdb      	ldr	r3, [r3, #60]	; 0x3c
 8004ff4:	2101      	movs	r1, #1
 8004ff6:	fa01 f202 	lsl.w	r2, r1, r2
 8004ffa:	605a      	str	r2, [r3, #4]
  }
  /* Change the DMA state */
  hdma->State = HAL_DMA_STATE_READY;
 8004ffc:	687b      	ldr	r3, [r7, #4]
 8004ffe:	2201      	movs	r2, #1
 8005000:	f883 2021 	strb.w	r2, [r3, #33]	; 0x21

  /* Process Unlocked */
  __HAL_UNLOCK(hdma);      
 8005004:	687b      	ldr	r3, [r7, #4]
 8005006:	2200      	movs	r2, #0
 8005008:	f883 2020 	strb.w	r2, [r3, #32]
  
  return status; 
 800500c:	7bfb      	ldrb	r3, [r7, #15]
}
 800500e:	4618      	mov	r0, r3
 8005010:	3714      	adds	r7, #20
 8005012:	46bd      	mov	sp, r7
 8005014:	bc80      	pop	{r7}
 8005016:	4770      	bx	lr

08005018 <HAL_DMA_Abort_IT>:
  * @param  hdma  : pointer to a DMA_HandleTypeDef structure that contains
  *                 the configuration information for the specified DMA Channel.
  * @retval HAL status
  */
HAL_StatusTypeDef HAL_DMA_Abort_IT(DMA_HandleTypeDef *hdma)
{  
 8005018:	b580      	push	{r7, lr}
 800501a:	b084      	sub	sp, #16
 800501c:	af00      	add	r7, sp, #0
 800501e:	6078      	str	r0, [r7, #4]
  HAL_StatusTypeDef status = HAL_OK;
 8005020:	2300      	movs	r3, #0
 8005022:	73fb      	strb	r3, [r7, #15]
  
  if(HAL_DMA_STATE_BUSY != hdma->State)
 8005024:	687b      	ldr	r3, [r7, #4]
 8005026:	f893 3021 	ldrb.w	r3, [r3, #33]	; 0x21
 800502a:	b2db      	uxtb	r3, r3
 800502c:	2b02      	cmp	r3, #2
 800502e:	d005      	beq.n	800503c <HAL_DMA_Abort_IT+0x24>
  {
    /* no transfer ongoing */
    hdma->ErrorCode = HAL_DMA_ERROR_NO_XFER;
 8005030:	687b      	ldr	r3, [r7, #4]
 8005032:	2204      	movs	r2, #4
 8005034:	639a      	str	r2, [r3, #56]	; 0x38
        
    status = HAL_ERROR;
 8005036:	2301      	movs	r3, #1
 8005038:	73fb      	strb	r3, [r7, #15]
 800503a:	e051      	b.n	80050e0 <HAL_DMA_Abort_IT+0xc8>
  }
  else
  { 
    /* Disable DMA IT */
    __HAL_DMA_DISABLE_IT(hdma, (DMA_IT_TC | DMA_IT_HT | DMA_IT_TE));
 800503c:	687b      	ldr	r3, [r7, #4]
 800503e:	681b      	ldr	r3, [r3, #0]
 8005040:	681a      	ldr	r2, [r3, #0]
 8005042:	687b      	ldr	r3, [r7, #4]
 8005044:	681b      	ldr	r3, [r3, #0]
 8005046:	f022 020e 	bic.w	r2, r2, #14
 800504a:	601a      	str	r2, [r3, #0]

    /* Disable the channel */
    __HAL_DMA_DISABLE(hdma);
 800504c:	687b      	ldr	r3, [r7, #4]
 800504e:	681b      	ldr	r3, [r3, #0]
 8005050:	681a      	ldr	r2, [r3, #0]
 8005052:	687b      	ldr	r3, [r7, #4]
 8005054:	681b      	ldr	r3, [r3, #0]
 8005056:	f022 0201 	bic.w	r2, r2, #1
 800505a:	601a      	str	r2, [r3, #0]

    /* Clear all flags */
    __HAL_DMA_CLEAR_FLAG(hdma, __HAL_DMA_GET_GI_FLAG_INDEX(hdma));
 800505c:	687b      	ldr	r3, [r7, #4]
 800505e:	681b      	ldr	r3, [r3, #0]
 8005060:	4a22      	ldr	r2, [pc, #136]	; (80050ec <HAL_DMA_Abort_IT+0xd4>)
 8005062:	4293      	cmp	r3, r2
 8005064:	d029      	beq.n	80050ba <HAL_DMA_Abort_IT+0xa2>
 8005066:	687b      	ldr	r3, [r7, #4]
 8005068:	681b      	ldr	r3, [r3, #0]
 800506a:	4a21      	ldr	r2, [pc, #132]	; (80050f0 <HAL_DMA_Abort_IT+0xd8>)
 800506c:	4293      	cmp	r3, r2
 800506e:	d022      	beq.n	80050b6 <HAL_DMA_Abort_IT+0x9e>
 8005070:	687b      	ldr	r3, [r7, #4]
 8005072:	681b      	ldr	r3, [r3, #0]
 8005074:	4a1f      	ldr	r2, [pc, #124]	; (80050f4 <HAL_DMA_Abort_IT+0xdc>)
 8005076:	4293      	cmp	r3, r2
 8005078:	d01a      	beq.n	80050b0 <HAL_DMA_Abort_IT+0x98>
 800507a:	687b      	ldr	r3, [r7, #4]
 800507c:	681b      	ldr	r3, [r3, #0]
 800507e:	4a1e      	ldr	r2, [pc, #120]	; (80050f8 <HAL_DMA_Abort_IT+0xe0>)
 8005080:	4293      	cmp	r3, r2
 8005082:	d012      	beq.n	80050aa <HAL_DMA_Abort_IT+0x92>
 8005084:	687b      	ldr	r3, [r7, #4]
 8005086:	681b      	ldr	r3, [r3, #0]
 8005088:	4a1c      	ldr	r2, [pc, #112]	; (80050fc <HAL_DMA_Abort_IT+0xe4>)
 800508a:	4293      	cmp	r3, r2
 800508c:	d00a      	beq.n	80050a4 <HAL_DMA_Abort_IT+0x8c>
 800508e:	687b      	ldr	r3, [r7, #4]
 8005090:	681b      	ldr	r3, [r3, #0]
 8005092:	4a1b      	ldr	r2, [pc, #108]	; (8005100 <HAL_DMA_Abort_IT+0xe8>)
 8005094:	4293      	cmp	r3, r2
 8005096:	d102      	bne.n	800509e <HAL_DMA_Abort_IT+0x86>
 8005098:	f44f 1380 	mov.w	r3, #1048576	; 0x100000
 800509c:	e00e      	b.n	80050bc <HAL_DMA_Abort_IT+0xa4>
 800509e:	f04f 7380 	mov.w	r3, #16777216	; 0x1000000
 80050a2:	e00b      	b.n	80050bc <HAL_DMA_Abort_IT+0xa4>
 80050a4:	f44f 3380 	mov.w	r3, #65536	; 0x10000
 80050a8:	e008      	b.n	80050bc <HAL_DMA_Abort_IT+0xa4>
 80050aa:	f44f 5380 	mov.w	r3, #4096	; 0x1000
 80050ae:	e005      	b.n	80050bc <HAL_DMA_Abort_IT+0xa4>
 80050b0:	f44f 7380 	mov.w	r3, #256	; 0x100
 80050b4:	e002      	b.n	80050bc <HAL_DMA_Abort_IT+0xa4>
 80050b6:	2310      	movs	r3, #16
 80050b8:	e000      	b.n	80050bc <HAL_DMA_Abort_IT+0xa4>
 80050ba:	2301      	movs	r3, #1
 80050bc:	4a11      	ldr	r2, [pc, #68]	; (8005104 <HAL_DMA_Abort_IT+0xec>)
 80050be:	6053      	str	r3, [r2, #4]

    /* Change the DMA state */
    hdma->State = HAL_DMA_STATE_READY;
 80050c0:	687b      	ldr	r3, [r7, #4]
 80050c2:	2201      	movs	r2, #1
 80050c4:	f883 2021 	strb.w	r2, [r3, #33]	; 0x21

    /* Process Unlocked */
    __HAL_UNLOCK(hdma);
 80050c8:	687b      	ldr	r3, [r7, #4]
 80050ca:	2200      	movs	r2, #0
 80050cc:	f883 2020 	strb.w	r2, [r3, #32]

    /* Call User Abort callback */
    if(hdma->XferAbortCallback != NULL)
 80050d0:	687b      	ldr	r3, [r7, #4]
 80050d2:	6b5b      	ldr	r3, [r3, #52]	; 0x34
 80050d4:	2b00      	cmp	r3, #0
 80050d6:	d003      	beq.n	80050e0 <HAL_DMA_Abort_IT+0xc8>
    {
      hdma->XferAbortCallback(hdma);
 80050d8:	687b      	ldr	r3, [r7, #4]
 80050da:	6b5b      	ldr	r3, [r3, #52]	; 0x34
 80050dc:	6878      	ldr	r0, [r7, #4]
 80050de:	4798      	blx	r3
    } 
  }
  return status;
 80050e0:	7bfb      	ldrb	r3, [r7, #15]
}
 80050e2:	4618      	mov	r0, r3
 80050e4:	3710      	adds	r7, #16
 80050e6:	46bd      	mov	sp, r7
 80050e8:	bd80      	pop	{r7, pc}
 80050ea:	bf00      	nop
 80050ec:	40020008 	.word	0x40020008
 80050f0:	4002001c 	.word	0x4002001c
 80050f4:	40020030 	.word	0x40020030
 80050f8:	40020044 	.word	0x40020044
 80050fc:	40020058 	.word	0x40020058
 8005100:	4002006c 	.word	0x4002006c
 8005104:	40020000 	.word	0x40020000

08005108 <HAL_GPIO_Init>:
  * @param  GPIO_Init: pointer to a GPIO_InitTypeDef structure that contains
  *         the configuration information for the specified GPIO peripheral.
  * @retval None
  */
void HAL_GPIO_Init(GPIO_TypeDef  *GPIOx, GPIO_InitTypeDef *GPIO_Init)
{
 8005108:	b480      	push	{r7}
 800510a:	b08b      	sub	sp, #44	; 0x2c
 800510c:	af00      	add	r7, sp, #0
 800510e:	6078      	str	r0, [r7, #4]
 8005110:	6039      	str	r1, [r7, #0]
  uint32_t position = 0x00u;
 8005112:	2300      	movs	r3, #0
 8005114:	627b      	str	r3, [r7, #36]	; 0x24
  uint32_t ioposition;
  uint32_t iocurrent;
  uint32_t temp;
  uint32_t config = 0x00u;
 8005116:	2300      	movs	r3, #0
 8005118:	623b      	str	r3, [r7, #32]
  assert_param(IS_GPIO_ALL_INSTANCE(GPIOx));
  assert_param(IS_GPIO_PIN(GPIO_Init->Pin));
  assert_param(IS_GPIO_MODE(GPIO_Init->Mode));

  /* Configure the port pins */
  while (((GPIO_Init->Pin) >> position) != 0x00u)
 800511a:	e169      	b.n	80053f0 <HAL_GPIO_Init+0x2e8>
  {
    /* Get the IO position */
    ioposition = (0x01uL << position);
 800511c:	2201      	movs	r2, #1
 800511e:	6a7b      	ldr	r3, [r7, #36]	; 0x24
 8005120:	fa02 f303 	lsl.w	r3, r2, r3
 8005124:	61fb      	str	r3, [r7, #28]

    /* Get the current IO position */
    iocurrent = (uint32_t)(GPIO_Init->Pin) & ioposition;
 8005126:	683b      	ldr	r3, [r7, #0]
 8005128:	681b      	ldr	r3, [r3, #0]
 800512a:	69fa      	ldr	r2, [r7, #28]
 800512c:	4013      	ands	r3, r2
 800512e:	61bb      	str	r3, [r7, #24]

    if (iocurrent == ioposition)
 8005130:	69ba      	ldr	r2, [r7, #24]
 8005132:	69fb      	ldr	r3, [r7, #28]
 8005134:	429a      	cmp	r2, r3
 8005136:	f040 8158 	bne.w	80053ea <HAL_GPIO_Init+0x2e2>
    {
      /* Check the Alternate function parameters */
      assert_param(IS_GPIO_AF_INSTANCE(GPIOx));

      /* Based on the required mode, filling config variable with MODEy[1:0] and CNFy[3:2] corresponding bits */
      switch (GPIO_Init->Mode)
 800513a:	683b      	ldr	r3, [r7, #0]
 800513c:	685b      	ldr	r3, [r3, #4]
 800513e:	4a9a      	ldr	r2, [pc, #616]	; (80053a8 <HAL_GPIO_Init+0x2a0>)
 8005140:	4293      	cmp	r3, r2
 8005142:	d05e      	beq.n	8005202 <HAL_GPIO_Init+0xfa>
 8005144:	4a98      	ldr	r2, [pc, #608]	; (80053a8 <HAL_GPIO_Init+0x2a0>)
 8005146:	4293      	cmp	r3, r2
 8005148:	d875      	bhi.n	8005236 <HAL_GPIO_Init+0x12e>
 800514a:	4a98      	ldr	r2, [pc, #608]	; (80053ac <HAL_GPIO_Init+0x2a4>)
 800514c:	4293      	cmp	r3, r2
 800514e:	d058      	beq.n	8005202 <HAL_GPIO_Init+0xfa>
 8005150:	4a96      	ldr	r2, [pc, #600]	; (80053ac <HAL_GPIO_Init+0x2a4>)
 8005152:	4293      	cmp	r3, r2
 8005154:	d86f      	bhi.n	8005236 <HAL_GPIO_Init+0x12e>
 8005156:	4a96      	ldr	r2, [pc, #600]	; (80053b0 <HAL_GPIO_Init+0x2a8>)
 8005158:	4293      	cmp	r3, r2
 800515a:	d052      	beq.n	8005202 <HAL_GPIO_Init+0xfa>
 800515c:	4a94      	ldr	r2, [pc, #592]	; (80053b0 <HAL_GPIO_Init+0x2a8>)
 800515e:	4293      	cmp	r3, r2
 8005160:	d869      	bhi.n	8005236 <HAL_GPIO_Init+0x12e>
 8005162:	4a94      	ldr	r2, [pc, #592]	; (80053b4 <HAL_GPIO_Init+0x2ac>)
 8005164:	4293      	cmp	r3, r2
 8005166:	d04c      	beq.n	8005202 <HAL_GPIO_Init+0xfa>
 8005168:	4a92      	ldr	r2, [pc, #584]	; (80053b4 <HAL_GPIO_Init+0x2ac>)
 800516a:	4293      	cmp	r3, r2
 800516c:	d863      	bhi.n	8005236 <HAL_GPIO_Init+0x12e>
 800516e:	4a92      	ldr	r2, [pc, #584]	; (80053b8 <HAL_GPIO_Init+0x2b0>)
 8005170:	4293      	cmp	r3, r2
 8005172:	d046      	beq.n	8005202 <HAL_GPIO_Init+0xfa>
 8005174:	4a90      	ldr	r2, [pc, #576]	; (80053b8 <HAL_GPIO_Init+0x2b0>)
 8005176:	4293      	cmp	r3, r2
 8005178:	d85d      	bhi.n	8005236 <HAL_GPIO_Init+0x12e>
 800517a:	2b12      	cmp	r3, #18
 800517c:	d82a      	bhi.n	80051d4 <HAL_GPIO_Init+0xcc>
 800517e:	2b12      	cmp	r3, #18
 8005180:	d859      	bhi.n	8005236 <HAL_GPIO_Init+0x12e>
 8005182:	a201      	add	r2, pc, #4	; (adr r2, 8005188 <HAL_GPIO_Init+0x80>)
 8005184:	f852 f023 	ldr.w	pc, [r2, r3, lsl #2]
 8005188:	08005203 	.word	0x08005203
 800518c:	080051dd 	.word	0x080051dd
 8005190:	080051ef 	.word	0x080051ef
 8005194:	08005231 	.word	0x08005231
 8005198:	08005237 	.word	0x08005237
 800519c:	08005237 	.word	0x08005237
 80051a0:	08005237 	.word	0x08005237
 80051a4:	08005237 	.word	0x08005237
 80051a8:	08005237 	.word	0x08005237
 80051ac:	08005237 	.word	0x08005237
 80051b0:	08005237 	.word	0x08005237
 80051b4:	08005237 	.word	0x08005237
 80051b8:	08005237 	.word	0x08005237
 80051bc:	08005237 	.word	0x08005237
 80051c0:	08005237 	.word	0x08005237
 80051c4:	08005237 	.word	0x08005237
 80051c8:	08005237 	.word	0x08005237
 80051cc:	080051e5 	.word	0x080051e5
 80051d0:	080051f9 	.word	0x080051f9
 80051d4:	4a79      	ldr	r2, [pc, #484]	; (80053bc <HAL_GPIO_Init+0x2b4>)
 80051d6:	4293      	cmp	r3, r2
 80051d8:	d013      	beq.n	8005202 <HAL_GPIO_Init+0xfa>
          config = GPIO_CR_MODE_INPUT + GPIO_CR_CNF_ANALOG;
          break;

        /* Parameters are checked with assert_param */
        default:
          break;
 80051da:	e02c      	b.n	8005236 <HAL_GPIO_Init+0x12e>
          config = GPIO_Init->Speed + GPIO_CR_CNF_GP_OUTPUT_PP;
 80051dc:	683b      	ldr	r3, [r7, #0]
 80051de:	68db      	ldr	r3, [r3, #12]
 80051e0:	623b      	str	r3, [r7, #32]
          break;
 80051e2:	e029      	b.n	8005238 <HAL_GPIO_Init+0x130>
          config = GPIO_Init->Speed + GPIO_CR_CNF_GP_OUTPUT_OD;
 80051e4:	683b      	ldr	r3, [r7, #0]
 80051e6:	68db      	ldr	r3, [r3, #12]
 80051e8:	3304      	adds	r3, #4
 80051ea:	623b      	str	r3, [r7, #32]
          break;
 80051ec:	e024      	b.n	8005238 <HAL_GPIO_Init+0x130>
          config = GPIO_Init->Speed + GPIO_CR_CNF_AF_OUTPUT_PP;
 80051ee:	683b      	ldr	r3, [r7, #0]
 80051f0:	68db      	ldr	r3, [r3, #12]
 80051f2:	3308      	adds	r3, #8
 80051f4:	623b      	str	r3, [r7, #32]
          break;
 80051f6:	e01f      	b.n	8005238 <HAL_GPIO_Init+0x130>
          config = GPIO_Init->Speed + GPIO_CR_CNF_AF_OUTPUT_OD;
 80051f8:	683b      	ldr	r3, [r7, #0]
 80051fa:	68db      	ldr	r3, [r3, #12]
 80051fc:	330c      	adds	r3, #12
 80051fe:	623b      	str	r3, [r7, #32]
          break;
 8005200:	e01a      	b.n	8005238 <HAL_GPIO_Init+0x130>
          if (GPIO_Init->Pull == GPIO_NOPULL)
 8005202:	683b      	ldr	r3, [r7, #0]
 8005204:	689b      	ldr	r3, [r3, #8]
 8005206:	2b00      	cmp	r3, #0
 8005208:	d102      	bne.n	8005210 <HAL_GPIO_Init+0x108>
            config = GPIO_CR_MODE_INPUT + GPIO_CR_CNF_INPUT_FLOATING;
 800520a:	2304      	movs	r3, #4
 800520c:	623b      	str	r3, [r7, #32]
          break;
 800520e:	e013      	b.n	8005238 <HAL_GPIO_Init+0x130>
          else if (GPIO_Init->Pull == GPIO_PULLUP)
 8005210:	683b      	ldr	r3, [r7, #0]
 8005212:	689b      	ldr	r3, [r3, #8]
 8005214:	2b01      	cmp	r3, #1
 8005216:	d105      	bne.n	8005224 <HAL_GPIO_Init+0x11c>
            config = GPIO_CR_MODE_INPUT + GPIO_CR_CNF_INPUT_PU_PD;
 8005218:	2308      	movs	r3, #8
 800521a:	623b      	str	r3, [r7, #32]
            GPIOx->BSRR = ioposition;
 800521c:	687b      	ldr	r3, [r7, #4]
 800521e:	69fa      	ldr	r2, [r7, #28]
 8005220:	611a      	str	r2, [r3, #16]
          break;
 8005222:	e009      	b.n	8005238 <HAL_GPIO_Init+0x130>
            config = GPIO_CR_MODE_INPUT + GPIO_CR_CNF_INPUT_PU_PD;
 8005224:	2308      	movs	r3, #8
 8005226:	623b      	str	r3, [r7, #32]
            GPIOx->BRR = ioposition;
 8005228:	687b      	ldr	r3, [r7, #4]
 800522a:	69fa      	ldr	r2, [r7, #28]
 800522c:	615a      	str	r2, [r3, #20]
          break;
 800522e:	e003      	b.n	8005238 <HAL_GPIO_Init+0x130>
          config = GPIO_CR_MODE_INPUT + GPIO_CR_CNF_ANALOG;
 8005230:	2300      	movs	r3, #0
 8005232:	623b      	str	r3, [r7, #32]
          break;
 8005234:	e000      	b.n	8005238 <HAL_GPIO_Init+0x130>
          break;
 8005236:	bf00      	nop
      }

      /* Check if the current bit belongs to first half or last half of the pin count number
       in order to address CRH or CRL register*/
      configregister = (iocurrent < GPIO_PIN_8) ? &GPIOx->CRL     : &GPIOx->CRH;
 8005238:	69bb      	ldr	r3, [r7, #24]
 800523a:	2bff      	cmp	r3, #255	; 0xff
 800523c:	d801      	bhi.n	8005242 <HAL_GPIO_Init+0x13a>
 800523e:	687b      	ldr	r3, [r7, #4]
 8005240:	e001      	b.n	8005246 <HAL_GPIO_Init+0x13e>
 8005242:	687b      	ldr	r3, [r7, #4]
 8005244:	3304      	adds	r3, #4
 8005246:	617b      	str	r3, [r7, #20]
      registeroffset = (iocurrent < GPIO_PIN_8) ? (position << 2u) : ((position - 8u) << 2u);
 8005248:	69bb      	ldr	r3, [r7, #24]
 800524a:	2bff      	cmp	r3, #255	; 0xff
 800524c:	d802      	bhi.n	8005254 <HAL_GPIO_Init+0x14c>
 800524e:	6a7b      	ldr	r3, [r7, #36]	; 0x24
 8005250:	009b      	lsls	r3, r3, #2
 8005252:	e002      	b.n	800525a <HAL_GPIO_Init+0x152>
 8005254:	6a7b      	ldr	r3, [r7, #36]	; 0x24
 8005256:	3b08      	subs	r3, #8
 8005258:	009b      	lsls	r3, r3, #2
 800525a:	613b      	str	r3, [r7, #16]

      /* Apply the new configuration of the pin to the register */
      MODIFY_REG((*configregister), ((GPIO_CRL_MODE0 | GPIO_CRL_CNF0) << registeroffset), (config << registeroffset));
 800525c:	697b      	ldr	r3, [r7, #20]
 800525e:	681a      	ldr	r2, [r3, #0]
 8005260:	210f      	movs	r1, #15
 8005262:	693b      	ldr	r3, [r7, #16]
 8005264:	fa01 f303 	lsl.w	r3, r1, r3
 8005268:	43db      	mvns	r3, r3
 800526a:	401a      	ands	r2, r3
 800526c:	6a39      	ldr	r1, [r7, #32]
 800526e:	693b      	ldr	r3, [r7, #16]
 8005270:	fa01 f303 	lsl.w	r3, r1, r3
 8005274:	431a      	orrs	r2, r3
 8005276:	697b      	ldr	r3, [r7, #20]
 8005278:	601a      	str	r2, [r3, #0]

      /*--------------------- EXTI Mode Configuration ------------------------*/
      /* Configure the External Interrupt or event for the current IO */
      if ((GPIO_Init->Mode & EXTI_MODE) == EXTI_MODE)
 800527a:	683b      	ldr	r3, [r7, #0]
 800527c:	685b      	ldr	r3, [r3, #4]
 800527e:	f003 5380 	and.w	r3, r3, #268435456	; 0x10000000
 8005282:	2b00      	cmp	r3, #0
 8005284:	f000 80b1 	beq.w	80053ea <HAL_GPIO_Init+0x2e2>
      {
        /* Enable AFIO Clock */
        __HAL_RCC_AFIO_CLK_ENABLE();
 8005288:	4b4d      	ldr	r3, [pc, #308]	; (80053c0 <HAL_GPIO_Init+0x2b8>)
 800528a:	699b      	ldr	r3, [r3, #24]
 800528c:	4a4c      	ldr	r2, [pc, #304]	; (80053c0 <HAL_GPIO_Init+0x2b8>)
 800528e:	f043 0301 	orr.w	r3, r3, #1
 8005292:	6193      	str	r3, [r2, #24]
 8005294:	4b4a      	ldr	r3, [pc, #296]	; (80053c0 <HAL_GPIO_Init+0x2b8>)
 8005296:	699b      	ldr	r3, [r3, #24]
 8005298:	f003 0301 	and.w	r3, r3, #1
 800529c:	60bb      	str	r3, [r7, #8]
 800529e:	68bb      	ldr	r3, [r7, #8]
        temp = AFIO->EXTICR[position >> 2u];
 80052a0:	4a48      	ldr	r2, [pc, #288]	; (80053c4 <HAL_GPIO_Init+0x2bc>)
 80052a2:	6a7b      	ldr	r3, [r7, #36]	; 0x24
 80052a4:	089b      	lsrs	r3, r3, #2
 80052a6:	3302      	adds	r3, #2
 80052a8:	f852 3023 	ldr.w	r3, [r2, r3, lsl #2]
 80052ac:	60fb      	str	r3, [r7, #12]
        CLEAR_BIT(temp, (0x0Fu) << (4u * (position & 0x03u)));
 80052ae:	6a7b      	ldr	r3, [r7, #36]	; 0x24
 80052b0:	f003 0303 	and.w	r3, r3, #3
 80052b4:	009b      	lsls	r3, r3, #2
 80052b6:	220f      	movs	r2, #15
 80052b8:	fa02 f303 	lsl.w	r3, r2, r3
 80052bc:	43db      	mvns	r3, r3
 80052be:	68fa      	ldr	r2, [r7, #12]
 80052c0:	4013      	ands	r3, r2
 80052c2:	60fb      	str	r3, [r7, #12]
        SET_BIT(temp, (GPIO_GET_INDEX(GPIOx)) << (4u * (position & 0x03u)));
 80052c4:	687b      	ldr	r3, [r7, #4]
 80052c6:	4a40      	ldr	r2, [pc, #256]	; (80053c8 <HAL_GPIO_Init+0x2c0>)
 80052c8:	4293      	cmp	r3, r2
 80052ca:	d013      	beq.n	80052f4 <HAL_GPIO_Init+0x1ec>
 80052cc:	687b      	ldr	r3, [r7, #4]
 80052ce:	4a3f      	ldr	r2, [pc, #252]	; (80053cc <HAL_GPIO_Init+0x2c4>)
 80052d0:	4293      	cmp	r3, r2
 80052d2:	d00d      	beq.n	80052f0 <HAL_GPIO_Init+0x1e8>
 80052d4:	687b      	ldr	r3, [r7, #4]
 80052d6:	4a3e      	ldr	r2, [pc, #248]	; (80053d0 <HAL_GPIO_Init+0x2c8>)
 80052d8:	4293      	cmp	r3, r2
 80052da:	d007      	beq.n	80052ec <HAL_GPIO_Init+0x1e4>
 80052dc:	687b      	ldr	r3, [r7, #4]
 80052de:	4a3d      	ldr	r2, [pc, #244]	; (80053d4 <HAL_GPIO_Init+0x2cc>)
 80052e0:	4293      	cmp	r3, r2
 80052e2:	d101      	bne.n	80052e8 <HAL_GPIO_Init+0x1e0>
 80052e4:	2303      	movs	r3, #3
 80052e6:	e006      	b.n	80052f6 <HAL_GPIO_Init+0x1ee>
 80052e8:	2304      	movs	r3, #4
 80052ea:	e004      	b.n	80052f6 <HAL_GPIO_Init+0x1ee>
 80052ec:	2302      	movs	r3, #2
 80052ee:	e002      	b.n	80052f6 <HAL_GPIO_Init+0x1ee>
 80052f0:	2301      	movs	r3, #1
 80052f2:	e000      	b.n	80052f6 <HAL_GPIO_Init+0x1ee>
 80052f4:	2300      	movs	r3, #0
 80052f6:	6a7a      	ldr	r2, [r7, #36]	; 0x24
 80052f8:	f002 0203 	and.w	r2, r2, #3
 80052fc:	0092      	lsls	r2, r2, #2
 80052fe:	4093      	lsls	r3, r2
 8005300:	68fa      	ldr	r2, [r7, #12]
 8005302:	4313      	orrs	r3, r2
 8005304:	60fb      	str	r3, [r7, #12]
        AFIO->EXTICR[position >> 2u] = temp;
 8005306:	492f      	ldr	r1, [pc, #188]	; (80053c4 <HAL_GPIO_Init+0x2bc>)
 8005308:	6a7b      	ldr	r3, [r7, #36]	; 0x24
 800530a:	089b      	lsrs	r3, r3, #2
 800530c:	3302      	adds	r3, #2
 800530e:	68fa      	ldr	r2, [r7, #12]
 8005310:	f841 2023 	str.w	r2, [r1, r3, lsl #2]


        /* Enable or disable the rising trigger */
        if ((GPIO_Init->Mode & RISING_EDGE) == RISING_EDGE)
 8005314:	683b      	ldr	r3, [r7, #0]
 8005316:	685b      	ldr	r3, [r3, #4]
 8005318:	f403 1380 	and.w	r3, r3, #1048576	; 0x100000
 800531c:	2b00      	cmp	r3, #0
 800531e:	d006      	beq.n	800532e <HAL_GPIO_Init+0x226>
        {
          SET_BIT(EXTI->RTSR, iocurrent);
 8005320:	4b2d      	ldr	r3, [pc, #180]	; (80053d8 <HAL_GPIO_Init+0x2d0>)
 8005322:	689a      	ldr	r2, [r3, #8]
 8005324:	492c      	ldr	r1, [pc, #176]	; (80053d8 <HAL_GPIO_Init+0x2d0>)
 8005326:	69bb      	ldr	r3, [r7, #24]
 8005328:	4313      	orrs	r3, r2
 800532a:	608b      	str	r3, [r1, #8]
 800532c:	e006      	b.n	800533c <HAL_GPIO_Init+0x234>
        }
        else
        {
          CLEAR_BIT(EXTI->RTSR, iocurrent);
 800532e:	4b2a      	ldr	r3, [pc, #168]	; (80053d8 <HAL_GPIO_Init+0x2d0>)
 8005330:	689a      	ldr	r2, [r3, #8]
 8005332:	69bb      	ldr	r3, [r7, #24]
 8005334:	43db      	mvns	r3, r3
 8005336:	4928      	ldr	r1, [pc, #160]	; (80053d8 <HAL_GPIO_Init+0x2d0>)
 8005338:	4013      	ands	r3, r2
 800533a:	608b      	str	r3, [r1, #8]
        }

        /* Enable or disable the falling trigger */
        if ((GPIO_Init->Mode & FALLING_EDGE) == FALLING_EDGE)
 800533c:	683b      	ldr	r3, [r7, #0]
 800533e:	685b      	ldr	r3, [r3, #4]
 8005340:	f403 1300 	and.w	r3, r3, #2097152	; 0x200000
 8005344:	2b00      	cmp	r3, #0
 8005346:	d006      	beq.n	8005356 <HAL_GPIO_Init+0x24e>
        {
          SET_BIT(EXTI->FTSR, iocurrent);
 8005348:	4b23      	ldr	r3, [pc, #140]	; (80053d8 <HAL_GPIO_Init+0x2d0>)
 800534a:	68da      	ldr	r2, [r3, #12]
 800534c:	4922      	ldr	r1, [pc, #136]	; (80053d8 <HAL_GPIO_Init+0x2d0>)
 800534e:	69bb      	ldr	r3, [r7, #24]
 8005350:	4313      	orrs	r3, r2
 8005352:	60cb      	str	r3, [r1, #12]
 8005354:	e006      	b.n	8005364 <HAL_GPIO_Init+0x25c>
        }
        else
        {
          CLEAR_BIT(EXTI->FTSR, iocurrent);
 8005356:	4b20      	ldr	r3, [pc, #128]	; (80053d8 <HAL_GPIO_Init+0x2d0>)
 8005358:	68da      	ldr	r2, [r3, #12]
 800535a:	69bb      	ldr	r3, [r7, #24]
 800535c:	43db      	mvns	r3, r3
 800535e:	491e      	ldr	r1, [pc, #120]	; (80053d8 <HAL_GPIO_Init+0x2d0>)
 8005360:	4013      	ands	r3, r2
 8005362:	60cb      	str	r3, [r1, #12]
        }

        /* Configure the event mask */
        if ((GPIO_Init->Mode & GPIO_MODE_EVT) == GPIO_MODE_EVT)
 8005364:	683b      	ldr	r3, [r7, #0]
 8005366:	685b      	ldr	r3, [r3, #4]
 8005368:	f403 3300 	and.w	r3, r3, #131072	; 0x20000
 800536c:	2b00      	cmp	r3, #0
 800536e:	d006      	beq.n	800537e <HAL_GPIO_Init+0x276>
        {
          SET_BIT(EXTI->EMR, iocurrent);
 8005370:	4b19      	ldr	r3, [pc, #100]	; (80053d8 <HAL_GPIO_Init+0x2d0>)
 8005372:	685a      	ldr	r2, [r3, #4]
 8005374:	4918      	ldr	r1, [pc, #96]	; (80053d8 <HAL_GPIO_Init+0x2d0>)
 8005376:	69bb      	ldr	r3, [r7, #24]
 8005378:	4313      	orrs	r3, r2
 800537a:	604b      	str	r3, [r1, #4]
 800537c:	e006      	b.n	800538c <HAL_GPIO_Init+0x284>
        }
        else
        {
          CLEAR_BIT(EXTI->EMR, iocurrent);
 800537e:	4b16      	ldr	r3, [pc, #88]	; (80053d8 <HAL_GPIO_Init+0x2d0>)
 8005380:	685a      	ldr	r2, [r3, #4]
 8005382:	69bb      	ldr	r3, [r7, #24]
 8005384:	43db      	mvns	r3, r3
 8005386:	4914      	ldr	r1, [pc, #80]	; (80053d8 <HAL_GPIO_Init+0x2d0>)
 8005388:	4013      	ands	r3, r2
 800538a:	604b      	str	r3, [r1, #4]
        }

        /* Configure the interrupt mask */
        if ((GPIO_Init->Mode & GPIO_MODE_IT) == GPIO_MODE_IT)
 800538c:	683b      	ldr	r3, [r7, #0]
 800538e:	685b      	ldr	r3, [r3, #4]
 8005390:	f403 3380 	and.w	r3, r3, #65536	; 0x10000
 8005394:	2b00      	cmp	r3, #0
 8005396:	d021      	beq.n	80053dc <HAL_GPIO_Init+0x2d4>
        {
          SET_BIT(EXTI->IMR, iocurrent);
 8005398:	4b0f      	ldr	r3, [pc, #60]	; (80053d8 <HAL_GPIO_Init+0x2d0>)
 800539a:	681a      	ldr	r2, [r3, #0]
 800539c:	490e      	ldr	r1, [pc, #56]	; (80053d8 <HAL_GPIO_Init+0x2d0>)
 800539e:	69bb      	ldr	r3, [r7, #24]
 80053a0:	4313      	orrs	r3, r2
 80053a2:	600b      	str	r3, [r1, #0]
 80053a4:	e021      	b.n	80053ea <HAL_GPIO_Init+0x2e2>
 80053a6:	bf00      	nop
 80053a8:	10320000 	.word	0x10320000
 80053ac:	10310000 	.word	0x10310000
 80053b0:	10220000 	.word	0x10220000
 80053b4:	10210000 	.word	0x10210000
 80053b8:	10120000 	.word	0x10120000
 80053bc:	10110000 	.word	0x10110000
 80053c0:	40021000 	.word	0x40021000
 80053c4:	40010000 	.word	0x40010000
 80053c8:	40010800 	.word	0x40010800
 80053cc:	40010c00 	.word	0x40010c00
 80053d0:	40011000 	.word	0x40011000
 80053d4:	40011400 	.word	0x40011400
 80053d8:	40010400 	.word	0x40010400
        }
        else
        {
          CLEAR_BIT(EXTI->IMR, iocurrent);
 80053dc:	4b0b      	ldr	r3, [pc, #44]	; (800540c <HAL_GPIO_Init+0x304>)
 80053de:	681a      	ldr	r2, [r3, #0]
 80053e0:	69bb      	ldr	r3, [r7, #24]
 80053e2:	43db      	mvns	r3, r3
 80053e4:	4909      	ldr	r1, [pc, #36]	; (800540c <HAL_GPIO_Init+0x304>)
 80053e6:	4013      	ands	r3, r2
 80053e8:	600b      	str	r3, [r1, #0]
        }
      }
    }

	position++;
 80053ea:	6a7b      	ldr	r3, [r7, #36]	; 0x24
 80053ec:	3301      	adds	r3, #1
 80053ee:	627b      	str	r3, [r7, #36]	; 0x24
  while (((GPIO_Init->Pin) >> position) != 0x00u)
 80053f0:	683b      	ldr	r3, [r7, #0]
 80053f2:	681a      	ldr	r2, [r3, #0]
 80053f4:	6a7b      	ldr	r3, [r7, #36]	; 0x24
 80053f6:	fa22 f303 	lsr.w	r3, r2, r3
 80053fa:	2b00      	cmp	r3, #0
 80053fc:	f47f ae8e 	bne.w	800511c <HAL_GPIO_Init+0x14>
  }
}
 8005400:	bf00      	nop
 8005402:	bf00      	nop
 8005404:	372c      	adds	r7, #44	; 0x2c
 8005406:	46bd      	mov	sp, r7
 8005408:	bc80      	pop	{r7}
 800540a:	4770      	bx	lr
 800540c:	40010400 	.word	0x40010400

08005410 <HAL_GPIO_WritePin>:
  *            @arg GPIO_PIN_RESET: to clear the port pin
  *            @arg GPIO_PIN_SET: to set the port pin
  * @retval None
  */
void HAL_GPIO_WritePin(GPIO_TypeDef *GPIOx, uint16_t GPIO_Pin, GPIO_PinState PinState)
{
 8005410:	b480      	push	{r7}
 8005412:	b083      	sub	sp, #12
 8005414:	af00      	add	r7, sp, #0
 8005416:	6078      	str	r0, [r7, #4]
 8005418:	460b      	mov	r3, r1
 800541a:	807b      	strh	r3, [r7, #2]
 800541c:	4613      	mov	r3, r2
 800541e:	707b      	strb	r3, [r7, #1]
  /* Check the parameters */
  assert_param(IS_GPIO_PIN(GPIO_Pin));
  assert_param(IS_GPIO_PIN_ACTION(PinState));

  if (PinState != GPIO_PIN_RESET)
 8005420:	787b      	ldrb	r3, [r7, #1]
 8005422:	2b00      	cmp	r3, #0
 8005424:	d003      	beq.n	800542e <HAL_GPIO_WritePin+0x1e>
  {
    GPIOx->BSRR = GPIO_Pin;
 8005426:	887a      	ldrh	r2, [r7, #2]
 8005428:	687b      	ldr	r3, [r7, #4]
 800542a:	611a      	str	r2, [r3, #16]
  }
  else
  {
    GPIOx->BSRR = (uint32_t)GPIO_Pin << 16u;
  }
}
 800542c:	e003      	b.n	8005436 <HAL_GPIO_WritePin+0x26>
    GPIOx->BSRR = (uint32_t)GPIO_Pin << 16u;
 800542e:	887b      	ldrh	r3, [r7, #2]
 8005430:	041a      	lsls	r2, r3, #16
 8005432:	687b      	ldr	r3, [r7, #4]
 8005434:	611a      	str	r2, [r3, #16]
}
 8005436:	bf00      	nop
 8005438:	370c      	adds	r7, #12
 800543a:	46bd      	mov	sp, r7
 800543c:	bc80      	pop	{r7}
 800543e:	4770      	bx	lr

08005440 <HAL_I2C_Init>:
  * @param  hi2c Pointer to a I2C_HandleTypeDef structure that contains
  *                the configuration information for the specified I2C.
  * @retval HAL status
  */
HAL_StatusTypeDef HAL_I2C_Init(I2C_HandleTypeDef *hi2c)
{
 8005440:	b580      	push	{r7, lr}
 8005442:	b084      	sub	sp, #16
 8005444:	af00      	add	r7, sp, #0
 8005446:	6078      	str	r0, [r7, #4]
  uint32_t freqrange;
  uint32_t pclk1;

  /* Check the I2C handle allocation */
  if (hi2c == NULL)
 8005448:	687b      	ldr	r3, [r7, #4]
 800544a:	2b00      	cmp	r3, #0
 800544c:	d101      	bne.n	8005452 <HAL_I2C_Init+0x12>
  {
    return HAL_ERROR;
 800544e:	2301      	movs	r3, #1
 8005450:	e12b      	b.n	80056aa <HAL_I2C_Init+0x26a>
  assert_param(IS_I2C_DUAL_ADDRESS(hi2c->Init.DualAddressMode));
  assert_param(IS_I2C_OWN_ADDRESS2(hi2c->Init.OwnAddress2));
  assert_param(IS_I2C_GENERAL_CALL(hi2c->Init.GeneralCallMode));
  assert_param(IS_I2C_NO_STRETCH(hi2c->Init.NoStretchMode));

  if (hi2c->State == HAL_I2C_STATE_RESET)
 8005452:	687b      	ldr	r3, [r7, #4]
 8005454:	f893 303d 	ldrb.w	r3, [r3, #61]	; 0x3d
 8005458:	b2db      	uxtb	r3, r3
 800545a:	2b00      	cmp	r3, #0
 800545c:	d106      	bne.n	800546c <HAL_I2C_Init+0x2c>
  {
    /* Allocate lock resource and initialize it */
    hi2c->Lock = HAL_UNLOCKED;
 800545e:	687b      	ldr	r3, [r7, #4]
 8005460:	2200      	movs	r2, #0
 8005462:	f883 203c 	strb.w	r2, [r3, #60]	; 0x3c

    /* Init the low level hardware : GPIO, CLOCK, NVIC */
    hi2c->MspInitCallback(hi2c);
#else
    /* Init the low level hardware : GPIO, CLOCK, NVIC */
    HAL_I2C_MspInit(hi2c);
 8005466:	6878      	ldr	r0, [r7, #4]
 8005468:	f7ff fa2c 	bl	80048c4 <HAL_I2C_MspInit>
#endif /* USE_HAL_I2C_REGISTER_CALLBACKS */
  }

  hi2c->State = HAL_I2C_STATE_BUSY;
 800546c:	687b      	ldr	r3, [r7, #4]
 800546e:	2224      	movs	r2, #36	; 0x24
 8005470:	f883 203d 	strb.w	r2, [r3, #61]	; 0x3d

  /* Disable the selected I2C peripheral */
  __HAL_I2C_DISABLE(hi2c);
 8005474:	687b      	ldr	r3, [r7, #4]
 8005476:	681b      	ldr	r3, [r3, #0]
 8005478:	681a      	ldr	r2, [r3, #0]
 800547a:	687b      	ldr	r3, [r7, #4]
 800547c:	681b      	ldr	r3, [r3, #0]
 800547e:	f022 0201 	bic.w	r2, r2, #1
 8005482:	601a      	str	r2, [r3, #0]

  /*Reset I2C*/
  hi2c->Instance->CR1 |= I2C_CR1_SWRST;
 8005484:	687b      	ldr	r3, [r7, #4]
 8005486:	681b      	ldr	r3, [r3, #0]
 8005488:	681a      	ldr	r2, [r3, #0]
 800548a:	687b      	ldr	r3, [r7, #4]
 800548c:	681b      	ldr	r3, [r3, #0]
 800548e:	f442 4200 	orr.w	r2, r2, #32768	; 0x8000
 8005492:	601a      	str	r2, [r3, #0]
  hi2c->Instance->CR1 &= ~I2C_CR1_SWRST;
 8005494:	687b      	ldr	r3, [r7, #4]
 8005496:	681b      	ldr	r3, [r3, #0]
 8005498:	681a      	ldr	r2, [r3, #0]
 800549a:	687b      	ldr	r3, [r7, #4]
 800549c:	681b      	ldr	r3, [r3, #0]
 800549e:	f422 4200 	bic.w	r2, r2, #32768	; 0x8000
 80054a2:	601a      	str	r2, [r3, #0]

  /* Get PCLK1 frequency */
  pclk1 = HAL_RCC_GetPCLK1Freq();
 80054a4:	f001 fbf0 	bl	8006c88 <HAL_RCC_GetPCLK1Freq>
 80054a8:	60f8      	str	r0, [r7, #12]

  /* Check the minimum allowed PCLK1 frequency */
  if (I2C_MIN_PCLK_FREQ(pclk1, hi2c->Init.ClockSpeed) == 1U)
 80054aa:	687b      	ldr	r3, [r7, #4]
 80054ac:	685b      	ldr	r3, [r3, #4]
 80054ae:	4a81      	ldr	r2, [pc, #516]	; (80056b4 <HAL_I2C_Init+0x274>)
 80054b0:	4293      	cmp	r3, r2
 80054b2:	d807      	bhi.n	80054c4 <HAL_I2C_Init+0x84>
 80054b4:	68fb      	ldr	r3, [r7, #12]
 80054b6:	4a80      	ldr	r2, [pc, #512]	; (80056b8 <HAL_I2C_Init+0x278>)
 80054b8:	4293      	cmp	r3, r2
 80054ba:	bf94      	ite	ls
 80054bc:	2301      	movls	r3, #1
 80054be:	2300      	movhi	r3, #0
 80054c0:	b2db      	uxtb	r3, r3
 80054c2:	e006      	b.n	80054d2 <HAL_I2C_Init+0x92>
 80054c4:	68fb      	ldr	r3, [r7, #12]
 80054c6:	4a7d      	ldr	r2, [pc, #500]	; (80056bc <HAL_I2C_Init+0x27c>)
 80054c8:	4293      	cmp	r3, r2
 80054ca:	bf94      	ite	ls
 80054cc:	2301      	movls	r3, #1
 80054ce:	2300      	movhi	r3, #0
 80054d0:	b2db      	uxtb	r3, r3
 80054d2:	2b00      	cmp	r3, #0
 80054d4:	d001      	beq.n	80054da <HAL_I2C_Init+0x9a>
  {
    return HAL_ERROR;
 80054d6:	2301      	movs	r3, #1
 80054d8:	e0e7      	b.n	80056aa <HAL_I2C_Init+0x26a>
  }

  /* Calculate frequency range */
  freqrange = I2C_FREQRANGE(pclk1);
 80054da:	68fb      	ldr	r3, [r7, #12]
 80054dc:	4a78      	ldr	r2, [pc, #480]	; (80056c0 <HAL_I2C_Init+0x280>)
 80054de:	fba2 2303 	umull	r2, r3, r2, r3
 80054e2:	0c9b      	lsrs	r3, r3, #18
 80054e4:	60bb      	str	r3, [r7, #8]

  /*---------------------------- I2Cx CR2 Configuration ----------------------*/
  /* Configure I2Cx: Frequency range */
  MODIFY_REG(hi2c->Instance->CR2, I2C_CR2_FREQ, freqrange);
 80054e6:	687b      	ldr	r3, [r7, #4]
 80054e8:	681b      	ldr	r3, [r3, #0]
 80054ea:	685b      	ldr	r3, [r3, #4]
 80054ec:	f023 013f 	bic.w	r1, r3, #63	; 0x3f
 80054f0:	687b      	ldr	r3, [r7, #4]
 80054f2:	681b      	ldr	r3, [r3, #0]
 80054f4:	68ba      	ldr	r2, [r7, #8]
 80054f6:	430a      	orrs	r2, r1
 80054f8:	605a      	str	r2, [r3, #4]

  /*---------------------------- I2Cx TRISE Configuration --------------------*/
  /* Configure I2Cx: Rise Time */
  MODIFY_REG(hi2c->Instance->TRISE, I2C_TRISE_TRISE, I2C_RISE_TIME(freqrange, hi2c->Init.ClockSpeed));
 80054fa:	687b      	ldr	r3, [r7, #4]
 80054fc:	681b      	ldr	r3, [r3, #0]
 80054fe:	6a1b      	ldr	r3, [r3, #32]
 8005500:	f023 013f 	bic.w	r1, r3, #63	; 0x3f
 8005504:	687b      	ldr	r3, [r7, #4]
 8005506:	685b      	ldr	r3, [r3, #4]
 8005508:	4a6a      	ldr	r2, [pc, #424]	; (80056b4 <HAL_I2C_Init+0x274>)
 800550a:	4293      	cmp	r3, r2
 800550c:	d802      	bhi.n	8005514 <HAL_I2C_Init+0xd4>
 800550e:	68bb      	ldr	r3, [r7, #8]
 8005510:	3301      	adds	r3, #1
 8005512:	e009      	b.n	8005528 <HAL_I2C_Init+0xe8>
 8005514:	68bb      	ldr	r3, [r7, #8]
 8005516:	f44f 7296 	mov.w	r2, #300	; 0x12c
 800551a:	fb02 f303 	mul.w	r3, r2, r3
 800551e:	4a69      	ldr	r2, [pc, #420]	; (80056c4 <HAL_I2C_Init+0x284>)
 8005520:	fba2 2303 	umull	r2, r3, r2, r3
 8005524:	099b      	lsrs	r3, r3, #6
 8005526:	3301      	adds	r3, #1
 8005528:	687a      	ldr	r2, [r7, #4]
 800552a:	6812      	ldr	r2, [r2, #0]
 800552c:	430b      	orrs	r3, r1
 800552e:	6213      	str	r3, [r2, #32]

  /*---------------------------- I2Cx CCR Configuration ----------------------*/
  /* Configure I2Cx: Speed */
  MODIFY_REG(hi2c->Instance->CCR, (I2C_CCR_FS | I2C_CCR_DUTY | I2C_CCR_CCR), I2C_SPEED(pclk1, hi2c->Init.ClockSpeed, hi2c->Init.DutyCycle));
 8005530:	687b      	ldr	r3, [r7, #4]
 8005532:	681b      	ldr	r3, [r3, #0]
 8005534:	69db      	ldr	r3, [r3, #28]
 8005536:	f423 424f 	bic.w	r2, r3, #52992	; 0xcf00
 800553a:	f022 02ff 	bic.w	r2, r2, #255	; 0xff
 800553e:	687b      	ldr	r3, [r7, #4]
 8005540:	685b      	ldr	r3, [r3, #4]
 8005542:	495c      	ldr	r1, [pc, #368]	; (80056b4 <HAL_I2C_Init+0x274>)
 8005544:	428b      	cmp	r3, r1
 8005546:	d819      	bhi.n	800557c <HAL_I2C_Init+0x13c>
 8005548:	68fb      	ldr	r3, [r7, #12]
 800554a:	1e59      	subs	r1, r3, #1
 800554c:	687b      	ldr	r3, [r7, #4]
 800554e:	685b      	ldr	r3, [r3, #4]
 8005550:	005b      	lsls	r3, r3, #1
 8005552:	fbb1 f3f3 	udiv	r3, r1, r3
 8005556:	1c59      	adds	r1, r3, #1
 8005558:	f640 73fc 	movw	r3, #4092	; 0xffc
 800555c:	400b      	ands	r3, r1
 800555e:	2b00      	cmp	r3, #0
 8005560:	d00a      	beq.n	8005578 <HAL_I2C_Init+0x138>
 8005562:	68fb      	ldr	r3, [r7, #12]
 8005564:	1e59      	subs	r1, r3, #1
 8005566:	687b      	ldr	r3, [r7, #4]
 8005568:	685b      	ldr	r3, [r3, #4]
 800556a:	005b      	lsls	r3, r3, #1
 800556c:	fbb1 f3f3 	udiv	r3, r1, r3
 8005570:	3301      	adds	r3, #1
 8005572:	f3c3 030b 	ubfx	r3, r3, #0, #12
 8005576:	e051      	b.n	800561c <HAL_I2C_Init+0x1dc>
 8005578:	2304      	movs	r3, #4
 800557a:	e04f      	b.n	800561c <HAL_I2C_Init+0x1dc>
 800557c:	687b      	ldr	r3, [r7, #4]
 800557e:	689b      	ldr	r3, [r3, #8]
 8005580:	2b00      	cmp	r3, #0
 8005582:	d111      	bne.n	80055a8 <HAL_I2C_Init+0x168>
 8005584:	68fb      	ldr	r3, [r7, #12]
 8005586:	1e58      	subs	r0, r3, #1
 8005588:	687b      	ldr	r3, [r7, #4]
 800558a:	6859      	ldr	r1, [r3, #4]
 800558c:	460b      	mov	r3, r1
 800558e:	005b      	lsls	r3, r3, #1
 8005590:	440b      	add	r3, r1
 8005592:	fbb0 f3f3 	udiv	r3, r0, r3
 8005596:	3301      	adds	r3, #1
 8005598:	f3c3 030b 	ubfx	r3, r3, #0, #12
 800559c:	2b00      	cmp	r3, #0
 800559e:	bf0c      	ite	eq
 80055a0:	2301      	moveq	r3, #1
 80055a2:	2300      	movne	r3, #0
 80055a4:	b2db      	uxtb	r3, r3
 80055a6:	e012      	b.n	80055ce <HAL_I2C_Init+0x18e>
 80055a8:	68fb      	ldr	r3, [r7, #12]
 80055aa:	1e58      	subs	r0, r3, #1
 80055ac:	687b      	ldr	r3, [r7, #4]
 80055ae:	6859      	ldr	r1, [r3, #4]
 80055b0:	460b      	mov	r3, r1
 80055b2:	009b      	lsls	r3, r3, #2
 80055b4:	440b      	add	r3, r1
 80055b6:	0099      	lsls	r1, r3, #2
 80055b8:	440b      	add	r3, r1
 80055ba:	fbb0 f3f3 	udiv	r3, r0, r3
 80055be:	3301      	adds	r3, #1
 80055c0:	f3c3 030b 	ubfx	r3, r3, #0, #12
 80055c4:	2b00      	cmp	r3, #0
 80055c6:	bf0c      	ite	eq
 80055c8:	2301      	moveq	r3, #1
 80055ca:	2300      	movne	r3, #0
 80055cc:	b2db      	uxtb	r3, r3
 80055ce:	2b00      	cmp	r3, #0
 80055d0:	d001      	beq.n	80055d6 <HAL_I2C_Init+0x196>
 80055d2:	2301      	movs	r3, #1
 80055d4:	e022      	b.n	800561c <HAL_I2C_Init+0x1dc>
 80055d6:	687b      	ldr	r3, [r7, #4]
 80055d8:	689b      	ldr	r3, [r3, #8]
 80055da:	2b00      	cmp	r3, #0
 80055dc:	d10e      	bne.n	80055fc <HAL_I2C_Init+0x1bc>
 80055de:	68fb      	ldr	r3, [r7, #12]
 80055e0:	1e58      	subs	r0, r3, #1
 80055e2:	687b      	ldr	r3, [r7, #4]
 80055e4:	6859      	ldr	r1, [r3, #4]
 80055e6:	460b      	mov	r3, r1
 80055e8:	005b      	lsls	r3, r3, #1
 80055ea:	440b      	add	r3, r1
 80055ec:	fbb0 f3f3 	udiv	r3, r0, r3
 80055f0:	3301      	adds	r3, #1
 80055f2:	f3c3 030b 	ubfx	r3, r3, #0, #12
 80055f6:	f443 4300 	orr.w	r3, r3, #32768	; 0x8000
 80055fa:	e00f      	b.n	800561c <HAL_I2C_Init+0x1dc>
 80055fc:	68fb      	ldr	r3, [r7, #12]
 80055fe:	1e58      	subs	r0, r3, #1
 8005600:	687b      	ldr	r3, [r7, #4]
 8005602:	6859      	ldr	r1, [r3, #4]
 8005604:	460b      	mov	r3, r1
 8005606:	009b      	lsls	r3, r3, #2
 8005608:	440b      	add	r3, r1
 800560a:	0099      	lsls	r1, r3, #2
 800560c:	440b      	add	r3, r1
 800560e:	fbb0 f3f3 	udiv	r3, r0, r3
 8005612:	3301      	adds	r3, #1
 8005614:	f3c3 030b 	ubfx	r3, r3, #0, #12
 8005618:	f443 4340 	orr.w	r3, r3, #49152	; 0xc000
 800561c:	6879      	ldr	r1, [r7, #4]
 800561e:	6809      	ldr	r1, [r1, #0]
 8005620:	4313      	orrs	r3, r2
 8005622:	61cb      	str	r3, [r1, #28]

  /*---------------------------- I2Cx CR1 Configuration ----------------------*/
  /* Configure I2Cx: Generalcall and NoStretch mode */
  MODIFY_REG(hi2c->Instance->CR1, (I2C_CR1_ENGC | I2C_CR1_NOSTRETCH), (hi2c->Init.GeneralCallMode | hi2c->Init.NoStretchMode));
 8005624:	687b      	ldr	r3, [r7, #4]
 8005626:	681b      	ldr	r3, [r3, #0]
 8005628:	681b      	ldr	r3, [r3, #0]
 800562a:	f023 01c0 	bic.w	r1, r3, #192	; 0xc0
 800562e:	687b      	ldr	r3, [r7, #4]
 8005630:	69da      	ldr	r2, [r3, #28]
 8005632:	687b      	ldr	r3, [r7, #4]
 8005634:	6a1b      	ldr	r3, [r3, #32]
 8005636:	431a      	orrs	r2, r3
 8005638:	687b      	ldr	r3, [r7, #4]
 800563a:	681b      	ldr	r3, [r3, #0]
 800563c:	430a      	orrs	r2, r1
 800563e:	601a      	str	r2, [r3, #0]

  /*---------------------------- I2Cx OAR1 Configuration ---------------------*/
  /* Configure I2Cx: Own Address1 and addressing mode */
  MODIFY_REG(hi2c->Instance->OAR1, (I2C_OAR1_ADDMODE | I2C_OAR1_ADD8_9 | I2C_OAR1_ADD1_7 | I2C_OAR1_ADD0), (hi2c->Init.AddressingMode | hi2c->Init.OwnAddress1));
 8005640:	687b      	ldr	r3, [r7, #4]
 8005642:	681b      	ldr	r3, [r3, #0]
 8005644:	689b      	ldr	r3, [r3, #8]
 8005646:	f423 4303 	bic.w	r3, r3, #33536	; 0x8300
 800564a:	f023 03ff 	bic.w	r3, r3, #255	; 0xff
 800564e:	687a      	ldr	r2, [r7, #4]
 8005650:	6911      	ldr	r1, [r2, #16]
 8005652:	687a      	ldr	r2, [r7, #4]
 8005654:	68d2      	ldr	r2, [r2, #12]
 8005656:	4311      	orrs	r1, r2
 8005658:	687a      	ldr	r2, [r7, #4]
 800565a:	6812      	ldr	r2, [r2, #0]
 800565c:	430b      	orrs	r3, r1
 800565e:	6093      	str	r3, [r2, #8]

  /*---------------------------- I2Cx OAR2 Configuration ---------------------*/
  /* Configure I2Cx: Dual mode and Own Address2 */
  MODIFY_REG(hi2c->Instance->OAR2, (I2C_OAR2_ENDUAL | I2C_OAR2_ADD2), (hi2c->Init.DualAddressMode | hi2c->Init.OwnAddress2));
 8005660:	687b      	ldr	r3, [r7, #4]
 8005662:	681b      	ldr	r3, [r3, #0]
 8005664:	68db      	ldr	r3, [r3, #12]
 8005666:	f023 01ff 	bic.w	r1, r3, #255	; 0xff
 800566a:	687b      	ldr	r3, [r7, #4]
 800566c:	695a      	ldr	r2, [r3, #20]
 800566e:	687b      	ldr	r3, [r7, #4]
 8005670:	699b      	ldr	r3, [r3, #24]
 8005672:	431a      	orrs	r2, r3
 8005674:	687b      	ldr	r3, [r7, #4]
 8005676:	681b      	ldr	r3, [r3, #0]
 8005678:	430a      	orrs	r2, r1
 800567a:	60da      	str	r2, [r3, #12]

  /* Enable the selected I2C peripheral */
  __HAL_I2C_ENABLE(hi2c);
 800567c:	687b      	ldr	r3, [r7, #4]
 800567e:	681b      	ldr	r3, [r3, #0]
 8005680:	681a      	ldr	r2, [r3, #0]
 8005682:	687b      	ldr	r3, [r7, #4]
 8005684:	681b      	ldr	r3, [r3, #0]
 8005686:	f042 0201 	orr.w	r2, r2, #1
 800568a:	601a      	str	r2, [r3, #0]

  hi2c->ErrorCode = HAL_I2C_ERROR_NONE;
 800568c:	687b      	ldr	r3, [r7, #4]
 800568e:	2200      	movs	r2, #0
 8005690:	641a      	str	r2, [r3, #64]	; 0x40
  hi2c->State = HAL_I2C_STATE_READY;
 8005692:	687b      	ldr	r3, [r7, #4]
 8005694:	2220      	movs	r2, #32
 8005696:	f883 203d 	strb.w	r2, [r3, #61]	; 0x3d
  hi2c->PreviousState = I2C_STATE_NONE;
 800569a:	687b      	ldr	r3, [r7, #4]
 800569c:	2200      	movs	r2, #0
 800569e:	631a      	str	r2, [r3, #48]	; 0x30
  hi2c->Mode = HAL_I2C_MODE_NONE;
 80056a0:	687b      	ldr	r3, [r7, #4]
 80056a2:	2200      	movs	r2, #0
 80056a4:	f883 203e 	strb.w	r2, [r3, #62]	; 0x3e

  return HAL_OK;
 80056a8:	2300      	movs	r3, #0
}
 80056aa:	4618      	mov	r0, r3
 80056ac:	3710      	adds	r7, #16
 80056ae:	46bd      	mov	sp, r7
 80056b0:	bd80      	pop	{r7, pc}
 80056b2:	bf00      	nop
 80056b4:	000186a0 	.word	0x000186a0
 80056b8:	001e847f 	.word	0x001e847f
 80056bc:	003d08ff 	.word	0x003d08ff
 80056c0:	431bde83 	.word	0x431bde83
 80056c4:	10624dd3 	.word	0x10624dd3

080056c8 <HAL_I2C_Mem_Write>:
  * @param  Size Amount of data to be sent
  * @param  Timeout Timeout duration
  * @retval HAL status
  */
HAL_StatusTypeDef HAL_I2C_Mem_Write(I2C_HandleTypeDef *hi2c, uint16_t DevAddress, uint16_t MemAddress, uint16_t MemAddSize, uint8_t *pData, uint16_t Size, uint32_t Timeout)
{
 80056c8:	b580      	push	{r7, lr}
 80056ca:	b088      	sub	sp, #32
 80056cc:	af02      	add	r7, sp, #8
 80056ce:	60f8      	str	r0, [r7, #12]
 80056d0:	4608      	mov	r0, r1
 80056d2:	4611      	mov	r1, r2
 80056d4:	461a      	mov	r2, r3
 80056d6:	4603      	mov	r3, r0
 80056d8:	817b      	strh	r3, [r7, #10]
 80056da:	460b      	mov	r3, r1
 80056dc:	813b      	strh	r3, [r7, #8]
 80056de:	4613      	mov	r3, r2
 80056e0:	80fb      	strh	r3, [r7, #6]
  /* Init tickstart for timeout management*/
  uint32_t tickstart = HAL_GetTick();
 80056e2:	f7ff fb47 	bl	8004d74 <HAL_GetTick>
 80056e6:	6178      	str	r0, [r7, #20]

  /* Check the parameters */
  assert_param(IS_I2C_MEMADD_SIZE(MemAddSize));

  if (hi2c->State == HAL_I2C_STATE_READY)
 80056e8:	68fb      	ldr	r3, [r7, #12]
 80056ea:	f893 303d 	ldrb.w	r3, [r3, #61]	; 0x3d
 80056ee:	b2db      	uxtb	r3, r3
 80056f0:	2b20      	cmp	r3, #32
 80056f2:	f040 80d9 	bne.w	80058a8 <HAL_I2C_Mem_Write+0x1e0>
  {
    /* Wait until BUSY flag is reset */
    if (I2C_WaitOnFlagUntilTimeout(hi2c, I2C_FLAG_BUSY, SET, I2C_TIMEOUT_BUSY_FLAG, tickstart) != HAL_OK)
 80056f6:	697b      	ldr	r3, [r7, #20]
 80056f8:	9300      	str	r3, [sp, #0]
 80056fa:	2319      	movs	r3, #25
 80056fc:	2201      	movs	r2, #1
 80056fe:	496d      	ldr	r1, [pc, #436]	; (80058b4 <HAL_I2C_Mem_Write+0x1ec>)
 8005700:	68f8      	ldr	r0, [r7, #12]
 8005702:	f000 fcc1 	bl	8006088 <I2C_WaitOnFlagUntilTimeout>
 8005706:	4603      	mov	r3, r0
 8005708:	2b00      	cmp	r3, #0
 800570a:	d001      	beq.n	8005710 <HAL_I2C_Mem_Write+0x48>
    {
      return HAL_BUSY;
 800570c:	2302      	movs	r3, #2
 800570e:	e0cc      	b.n	80058aa <HAL_I2C_Mem_Write+0x1e2>
    }

    /* Process Locked */
    __HAL_LOCK(hi2c);
 8005710:	68fb      	ldr	r3, [r7, #12]
 8005712:	f893 303c 	ldrb.w	r3, [r3, #60]	; 0x3c
 8005716:	2b01      	cmp	r3, #1
 8005718:	d101      	bne.n	800571e <HAL_I2C_Mem_Write+0x56>
 800571a:	2302      	movs	r3, #2
 800571c:	e0c5      	b.n	80058aa <HAL_I2C_Mem_Write+0x1e2>
 800571e:	68fb      	ldr	r3, [r7, #12]
 8005720:	2201      	movs	r2, #1
 8005722:	f883 203c 	strb.w	r2, [r3, #60]	; 0x3c

    /* Check if the I2C is already enabled */
    if ((hi2c->Instance->CR1 & I2C_CR1_PE) != I2C_CR1_PE)
 8005726:	68fb      	ldr	r3, [r7, #12]
 8005728:	681b      	ldr	r3, [r3, #0]
 800572a:	681b      	ldr	r3, [r3, #0]
 800572c:	f003 0301 	and.w	r3, r3, #1
 8005730:	2b01      	cmp	r3, #1
 8005732:	d007      	beq.n	8005744 <HAL_I2C_Mem_Write+0x7c>
    {
      /* Enable I2C peripheral */
      __HAL_I2C_ENABLE(hi2c);
 8005734:	68fb      	ldr	r3, [r7, #12]
 8005736:	681b      	ldr	r3, [r3, #0]
 8005738:	681a      	ldr	r2, [r3, #0]
 800573a:	68fb      	ldr	r3, [r7, #12]
 800573c:	681b      	ldr	r3, [r3, #0]
 800573e:	f042 0201 	orr.w	r2, r2, #1
 8005742:	601a      	str	r2, [r3, #0]
    }

    /* Disable Pos */
    CLEAR_BIT(hi2c->Instance->CR1, I2C_CR1_POS);
 8005744:	68fb      	ldr	r3, [r7, #12]
 8005746:	681b      	ldr	r3, [r3, #0]
 8005748:	681a      	ldr	r2, [r3, #0]
 800574a:	68fb      	ldr	r3, [r7, #12]
 800574c:	681b      	ldr	r3, [r3, #0]
 800574e:	f422 6200 	bic.w	r2, r2, #2048	; 0x800
 8005752:	601a      	str	r2, [r3, #0]

    hi2c->State     = HAL_I2C_STATE_BUSY_TX;
 8005754:	68fb      	ldr	r3, [r7, #12]
 8005756:	2221      	movs	r2, #33	; 0x21
 8005758:	f883 203d 	strb.w	r2, [r3, #61]	; 0x3d
    hi2c->Mode      = HAL_I2C_MODE_MEM;
 800575c:	68fb      	ldr	r3, [r7, #12]
 800575e:	2240      	movs	r2, #64	; 0x40
 8005760:	f883 203e 	strb.w	r2, [r3, #62]	; 0x3e
    hi2c->ErrorCode = HAL_I2C_ERROR_NONE;
 8005764:	68fb      	ldr	r3, [r7, #12]
 8005766:	2200      	movs	r2, #0
 8005768:	641a      	str	r2, [r3, #64]	; 0x40

    /* Prepare transfer parameters */
    hi2c->pBuffPtr    = pData;
 800576a:	68fb      	ldr	r3, [r7, #12]
 800576c:	6a3a      	ldr	r2, [r7, #32]
 800576e:	625a      	str	r2, [r3, #36]	; 0x24
    hi2c->XferCount   = Size;
 8005770:	68fb      	ldr	r3, [r7, #12]
 8005772:	8cba      	ldrh	r2, [r7, #36]	; 0x24
 8005774:	855a      	strh	r2, [r3, #42]	; 0x2a
    hi2c->XferSize    = hi2c->XferCount;
 8005776:	68fb      	ldr	r3, [r7, #12]
 8005778:	8d5b      	ldrh	r3, [r3, #42]	; 0x2a
 800577a:	b29a      	uxth	r2, r3
 800577c:	68fb      	ldr	r3, [r7, #12]
 800577e:	851a      	strh	r2, [r3, #40]	; 0x28
    hi2c->XferOptions = I2C_NO_OPTION_FRAME;
 8005780:	68fb      	ldr	r3, [r7, #12]
 8005782:	4a4d      	ldr	r2, [pc, #308]	; (80058b8 <HAL_I2C_Mem_Write+0x1f0>)
 8005784:	62da      	str	r2, [r3, #44]	; 0x2c

    /* Send Slave Address and Memory Address */
    if (I2C_RequestMemoryWrite(hi2c, DevAddress, MemAddress, MemAddSize, Timeout, tickstart) != HAL_OK)
 8005786:	88f8      	ldrh	r0, [r7, #6]
 8005788:	893a      	ldrh	r2, [r7, #8]
 800578a:	8979      	ldrh	r1, [r7, #10]
 800578c:	697b      	ldr	r3, [r7, #20]
 800578e:	9301      	str	r3, [sp, #4]
 8005790:	6abb      	ldr	r3, [r7, #40]	; 0x28
 8005792:	9300      	str	r3, [sp, #0]
 8005794:	4603      	mov	r3, r0
 8005796:	68f8      	ldr	r0, [r7, #12]
 8005798:	f000 faf8 	bl	8005d8c <I2C_RequestMemoryWrite>
 800579c:	4603      	mov	r3, r0
 800579e:	2b00      	cmp	r3, #0
 80057a0:	d052      	beq.n	8005848 <HAL_I2C_Mem_Write+0x180>
    {
      return HAL_ERROR;
 80057a2:	2301      	movs	r3, #1
 80057a4:	e081      	b.n	80058aa <HAL_I2C_Mem_Write+0x1e2>
    }

    while (hi2c->XferSize > 0U)
    {
      /* Wait until TXE flag is set */
      if (I2C_WaitOnTXEFlagUntilTimeout(hi2c, Timeout, tickstart) != HAL_OK)
 80057a6:	697a      	ldr	r2, [r7, #20]
 80057a8:	6ab9      	ldr	r1, [r7, #40]	; 0x28
 80057aa:	68f8      	ldr	r0, [r7, #12]
 80057ac:	f000 fd86 	bl	80062bc <I2C_WaitOnTXEFlagUntilTimeout>
 80057b0:	4603      	mov	r3, r0
 80057b2:	2b00      	cmp	r3, #0
 80057b4:	d00d      	beq.n	80057d2 <HAL_I2C_Mem_Write+0x10a>
      {
        if (hi2c->ErrorCode == HAL_I2C_ERROR_AF)
 80057b6:	68fb      	ldr	r3, [r7, #12]
 80057b8:	6c1b      	ldr	r3, [r3, #64]	; 0x40
 80057ba:	2b04      	cmp	r3, #4
 80057bc:	d107      	bne.n	80057ce <HAL_I2C_Mem_Write+0x106>
        {
          /* Generate Stop */
          SET_BIT(hi2c->Instance->CR1, I2C_CR1_STOP);
 80057be:	68fb      	ldr	r3, [r7, #12]
 80057c0:	681b      	ldr	r3, [r3, #0]
 80057c2:	681a      	ldr	r2, [r3, #0]
 80057c4:	68fb      	ldr	r3, [r7, #12]
 80057c6:	681b      	ldr	r3, [r3, #0]
 80057c8:	f442 7200 	orr.w	r2, r2, #512	; 0x200
 80057cc:	601a      	str	r2, [r3, #0]
        }
        return HAL_ERROR;
 80057ce:	2301      	movs	r3, #1
 80057d0:	e06b      	b.n	80058aa <HAL_I2C_Mem_Write+0x1e2>
      }

      /* Write data to DR */
      hi2c->Instance->DR = *hi2c->pBuffPtr;
 80057d2:	68fb      	ldr	r3, [r7, #12]
 80057d4:	6a5b      	ldr	r3, [r3, #36]	; 0x24
 80057d6:	781a      	ldrb	r2, [r3, #0]
 80057d8:	68fb      	ldr	r3, [r7, #12]
 80057da:	681b      	ldr	r3, [r3, #0]
 80057dc:	611a      	str	r2, [r3, #16]

      /* Increment Buffer pointer */
      hi2c->pBuffPtr++;
 80057de:	68fb      	ldr	r3, [r7, #12]
 80057e0:	6a5b      	ldr	r3, [r3, #36]	; 0x24
 80057e2:	1c5a      	adds	r2, r3, #1
 80057e4:	68fb      	ldr	r3, [r7, #12]
 80057e6:	625a      	str	r2, [r3, #36]	; 0x24

      /* Update counter */
      hi2c->XferSize--;
 80057e8:	68fb      	ldr	r3, [r7, #12]
 80057ea:	8d1b      	ldrh	r3, [r3, #40]	; 0x28
 80057ec:	3b01      	subs	r3, #1
 80057ee:	b29a      	uxth	r2, r3
 80057f0:	68fb      	ldr	r3, [r7, #12]
 80057f2:	851a      	strh	r2, [r3, #40]	; 0x28
      hi2c->XferCount--;
 80057f4:	68fb      	ldr	r3, [r7, #12]
 80057f6:	8d5b      	ldrh	r3, [r3, #42]	; 0x2a
 80057f8:	b29b      	uxth	r3, r3
 80057fa:	3b01      	subs	r3, #1
 80057fc:	b29a      	uxth	r2, r3
 80057fe:	68fb      	ldr	r3, [r7, #12]
 8005800:	855a      	strh	r2, [r3, #42]	; 0x2a

      if ((__HAL_I2C_GET_FLAG(hi2c, I2C_FLAG_BTF) == SET) && (hi2c->XferSize != 0U))
 8005802:	68fb      	ldr	r3, [r7, #12]
 8005804:	681b      	ldr	r3, [r3, #0]
 8005806:	695b      	ldr	r3, [r3, #20]
 8005808:	f003 0304 	and.w	r3, r3, #4
 800580c:	2b04      	cmp	r3, #4
 800580e:	d11b      	bne.n	8005848 <HAL_I2C_Mem_Write+0x180>
 8005810:	68fb      	ldr	r3, [r7, #12]
 8005812:	8d1b      	ldrh	r3, [r3, #40]	; 0x28
 8005814:	2b00      	cmp	r3, #0
 8005816:	d017      	beq.n	8005848 <HAL_I2C_Mem_Write+0x180>
      {
        /* Write data to DR */
        hi2c->Instance->DR = *hi2c->pBuffPtr;
 8005818:	68fb      	ldr	r3, [r7, #12]
 800581a:	6a5b      	ldr	r3, [r3, #36]	; 0x24
 800581c:	781a      	ldrb	r2, [r3, #0]
 800581e:	68fb      	ldr	r3, [r7, #12]
 8005820:	681b      	ldr	r3, [r3, #0]
 8005822:	611a      	str	r2, [r3, #16]

        /* Increment Buffer pointer */
        hi2c->pBuffPtr++;
 8005824:	68fb      	ldr	r3, [r7, #12]
 8005826:	6a5b      	ldr	r3, [r3, #36]	; 0x24
 8005828:	1c5a      	adds	r2, r3, #1
 800582a:	68fb      	ldr	r3, [r7, #12]
 800582c:	625a      	str	r2, [r3, #36]	; 0x24

        /* Update counter */
        hi2c->XferSize--;
 800582e:	68fb      	ldr	r3, [r7, #12]
 8005830:	8d1b      	ldrh	r3, [r3, #40]	; 0x28
 8005832:	3b01      	subs	r3, #1
 8005834:	b29a      	uxth	r2, r3
 8005836:	68fb      	ldr	r3, [r7, #12]
 8005838:	851a      	strh	r2, [r3, #40]	; 0x28
        hi2c->XferCount--;
 800583a:	68fb      	ldr	r3, [r7, #12]
 800583c:	8d5b      	ldrh	r3, [r3, #42]	; 0x2a
 800583e:	b29b      	uxth	r3, r3
 8005840:	3b01      	subs	r3, #1
 8005842:	b29a      	uxth	r2, r3
 8005844:	68fb      	ldr	r3, [r7, #12]
 8005846:	855a      	strh	r2, [r3, #42]	; 0x2a
    while (hi2c->XferSize > 0U)
 8005848:	68fb      	ldr	r3, [r7, #12]
 800584a:	8d1b      	ldrh	r3, [r3, #40]	; 0x28
 800584c:	2b00      	cmp	r3, #0
 800584e:	d1aa      	bne.n	80057a6 <HAL_I2C_Mem_Write+0xde>
      }
    }

    /* Wait until BTF flag is set */
    if (I2C_WaitOnBTFFlagUntilTimeout(hi2c, Timeout, tickstart) != HAL_OK)
 8005850:	697a      	ldr	r2, [r7, #20]
 8005852:	6ab9      	ldr	r1, [r7, #40]	; 0x28
 8005854:	68f8      	ldr	r0, [r7, #12]
 8005856:	f000 fd79 	bl	800634c <I2C_WaitOnBTFFlagUntilTimeout>
 800585a:	4603      	mov	r3, r0
 800585c:	2b00      	cmp	r3, #0
 800585e:	d00d      	beq.n	800587c <HAL_I2C_Mem_Write+0x1b4>
    {
      if (hi2c->ErrorCode == HAL_I2C_ERROR_AF)
 8005860:	68fb      	ldr	r3, [r7, #12]
 8005862:	6c1b      	ldr	r3, [r3, #64]	; 0x40
 8005864:	2b04      	cmp	r3, #4
 8005866:	d107      	bne.n	8005878 <HAL_I2C_Mem_Write+0x1b0>
      {
        /* Generate Stop */
        SET_BIT(hi2c->Instance->CR1, I2C_CR1_STOP);
 8005868:	68fb      	ldr	r3, [r7, #12]
 800586a:	681b      	ldr	r3, [r3, #0]
 800586c:	681a      	ldr	r2, [r3, #0]
 800586e:	68fb      	ldr	r3, [r7, #12]
 8005870:	681b      	ldr	r3, [r3, #0]
 8005872:	f442 7200 	orr.w	r2, r2, #512	; 0x200
 8005876:	601a      	str	r2, [r3, #0]
      }
      return HAL_ERROR;
 8005878:	2301      	movs	r3, #1
 800587a:	e016      	b.n	80058aa <HAL_I2C_Mem_Write+0x1e2>
    }

    /* Generate Stop */
    SET_BIT(hi2c->Instance->CR1, I2C_CR1_STOP);
 800587c:	68fb      	ldr	r3, [r7, #12]
 800587e:	681b      	ldr	r3, [r3, #0]
 8005880:	681a      	ldr	r2, [r3, #0]
 8005882:	68fb      	ldr	r3, [r7, #12]
 8005884:	681b      	ldr	r3, [r3, #0]
 8005886:	f442 7200 	orr.w	r2, r2, #512	; 0x200
 800588a:	601a      	str	r2, [r3, #0]

    hi2c->State = HAL_I2C_STATE_READY;
 800588c:	68fb      	ldr	r3, [r7, #12]
 800588e:	2220      	movs	r2, #32
 8005890:	f883 203d 	strb.w	r2, [r3, #61]	; 0x3d
    hi2c->Mode = HAL_I2C_MODE_NONE;
 8005894:	68fb      	ldr	r3, [r7, #12]
 8005896:	2200      	movs	r2, #0
 8005898:	f883 203e 	strb.w	r2, [r3, #62]	; 0x3e

    /* Process Unlocked */
    __HAL_UNLOCK(hi2c);
 800589c:	68fb      	ldr	r3, [r7, #12]
 800589e:	2200      	movs	r2, #0
 80058a0:	f883 203c 	strb.w	r2, [r3, #60]	; 0x3c

    return HAL_OK;
 80058a4:	2300      	movs	r3, #0
 80058a6:	e000      	b.n	80058aa <HAL_I2C_Mem_Write+0x1e2>
  }
  else
  {
    return HAL_BUSY;
 80058a8:	2302      	movs	r3, #2
  }
}
 80058aa:	4618      	mov	r0, r3
 80058ac:	3718      	adds	r7, #24
 80058ae:	46bd      	mov	sp, r7
 80058b0:	bd80      	pop	{r7, pc}
 80058b2:	bf00      	nop
 80058b4:	00100002 	.word	0x00100002
 80058b8:	ffff0000 	.word	0xffff0000

080058bc <HAL_I2C_Mem_Read>:
  * @param  Size Amount of data to be sent
  * @param  Timeout Timeout duration
  * @retval HAL status
  */
HAL_StatusTypeDef HAL_I2C_Mem_Read(I2C_HandleTypeDef *hi2c, uint16_t DevAddress, uint16_t MemAddress, uint16_t MemAddSize, uint8_t *pData, uint16_t Size, uint32_t Timeout)
{
 80058bc:	b580      	push	{r7, lr}
 80058be:	b08c      	sub	sp, #48	; 0x30
 80058c0:	af02      	add	r7, sp, #8
 80058c2:	60f8      	str	r0, [r7, #12]
 80058c4:	4608      	mov	r0, r1
 80058c6:	4611      	mov	r1, r2
 80058c8:	461a      	mov	r2, r3
 80058ca:	4603      	mov	r3, r0
 80058cc:	817b      	strh	r3, [r7, #10]
 80058ce:	460b      	mov	r3, r1
 80058d0:	813b      	strh	r3, [r7, #8]
 80058d2:	4613      	mov	r3, r2
 80058d4:	80fb      	strh	r3, [r7, #6]
  __IO uint32_t count = 0U;
 80058d6:	2300      	movs	r3, #0
 80058d8:	623b      	str	r3, [r7, #32]

  /* Init tickstart for timeout management*/
  uint32_t tickstart = HAL_GetTick();
 80058da:	f7ff fa4b 	bl	8004d74 <HAL_GetTick>
 80058de:	6278      	str	r0, [r7, #36]	; 0x24

  /* Check the parameters */
  assert_param(IS_I2C_MEMADD_SIZE(MemAddSize));

  if (hi2c->State == HAL_I2C_STATE_READY)
 80058e0:	68fb      	ldr	r3, [r7, #12]
 80058e2:	f893 303d 	ldrb.w	r3, [r3, #61]	; 0x3d
 80058e6:	b2db      	uxtb	r3, r3
 80058e8:	2b20      	cmp	r3, #32
 80058ea:	f040 8244 	bne.w	8005d76 <HAL_I2C_Mem_Read+0x4ba>
  {
    /* Wait until BUSY flag is reset */
    if (I2C_WaitOnFlagUntilTimeout(hi2c, I2C_FLAG_BUSY, SET, I2C_TIMEOUT_BUSY_FLAG, tickstart) != HAL_OK)
 80058ee:	6a7b      	ldr	r3, [r7, #36]	; 0x24
 80058f0:	9300      	str	r3, [sp, #0]
 80058f2:	2319      	movs	r3, #25
 80058f4:	2201      	movs	r2, #1
 80058f6:	4982      	ldr	r1, [pc, #520]	; (8005b00 <HAL_I2C_Mem_Read+0x244>)
 80058f8:	68f8      	ldr	r0, [r7, #12]
 80058fa:	f000 fbc5 	bl	8006088 <I2C_WaitOnFlagUntilTimeout>
 80058fe:	4603      	mov	r3, r0
 8005900:	2b00      	cmp	r3, #0
 8005902:	d001      	beq.n	8005908 <HAL_I2C_Mem_Read+0x4c>
    {
      return HAL_BUSY;
 8005904:	2302      	movs	r3, #2
 8005906:	e237      	b.n	8005d78 <HAL_I2C_Mem_Read+0x4bc>
    }

    /* Process Locked */
    __HAL_LOCK(hi2c);
 8005908:	68fb      	ldr	r3, [r7, #12]
 800590a:	f893 303c 	ldrb.w	r3, [r3, #60]	; 0x3c
 800590e:	2b01      	cmp	r3, #1
 8005910:	d101      	bne.n	8005916 <HAL_I2C_Mem_Read+0x5a>
 8005912:	2302      	movs	r3, #2
 8005914:	e230      	b.n	8005d78 <HAL_I2C_Mem_Read+0x4bc>
 8005916:	68fb      	ldr	r3, [r7, #12]
 8005918:	2201      	movs	r2, #1
 800591a:	f883 203c 	strb.w	r2, [r3, #60]	; 0x3c

    /* Check if the I2C is already enabled */
    if ((hi2c->Instance->CR1 & I2C_CR1_PE) != I2C_CR1_PE)
 800591e:	68fb      	ldr	r3, [r7, #12]
 8005920:	681b      	ldr	r3, [r3, #0]
 8005922:	681b      	ldr	r3, [r3, #0]
 8005924:	f003 0301 	and.w	r3, r3, #1
 8005928:	2b01      	cmp	r3, #1
 800592a:	d007      	beq.n	800593c <HAL_I2C_Mem_Read+0x80>
    {
      /* Enable I2C peripheral */
      __HAL_I2C_ENABLE(hi2c);
 800592c:	68fb      	ldr	r3, [r7, #12]
 800592e:	681b      	ldr	r3, [r3, #0]
 8005930:	681a      	ldr	r2, [r3, #0]
 8005932:	68fb      	ldr	r3, [r7, #12]
 8005934:	681b      	ldr	r3, [r3, #0]
 8005936:	f042 0201 	orr.w	r2, r2, #1
 800593a:	601a      	str	r2, [r3, #0]
    }

    /* Disable Pos */
    CLEAR_BIT(hi2c->Instance->CR1, I2C_CR1_POS);
 800593c:	68fb      	ldr	r3, [r7, #12]
 800593e:	681b      	ldr	r3, [r3, #0]
 8005940:	681a      	ldr	r2, [r3, #0]
 8005942:	68fb      	ldr	r3, [r7, #12]
 8005944:	681b      	ldr	r3, [r3, #0]
 8005946:	f422 6200 	bic.w	r2, r2, #2048	; 0x800
 800594a:	601a      	str	r2, [r3, #0]

    hi2c->State     = HAL_I2C_STATE_BUSY_RX;
 800594c:	68fb      	ldr	r3, [r7, #12]
 800594e:	2222      	movs	r2, #34	; 0x22
 8005950:	f883 203d 	strb.w	r2, [r3, #61]	; 0x3d
    hi2c->Mode      = HAL_I2C_MODE_MEM;
 8005954:	68fb      	ldr	r3, [r7, #12]
 8005956:	2240      	movs	r2, #64	; 0x40
 8005958:	f883 203e 	strb.w	r2, [r3, #62]	; 0x3e
    hi2c->ErrorCode = HAL_I2C_ERROR_NONE;
 800595c:	68fb      	ldr	r3, [r7, #12]
 800595e:	2200      	movs	r2, #0
 8005960:	641a      	str	r2, [r3, #64]	; 0x40

    /* Prepare transfer parameters */
    hi2c->pBuffPtr    = pData;
 8005962:	68fb      	ldr	r3, [r7, #12]
 8005964:	6b3a      	ldr	r2, [r7, #48]	; 0x30
 8005966:	625a      	str	r2, [r3, #36]	; 0x24
    hi2c->XferCount   = Size;
 8005968:	68fb      	ldr	r3, [r7, #12]
 800596a:	8eba      	ldrh	r2, [r7, #52]	; 0x34
 800596c:	855a      	strh	r2, [r3, #42]	; 0x2a
    hi2c->XferSize    = hi2c->XferCount;
 800596e:	68fb      	ldr	r3, [r7, #12]
 8005970:	8d5b      	ldrh	r3, [r3, #42]	; 0x2a
 8005972:	b29a      	uxth	r2, r3
 8005974:	68fb      	ldr	r3, [r7, #12]
 8005976:	851a      	strh	r2, [r3, #40]	; 0x28
    hi2c->XferOptions = I2C_NO_OPTION_FRAME;
 8005978:	68fb      	ldr	r3, [r7, #12]
 800597a:	4a62      	ldr	r2, [pc, #392]	; (8005b04 <HAL_I2C_Mem_Read+0x248>)
 800597c:	62da      	str	r2, [r3, #44]	; 0x2c

    /* Send Slave Address and Memory Address */
    if (I2C_RequestMemoryRead(hi2c, DevAddress, MemAddress, MemAddSize, Timeout, tickstart) != HAL_OK)
 800597e:	88f8      	ldrh	r0, [r7, #6]
 8005980:	893a      	ldrh	r2, [r7, #8]
 8005982:	8979      	ldrh	r1, [r7, #10]
 8005984:	6a7b      	ldr	r3, [r7, #36]	; 0x24
 8005986:	9301      	str	r3, [sp, #4]
 8005988:	6bbb      	ldr	r3, [r7, #56]	; 0x38
 800598a:	9300      	str	r3, [sp, #0]
 800598c:	4603      	mov	r3, r0
 800598e:	68f8      	ldr	r0, [r7, #12]
 8005990:	f000 fa92 	bl	8005eb8 <I2C_RequestMemoryRead>
 8005994:	4603      	mov	r3, r0
 8005996:	2b00      	cmp	r3, #0
 8005998:	d001      	beq.n	800599e <HAL_I2C_Mem_Read+0xe2>
    {
      return HAL_ERROR;
 800599a:	2301      	movs	r3, #1
 800599c:	e1ec      	b.n	8005d78 <HAL_I2C_Mem_Read+0x4bc>
    }

    if (hi2c->XferSize == 0U)
 800599e:	68fb      	ldr	r3, [r7, #12]
 80059a0:	8d1b      	ldrh	r3, [r3, #40]	; 0x28
 80059a2:	2b00      	cmp	r3, #0
 80059a4:	d113      	bne.n	80059ce <HAL_I2C_Mem_Read+0x112>
    {
      /* Clear ADDR flag */
      __HAL_I2C_CLEAR_ADDRFLAG(hi2c);
 80059a6:	2300      	movs	r3, #0
 80059a8:	61fb      	str	r3, [r7, #28]
 80059aa:	68fb      	ldr	r3, [r7, #12]
 80059ac:	681b      	ldr	r3, [r3, #0]
 80059ae:	695b      	ldr	r3, [r3, #20]
 80059b0:	61fb      	str	r3, [r7, #28]
 80059b2:	68fb      	ldr	r3, [r7, #12]
 80059b4:	681b      	ldr	r3, [r3, #0]
 80059b6:	699b      	ldr	r3, [r3, #24]
 80059b8:	61fb      	str	r3, [r7, #28]
 80059ba:	69fb      	ldr	r3, [r7, #28]

      /* Generate Stop */
      SET_BIT(hi2c->Instance->CR1, I2C_CR1_STOP);
 80059bc:	68fb      	ldr	r3, [r7, #12]
 80059be:	681b      	ldr	r3, [r3, #0]
 80059c0:	681a      	ldr	r2, [r3, #0]
 80059c2:	68fb      	ldr	r3, [r7, #12]
 80059c4:	681b      	ldr	r3, [r3, #0]
 80059c6:	f442 7200 	orr.w	r2, r2, #512	; 0x200
 80059ca:	601a      	str	r2, [r3, #0]
 80059cc:	e1c0      	b.n	8005d50 <HAL_I2C_Mem_Read+0x494>
    }
    else if (hi2c->XferSize == 1U)
 80059ce:	68fb      	ldr	r3, [r7, #12]
 80059d0:	8d1b      	ldrh	r3, [r3, #40]	; 0x28
 80059d2:	2b01      	cmp	r3, #1
 80059d4:	d11e      	bne.n	8005a14 <HAL_I2C_Mem_Read+0x158>
    {
      /* Disable Acknowledge */
      CLEAR_BIT(hi2c->Instance->CR1, I2C_CR1_ACK);
 80059d6:	68fb      	ldr	r3, [r7, #12]
 80059d8:	681b      	ldr	r3, [r3, #0]
 80059da:	681a      	ldr	r2, [r3, #0]
 80059dc:	68fb      	ldr	r3, [r7, #12]
 80059de:	681b      	ldr	r3, [r3, #0]
 80059e0:	f422 6280 	bic.w	r2, r2, #1024	; 0x400
 80059e4:	601a      	str	r2, [r3, #0]
  __ASM volatile ("cpsid i" : : : "memory");
 80059e6:	b672      	cpsid	i
}
 80059e8:	bf00      	nop
      /* Disable all active IRQs around ADDR clearing and STOP programming because the EV6_3
         software sequence must complete before the current byte end of transfer */
      __disable_irq();

      /* Clear ADDR flag */
      __HAL_I2C_CLEAR_ADDRFLAG(hi2c);
 80059ea:	2300      	movs	r3, #0
 80059ec:	61bb      	str	r3, [r7, #24]
 80059ee:	68fb      	ldr	r3, [r7, #12]
 80059f0:	681b      	ldr	r3, [r3, #0]
 80059f2:	695b      	ldr	r3, [r3, #20]
 80059f4:	61bb      	str	r3, [r7, #24]
 80059f6:	68fb      	ldr	r3, [r7, #12]
 80059f8:	681b      	ldr	r3, [r3, #0]
 80059fa:	699b      	ldr	r3, [r3, #24]
 80059fc:	61bb      	str	r3, [r7, #24]
 80059fe:	69bb      	ldr	r3, [r7, #24]

      /* Generate Stop */
      SET_BIT(hi2c->Instance->CR1, I2C_CR1_STOP);
 8005a00:	68fb      	ldr	r3, [r7, #12]
 8005a02:	681b      	ldr	r3, [r3, #0]
 8005a04:	681a      	ldr	r2, [r3, #0]
 8005a06:	68fb      	ldr	r3, [r7, #12]
 8005a08:	681b      	ldr	r3, [r3, #0]
 8005a0a:	f442 7200 	orr.w	r2, r2, #512	; 0x200
 8005a0e:	601a      	str	r2, [r3, #0]
  __ASM volatile ("cpsie i" : : : "memory");
 8005a10:	b662      	cpsie	i
}
 8005a12:	e035      	b.n	8005a80 <HAL_I2C_Mem_Read+0x1c4>

      /* Re-enable IRQs */
      __enable_irq();
    }
    else if (hi2c->XferSize == 2U)
 8005a14:	68fb      	ldr	r3, [r7, #12]
 8005a16:	8d1b      	ldrh	r3, [r3, #40]	; 0x28
 8005a18:	2b02      	cmp	r3, #2
 8005a1a:	d11e      	bne.n	8005a5a <HAL_I2C_Mem_Read+0x19e>
    {
      /* Enable Pos */
      SET_BIT(hi2c->Instance->CR1, I2C_CR1_POS);
 8005a1c:	68fb      	ldr	r3, [r7, #12]
 8005a1e:	681b      	ldr	r3, [r3, #0]
 8005a20:	681a      	ldr	r2, [r3, #0]
 8005a22:	68fb      	ldr	r3, [r7, #12]
 8005a24:	681b      	ldr	r3, [r3, #0]
 8005a26:	f442 6200 	orr.w	r2, r2, #2048	; 0x800
 8005a2a:	601a      	str	r2, [r3, #0]
  __ASM volatile ("cpsid i" : : : "memory");
 8005a2c:	b672      	cpsid	i
}
 8005a2e:	bf00      	nop
      /* Disable all active IRQs around ADDR clearing and STOP programming because the EV6_3
         software sequence must complete before the current byte end of transfer */
      __disable_irq();

      /* Clear ADDR flag */
      __HAL_I2C_CLEAR_ADDRFLAG(hi2c);
 8005a30:	2300      	movs	r3, #0
 8005a32:	617b      	str	r3, [r7, #20]
 8005a34:	68fb      	ldr	r3, [r7, #12]
 8005a36:	681b      	ldr	r3, [r3, #0]
 8005a38:	695b      	ldr	r3, [r3, #20]
 8005a3a:	617b      	str	r3, [r7, #20]
 8005a3c:	68fb      	ldr	r3, [r7, #12]
 8005a3e:	681b      	ldr	r3, [r3, #0]
 8005a40:	699b      	ldr	r3, [r3, #24]
 8005a42:	617b      	str	r3, [r7, #20]
 8005a44:	697b      	ldr	r3, [r7, #20]

      /* Disable Acknowledge */
      CLEAR_BIT(hi2c->Instance->CR1, I2C_CR1_ACK);
 8005a46:	68fb      	ldr	r3, [r7, #12]
 8005a48:	681b      	ldr	r3, [r3, #0]
 8005a4a:	681a      	ldr	r2, [r3, #0]
 8005a4c:	68fb      	ldr	r3, [r7, #12]
 8005a4e:	681b      	ldr	r3, [r3, #0]
 8005a50:	f422 6280 	bic.w	r2, r2, #1024	; 0x400
 8005a54:	601a      	str	r2, [r3, #0]
  __ASM volatile ("cpsie i" : : : "memory");
 8005a56:	b662      	cpsie	i
}
 8005a58:	e012      	b.n	8005a80 <HAL_I2C_Mem_Read+0x1c4>
      __enable_irq();
    }
    else
    {
      /* Enable Acknowledge */
      SET_BIT(hi2c->Instance->CR1, I2C_CR1_ACK);
 8005a5a:	68fb      	ldr	r3, [r7, #12]
 8005a5c:	681b      	ldr	r3, [r3, #0]
 8005a5e:	681a      	ldr	r2, [r3, #0]
 8005a60:	68fb      	ldr	r3, [r7, #12]
 8005a62:	681b      	ldr	r3, [r3, #0]
 8005a64:	f442 6280 	orr.w	r2, r2, #1024	; 0x400
 8005a68:	601a      	str	r2, [r3, #0]
      /* Clear ADDR flag */
      __HAL_I2C_CLEAR_ADDRFLAG(hi2c);
 8005a6a:	2300      	movs	r3, #0
 8005a6c:	613b      	str	r3, [r7, #16]
 8005a6e:	68fb      	ldr	r3, [r7, #12]
 8005a70:	681b      	ldr	r3, [r3, #0]
 8005a72:	695b      	ldr	r3, [r3, #20]
 8005a74:	613b      	str	r3, [r7, #16]
 8005a76:	68fb      	ldr	r3, [r7, #12]
 8005a78:	681b      	ldr	r3, [r3, #0]
 8005a7a:	699b      	ldr	r3, [r3, #24]
 8005a7c:	613b      	str	r3, [r7, #16]
 8005a7e:	693b      	ldr	r3, [r7, #16]
    }

    while (hi2c->XferSize > 0U)
 8005a80:	e166      	b.n	8005d50 <HAL_I2C_Mem_Read+0x494>
    {
      if (hi2c->XferSize <= 3U)
 8005a82:	68fb      	ldr	r3, [r7, #12]
 8005a84:	8d1b      	ldrh	r3, [r3, #40]	; 0x28
 8005a86:	2b03      	cmp	r3, #3
 8005a88:	f200 811f 	bhi.w	8005cca <HAL_I2C_Mem_Read+0x40e>
      {
        /* One byte */
        if (hi2c->XferSize == 1U)
 8005a8c:	68fb      	ldr	r3, [r7, #12]
 8005a8e:	8d1b      	ldrh	r3, [r3, #40]	; 0x28
 8005a90:	2b01      	cmp	r3, #1
 8005a92:	d123      	bne.n	8005adc <HAL_I2C_Mem_Read+0x220>
        {
          /* Wait until RXNE flag is set */
          if (I2C_WaitOnRXNEFlagUntilTimeout(hi2c, Timeout, tickstart) != HAL_OK)
 8005a94:	6a7a      	ldr	r2, [r7, #36]	; 0x24
 8005a96:	6bb9      	ldr	r1, [r7, #56]	; 0x38
 8005a98:	68f8      	ldr	r0, [r7, #12]
 8005a9a:	f000 fc9f 	bl	80063dc <I2C_WaitOnRXNEFlagUntilTimeout>
 8005a9e:	4603      	mov	r3, r0
 8005aa0:	2b00      	cmp	r3, #0
 8005aa2:	d001      	beq.n	8005aa8 <HAL_I2C_Mem_Read+0x1ec>
          {
            return HAL_ERROR;
 8005aa4:	2301      	movs	r3, #1
 8005aa6:	e167      	b.n	8005d78 <HAL_I2C_Mem_Read+0x4bc>
          }

          /* Read data from DR */
          *hi2c->pBuffPtr = (uint8_t)hi2c->Instance->DR;
 8005aa8:	68fb      	ldr	r3, [r7, #12]
 8005aaa:	681b      	ldr	r3, [r3, #0]
 8005aac:	691a      	ldr	r2, [r3, #16]
 8005aae:	68fb      	ldr	r3, [r7, #12]
 8005ab0:	6a5b      	ldr	r3, [r3, #36]	; 0x24
 8005ab2:	b2d2      	uxtb	r2, r2
 8005ab4:	701a      	strb	r2, [r3, #0]

          /* Increment Buffer pointer */
          hi2c->pBuffPtr++;
 8005ab6:	68fb      	ldr	r3, [r7, #12]
 8005ab8:	6a5b      	ldr	r3, [r3, #36]	; 0x24
 8005aba:	1c5a      	adds	r2, r3, #1
 8005abc:	68fb      	ldr	r3, [r7, #12]
 8005abe:	625a      	str	r2, [r3, #36]	; 0x24

          /* Update counter */
          hi2c->XferSize--;
 8005ac0:	68fb      	ldr	r3, [r7, #12]
 8005ac2:	8d1b      	ldrh	r3, [r3, #40]	; 0x28
 8005ac4:	3b01      	subs	r3, #1
 8005ac6:	b29a      	uxth	r2, r3
 8005ac8:	68fb      	ldr	r3, [r7, #12]
 8005aca:	851a      	strh	r2, [r3, #40]	; 0x28
          hi2c->XferCount--;
 8005acc:	68fb      	ldr	r3, [r7, #12]
 8005ace:	8d5b      	ldrh	r3, [r3, #42]	; 0x2a
 8005ad0:	b29b      	uxth	r3, r3
 8005ad2:	3b01      	subs	r3, #1
 8005ad4:	b29a      	uxth	r2, r3
 8005ad6:	68fb      	ldr	r3, [r7, #12]
 8005ad8:	855a      	strh	r2, [r3, #42]	; 0x2a
 8005ada:	e139      	b.n	8005d50 <HAL_I2C_Mem_Read+0x494>
        }
        /* Two bytes */
        else if (hi2c->XferSize == 2U)
 8005adc:	68fb      	ldr	r3, [r7, #12]
 8005ade:	8d1b      	ldrh	r3, [r3, #40]	; 0x28
 8005ae0:	2b02      	cmp	r3, #2
 8005ae2:	d152      	bne.n	8005b8a <HAL_I2C_Mem_Read+0x2ce>
        {
          /* Wait until BTF flag is set */
          if (I2C_WaitOnFlagUntilTimeout(hi2c, I2C_FLAG_BTF, RESET, Timeout, tickstart) != HAL_OK)
 8005ae4:	6a7b      	ldr	r3, [r7, #36]	; 0x24
 8005ae6:	9300      	str	r3, [sp, #0]
 8005ae8:	6bbb      	ldr	r3, [r7, #56]	; 0x38
 8005aea:	2200      	movs	r2, #0
 8005aec:	4906      	ldr	r1, [pc, #24]	; (8005b08 <HAL_I2C_Mem_Read+0x24c>)
 8005aee:	68f8      	ldr	r0, [r7, #12]
 8005af0:	f000 faca 	bl	8006088 <I2C_WaitOnFlagUntilTimeout>
 8005af4:	4603      	mov	r3, r0
 8005af6:	2b00      	cmp	r3, #0
 8005af8:	d008      	beq.n	8005b0c <HAL_I2C_Mem_Read+0x250>
          {
            return HAL_ERROR;
 8005afa:	2301      	movs	r3, #1
 8005afc:	e13c      	b.n	8005d78 <HAL_I2C_Mem_Read+0x4bc>
 8005afe:	bf00      	nop
 8005b00:	00100002 	.word	0x00100002
 8005b04:	ffff0000 	.word	0xffff0000
 8005b08:	00010004 	.word	0x00010004
  __ASM volatile ("cpsid i" : : : "memory");
 8005b0c:	b672      	cpsid	i
}
 8005b0e:	bf00      	nop
          /* Disable all active IRQs around ADDR clearing and STOP programming because the EV6_3
             software sequence must complete before the current byte end of transfer */
          __disable_irq();

          /* Generate Stop */
          SET_BIT(hi2c->Instance->CR1, I2C_CR1_STOP);
 8005b10:	68fb      	ldr	r3, [r7, #12]
 8005b12:	681b      	ldr	r3, [r3, #0]
 8005b14:	681a      	ldr	r2, [r3, #0]
 8005b16:	68fb      	ldr	r3, [r7, #12]
 8005b18:	681b      	ldr	r3, [r3, #0]
 8005b1a:	f442 7200 	orr.w	r2, r2, #512	; 0x200
 8005b1e:	601a      	str	r2, [r3, #0]

          /* Read data from DR */
          *hi2c->pBuffPtr = (uint8_t)hi2c->Instance->DR;
 8005b20:	68fb      	ldr	r3, [r7, #12]
 8005b22:	681b      	ldr	r3, [r3, #0]
 8005b24:	691a      	ldr	r2, [r3, #16]
 8005b26:	68fb      	ldr	r3, [r7, #12]
 8005b28:	6a5b      	ldr	r3, [r3, #36]	; 0x24
 8005b2a:	b2d2      	uxtb	r2, r2
 8005b2c:	701a      	strb	r2, [r3, #0]

          /* Increment Buffer pointer */
          hi2c->pBuffPtr++;
 8005b2e:	68fb      	ldr	r3, [r7, #12]
 8005b30:	6a5b      	ldr	r3, [r3, #36]	; 0x24
 8005b32:	1c5a      	adds	r2, r3, #1
 8005b34:	68fb      	ldr	r3, [r7, #12]
 8005b36:	625a      	str	r2, [r3, #36]	; 0x24

          /* Update counter */
          hi2c->XferSize--;
 8005b38:	68fb      	ldr	r3, [r7, #12]
 8005b3a:	8d1b      	ldrh	r3, [r3, #40]	; 0x28
 8005b3c:	3b01      	subs	r3, #1
 8005b3e:	b29a      	uxth	r2, r3
 8005b40:	68fb      	ldr	r3, [r7, #12]
 8005b42:	851a      	strh	r2, [r3, #40]	; 0x28
          hi2c->XferCount--;
 8005b44:	68fb      	ldr	r3, [r7, #12]
 8005b46:	8d5b      	ldrh	r3, [r3, #42]	; 0x2a
 8005b48:	b29b      	uxth	r3, r3
 8005b4a:	3b01      	subs	r3, #1
 8005b4c:	b29a      	uxth	r2, r3
 8005b4e:	68fb      	ldr	r3, [r7, #12]
 8005b50:	855a      	strh	r2, [r3, #42]	; 0x2a
  __ASM volatile ("cpsie i" : : : "memory");
 8005b52:	b662      	cpsie	i
}
 8005b54:	bf00      	nop

          /* Re-enable IRQs */
          __enable_irq();

          /* Read data from DR */
          *hi2c->pBuffPtr = (uint8_t)hi2c->Instance->DR;
 8005b56:	68fb      	ldr	r3, [r7, #12]
 8005b58:	681b      	ldr	r3, [r3, #0]
 8005b5a:	691a      	ldr	r2, [r3, #16]
 8005b5c:	68fb      	ldr	r3, [r7, #12]
 8005b5e:	6a5b      	ldr	r3, [r3, #36]	; 0x24
 8005b60:	b2d2      	uxtb	r2, r2
 8005b62:	701a      	strb	r2, [r3, #0]

          /* Increment Buffer pointer */
          hi2c->pBuffPtr++;
 8005b64:	68fb      	ldr	r3, [r7, #12]
 8005b66:	6a5b      	ldr	r3, [r3, #36]	; 0x24
 8005b68:	1c5a      	adds	r2, r3, #1
 8005b6a:	68fb      	ldr	r3, [r7, #12]
 8005b6c:	625a      	str	r2, [r3, #36]	; 0x24

          /* Update counter */
          hi2c->XferSize--;
 8005b6e:	68fb      	ldr	r3, [r7, #12]
 8005b70:	8d1b      	ldrh	r3, [r3, #40]	; 0x28
 8005b72:	3b01      	subs	r3, #1
 8005b74:	b29a      	uxth	r2, r3
 8005b76:	68fb      	ldr	r3, [r7, #12]
 8005b78:	851a      	strh	r2, [r3, #40]	; 0x28
          hi2c->XferCount--;
 8005b7a:	68fb      	ldr	r3, [r7, #12]
 8005b7c:	8d5b      	ldrh	r3, [r3, #42]	; 0x2a
 8005b7e:	b29b      	uxth	r3, r3
 8005b80:	3b01      	subs	r3, #1
 8005b82:	b29a      	uxth	r2, r3
 8005b84:	68fb      	ldr	r3, [r7, #12]
 8005b86:	855a      	strh	r2, [r3, #42]	; 0x2a
 8005b88:	e0e2      	b.n	8005d50 <HAL_I2C_Mem_Read+0x494>
        }
        /* 3 Last bytes */
        else
        {
          /* Wait until BTF flag is set */
          if (I2C_WaitOnFlagUntilTimeout(hi2c, I2C_FLAG_BTF, RESET, Timeout, tickstart) != HAL_OK)
 8005b8a:	6a7b      	ldr	r3, [r7, #36]	; 0x24
 8005b8c:	9300      	str	r3, [sp, #0]
 8005b8e:	6bbb      	ldr	r3, [r7, #56]	; 0x38
 8005b90:	2200      	movs	r2, #0
 8005b92:	497b      	ldr	r1, [pc, #492]	; (8005d80 <HAL_I2C_Mem_Read+0x4c4>)
 8005b94:	68f8      	ldr	r0, [r7, #12]
 8005b96:	f000 fa77 	bl	8006088 <I2C_WaitOnFlagUntilTimeout>
 8005b9a:	4603      	mov	r3, r0
 8005b9c:	2b00      	cmp	r3, #0
 8005b9e:	d001      	beq.n	8005ba4 <HAL_I2C_Mem_Read+0x2e8>
          {
            return HAL_ERROR;
 8005ba0:	2301      	movs	r3, #1
 8005ba2:	e0e9      	b.n	8005d78 <HAL_I2C_Mem_Read+0x4bc>
          }

          /* Disable Acknowledge */
          CLEAR_BIT(hi2c->Instance->CR1, I2C_CR1_ACK);
 8005ba4:	68fb      	ldr	r3, [r7, #12]
 8005ba6:	681b      	ldr	r3, [r3, #0]
 8005ba8:	681a      	ldr	r2, [r3, #0]
 8005baa:	68fb      	ldr	r3, [r7, #12]
 8005bac:	681b      	ldr	r3, [r3, #0]
 8005bae:	f422 6280 	bic.w	r2, r2, #1024	; 0x400
 8005bb2:	601a      	str	r2, [r3, #0]
  __ASM volatile ("cpsid i" : : : "memory");
 8005bb4:	b672      	cpsid	i
}
 8005bb6:	bf00      	nop
          /* Disable all active IRQs around ADDR clearing and STOP programming because the EV6_3
             software sequence must complete before the current byte end of transfer */
          __disable_irq();

          /* Read data from DR */
          *hi2c->pBuffPtr = (uint8_t)hi2c->Instance->DR;
 8005bb8:	68fb      	ldr	r3, [r7, #12]
 8005bba:	681b      	ldr	r3, [r3, #0]
 8005bbc:	691a      	ldr	r2, [r3, #16]
 8005bbe:	68fb      	ldr	r3, [r7, #12]
 8005bc0:	6a5b      	ldr	r3, [r3, #36]	; 0x24
 8005bc2:	b2d2      	uxtb	r2, r2
 8005bc4:	701a      	strb	r2, [r3, #0]

          /* Increment Buffer pointer */
          hi2c->pBuffPtr++;
 8005bc6:	68fb      	ldr	r3, [r7, #12]
 8005bc8:	6a5b      	ldr	r3, [r3, #36]	; 0x24
 8005bca:	1c5a      	adds	r2, r3, #1
 8005bcc:	68fb      	ldr	r3, [r7, #12]
 8005bce:	625a      	str	r2, [r3, #36]	; 0x24

          /* Update counter */
          hi2c->XferSize--;
 8005bd0:	68fb      	ldr	r3, [r7, #12]
 8005bd2:	8d1b      	ldrh	r3, [r3, #40]	; 0x28
 8005bd4:	3b01      	subs	r3, #1
 8005bd6:	b29a      	uxth	r2, r3
 8005bd8:	68fb      	ldr	r3, [r7, #12]
 8005bda:	851a      	strh	r2, [r3, #40]	; 0x28
          hi2c->XferCount--;
 8005bdc:	68fb      	ldr	r3, [r7, #12]
 8005bde:	8d5b      	ldrh	r3, [r3, #42]	; 0x2a
 8005be0:	b29b      	uxth	r3, r3
 8005be2:	3b01      	subs	r3, #1
 8005be4:	b29a      	uxth	r2, r3
 8005be6:	68fb      	ldr	r3, [r7, #12]
 8005be8:	855a      	strh	r2, [r3, #42]	; 0x2a

          /* Wait until BTF flag is set */
          count = I2C_TIMEOUT_FLAG * (SystemCoreClock / 25U / 1000U);
 8005bea:	4b66      	ldr	r3, [pc, #408]	; (8005d84 <HAL_I2C_Mem_Read+0x4c8>)
 8005bec:	681b      	ldr	r3, [r3, #0]
 8005bee:	08db      	lsrs	r3, r3, #3
 8005bf0:	4a65      	ldr	r2, [pc, #404]	; (8005d88 <HAL_I2C_Mem_Read+0x4cc>)
 8005bf2:	fba2 2303 	umull	r2, r3, r2, r3
 8005bf6:	0a1a      	lsrs	r2, r3, #8
 8005bf8:	4613      	mov	r3, r2
 8005bfa:	009b      	lsls	r3, r3, #2
 8005bfc:	4413      	add	r3, r2
 8005bfe:	00da      	lsls	r2, r3, #3
 8005c00:	1ad3      	subs	r3, r2, r3
 8005c02:	623b      	str	r3, [r7, #32]
          do
          {
            count--;
 8005c04:	6a3b      	ldr	r3, [r7, #32]
 8005c06:	3b01      	subs	r3, #1
 8005c08:	623b      	str	r3, [r7, #32]
            if (count == 0U)
 8005c0a:	6a3b      	ldr	r3, [r7, #32]
 8005c0c:	2b00      	cmp	r3, #0
 8005c0e:	d118      	bne.n	8005c42 <HAL_I2C_Mem_Read+0x386>
            {
              hi2c->PreviousState       = I2C_STATE_NONE;
 8005c10:	68fb      	ldr	r3, [r7, #12]
 8005c12:	2200      	movs	r2, #0
 8005c14:	631a      	str	r2, [r3, #48]	; 0x30
              hi2c->State               = HAL_I2C_STATE_READY;
 8005c16:	68fb      	ldr	r3, [r7, #12]
 8005c18:	2220      	movs	r2, #32
 8005c1a:	f883 203d 	strb.w	r2, [r3, #61]	; 0x3d
              hi2c->Mode                = HAL_I2C_MODE_NONE;
 8005c1e:	68fb      	ldr	r3, [r7, #12]
 8005c20:	2200      	movs	r2, #0
 8005c22:	f883 203e 	strb.w	r2, [r3, #62]	; 0x3e
              hi2c->ErrorCode           |= HAL_I2C_ERROR_TIMEOUT;
 8005c26:	68fb      	ldr	r3, [r7, #12]
 8005c28:	6c1b      	ldr	r3, [r3, #64]	; 0x40
 8005c2a:	f043 0220 	orr.w	r2, r3, #32
 8005c2e:	68fb      	ldr	r3, [r7, #12]
 8005c30:	641a      	str	r2, [r3, #64]	; 0x40
  __ASM volatile ("cpsie i" : : : "memory");
 8005c32:	b662      	cpsie	i
}
 8005c34:	bf00      	nop

              /* Re-enable IRQs */
              __enable_irq();

              /* Process Unlocked */
              __HAL_UNLOCK(hi2c);
 8005c36:	68fb      	ldr	r3, [r7, #12]
 8005c38:	2200      	movs	r2, #0
 8005c3a:	f883 203c 	strb.w	r2, [r3, #60]	; 0x3c

              return HAL_ERROR;
 8005c3e:	2301      	movs	r3, #1
 8005c40:	e09a      	b.n	8005d78 <HAL_I2C_Mem_Read+0x4bc>
            }
          }
          while (__HAL_I2C_GET_FLAG(hi2c, I2C_FLAG_BTF) == RESET);
 8005c42:	68fb      	ldr	r3, [r7, #12]
 8005c44:	681b      	ldr	r3, [r3, #0]
 8005c46:	695b      	ldr	r3, [r3, #20]
 8005c48:	f003 0304 	and.w	r3, r3, #4
 8005c4c:	2b04      	cmp	r3, #4
 8005c4e:	d1d9      	bne.n	8005c04 <HAL_I2C_Mem_Read+0x348>

          /* Generate Stop */
          SET_BIT(hi2c->Instance->CR1, I2C_CR1_STOP);
 8005c50:	68fb      	ldr	r3, [r7, #12]
 8005c52:	681b      	ldr	r3, [r3, #0]
 8005c54:	681a      	ldr	r2, [r3, #0]
 8005c56:	68fb      	ldr	r3, [r7, #12]
 8005c58:	681b      	ldr	r3, [r3, #0]
 8005c5a:	f442 7200 	orr.w	r2, r2, #512	; 0x200
 8005c5e:	601a      	str	r2, [r3, #0]

          /* Read data from DR */
          *hi2c->pBuffPtr = (uint8_t)hi2c->Instance->DR;
 8005c60:	68fb      	ldr	r3, [r7, #12]
 8005c62:	681b      	ldr	r3, [r3, #0]
 8005c64:	691a      	ldr	r2, [r3, #16]
 8005c66:	68fb      	ldr	r3, [r7, #12]
 8005c68:	6a5b      	ldr	r3, [r3, #36]	; 0x24
 8005c6a:	b2d2      	uxtb	r2, r2
 8005c6c:	701a      	strb	r2, [r3, #0]

          /* Increment Buffer pointer */
          hi2c->pBuffPtr++;
 8005c6e:	68fb      	ldr	r3, [r7, #12]
 8005c70:	6a5b      	ldr	r3, [r3, #36]	; 0x24
 8005c72:	1c5a      	adds	r2, r3, #1
 8005c74:	68fb      	ldr	r3, [r7, #12]
 8005c76:	625a      	str	r2, [r3, #36]	; 0x24

          /* Update counter */
          hi2c->XferSize--;
 8005c78:	68fb      	ldr	r3, [r7, #12]
 8005c7a:	8d1b      	ldrh	r3, [r3, #40]	; 0x28
 8005c7c:	3b01      	subs	r3, #1
 8005c7e:	b29a      	uxth	r2, r3
 8005c80:	68fb      	ldr	r3, [r7, #12]
 8005c82:	851a      	strh	r2, [r3, #40]	; 0x28
          hi2c->XferCount--;
 8005c84:	68fb      	ldr	r3, [r7, #12]
 8005c86:	8d5b      	ldrh	r3, [r3, #42]	; 0x2a
 8005c88:	b29b      	uxth	r3, r3
 8005c8a:	3b01      	subs	r3, #1
 8005c8c:	b29a      	uxth	r2, r3
 8005c8e:	68fb      	ldr	r3, [r7, #12]
 8005c90:	855a      	strh	r2, [r3, #42]	; 0x2a
  __ASM volatile ("cpsie i" : : : "memory");
 8005c92:	b662      	cpsie	i
}
 8005c94:	bf00      	nop

          /* Re-enable IRQs */
          __enable_irq();

          /* Read data from DR */
          *hi2c->pBuffPtr = (uint8_t)hi2c->Instance->DR;
 8005c96:	68fb      	ldr	r3, [r7, #12]
 8005c98:	681b      	ldr	r3, [r3, #0]
 8005c9a:	691a      	ldr	r2, [r3, #16]
 8005c9c:	68fb      	ldr	r3, [r7, #12]
 8005c9e:	6a5b      	ldr	r3, [r3, #36]	; 0x24
 8005ca0:	b2d2      	uxtb	r2, r2
 8005ca2:	701a      	strb	r2, [r3, #0]

          /* Increment Buffer pointer */
          hi2c->pBuffPtr++;
 8005ca4:	68fb      	ldr	r3, [r7, #12]
 8005ca6:	6a5b      	ldr	r3, [r3, #36]	; 0x24
 8005ca8:	1c5a      	adds	r2, r3, #1
 8005caa:	68fb      	ldr	r3, [r7, #12]
 8005cac:	625a      	str	r2, [r3, #36]	; 0x24

          /* Update counter */
          hi2c->XferSize--;
 8005cae:	68fb      	ldr	r3, [r7, #12]
 8005cb0:	8d1b      	ldrh	r3, [r3, #40]	; 0x28
 8005cb2:	3b01      	subs	r3, #1
 8005cb4:	b29a      	uxth	r2, r3
 8005cb6:	68fb      	ldr	r3, [r7, #12]
 8005cb8:	851a      	strh	r2, [r3, #40]	; 0x28
          hi2c->XferCount--;
 8005cba:	68fb      	ldr	r3, [r7, #12]
 8005cbc:	8d5b      	ldrh	r3, [r3, #42]	; 0x2a
 8005cbe:	b29b      	uxth	r3, r3
 8005cc0:	3b01      	subs	r3, #1
 8005cc2:	b29a      	uxth	r2, r3
 8005cc4:	68fb      	ldr	r3, [r7, #12]
 8005cc6:	855a      	strh	r2, [r3, #42]	; 0x2a
 8005cc8:	e042      	b.n	8005d50 <HAL_I2C_Mem_Read+0x494>
        }
      }
      else
      {
        /* Wait until RXNE flag is set */
        if (I2C_WaitOnRXNEFlagUntilTimeout(hi2c, Timeout, tickstart) != HAL_OK)
 8005cca:	6a7a      	ldr	r2, [r7, #36]	; 0x24
 8005ccc:	6bb9      	ldr	r1, [r7, #56]	; 0x38
 8005cce:	68f8      	ldr	r0, [r7, #12]
 8005cd0:	f000 fb84 	bl	80063dc <I2C_WaitOnRXNEFlagUntilTimeout>
 8005cd4:	4603      	mov	r3, r0
 8005cd6:	2b00      	cmp	r3, #0
 8005cd8:	d001      	beq.n	8005cde <HAL_I2C_Mem_Read+0x422>
        {
          return HAL_ERROR;
 8005cda:	2301      	movs	r3, #1
 8005cdc:	e04c      	b.n	8005d78 <HAL_I2C_Mem_Read+0x4bc>
        }

        /* Read data from DR */
        *hi2c->pBuffPtr = (uint8_t)hi2c->Instance->DR;
 8005cde:	68fb      	ldr	r3, [r7, #12]
 8005ce0:	681b      	ldr	r3, [r3, #0]
 8005ce2:	691a      	ldr	r2, [r3, #16]
 8005ce4:	68fb      	ldr	r3, [r7, #12]
 8005ce6:	6a5b      	ldr	r3, [r3, #36]	; 0x24
 8005ce8:	b2d2      	uxtb	r2, r2
 8005cea:	701a      	strb	r2, [r3, #0]

        /* Increment Buffer pointer */
        hi2c->pBuffPtr++;
 8005cec:	68fb      	ldr	r3, [r7, #12]
 8005cee:	6a5b      	ldr	r3, [r3, #36]	; 0x24
 8005cf0:	1c5a      	adds	r2, r3, #1
 8005cf2:	68fb      	ldr	r3, [r7, #12]
 8005cf4:	625a      	str	r2, [r3, #36]	; 0x24

        /* Update counter */
        hi2c->XferSize--;
 8005cf6:	68fb      	ldr	r3, [r7, #12]
 8005cf8:	8d1b      	ldrh	r3, [r3, #40]	; 0x28
 8005cfa:	3b01      	subs	r3, #1
 8005cfc:	b29a      	uxth	r2, r3
 8005cfe:	68fb      	ldr	r3, [r7, #12]
 8005d00:	851a      	strh	r2, [r3, #40]	; 0x28
        hi2c->XferCount--;
 8005d02:	68fb      	ldr	r3, [r7, #12]
 8005d04:	8d5b      	ldrh	r3, [r3, #42]	; 0x2a
 8005d06:	b29b      	uxth	r3, r3
 8005d08:	3b01      	subs	r3, #1
 8005d0a:	b29a      	uxth	r2, r3
 8005d0c:	68fb      	ldr	r3, [r7, #12]
 8005d0e:	855a      	strh	r2, [r3, #42]	; 0x2a

        if (__HAL_I2C_GET_FLAG(hi2c, I2C_FLAG_BTF) == SET)
 8005d10:	68fb      	ldr	r3, [r7, #12]
 8005d12:	681b      	ldr	r3, [r3, #0]
 8005d14:	695b      	ldr	r3, [r3, #20]
 8005d16:	f003 0304 	and.w	r3, r3, #4
 8005d1a:	2b04      	cmp	r3, #4
 8005d1c:	d118      	bne.n	8005d50 <HAL_I2C_Mem_Read+0x494>
        {
          /* Read data from DR */
          *hi2c->pBuffPtr = (uint8_t)hi2c->Instance->DR;
 8005d1e:	68fb      	ldr	r3, [r7, #12]
 8005d20:	681b      	ldr	r3, [r3, #0]
 8005d22:	691a      	ldr	r2, [r3, #16]
 8005d24:	68fb      	ldr	r3, [r7, #12]
 8005d26:	6a5b      	ldr	r3, [r3, #36]	; 0x24
 8005d28:	b2d2      	uxtb	r2, r2
 8005d2a:	701a      	strb	r2, [r3, #0]

          /* Increment Buffer pointer */
          hi2c->pBuffPtr++;
 8005d2c:	68fb      	ldr	r3, [r7, #12]
 8005d2e:	6a5b      	ldr	r3, [r3, #36]	; 0x24
 8005d30:	1c5a      	adds	r2, r3, #1
 8005d32:	68fb      	ldr	r3, [r7, #12]
 8005d34:	625a      	str	r2, [r3, #36]	; 0x24

          /* Update counter */
          hi2c->XferSize--;
 8005d36:	68fb      	ldr	r3, [r7, #12]
 8005d38:	8d1b      	ldrh	r3, [r3, #40]	; 0x28
 8005d3a:	3b01      	subs	r3, #1
 8005d3c:	b29a      	uxth	r2, r3
 8005d3e:	68fb      	ldr	r3, [r7, #12]
 8005d40:	851a      	strh	r2, [r3, #40]	; 0x28
          hi2c->XferCount--;
 8005d42:	68fb      	ldr	r3, [r7, #12]
 8005d44:	8d5b      	ldrh	r3, [r3, #42]	; 0x2a
 8005d46:	b29b      	uxth	r3, r3
 8005d48:	3b01      	subs	r3, #1
 8005d4a:	b29a      	uxth	r2, r3
 8005d4c:	68fb      	ldr	r3, [r7, #12]
 8005d4e:	855a      	strh	r2, [r3, #42]	; 0x2a
    while (hi2c->XferSize > 0U)
 8005d50:	68fb      	ldr	r3, [r7, #12]
 8005d52:	8d1b      	ldrh	r3, [r3, #40]	; 0x28
 8005d54:	2b00      	cmp	r3, #0
 8005d56:	f47f ae94 	bne.w	8005a82 <HAL_I2C_Mem_Read+0x1c6>
        }
      }
    }

    hi2c->State = HAL_I2C_STATE_READY;
 8005d5a:	68fb      	ldr	r3, [r7, #12]
 8005d5c:	2220      	movs	r2, #32
 8005d5e:	f883 203d 	strb.w	r2, [r3, #61]	; 0x3d
    hi2c->Mode = HAL_I2C_MODE_NONE;
 8005d62:	68fb      	ldr	r3, [r7, #12]
 8005d64:	2200      	movs	r2, #0
 8005d66:	f883 203e 	strb.w	r2, [r3, #62]	; 0x3e

    /* Process Unlocked */
    __HAL_UNLOCK(hi2c);
 8005d6a:	68fb      	ldr	r3, [r7, #12]
 8005d6c:	2200      	movs	r2, #0
 8005d6e:	f883 203c 	strb.w	r2, [r3, #60]	; 0x3c

    return HAL_OK;
 8005d72:	2300      	movs	r3, #0
 8005d74:	e000      	b.n	8005d78 <HAL_I2C_Mem_Read+0x4bc>
  }
  else
  {
    return HAL_BUSY;
 8005d76:	2302      	movs	r3, #2
  }
}
 8005d78:	4618      	mov	r0, r3
 8005d7a:	3728      	adds	r7, #40	; 0x28
 8005d7c:	46bd      	mov	sp, r7
 8005d7e:	bd80      	pop	{r7, pc}
 8005d80:	00010004 	.word	0x00010004
 8005d84:	200000ac 	.word	0x200000ac
 8005d88:	14f8b589 	.word	0x14f8b589

08005d8c <I2C_RequestMemoryWrite>:
  * @param  Timeout Timeout duration
  * @param  Tickstart Tick start value
  * @retval HAL status
  */
static HAL_StatusTypeDef I2C_RequestMemoryWrite(I2C_HandleTypeDef *hi2c, uint16_t DevAddress, uint16_t MemAddress, uint16_t MemAddSize, uint32_t Timeout, uint32_t Tickstart)
{
 8005d8c:	b580      	push	{r7, lr}
 8005d8e:	b088      	sub	sp, #32
 8005d90:	af02      	add	r7, sp, #8
 8005d92:	60f8      	str	r0, [r7, #12]
 8005d94:	4608      	mov	r0, r1
 8005d96:	4611      	mov	r1, r2
 8005d98:	461a      	mov	r2, r3
 8005d9a:	4603      	mov	r3, r0
 8005d9c:	817b      	strh	r3, [r7, #10]
 8005d9e:	460b      	mov	r3, r1
 8005da0:	813b      	strh	r3, [r7, #8]
 8005da2:	4613      	mov	r3, r2
 8005da4:	80fb      	strh	r3, [r7, #6]
  /* Generate Start */
  SET_BIT(hi2c->Instance->CR1, I2C_CR1_START);
 8005da6:	68fb      	ldr	r3, [r7, #12]
 8005da8:	681b      	ldr	r3, [r3, #0]
 8005daa:	681a      	ldr	r2, [r3, #0]
 8005dac:	68fb      	ldr	r3, [r7, #12]
 8005dae:	681b      	ldr	r3, [r3, #0]
 8005db0:	f442 7280 	orr.w	r2, r2, #256	; 0x100
 8005db4:	601a      	str	r2, [r3, #0]

  /* Wait until SB flag is set */
  if (I2C_WaitOnFlagUntilTimeout(hi2c, I2C_FLAG_SB, RESET, Timeout, Tickstart) != HAL_OK)
 8005db6:	6a7b      	ldr	r3, [r7, #36]	; 0x24
 8005db8:	9300      	str	r3, [sp, #0]
 8005dba:	6a3b      	ldr	r3, [r7, #32]
 8005dbc:	2200      	movs	r2, #0
 8005dbe:	f04f 1101 	mov.w	r1, #65537	; 0x10001
 8005dc2:	68f8      	ldr	r0, [r7, #12]
 8005dc4:	f000 f960 	bl	8006088 <I2C_WaitOnFlagUntilTimeout>
 8005dc8:	4603      	mov	r3, r0
 8005dca:	2b00      	cmp	r3, #0
 8005dcc:	d00d      	beq.n	8005dea <I2C_RequestMemoryWrite+0x5e>
  {
    if (READ_BIT(hi2c->Instance->CR1, I2C_CR1_START) == I2C_CR1_START)
 8005dce:	68fb      	ldr	r3, [r7, #12]
 8005dd0:	681b      	ldr	r3, [r3, #0]
 8005dd2:	681b      	ldr	r3, [r3, #0]
 8005dd4:	f403 7380 	and.w	r3, r3, #256	; 0x100
 8005dd8:	f5b3 7f80 	cmp.w	r3, #256	; 0x100
 8005ddc:	d103      	bne.n	8005de6 <I2C_RequestMemoryWrite+0x5a>
    {
      hi2c->ErrorCode = HAL_I2C_WRONG_START;
 8005dde:	68fb      	ldr	r3, [r7, #12]
 8005de0:	f44f 7200 	mov.w	r2, #512	; 0x200
 8005de4:	641a      	str	r2, [r3, #64]	; 0x40
    }
    return HAL_TIMEOUT;
 8005de6:	2303      	movs	r3, #3
 8005de8:	e05f      	b.n	8005eaa <I2C_RequestMemoryWrite+0x11e>
  }

  /* Send slave address */
  hi2c->Instance->DR = I2C_7BIT_ADD_WRITE(DevAddress);
 8005dea:	897b      	ldrh	r3, [r7, #10]
 8005dec:	b2db      	uxtb	r3, r3
 8005dee:	461a      	mov	r2, r3
 8005df0:	68fb      	ldr	r3, [r7, #12]
 8005df2:	681b      	ldr	r3, [r3, #0]
 8005df4:	f002 02fe 	and.w	r2, r2, #254	; 0xfe
 8005df8:	611a      	str	r2, [r3, #16]

  /* Wait until ADDR flag is set */
  if (I2C_WaitOnMasterAddressFlagUntilTimeout(hi2c, I2C_FLAG_ADDR, Timeout, Tickstart) != HAL_OK)
 8005dfa:	6a7b      	ldr	r3, [r7, #36]	; 0x24
 8005dfc:	6a3a      	ldr	r2, [r7, #32]
 8005dfe:	492d      	ldr	r1, [pc, #180]	; (8005eb4 <I2C_RequestMemoryWrite+0x128>)
 8005e00:	68f8      	ldr	r0, [r7, #12]
 8005e02:	f000 f9bb 	bl	800617c <I2C_WaitOnMasterAddressFlagUntilTimeout>
 8005e06:	4603      	mov	r3, r0
 8005e08:	2b00      	cmp	r3, #0
 8005e0a:	d001      	beq.n	8005e10 <I2C_RequestMemoryWrite+0x84>
  {
    return HAL_ERROR;
 8005e0c:	2301      	movs	r3, #1
 8005e0e:	e04c      	b.n	8005eaa <I2C_RequestMemoryWrite+0x11e>
  }

  /* Clear ADDR flag */
  __HAL_I2C_CLEAR_ADDRFLAG(hi2c);
 8005e10:	2300      	movs	r3, #0
 8005e12:	617b      	str	r3, [r7, #20]
 8005e14:	68fb      	ldr	r3, [r7, #12]
 8005e16:	681b      	ldr	r3, [r3, #0]
 8005e18:	695b      	ldr	r3, [r3, #20]
 8005e1a:	617b      	str	r3, [r7, #20]
 8005e1c:	68fb      	ldr	r3, [r7, #12]
 8005e1e:	681b      	ldr	r3, [r3, #0]
 8005e20:	699b      	ldr	r3, [r3, #24]
 8005e22:	617b      	str	r3, [r7, #20]
 8005e24:	697b      	ldr	r3, [r7, #20]

  /* Wait until TXE flag is set */
  if (I2C_WaitOnTXEFlagUntilTimeout(hi2c, Timeout, Tickstart) != HAL_OK)
 8005e26:	6a7a      	ldr	r2, [r7, #36]	; 0x24
 8005e28:	6a39      	ldr	r1, [r7, #32]
 8005e2a:	68f8      	ldr	r0, [r7, #12]
 8005e2c:	f000 fa46 	bl	80062bc <I2C_WaitOnTXEFlagUntilTimeout>
 8005e30:	4603      	mov	r3, r0
 8005e32:	2b00      	cmp	r3, #0
 8005e34:	d00d      	beq.n	8005e52 <I2C_RequestMemoryWrite+0xc6>
  {
    if (hi2c->ErrorCode == HAL_I2C_ERROR_AF)
 8005e36:	68fb      	ldr	r3, [r7, #12]
 8005e38:	6c1b      	ldr	r3, [r3, #64]	; 0x40
 8005e3a:	2b04      	cmp	r3, #4
 8005e3c:	d107      	bne.n	8005e4e <I2C_RequestMemoryWrite+0xc2>
    {
      /* Generate Stop */
      SET_BIT(hi2c->Instance->CR1, I2C_CR1_STOP);
 8005e3e:	68fb      	ldr	r3, [r7, #12]
 8005e40:	681b      	ldr	r3, [r3, #0]
 8005e42:	681a      	ldr	r2, [r3, #0]
 8005e44:	68fb      	ldr	r3, [r7, #12]
 8005e46:	681b      	ldr	r3, [r3, #0]
 8005e48:	f442 7200 	orr.w	r2, r2, #512	; 0x200
 8005e4c:	601a      	str	r2, [r3, #0]
    }
    return HAL_ERROR;
 8005e4e:	2301      	movs	r3, #1
 8005e50:	e02b      	b.n	8005eaa <I2C_RequestMemoryWrite+0x11e>
  }

  /* If Memory address size is 8Bit */
  if (MemAddSize == I2C_MEMADD_SIZE_8BIT)
 8005e52:	88fb      	ldrh	r3, [r7, #6]
 8005e54:	2b01      	cmp	r3, #1
 8005e56:	d105      	bne.n	8005e64 <I2C_RequestMemoryWrite+0xd8>
  {
    /* Send Memory Address */
    hi2c->Instance->DR = I2C_MEM_ADD_LSB(MemAddress);
 8005e58:	893b      	ldrh	r3, [r7, #8]
 8005e5a:	b2da      	uxtb	r2, r3
 8005e5c:	68fb      	ldr	r3, [r7, #12]
 8005e5e:	681b      	ldr	r3, [r3, #0]
 8005e60:	611a      	str	r2, [r3, #16]
 8005e62:	e021      	b.n	8005ea8 <I2C_RequestMemoryWrite+0x11c>
  }
  /* If Memory address size is 16Bit */
  else
  {
    /* Send MSB of Memory Address */
    hi2c->Instance->DR = I2C_MEM_ADD_MSB(MemAddress);
 8005e64:	893b      	ldrh	r3, [r7, #8]
 8005e66:	0a1b      	lsrs	r3, r3, #8
 8005e68:	b29b      	uxth	r3, r3
 8005e6a:	b2da      	uxtb	r2, r3
 8005e6c:	68fb      	ldr	r3, [r7, #12]
 8005e6e:	681b      	ldr	r3, [r3, #0]
 8005e70:	611a      	str	r2, [r3, #16]

    /* Wait until TXE flag is set */
    if (I2C_WaitOnTXEFlagUntilTimeout(hi2c, Timeout, Tickstart) != HAL_OK)
 8005e72:	6a7a      	ldr	r2, [r7, #36]	; 0x24
 8005e74:	6a39      	ldr	r1, [r7, #32]
 8005e76:	68f8      	ldr	r0, [r7, #12]
 8005e78:	f000 fa20 	bl	80062bc <I2C_WaitOnTXEFlagUntilTimeout>
 8005e7c:	4603      	mov	r3, r0
 8005e7e:	2b00      	cmp	r3, #0
 8005e80:	d00d      	beq.n	8005e9e <I2C_RequestMemoryWrite+0x112>
    {
      if (hi2c->ErrorCode == HAL_I2C_ERROR_AF)
 8005e82:	68fb      	ldr	r3, [r7, #12]
 8005e84:	6c1b      	ldr	r3, [r3, #64]	; 0x40
 8005e86:	2b04      	cmp	r3, #4
 8005e88:	d107      	bne.n	8005e9a <I2C_RequestMemoryWrite+0x10e>
      {
        /* Generate Stop */
        SET_BIT(hi2c->Instance->CR1, I2C_CR1_STOP);
 8005e8a:	68fb      	ldr	r3, [r7, #12]
 8005e8c:	681b      	ldr	r3, [r3, #0]
 8005e8e:	681a      	ldr	r2, [r3, #0]
 8005e90:	68fb      	ldr	r3, [r7, #12]
 8005e92:	681b      	ldr	r3, [r3, #0]
 8005e94:	f442 7200 	orr.w	r2, r2, #512	; 0x200
 8005e98:	601a      	str	r2, [r3, #0]
      }
      return HAL_ERROR;
 8005e9a:	2301      	movs	r3, #1
 8005e9c:	e005      	b.n	8005eaa <I2C_RequestMemoryWrite+0x11e>
    }

    /* Send LSB of Memory Address */
    hi2c->Instance->DR = I2C_MEM_ADD_LSB(MemAddress);
 8005e9e:	893b      	ldrh	r3, [r7, #8]
 8005ea0:	b2da      	uxtb	r2, r3
 8005ea2:	68fb      	ldr	r3, [r7, #12]
 8005ea4:	681b      	ldr	r3, [r3, #0]
 8005ea6:	611a      	str	r2, [r3, #16]
  }

  return HAL_OK;
 8005ea8:	2300      	movs	r3, #0
}
 8005eaa:	4618      	mov	r0, r3
 8005eac:	3718      	adds	r7, #24
 8005eae:	46bd      	mov	sp, r7
 8005eb0:	bd80      	pop	{r7, pc}
 8005eb2:	bf00      	nop
 8005eb4:	00010002 	.word	0x00010002

08005eb8 <I2C_RequestMemoryRead>:
  * @param  Timeout Timeout duration
  * @param  Tickstart Tick start value
  * @retval HAL status
  */
static HAL_StatusTypeDef I2C_RequestMemoryRead(I2C_HandleTypeDef *hi2c, uint16_t DevAddress, uint16_t MemAddress, uint16_t MemAddSize, uint32_t Timeout, uint32_t Tickstart)
{
 8005eb8:	b580      	push	{r7, lr}
 8005eba:	b088      	sub	sp, #32
 8005ebc:	af02      	add	r7, sp, #8
 8005ebe:	60f8      	str	r0, [r7, #12]
 8005ec0:	4608      	mov	r0, r1
 8005ec2:	4611      	mov	r1, r2
 8005ec4:	461a      	mov	r2, r3
 8005ec6:	4603      	mov	r3, r0
 8005ec8:	817b      	strh	r3, [r7, #10]
 8005eca:	460b      	mov	r3, r1
 8005ecc:	813b      	strh	r3, [r7, #8]
 8005ece:	4613      	mov	r3, r2
 8005ed0:	80fb      	strh	r3, [r7, #6]
  /* Enable Acknowledge */
  SET_BIT(hi2c->Instance->CR1, I2C_CR1_ACK);
 8005ed2:	68fb      	ldr	r3, [r7, #12]
 8005ed4:	681b      	ldr	r3, [r3, #0]
 8005ed6:	681a      	ldr	r2, [r3, #0]
 8005ed8:	68fb      	ldr	r3, [r7, #12]
 8005eda:	681b      	ldr	r3, [r3, #0]
 8005edc:	f442 6280 	orr.w	r2, r2, #1024	; 0x400
 8005ee0:	601a      	str	r2, [r3, #0]

  /* Generate Start */
  SET_BIT(hi2c->Instance->CR1, I2C_CR1_START);
 8005ee2:	68fb      	ldr	r3, [r7, #12]
 8005ee4:	681b      	ldr	r3, [r3, #0]
 8005ee6:	681a      	ldr	r2, [r3, #0]
 8005ee8:	68fb      	ldr	r3, [r7, #12]
 8005eea:	681b      	ldr	r3, [r3, #0]
 8005eec:	f442 7280 	orr.w	r2, r2, #256	; 0x100
 8005ef0:	601a      	str	r2, [r3, #0]

  /* Wait until SB flag is set */
  if (I2C_WaitOnFlagUntilTimeout(hi2c, I2C_FLAG_SB, RESET, Timeout, Tickstart) != HAL_OK)
 8005ef2:	6a7b      	ldr	r3, [r7, #36]	; 0x24
 8005ef4:	9300      	str	r3, [sp, #0]
 8005ef6:	6a3b      	ldr	r3, [r7, #32]
 8005ef8:	2200      	movs	r2, #0
 8005efa:	f04f 1101 	mov.w	r1, #65537	; 0x10001
 8005efe:	68f8      	ldr	r0, [r7, #12]
 8005f00:	f000 f8c2 	bl	8006088 <I2C_WaitOnFlagUntilTimeout>
 8005f04:	4603      	mov	r3, r0
 8005f06:	2b00      	cmp	r3, #0
 8005f08:	d00d      	beq.n	8005f26 <I2C_RequestMemoryRead+0x6e>
  {
    if (READ_BIT(hi2c->Instance->CR1, I2C_CR1_START) == I2C_CR1_START)
 8005f0a:	68fb      	ldr	r3, [r7, #12]
 8005f0c:	681b      	ldr	r3, [r3, #0]
 8005f0e:	681b      	ldr	r3, [r3, #0]
 8005f10:	f403 7380 	and.w	r3, r3, #256	; 0x100
 8005f14:	f5b3 7f80 	cmp.w	r3, #256	; 0x100
 8005f18:	d103      	bne.n	8005f22 <I2C_RequestMemoryRead+0x6a>
    {
      hi2c->ErrorCode = HAL_I2C_WRONG_START;
 8005f1a:	68fb      	ldr	r3, [r7, #12]
 8005f1c:	f44f 7200 	mov.w	r2, #512	; 0x200
 8005f20:	641a      	str	r2, [r3, #64]	; 0x40
    }
    return HAL_TIMEOUT;
 8005f22:	2303      	movs	r3, #3
 8005f24:	e0aa      	b.n	800607c <I2C_RequestMemoryRead+0x1c4>
  }

  /* Send slave address */
  hi2c->Instance->DR = I2C_7BIT_ADD_WRITE(DevAddress);
 8005f26:	897b      	ldrh	r3, [r7, #10]
 8005f28:	b2db      	uxtb	r3, r3
 8005f2a:	461a      	mov	r2, r3
 8005f2c:	68fb      	ldr	r3, [r7, #12]
 8005f2e:	681b      	ldr	r3, [r3, #0]
 8005f30:	f002 02fe 	and.w	r2, r2, #254	; 0xfe
 8005f34:	611a      	str	r2, [r3, #16]

  /* Wait until ADDR flag is set */
  if (I2C_WaitOnMasterAddressFlagUntilTimeout(hi2c, I2C_FLAG_ADDR, Timeout, Tickstart) != HAL_OK)
 8005f36:	6a7b      	ldr	r3, [r7, #36]	; 0x24
 8005f38:	6a3a      	ldr	r2, [r7, #32]
 8005f3a:	4952      	ldr	r1, [pc, #328]	; (8006084 <I2C_RequestMemoryRead+0x1cc>)
 8005f3c:	68f8      	ldr	r0, [r7, #12]
 8005f3e:	f000 f91d 	bl	800617c <I2C_WaitOnMasterAddressFlagUntilTimeout>
 8005f42:	4603      	mov	r3, r0
 8005f44:	2b00      	cmp	r3, #0
 8005f46:	d001      	beq.n	8005f4c <I2C_RequestMemoryRead+0x94>
  {
    return HAL_ERROR;
 8005f48:	2301      	movs	r3, #1
 8005f4a:	e097      	b.n	800607c <I2C_RequestMemoryRead+0x1c4>
  }

  /* Clear ADDR flag */
  __HAL_I2C_CLEAR_ADDRFLAG(hi2c);
 8005f4c:	2300      	movs	r3, #0
 8005f4e:	617b      	str	r3, [r7, #20]
 8005f50:	68fb      	ldr	r3, [r7, #12]
 8005f52:	681b      	ldr	r3, [r3, #0]
 8005f54:	695b      	ldr	r3, [r3, #20]
 8005f56:	617b      	str	r3, [r7, #20]
 8005f58:	68fb      	ldr	r3, [r7, #12]
 8005f5a:	681b      	ldr	r3, [r3, #0]
 8005f5c:	699b      	ldr	r3, [r3, #24]
 8005f5e:	617b      	str	r3, [r7, #20]
 8005f60:	697b      	ldr	r3, [r7, #20]

  /* Wait until TXE flag is set */
  if (I2C_WaitOnTXEFlagUntilTimeout(hi2c, Timeout, Tickstart) != HAL_OK)
 8005f62:	6a7a      	ldr	r2, [r7, #36]	; 0x24
 8005f64:	6a39      	ldr	r1, [r7, #32]
 8005f66:	68f8      	ldr	r0, [r7, #12]
 8005f68:	f000 f9a8 	bl	80062bc <I2C_WaitOnTXEFlagUntilTimeout>
 8005f6c:	4603      	mov	r3, r0
 8005f6e:	2b00      	cmp	r3, #0
 8005f70:	d00d      	beq.n	8005f8e <I2C_RequestMemoryRead+0xd6>
  {
    if (hi2c->ErrorCode == HAL_I2C_ERROR_AF)
 8005f72:	68fb      	ldr	r3, [r7, #12]
 8005f74:	6c1b      	ldr	r3, [r3, #64]	; 0x40
 8005f76:	2b04      	cmp	r3, #4
 8005f78:	d107      	bne.n	8005f8a <I2C_RequestMemoryRead+0xd2>
    {
      /* Generate Stop */
      SET_BIT(hi2c->Instance->CR1, I2C_CR1_STOP);
 8005f7a:	68fb      	ldr	r3, [r7, #12]
 8005f7c:	681b      	ldr	r3, [r3, #0]
 8005f7e:	681a      	ldr	r2, [r3, #0]
 8005f80:	68fb      	ldr	r3, [r7, #12]
 8005f82:	681b      	ldr	r3, [r3, #0]
 8005f84:	f442 7200 	orr.w	r2, r2, #512	; 0x200
 8005f88:	601a      	str	r2, [r3, #0]
    }
    return HAL_ERROR;
 8005f8a:	2301      	movs	r3, #1
 8005f8c:	e076      	b.n	800607c <I2C_RequestMemoryRead+0x1c4>
  }

  /* If Memory address size is 8Bit */
  if (MemAddSize == I2C_MEMADD_SIZE_8BIT)
 8005f8e:	88fb      	ldrh	r3, [r7, #6]
 8005f90:	2b01      	cmp	r3, #1
 8005f92:	d105      	bne.n	8005fa0 <I2C_RequestMemoryRead+0xe8>
  {
    /* Send Memory Address */
    hi2c->Instance->DR = I2C_MEM_ADD_LSB(MemAddress);
 8005f94:	893b      	ldrh	r3, [r7, #8]
 8005f96:	b2da      	uxtb	r2, r3
 8005f98:	68fb      	ldr	r3, [r7, #12]
 8005f9a:	681b      	ldr	r3, [r3, #0]
 8005f9c:	611a      	str	r2, [r3, #16]
 8005f9e:	e021      	b.n	8005fe4 <I2C_RequestMemoryRead+0x12c>
  }
  /* If Memory address size is 16Bit */
  else
  {
    /* Send MSB of Memory Address */
    hi2c->Instance->DR = I2C_MEM_ADD_MSB(MemAddress);
 8005fa0:	893b      	ldrh	r3, [r7, #8]
 8005fa2:	0a1b      	lsrs	r3, r3, #8
 8005fa4:	b29b      	uxth	r3, r3
 8005fa6:	b2da      	uxtb	r2, r3
 8005fa8:	68fb      	ldr	r3, [r7, #12]
 8005faa:	681b      	ldr	r3, [r3, #0]
 8005fac:	611a      	str	r2, [r3, #16]

    /* Wait until TXE flag is set */
    if (I2C_WaitOnTXEFlagUntilTimeout(hi2c, Timeout, Tickstart) != HAL_OK)
 8005fae:	6a7a      	ldr	r2, [r7, #36]	; 0x24
 8005fb0:	6a39      	ldr	r1, [r7, #32]
 8005fb2:	68f8      	ldr	r0, [r7, #12]
 8005fb4:	f000 f982 	bl	80062bc <I2C_WaitOnTXEFlagUntilTimeout>
 8005fb8:	4603      	mov	r3, r0
 8005fba:	2b00      	cmp	r3, #0
 8005fbc:	d00d      	beq.n	8005fda <I2C_RequestMemoryRead+0x122>
    {
      if (hi2c->ErrorCode == HAL_I2C_ERROR_AF)
 8005fbe:	68fb      	ldr	r3, [r7, #12]
 8005fc0:	6c1b      	ldr	r3, [r3, #64]	; 0x40
 8005fc2:	2b04      	cmp	r3, #4
 8005fc4:	d107      	bne.n	8005fd6 <I2C_RequestMemoryRead+0x11e>
      {
        /* Generate Stop */
        SET_BIT(hi2c->Instance->CR1, I2C_CR1_STOP);
 8005fc6:	68fb      	ldr	r3, [r7, #12]
 8005fc8:	681b      	ldr	r3, [r3, #0]
 8005fca:	681a      	ldr	r2, [r3, #0]
 8005fcc:	68fb      	ldr	r3, [r7, #12]
 8005fce:	681b      	ldr	r3, [r3, #0]
 8005fd0:	f442 7200 	orr.w	r2, r2, #512	; 0x200
 8005fd4:	601a      	str	r2, [r3, #0]
      }
      return HAL_ERROR;
 8005fd6:	2301      	movs	r3, #1
 8005fd8:	e050      	b.n	800607c <I2C_RequestMemoryRead+0x1c4>
    }

    /* Send LSB of Memory Address */
    hi2c->Instance->DR = I2C_MEM_ADD_LSB(MemAddress);
 8005fda:	893b      	ldrh	r3, [r7, #8]
 8005fdc:	b2da      	uxtb	r2, r3
 8005fde:	68fb      	ldr	r3, [r7, #12]
 8005fe0:	681b      	ldr	r3, [r3, #0]
 8005fe2:	611a      	str	r2, [r3, #16]
  }

  /* Wait until TXE flag is set */
  if (I2C_WaitOnTXEFlagUntilTimeout(hi2c, Timeout, Tickstart) != HAL_OK)
 8005fe4:	6a7a      	ldr	r2, [r7, #36]	; 0x24
 8005fe6:	6a39      	ldr	r1, [r7, #32]
 8005fe8:	68f8      	ldr	r0, [r7, #12]
 8005fea:	f000 f967 	bl	80062bc <I2C_WaitOnTXEFlagUntilTimeout>
 8005fee:	4603      	mov	r3, r0
 8005ff0:	2b00      	cmp	r3, #0
 8005ff2:	d00d      	beq.n	8006010 <I2C_RequestMemoryRead+0x158>
  {
    if (hi2c->ErrorCode == HAL_I2C_ERROR_AF)
 8005ff4:	68fb      	ldr	r3, [r7, #12]
 8005ff6:	6c1b      	ldr	r3, [r3, #64]	; 0x40
 8005ff8:	2b04      	cmp	r3, #4
 8005ffa:	d107      	bne.n	800600c <I2C_RequestMemoryRead+0x154>
    {
      /* Generate Stop */
      SET_BIT(hi2c->Instance->CR1, I2C_CR1_STOP);
 8005ffc:	68fb      	ldr	r3, [r7, #12]
 8005ffe:	681b      	ldr	r3, [r3, #0]
 8006000:	681a      	ldr	r2, [r3, #0]
 8006002:	68fb      	ldr	r3, [r7, #12]
 8006004:	681b      	ldr	r3, [r3, #0]
 8006006:	f442 7200 	orr.w	r2, r2, #512	; 0x200
 800600a:	601a      	str	r2, [r3, #0]
    }
    return HAL_ERROR;
 800600c:	2301      	movs	r3, #1
 800600e:	e035      	b.n	800607c <I2C_RequestMemoryRead+0x1c4>
  }

  /* Generate Restart */
  SET_BIT(hi2c->Instance->CR1, I2C_CR1_START);
 8006010:	68fb      	ldr	r3, [r7, #12]
 8006012:	681b      	ldr	r3, [r3, #0]
 8006014:	681a      	ldr	r2, [r3, #0]
 8006016:	68fb      	ldr	r3, [r7, #12]
 8006018:	681b      	ldr	r3, [r3, #0]
 800601a:	f442 7280 	orr.w	r2, r2, #256	; 0x100
 800601e:	601a      	str	r2, [r3, #0]

  /* Wait until SB flag is set */
  if (I2C_WaitOnFlagUntilTimeout(hi2c, I2C_FLAG_SB, RESET, Timeout, Tickstart) != HAL_OK)
 8006020:	6a7b      	ldr	r3, [r7, #36]	; 0x24
 8006022:	9300      	str	r3, [sp, #0]
 8006024:	6a3b      	ldr	r3, [r7, #32]
 8006026:	2200      	movs	r2, #0
 8006028:	f04f 1101 	mov.w	r1, #65537	; 0x10001
 800602c:	68f8      	ldr	r0, [r7, #12]
 800602e:	f000 f82b 	bl	8006088 <I2C_WaitOnFlagUntilTimeout>
 8006032:	4603      	mov	r3, r0
 8006034:	2b00      	cmp	r3, #0
 8006036:	d00d      	beq.n	8006054 <I2C_RequestMemoryRead+0x19c>
  {
    if (READ_BIT(hi2c->Instance->CR1, I2C_CR1_START) == I2C_CR1_START)
 8006038:	68fb      	ldr	r3, [r7, #12]
 800603a:	681b      	ldr	r3, [r3, #0]
 800603c:	681b      	ldr	r3, [r3, #0]
 800603e:	f403 7380 	and.w	r3, r3, #256	; 0x100
 8006042:	f5b3 7f80 	cmp.w	r3, #256	; 0x100
 8006046:	d103      	bne.n	8006050 <I2C_RequestMemoryRead+0x198>
    {
      hi2c->ErrorCode = HAL_I2C_WRONG_START;
 8006048:	68fb      	ldr	r3, [r7, #12]
 800604a:	f44f 7200 	mov.w	r2, #512	; 0x200
 800604e:	641a      	str	r2, [r3, #64]	; 0x40
    }
    return HAL_TIMEOUT;
 8006050:	2303      	movs	r3, #3
 8006052:	e013      	b.n	800607c <I2C_RequestMemoryRead+0x1c4>
  }

  /* Send slave address */
  hi2c->Instance->DR = I2C_7BIT_ADD_READ(DevAddress);
 8006054:	897b      	ldrh	r3, [r7, #10]
 8006056:	b2db      	uxtb	r3, r3
 8006058:	f043 0301 	orr.w	r3, r3, #1
 800605c:	b2da      	uxtb	r2, r3
 800605e:	68fb      	ldr	r3, [r7, #12]
 8006060:	681b      	ldr	r3, [r3, #0]
 8006062:	611a      	str	r2, [r3, #16]

  /* Wait until ADDR flag is set */
  if (I2C_WaitOnMasterAddressFlagUntilTimeout(hi2c, I2C_FLAG_ADDR, Timeout, Tickstart) != HAL_OK)
 8006064:	6a7b      	ldr	r3, [r7, #36]	; 0x24
 8006066:	6a3a      	ldr	r2, [r7, #32]
 8006068:	4906      	ldr	r1, [pc, #24]	; (8006084 <I2C_RequestMemoryRead+0x1cc>)
 800606a:	68f8      	ldr	r0, [r7, #12]
 800606c:	f000 f886 	bl	800617c <I2C_WaitOnMasterAddressFlagUntilTimeout>
 8006070:	4603      	mov	r3, r0
 8006072:	2b00      	cmp	r3, #0
 8006074:	d001      	beq.n	800607a <I2C_RequestMemoryRead+0x1c2>
  {
    return HAL_ERROR;
 8006076:	2301      	movs	r3, #1
 8006078:	e000      	b.n	800607c <I2C_RequestMemoryRead+0x1c4>
  }

  return HAL_OK;
 800607a:	2300      	movs	r3, #0
}
 800607c:	4618      	mov	r0, r3
 800607e:	3718      	adds	r7, #24
 8006080:	46bd      	mov	sp, r7
 8006082:	bd80      	pop	{r7, pc}
 8006084:	00010002 	.word	0x00010002

08006088 <I2C_WaitOnFlagUntilTimeout>:
  * @param  Timeout Timeout duration
  * @param  Tickstart Tick start value
  * @retval HAL status
  */
static HAL_StatusTypeDef I2C_WaitOnFlagUntilTimeout(I2C_HandleTypeDef *hi2c, uint32_t Flag, FlagStatus Status, uint32_t Timeout, uint32_t Tickstart)
{
 8006088:	b580      	push	{r7, lr}
 800608a:	b084      	sub	sp, #16
 800608c:	af00      	add	r7, sp, #0
 800608e:	60f8      	str	r0, [r7, #12]
 8006090:	60b9      	str	r1, [r7, #8]
 8006092:	603b      	str	r3, [r7, #0]
 8006094:	4613      	mov	r3, r2
 8006096:	71fb      	strb	r3, [r7, #7]
  /* Wait until flag is set */
  while (__HAL_I2C_GET_FLAG(hi2c, Flag) == Status)
 8006098:	e048      	b.n	800612c <I2C_WaitOnFlagUntilTimeout+0xa4>
  {
    /* Check for the Timeout */
    if (Timeout != HAL_MAX_DELAY)
 800609a:	683b      	ldr	r3, [r7, #0]
 800609c:	f1b3 3fff 	cmp.w	r3, #4294967295
 80060a0:	d044      	beq.n	800612c <I2C_WaitOnFlagUntilTimeout+0xa4>
    {
      if (((HAL_GetTick() - Tickstart) > Timeout) || (Timeout == 0U))
 80060a2:	f7fe fe67 	bl	8004d74 <HAL_GetTick>
 80060a6:	4602      	mov	r2, r0
 80060a8:	69bb      	ldr	r3, [r7, #24]
 80060aa:	1ad3      	subs	r3, r2, r3
 80060ac:	683a      	ldr	r2, [r7, #0]
 80060ae:	429a      	cmp	r2, r3
 80060b0:	d302      	bcc.n	80060b8 <I2C_WaitOnFlagUntilTimeout+0x30>
 80060b2:	683b      	ldr	r3, [r7, #0]
 80060b4:	2b00      	cmp	r3, #0
 80060b6:	d139      	bne.n	800612c <I2C_WaitOnFlagUntilTimeout+0xa4>
      {
        if ((__HAL_I2C_GET_FLAG(hi2c, Flag) == Status))
 80060b8:	68bb      	ldr	r3, [r7, #8]
 80060ba:	0c1b      	lsrs	r3, r3, #16
 80060bc:	b2db      	uxtb	r3, r3
 80060be:	2b01      	cmp	r3, #1
 80060c0:	d10d      	bne.n	80060de <I2C_WaitOnFlagUntilTimeout+0x56>
 80060c2:	68fb      	ldr	r3, [r7, #12]
 80060c4:	681b      	ldr	r3, [r3, #0]
 80060c6:	695b      	ldr	r3, [r3, #20]
 80060c8:	43da      	mvns	r2, r3
 80060ca:	68bb      	ldr	r3, [r7, #8]
 80060cc:	4013      	ands	r3, r2
 80060ce:	b29b      	uxth	r3, r3
 80060d0:	2b00      	cmp	r3, #0
 80060d2:	bf0c      	ite	eq
 80060d4:	2301      	moveq	r3, #1
 80060d6:	2300      	movne	r3, #0
 80060d8:	b2db      	uxtb	r3, r3
 80060da:	461a      	mov	r2, r3
 80060dc:	e00c      	b.n	80060f8 <I2C_WaitOnFlagUntilTimeout+0x70>
 80060de:	68fb      	ldr	r3, [r7, #12]
 80060e0:	681b      	ldr	r3, [r3, #0]
 80060e2:	699b      	ldr	r3, [r3, #24]
 80060e4:	43da      	mvns	r2, r3
 80060e6:	68bb      	ldr	r3, [r7, #8]
 80060e8:	4013      	ands	r3, r2
 80060ea:	b29b      	uxth	r3, r3
 80060ec:	2b00      	cmp	r3, #0
 80060ee:	bf0c      	ite	eq
 80060f0:	2301      	moveq	r3, #1
 80060f2:	2300      	movne	r3, #0
 80060f4:	b2db      	uxtb	r3, r3
 80060f6:	461a      	mov	r2, r3
 80060f8:	79fb      	ldrb	r3, [r7, #7]
 80060fa:	429a      	cmp	r2, r3
 80060fc:	d116      	bne.n	800612c <I2C_WaitOnFlagUntilTimeout+0xa4>
        {
          hi2c->PreviousState     = I2C_STATE_NONE;
 80060fe:	68fb      	ldr	r3, [r7, #12]
 8006100:	2200      	movs	r2, #0
 8006102:	631a      	str	r2, [r3, #48]	; 0x30
          hi2c->State             = HAL_I2C_STATE_READY;
 8006104:	68fb      	ldr	r3, [r7, #12]
 8006106:	2220      	movs	r2, #32
 8006108:	f883 203d 	strb.w	r2, [r3, #61]	; 0x3d
          hi2c->Mode              = HAL_I2C_MODE_NONE;
 800610c:	68fb      	ldr	r3, [r7, #12]
 800610e:	2200      	movs	r2, #0
 8006110:	f883 203e 	strb.w	r2, [r3, #62]	; 0x3e
          hi2c->ErrorCode         |= HAL_I2C_ERROR_TIMEOUT;
 8006114:	68fb      	ldr	r3, [r7, #12]
 8006116:	6c1b      	ldr	r3, [r3, #64]	; 0x40
 8006118:	f043 0220 	orr.w	r2, r3, #32
 800611c:	68fb      	ldr	r3, [r7, #12]
 800611e:	641a      	str	r2, [r3, #64]	; 0x40

          /* Process Unlocked */
          __HAL_UNLOCK(hi2c);
 8006120:	68fb      	ldr	r3, [r7, #12]
 8006122:	2200      	movs	r2, #0
 8006124:	f883 203c 	strb.w	r2, [r3, #60]	; 0x3c

          return HAL_ERROR;
 8006128:	2301      	movs	r3, #1
 800612a:	e023      	b.n	8006174 <I2C_WaitOnFlagUntilTimeout+0xec>
  while (__HAL_I2C_GET_FLAG(hi2c, Flag) == Status)
 800612c:	68bb      	ldr	r3, [r7, #8]
 800612e:	0c1b      	lsrs	r3, r3, #16
 8006130:	b2db      	uxtb	r3, r3
 8006132:	2b01      	cmp	r3, #1
 8006134:	d10d      	bne.n	8006152 <I2C_WaitOnFlagUntilTimeout+0xca>
 8006136:	68fb      	ldr	r3, [r7, #12]
 8006138:	681b      	ldr	r3, [r3, #0]
 800613a:	695b      	ldr	r3, [r3, #20]
 800613c:	43da      	mvns	r2, r3
 800613e:	68bb      	ldr	r3, [r7, #8]
 8006140:	4013      	ands	r3, r2
 8006142:	b29b      	uxth	r3, r3
 8006144:	2b00      	cmp	r3, #0
 8006146:	bf0c      	ite	eq
 8006148:	2301      	moveq	r3, #1
 800614a:	2300      	movne	r3, #0
 800614c:	b2db      	uxtb	r3, r3
 800614e:	461a      	mov	r2, r3
 8006150:	e00c      	b.n	800616c <I2C_WaitOnFlagUntilTimeout+0xe4>
 8006152:	68fb      	ldr	r3, [r7, #12]
 8006154:	681b      	ldr	r3, [r3, #0]
 8006156:	699b      	ldr	r3, [r3, #24]
 8006158:	43da      	mvns	r2, r3
 800615a:	68bb      	ldr	r3, [r7, #8]
 800615c:	4013      	ands	r3, r2
 800615e:	b29b      	uxth	r3, r3
 8006160:	2b00      	cmp	r3, #0
 8006162:	bf0c      	ite	eq
 8006164:	2301      	moveq	r3, #1
 8006166:	2300      	movne	r3, #0
 8006168:	b2db      	uxtb	r3, r3
 800616a:	461a      	mov	r2, r3
 800616c:	79fb      	ldrb	r3, [r7, #7]
 800616e:	429a      	cmp	r2, r3
 8006170:	d093      	beq.n	800609a <I2C_WaitOnFlagUntilTimeout+0x12>
        }
      }
    }
  }
  return HAL_OK;
 8006172:	2300      	movs	r3, #0
}
 8006174:	4618      	mov	r0, r3
 8006176:	3710      	adds	r7, #16
 8006178:	46bd      	mov	sp, r7
 800617a:	bd80      	pop	{r7, pc}

0800617c <I2C_WaitOnMasterAddressFlagUntilTimeout>:
  * @param  Timeout Timeout duration
  * @param  Tickstart Tick start value
  * @retval HAL status
  */
static HAL_StatusTypeDef I2C_WaitOnMasterAddressFlagUntilTimeout(I2C_HandleTypeDef *hi2c, uint32_t Flag, uint32_t Timeout, uint32_t Tickstart)
{
 800617c:	b580      	push	{r7, lr}
 800617e:	b084      	sub	sp, #16
 8006180:	af00      	add	r7, sp, #0
 8006182:	60f8      	str	r0, [r7, #12]
 8006184:	60b9      	str	r1, [r7, #8]
 8006186:	607a      	str	r2, [r7, #4]
 8006188:	603b      	str	r3, [r7, #0]
  while (__HAL_I2C_GET_FLAG(hi2c, Flag) == RESET)
 800618a:	e071      	b.n	8006270 <I2C_WaitOnMasterAddressFlagUntilTimeout+0xf4>
  {
    if (__HAL_I2C_GET_FLAG(hi2c, I2C_FLAG_AF) == SET)
 800618c:	68fb      	ldr	r3, [r7, #12]
 800618e:	681b      	ldr	r3, [r3, #0]
 8006190:	695b      	ldr	r3, [r3, #20]
 8006192:	f403 6380 	and.w	r3, r3, #1024	; 0x400
 8006196:	f5b3 6f80 	cmp.w	r3, #1024	; 0x400
 800619a:	d123      	bne.n	80061e4 <I2C_WaitOnMasterAddressFlagUntilTimeout+0x68>
    {
      /* Generate Stop */
      SET_BIT(hi2c->Instance->CR1, I2C_CR1_STOP);
 800619c:	68fb      	ldr	r3, [r7, #12]
 800619e:	681b      	ldr	r3, [r3, #0]
 80061a0:	681a      	ldr	r2, [r3, #0]
 80061a2:	68fb      	ldr	r3, [r7, #12]
 80061a4:	681b      	ldr	r3, [r3, #0]
 80061a6:	f442 7200 	orr.w	r2, r2, #512	; 0x200
 80061aa:	601a      	str	r2, [r3, #0]

      /* Clear AF Flag */
      __HAL_I2C_CLEAR_FLAG(hi2c, I2C_FLAG_AF);
 80061ac:	68fb      	ldr	r3, [r7, #12]
 80061ae:	681b      	ldr	r3, [r3, #0]
 80061b0:	f46f 6280 	mvn.w	r2, #1024	; 0x400
 80061b4:	615a      	str	r2, [r3, #20]

      hi2c->PreviousState       = I2C_STATE_NONE;
 80061b6:	68fb      	ldr	r3, [r7, #12]
 80061b8:	2200      	movs	r2, #0
 80061ba:	631a      	str	r2, [r3, #48]	; 0x30
      hi2c->State               = HAL_I2C_STATE_READY;
 80061bc:	68fb      	ldr	r3, [r7, #12]
 80061be:	2220      	movs	r2, #32
 80061c0:	f883 203d 	strb.w	r2, [r3, #61]	; 0x3d
      hi2c->Mode                = HAL_I2C_MODE_NONE;
 80061c4:	68fb      	ldr	r3, [r7, #12]
 80061c6:	2200      	movs	r2, #0
 80061c8:	f883 203e 	strb.w	r2, [r3, #62]	; 0x3e
      hi2c->ErrorCode           |= HAL_I2C_ERROR_AF;
 80061cc:	68fb      	ldr	r3, [r7, #12]
 80061ce:	6c1b      	ldr	r3, [r3, #64]	; 0x40
 80061d0:	f043 0204 	orr.w	r2, r3, #4
 80061d4:	68fb      	ldr	r3, [r7, #12]
 80061d6:	641a      	str	r2, [r3, #64]	; 0x40

      /* Process Unlocked */
      __HAL_UNLOCK(hi2c);
 80061d8:	68fb      	ldr	r3, [r7, #12]
 80061da:	2200      	movs	r2, #0
 80061dc:	f883 203c 	strb.w	r2, [r3, #60]	; 0x3c

      return HAL_ERROR;
 80061e0:	2301      	movs	r3, #1
 80061e2:	e067      	b.n	80062b4 <I2C_WaitOnMasterAddressFlagUntilTimeout+0x138>
    }

    /* Check for the Timeout */
    if (Timeout != HAL_MAX_DELAY)
 80061e4:	687b      	ldr	r3, [r7, #4]
 80061e6:	f1b3 3fff 	cmp.w	r3, #4294967295
 80061ea:	d041      	beq.n	8006270 <I2C_WaitOnMasterAddressFlagUntilTimeout+0xf4>
    {
      if (((HAL_GetTick() - Tickstart) > Timeout) || (Timeout == 0U))
 80061ec:	f7fe fdc2 	bl	8004d74 <HAL_GetTick>
 80061f0:	4602      	mov	r2, r0
 80061f2:	683b      	ldr	r3, [r7, #0]
 80061f4:	1ad3      	subs	r3, r2, r3
 80061f6:	687a      	ldr	r2, [r7, #4]
 80061f8:	429a      	cmp	r2, r3
 80061fa:	d302      	bcc.n	8006202 <I2C_WaitOnMasterAddressFlagUntilTimeout+0x86>
 80061fc:	687b      	ldr	r3, [r7, #4]
 80061fe:	2b00      	cmp	r3, #0
 8006200:	d136      	bne.n	8006270 <I2C_WaitOnMasterAddressFlagUntilTimeout+0xf4>
      {
        if ((__HAL_I2C_GET_FLAG(hi2c, Flag) == RESET))
 8006202:	68bb      	ldr	r3, [r7, #8]
 8006204:	0c1b      	lsrs	r3, r3, #16
 8006206:	b2db      	uxtb	r3, r3
 8006208:	2b01      	cmp	r3, #1
 800620a:	d10c      	bne.n	8006226 <I2C_WaitOnMasterAddressFlagUntilTimeout+0xaa>
 800620c:	68fb      	ldr	r3, [r7, #12]
 800620e:	681b      	ldr	r3, [r3, #0]
 8006210:	695b      	ldr	r3, [r3, #20]
 8006212:	43da      	mvns	r2, r3
 8006214:	68bb      	ldr	r3, [r7, #8]
 8006216:	4013      	ands	r3, r2
 8006218:	b29b      	uxth	r3, r3
 800621a:	2b00      	cmp	r3, #0
 800621c:	bf14      	ite	ne
 800621e:	2301      	movne	r3, #1
 8006220:	2300      	moveq	r3, #0
 8006222:	b2db      	uxtb	r3, r3
 8006224:	e00b      	b.n	800623e <I2C_WaitOnMasterAddressFlagUntilTimeout+0xc2>
 8006226:	68fb      	ldr	r3, [r7, #12]
 8006228:	681b      	ldr	r3, [r3, #0]
 800622a:	699b      	ldr	r3, [r3, #24]
 800622c:	43da      	mvns	r2, r3
 800622e:	68bb      	ldr	r3, [r7, #8]
 8006230:	4013      	ands	r3, r2
 8006232:	b29b      	uxth	r3, r3
 8006234:	2b00      	cmp	r3, #0
 8006236:	bf14      	ite	ne
 8006238:	2301      	movne	r3, #1
 800623a:	2300      	moveq	r3, #0
 800623c:	b2db      	uxtb	r3, r3
 800623e:	2b00      	cmp	r3, #0
 8006240:	d016      	beq.n	8006270 <I2C_WaitOnMasterAddressFlagUntilTimeout+0xf4>
        {
          hi2c->PreviousState       = I2C_STATE_NONE;
 8006242:	68fb      	ldr	r3, [r7, #12]
 8006244:	2200      	movs	r2, #0
 8006246:	631a      	str	r2, [r3, #48]	; 0x30
          hi2c->State               = HAL_I2C_STATE_READY;
 8006248:	68fb      	ldr	r3, [r7, #12]
 800624a:	2220      	movs	r2, #32
 800624c:	f883 203d 	strb.w	r2, [r3, #61]	; 0x3d
          hi2c->Mode                = HAL_I2C_MODE_NONE;
 8006250:	68fb      	ldr	r3, [r7, #12]
 8006252:	2200      	movs	r2, #0
 8006254:	f883 203e 	strb.w	r2, [r3, #62]	; 0x3e
          hi2c->ErrorCode           |= HAL_I2C_ERROR_TIMEOUT;
 8006258:	68fb      	ldr	r3, [r7, #12]
 800625a:	6c1b      	ldr	r3, [r3, #64]	; 0x40
 800625c:	f043 0220 	orr.w	r2, r3, #32
 8006260:	68fb      	ldr	r3, [r7, #12]
 8006262:	641a      	str	r2, [r3, #64]	; 0x40

          /* Process Unlocked */
          __HAL_UNLOCK(hi2c);
 8006264:	68fb      	ldr	r3, [r7, #12]
 8006266:	2200      	movs	r2, #0
 8006268:	f883 203c 	strb.w	r2, [r3, #60]	; 0x3c

          return HAL_ERROR;
 800626c:	2301      	movs	r3, #1
 800626e:	e021      	b.n	80062b4 <I2C_WaitOnMasterAddressFlagUntilTimeout+0x138>
  while (__HAL_I2C_GET_FLAG(hi2c, Flag) == RESET)
 8006270:	68bb      	ldr	r3, [r7, #8]
 8006272:	0c1b      	lsrs	r3, r3, #16
 8006274:	b2db      	uxtb	r3, r3
 8006276:	2b01      	cmp	r3, #1
 8006278:	d10c      	bne.n	8006294 <I2C_WaitOnMasterAddressFlagUntilTimeout+0x118>
 800627a:	68fb      	ldr	r3, [r7, #12]
 800627c:	681b      	ldr	r3, [r3, #0]
 800627e:	695b      	ldr	r3, [r3, #20]
 8006280:	43da      	mvns	r2, r3
 8006282:	68bb      	ldr	r3, [r7, #8]
 8006284:	4013      	ands	r3, r2
 8006286:	b29b      	uxth	r3, r3
 8006288:	2b00      	cmp	r3, #0
 800628a:	bf14      	ite	ne
 800628c:	2301      	movne	r3, #1
 800628e:	2300      	moveq	r3, #0
 8006290:	b2db      	uxtb	r3, r3
 8006292:	e00b      	b.n	80062ac <I2C_WaitOnMasterAddressFlagUntilTimeout+0x130>
 8006294:	68fb      	ldr	r3, [r7, #12]
 8006296:	681b      	ldr	r3, [r3, #0]
 8006298:	699b      	ldr	r3, [r3, #24]
 800629a:	43da      	mvns	r2, r3
 800629c:	68bb      	ldr	r3, [r7, #8]
 800629e:	4013      	ands	r3, r2
 80062a0:	b29b      	uxth	r3, r3
 80062a2:	2b00      	cmp	r3, #0
 80062a4:	bf14      	ite	ne
 80062a6:	2301      	movne	r3, #1
 80062a8:	2300      	moveq	r3, #0
 80062aa:	b2db      	uxtb	r3, r3
 80062ac:	2b00      	cmp	r3, #0
 80062ae:	f47f af6d 	bne.w	800618c <I2C_WaitOnMasterAddressFlagUntilTimeout+0x10>
        }
      }
    }
  }
  return HAL_OK;
 80062b2:	2300      	movs	r3, #0
}
 80062b4:	4618      	mov	r0, r3
 80062b6:	3710      	adds	r7, #16
 80062b8:	46bd      	mov	sp, r7
 80062ba:	bd80      	pop	{r7, pc}

080062bc <I2C_WaitOnTXEFlagUntilTimeout>:
  * @param  Timeout Timeout duration
  * @param  Tickstart Tick start value
  * @retval HAL status
  */
static HAL_StatusTypeDef I2C_WaitOnTXEFlagUntilTimeout(I2C_HandleTypeDef *hi2c, uint32_t Timeout, uint32_t Tickstart)
{
 80062bc:	b580      	push	{r7, lr}
 80062be:	b084      	sub	sp, #16
 80062c0:	af00      	add	r7, sp, #0
 80062c2:	60f8      	str	r0, [r7, #12]
 80062c4:	60b9      	str	r1, [r7, #8]
 80062c6:	607a      	str	r2, [r7, #4]
  while (__HAL_I2C_GET_FLAG(hi2c, I2C_FLAG_TXE) == RESET)
 80062c8:	e034      	b.n	8006334 <I2C_WaitOnTXEFlagUntilTimeout+0x78>
  {
    /* Check if a NACK is detected */
    if (I2C_IsAcknowledgeFailed(hi2c) != HAL_OK)
 80062ca:	68f8      	ldr	r0, [r7, #12]
 80062cc:	f000 f8e3 	bl	8006496 <I2C_IsAcknowledgeFailed>
 80062d0:	4603      	mov	r3, r0
 80062d2:	2b00      	cmp	r3, #0
 80062d4:	d001      	beq.n	80062da <I2C_WaitOnTXEFlagUntilTimeout+0x1e>
    {
      return HAL_ERROR;
 80062d6:	2301      	movs	r3, #1
 80062d8:	e034      	b.n	8006344 <I2C_WaitOnTXEFlagUntilTimeout+0x88>
    }

    /* Check for the Timeout */
    if (Timeout != HAL_MAX_DELAY)
 80062da:	68bb      	ldr	r3, [r7, #8]
 80062dc:	f1b3 3fff 	cmp.w	r3, #4294967295
 80062e0:	d028      	beq.n	8006334 <I2C_WaitOnTXEFlagUntilTimeout+0x78>
    {
      if (((HAL_GetTick() - Tickstart) > Timeout) || (Timeout == 0U))
 80062e2:	f7fe fd47 	bl	8004d74 <HAL_GetTick>
 80062e6:	4602      	mov	r2, r0
 80062e8:	687b      	ldr	r3, [r7, #4]
 80062ea:	1ad3      	subs	r3, r2, r3
 80062ec:	68ba      	ldr	r2, [r7, #8]
 80062ee:	429a      	cmp	r2, r3
 80062f0:	d302      	bcc.n	80062f8 <I2C_WaitOnTXEFlagUntilTimeout+0x3c>
 80062f2:	68bb      	ldr	r3, [r7, #8]
 80062f4:	2b00      	cmp	r3, #0
 80062f6:	d11d      	bne.n	8006334 <I2C_WaitOnTXEFlagUntilTimeout+0x78>
      {
        if ((__HAL_I2C_GET_FLAG(hi2c, I2C_FLAG_TXE) == RESET))
 80062f8:	68fb      	ldr	r3, [r7, #12]
 80062fa:	681b      	ldr	r3, [r3, #0]
 80062fc:	695b      	ldr	r3, [r3, #20]
 80062fe:	f003 0380 	and.w	r3, r3, #128	; 0x80
 8006302:	2b80      	cmp	r3, #128	; 0x80
 8006304:	d016      	beq.n	8006334 <I2C_WaitOnTXEFlagUntilTimeout+0x78>
        {
          hi2c->PreviousState       = I2C_STATE_NONE;
 8006306:	68fb      	ldr	r3, [r7, #12]
 8006308:	2200      	movs	r2, #0
 800630a:	631a      	str	r2, [r3, #48]	; 0x30
          hi2c->State               = HAL_I2C_STATE_READY;
 800630c:	68fb      	ldr	r3, [r7, #12]
 800630e:	2220      	movs	r2, #32
 8006310:	f883 203d 	strb.w	r2, [r3, #61]	; 0x3d
          hi2c->Mode                = HAL_I2C_MODE_NONE;
 8006314:	68fb      	ldr	r3, [r7, #12]
 8006316:	2200      	movs	r2, #0
 8006318:	f883 203e 	strb.w	r2, [r3, #62]	; 0x3e
          hi2c->ErrorCode           |= HAL_I2C_ERROR_TIMEOUT;
 800631c:	68fb      	ldr	r3, [r7, #12]
 800631e:	6c1b      	ldr	r3, [r3, #64]	; 0x40
 8006320:	f043 0220 	orr.w	r2, r3, #32
 8006324:	68fb      	ldr	r3, [r7, #12]
 8006326:	641a      	str	r2, [r3, #64]	; 0x40

          /* Process Unlocked */
          __HAL_UNLOCK(hi2c);
 8006328:	68fb      	ldr	r3, [r7, #12]
 800632a:	2200      	movs	r2, #0
 800632c:	f883 203c 	strb.w	r2, [r3, #60]	; 0x3c

          return HAL_ERROR;
 8006330:	2301      	movs	r3, #1
 8006332:	e007      	b.n	8006344 <I2C_WaitOnTXEFlagUntilTimeout+0x88>
  while (__HAL_I2C_GET_FLAG(hi2c, I2C_FLAG_TXE) == RESET)
 8006334:	68fb      	ldr	r3, [r7, #12]
 8006336:	681b      	ldr	r3, [r3, #0]
 8006338:	695b      	ldr	r3, [r3, #20]
 800633a:	f003 0380 	and.w	r3, r3, #128	; 0x80
 800633e:	2b80      	cmp	r3, #128	; 0x80
 8006340:	d1c3      	bne.n	80062ca <I2C_WaitOnTXEFlagUntilTimeout+0xe>
        }
      }
    }
  }
  return HAL_OK;
 8006342:	2300      	movs	r3, #0
}
 8006344:	4618      	mov	r0, r3
 8006346:	3710      	adds	r7, #16
 8006348:	46bd      	mov	sp, r7
 800634a:	bd80      	pop	{r7, pc}

0800634c <I2C_WaitOnBTFFlagUntilTimeout>:
  * @param  Timeout Timeout duration
  * @param  Tickstart Tick start value
  * @retval HAL status
  */
static HAL_StatusTypeDef I2C_WaitOnBTFFlagUntilTimeout(I2C_HandleTypeDef *hi2c, uint32_t Timeout, uint32_t Tickstart)
{
 800634c:	b580      	push	{r7, lr}
 800634e:	b084      	sub	sp, #16
 8006350:	af00      	add	r7, sp, #0
 8006352:	60f8      	str	r0, [r7, #12]
 8006354:	60b9      	str	r1, [r7, #8]
 8006356:	607a      	str	r2, [r7, #4]
  while (__HAL_I2C_GET_FLAG(hi2c, I2C_FLAG_BTF) == RESET)
 8006358:	e034      	b.n	80063c4 <I2C_WaitOnBTFFlagUntilTimeout+0x78>
  {
    /* Check if a NACK is detected */
    if (I2C_IsAcknowledgeFailed(hi2c) != HAL_OK)
 800635a:	68f8      	ldr	r0, [r7, #12]
 800635c:	f000 f89b 	bl	8006496 <I2C_IsAcknowledgeFailed>
 8006360:	4603      	mov	r3, r0
 8006362:	2b00      	cmp	r3, #0
 8006364:	d001      	beq.n	800636a <I2C_WaitOnBTFFlagUntilTimeout+0x1e>
    {
      return HAL_ERROR;
 8006366:	2301      	movs	r3, #1
 8006368:	e034      	b.n	80063d4 <I2C_WaitOnBTFFlagUntilTimeout+0x88>
    }

    /* Check for the Timeout */
    if (Timeout != HAL_MAX_DELAY)
 800636a:	68bb      	ldr	r3, [r7, #8]
 800636c:	f1b3 3fff 	cmp.w	r3, #4294967295
 8006370:	d028      	beq.n	80063c4 <I2C_WaitOnBTFFlagUntilTimeout+0x78>
    {
      if (((HAL_GetTick() - Tickstart) > Timeout) || (Timeout == 0U))
 8006372:	f7fe fcff 	bl	8004d74 <HAL_GetTick>
 8006376:	4602      	mov	r2, r0
 8006378:	687b      	ldr	r3, [r7, #4]
 800637a:	1ad3      	subs	r3, r2, r3
 800637c:	68ba      	ldr	r2, [r7, #8]
 800637e:	429a      	cmp	r2, r3
 8006380:	d302      	bcc.n	8006388 <I2C_WaitOnBTFFlagUntilTimeout+0x3c>
 8006382:	68bb      	ldr	r3, [r7, #8]
 8006384:	2b00      	cmp	r3, #0
 8006386:	d11d      	bne.n	80063c4 <I2C_WaitOnBTFFlagUntilTimeout+0x78>
      {
        if ((__HAL_I2C_GET_FLAG(hi2c, I2C_FLAG_BTF) == RESET))
 8006388:	68fb      	ldr	r3, [r7, #12]
 800638a:	681b      	ldr	r3, [r3, #0]
 800638c:	695b      	ldr	r3, [r3, #20]
 800638e:	f003 0304 	and.w	r3, r3, #4
 8006392:	2b04      	cmp	r3, #4
 8006394:	d016      	beq.n	80063c4 <I2C_WaitOnBTFFlagUntilTimeout+0x78>
        {
          hi2c->PreviousState       = I2C_STATE_NONE;
 8006396:	68fb      	ldr	r3, [r7, #12]
 8006398:	2200      	movs	r2, #0
 800639a:	631a      	str	r2, [r3, #48]	; 0x30
          hi2c->State               = HAL_I2C_STATE_READY;
 800639c:	68fb      	ldr	r3, [r7, #12]
 800639e:	2220      	movs	r2, #32
 80063a0:	f883 203d 	strb.w	r2, [r3, #61]	; 0x3d
          hi2c->Mode                = HAL_I2C_MODE_NONE;
 80063a4:	68fb      	ldr	r3, [r7, #12]
 80063a6:	2200      	movs	r2, #0
 80063a8:	f883 203e 	strb.w	r2, [r3, #62]	; 0x3e
          hi2c->ErrorCode           |= HAL_I2C_ERROR_TIMEOUT;
 80063ac:	68fb      	ldr	r3, [r7, #12]
 80063ae:	6c1b      	ldr	r3, [r3, #64]	; 0x40
 80063b0:	f043 0220 	orr.w	r2, r3, #32
 80063b4:	68fb      	ldr	r3, [r7, #12]
 80063b6:	641a      	str	r2, [r3, #64]	; 0x40

          /* Process Unlocked */
          __HAL_UNLOCK(hi2c);
 80063b8:	68fb      	ldr	r3, [r7, #12]
 80063ba:	2200      	movs	r2, #0
 80063bc:	f883 203c 	strb.w	r2, [r3, #60]	; 0x3c

          return HAL_ERROR;
 80063c0:	2301      	movs	r3, #1
 80063c2:	e007      	b.n	80063d4 <I2C_WaitOnBTFFlagUntilTimeout+0x88>
  while (__HAL_I2C_GET_FLAG(hi2c, I2C_FLAG_BTF) == RESET)
 80063c4:	68fb      	ldr	r3, [r7, #12]
 80063c6:	681b      	ldr	r3, [r3, #0]
 80063c8:	695b      	ldr	r3, [r3, #20]
 80063ca:	f003 0304 	and.w	r3, r3, #4
 80063ce:	2b04      	cmp	r3, #4
 80063d0:	d1c3      	bne.n	800635a <I2C_WaitOnBTFFlagUntilTimeout+0xe>
        }
      }
    }
  }
  return HAL_OK;
 80063d2:	2300      	movs	r3, #0
}
 80063d4:	4618      	mov	r0, r3
 80063d6:	3710      	adds	r7, #16
 80063d8:	46bd      	mov	sp, r7
 80063da:	bd80      	pop	{r7, pc}

080063dc <I2C_WaitOnRXNEFlagUntilTimeout>:
  * @param  Timeout Timeout duration
  * @param  Tickstart Tick start value
  * @retval HAL status
  */
static HAL_StatusTypeDef I2C_WaitOnRXNEFlagUntilTimeout(I2C_HandleTypeDef *hi2c, uint32_t Timeout, uint32_t Tickstart)
{
 80063dc:	b580      	push	{r7, lr}
 80063de:	b084      	sub	sp, #16
 80063e0:	af00      	add	r7, sp, #0
 80063e2:	60f8      	str	r0, [r7, #12]
 80063e4:	60b9      	str	r1, [r7, #8]
 80063e6:	607a      	str	r2, [r7, #4]

  while (__HAL_I2C_GET_FLAG(hi2c, I2C_FLAG_RXNE) == RESET)
 80063e8:	e049      	b.n	800647e <I2C_WaitOnRXNEFlagUntilTimeout+0xa2>
  {
    /* Check if a STOPF is detected */
    if (__HAL_I2C_GET_FLAG(hi2c, I2C_FLAG_STOPF) == SET)
 80063ea:	68fb      	ldr	r3, [r7, #12]
 80063ec:	681b      	ldr	r3, [r3, #0]
 80063ee:	695b      	ldr	r3, [r3, #20]
 80063f0:	f003 0310 	and.w	r3, r3, #16
 80063f4:	2b10      	cmp	r3, #16
 80063f6:	d119      	bne.n	800642c <I2C_WaitOnRXNEFlagUntilTimeout+0x50>
    {
      /* Clear STOP Flag */
      __HAL_I2C_CLEAR_FLAG(hi2c, I2C_FLAG_STOPF);
 80063f8:	68fb      	ldr	r3, [r7, #12]
 80063fa:	681b      	ldr	r3, [r3, #0]
 80063fc:	f06f 0210 	mvn.w	r2, #16
 8006400:	615a      	str	r2, [r3, #20]

      hi2c->PreviousState       = I2C_STATE_NONE;
 8006402:	68fb      	ldr	r3, [r7, #12]
 8006404:	2200      	movs	r2, #0
 8006406:	631a      	str	r2, [r3, #48]	; 0x30
      hi2c->State               = HAL_I2C_STATE_READY;
 8006408:	68fb      	ldr	r3, [r7, #12]
 800640a:	2220      	movs	r2, #32
 800640c:	f883 203d 	strb.w	r2, [r3, #61]	; 0x3d
      hi2c->Mode                = HAL_I2C_MODE_NONE;
 8006410:	68fb      	ldr	r3, [r7, #12]
 8006412:	2200      	movs	r2, #0
 8006414:	f883 203e 	strb.w	r2, [r3, #62]	; 0x3e
      hi2c->ErrorCode           |= HAL_I2C_ERROR_NONE;
 8006418:	68fb      	ldr	r3, [r7, #12]
 800641a:	6c1a      	ldr	r2, [r3, #64]	; 0x40
 800641c:	68fb      	ldr	r3, [r7, #12]
 800641e:	641a      	str	r2, [r3, #64]	; 0x40

      /* Process Unlocked */
      __HAL_UNLOCK(hi2c);
 8006420:	68fb      	ldr	r3, [r7, #12]
 8006422:	2200      	movs	r2, #0
 8006424:	f883 203c 	strb.w	r2, [r3, #60]	; 0x3c

      return HAL_ERROR;
 8006428:	2301      	movs	r3, #1
 800642a:	e030      	b.n	800648e <I2C_WaitOnRXNEFlagUntilTimeout+0xb2>
    }

    /* Check for the Timeout */
    if (((HAL_GetTick() - Tickstart) > Timeout) || (Timeout == 0U))
 800642c:	f7fe fca2 	bl	8004d74 <HAL_GetTick>
 8006430:	4602      	mov	r2, r0
 8006432:	687b      	ldr	r3, [r7, #4]
 8006434:	1ad3      	subs	r3, r2, r3
 8006436:	68ba      	ldr	r2, [r7, #8]
 8006438:	429a      	cmp	r2, r3
 800643a:	d302      	bcc.n	8006442 <I2C_WaitOnRXNEFlagUntilTimeout+0x66>
 800643c:	68bb      	ldr	r3, [r7, #8]
 800643e:	2b00      	cmp	r3, #0
 8006440:	d11d      	bne.n	800647e <I2C_WaitOnRXNEFlagUntilTimeout+0xa2>
    {
      if ((__HAL_I2C_GET_FLAG(hi2c, I2C_FLAG_RXNE) == RESET))
 8006442:	68fb      	ldr	r3, [r7, #12]
 8006444:	681b      	ldr	r3, [r3, #0]
 8006446:	695b      	ldr	r3, [r3, #20]
 8006448:	f003 0340 	and.w	r3, r3, #64	; 0x40
 800644c:	2b40      	cmp	r3, #64	; 0x40
 800644e:	d016      	beq.n	800647e <I2C_WaitOnRXNEFlagUntilTimeout+0xa2>
      {
        hi2c->PreviousState       = I2C_STATE_NONE;
 8006450:	68fb      	ldr	r3, [r7, #12]
 8006452:	2200      	movs	r2, #0
 8006454:	631a      	str	r2, [r3, #48]	; 0x30
        hi2c->State               = HAL_I2C_STATE_READY;
 8006456:	68fb      	ldr	r3, [r7, #12]
 8006458:	2220      	movs	r2, #32
 800645a:	f883 203d 	strb.w	r2, [r3, #61]	; 0x3d
        hi2c->Mode                = HAL_I2C_MODE_NONE;
 800645e:	68fb      	ldr	r3, [r7, #12]
 8006460:	2200      	movs	r2, #0
 8006462:	f883 203e 	strb.w	r2, [r3, #62]	; 0x3e
        hi2c->ErrorCode           |= HAL_I2C_ERROR_TIMEOUT;
 8006466:	68fb      	ldr	r3, [r7, #12]
 8006468:	6c1b      	ldr	r3, [r3, #64]	; 0x40
 800646a:	f043 0220 	orr.w	r2, r3, #32
 800646e:	68fb      	ldr	r3, [r7, #12]
 8006470:	641a      	str	r2, [r3, #64]	; 0x40

        /* Process Unlocked */
        __HAL_UNLOCK(hi2c);
 8006472:	68fb      	ldr	r3, [r7, #12]
 8006474:	2200      	movs	r2, #0
 8006476:	f883 203c 	strb.w	r2, [r3, #60]	; 0x3c

        return HAL_ERROR;
 800647a:	2301      	movs	r3, #1
 800647c:	e007      	b.n	800648e <I2C_WaitOnRXNEFlagUntilTimeout+0xb2>
  while (__HAL_I2C_GET_FLAG(hi2c, I2C_FLAG_RXNE) == RESET)
 800647e:	68fb      	ldr	r3, [r7, #12]
 8006480:	681b      	ldr	r3, [r3, #0]
 8006482:	695b      	ldr	r3, [r3, #20]
 8006484:	f003 0340 	and.w	r3, r3, #64	; 0x40
 8006488:	2b40      	cmp	r3, #64	; 0x40
 800648a:	d1ae      	bne.n	80063ea <I2C_WaitOnRXNEFlagUntilTimeout+0xe>
      }
    }
  }
  return HAL_OK;
 800648c:	2300      	movs	r3, #0
}
 800648e:	4618      	mov	r0, r3
 8006490:	3710      	adds	r7, #16
 8006492:	46bd      	mov	sp, r7
 8006494:	bd80      	pop	{r7, pc}

08006496 <I2C_IsAcknowledgeFailed>:
  * @param  hi2c Pointer to a I2C_HandleTypeDef structure that contains
  *                the configuration information for the specified I2C.
  * @retval HAL status
  */
static HAL_StatusTypeDef I2C_IsAcknowledgeFailed(I2C_HandleTypeDef *hi2c)
{
 8006496:	b480      	push	{r7}
 8006498:	b083      	sub	sp, #12
 800649a:	af00      	add	r7, sp, #0
 800649c:	6078      	str	r0, [r7, #4]
  if (__HAL_I2C_GET_FLAG(hi2c, I2C_FLAG_AF) == SET)
 800649e:	687b      	ldr	r3, [r7, #4]
 80064a0:	681b      	ldr	r3, [r3, #0]
 80064a2:	695b      	ldr	r3, [r3, #20]
 80064a4:	f403 6380 	and.w	r3, r3, #1024	; 0x400
 80064a8:	f5b3 6f80 	cmp.w	r3, #1024	; 0x400
 80064ac:	d11b      	bne.n	80064e6 <I2C_IsAcknowledgeFailed+0x50>
  {
    /* Clear NACKF Flag */
    __HAL_I2C_CLEAR_FLAG(hi2c, I2C_FLAG_AF);
 80064ae:	687b      	ldr	r3, [r7, #4]
 80064b0:	681b      	ldr	r3, [r3, #0]
 80064b2:	f46f 6280 	mvn.w	r2, #1024	; 0x400
 80064b6:	615a      	str	r2, [r3, #20]

    hi2c->PreviousState       = I2C_STATE_NONE;
 80064b8:	687b      	ldr	r3, [r7, #4]
 80064ba:	2200      	movs	r2, #0
 80064bc:	631a      	str	r2, [r3, #48]	; 0x30
    hi2c->State               = HAL_I2C_STATE_READY;
 80064be:	687b      	ldr	r3, [r7, #4]
 80064c0:	2220      	movs	r2, #32
 80064c2:	f883 203d 	strb.w	r2, [r3, #61]	; 0x3d
    hi2c->Mode                = HAL_I2C_MODE_NONE;
 80064c6:	687b      	ldr	r3, [r7, #4]
 80064c8:	2200      	movs	r2, #0
 80064ca:	f883 203e 	strb.w	r2, [r3, #62]	; 0x3e
    hi2c->ErrorCode           |= HAL_I2C_ERROR_AF;
 80064ce:	687b      	ldr	r3, [r7, #4]
 80064d0:	6c1b      	ldr	r3, [r3, #64]	; 0x40
 80064d2:	f043 0204 	orr.w	r2, r3, #4
 80064d6:	687b      	ldr	r3, [r7, #4]
 80064d8:	641a      	str	r2, [r3, #64]	; 0x40

    /* Process Unlocked */
    __HAL_UNLOCK(hi2c);
 80064da:	687b      	ldr	r3, [r7, #4]
 80064dc:	2200      	movs	r2, #0
 80064de:	f883 203c 	strb.w	r2, [r3, #60]	; 0x3c

    return HAL_ERROR;
 80064e2:	2301      	movs	r3, #1
 80064e4:	e000      	b.n	80064e8 <I2C_IsAcknowledgeFailed+0x52>
  }
  return HAL_OK;
 80064e6:	2300      	movs	r3, #0
}
 80064e8:	4618      	mov	r0, r3
 80064ea:	370c      	adds	r7, #12
 80064ec:	46bd      	mov	sp, r7
 80064ee:	bc80      	pop	{r7}
 80064f0:	4770      	bx	lr
	...

080064f4 <HAL_RCC_OscConfig>:
  *         supported by this macro. User should request a transition to HSE Off
  *         first and then HSE On or HSE Bypass.
  * @retval HAL status
  */
HAL_StatusTypeDef HAL_RCC_OscConfig(RCC_OscInitTypeDef  *RCC_OscInitStruct)
{
 80064f4:	b580      	push	{r7, lr}
 80064f6:	b086      	sub	sp, #24
 80064f8:	af00      	add	r7, sp, #0
 80064fa:	6078      	str	r0, [r7, #4]
  uint32_t tickstart;
  uint32_t pll_config;

  /* Check Null pointer */
  if (RCC_OscInitStruct == NULL)
 80064fc:	687b      	ldr	r3, [r7, #4]
 80064fe:	2b00      	cmp	r3, #0
 8006500:	d101      	bne.n	8006506 <HAL_RCC_OscConfig+0x12>
  {
    return HAL_ERROR;
 8006502:	2301      	movs	r3, #1
 8006504:	e272      	b.n	80069ec <HAL_RCC_OscConfig+0x4f8>

  /* Check the parameters */
  assert_param(IS_RCC_OSCILLATORTYPE(RCC_OscInitStruct->OscillatorType));

  /*------------------------------- HSE Configuration ------------------------*/
  if (((RCC_OscInitStruct->OscillatorType) & RCC_OSCILLATORTYPE_HSE) == RCC_OSCILLATORTYPE_HSE)
 8006506:	687b      	ldr	r3, [r7, #4]
 8006508:	681b      	ldr	r3, [r3, #0]
 800650a:	f003 0301 	and.w	r3, r3, #1
 800650e:	2b00      	cmp	r3, #0
 8006510:	f000 8087 	beq.w	8006622 <HAL_RCC_OscConfig+0x12e>
  {
    /* Check the parameters */
    assert_param(IS_RCC_HSE(RCC_OscInitStruct->HSEState));

    /* When the HSE is used as system clock or clock source for PLL in these cases it is not allowed to be disabled */
    if ((__HAL_RCC_GET_SYSCLK_SOURCE() == RCC_SYSCLKSOURCE_STATUS_HSE)
 8006514:	4b92      	ldr	r3, [pc, #584]	; (8006760 <HAL_RCC_OscConfig+0x26c>)
 8006516:	685b      	ldr	r3, [r3, #4]
 8006518:	f003 030c 	and.w	r3, r3, #12
 800651c:	2b04      	cmp	r3, #4
 800651e:	d00c      	beq.n	800653a <HAL_RCC_OscConfig+0x46>
        || ((__HAL_RCC_GET_SYSCLK_SOURCE() == RCC_SYSCLKSOURCE_STATUS_PLLCLK) && (__HAL_RCC_GET_PLL_OSCSOURCE() == RCC_PLLSOURCE_HSE)))
 8006520:	4b8f      	ldr	r3, [pc, #572]	; (8006760 <HAL_RCC_OscConfig+0x26c>)
 8006522:	685b      	ldr	r3, [r3, #4]
 8006524:	f003 030c 	and.w	r3, r3, #12
 8006528:	2b08      	cmp	r3, #8
 800652a:	d112      	bne.n	8006552 <HAL_RCC_OscConfig+0x5e>
 800652c:	4b8c      	ldr	r3, [pc, #560]	; (8006760 <HAL_RCC_OscConfig+0x26c>)
 800652e:	685b      	ldr	r3, [r3, #4]
 8006530:	f403 3380 	and.w	r3, r3, #65536	; 0x10000
 8006534:	f5b3 3f80 	cmp.w	r3, #65536	; 0x10000
 8006538:	d10b      	bne.n	8006552 <HAL_RCC_OscConfig+0x5e>
    {
      if ((__HAL_RCC_GET_FLAG(RCC_FLAG_HSERDY) != RESET) && (RCC_OscInitStruct->HSEState == RCC_HSE_OFF))
 800653a:	4b89      	ldr	r3, [pc, #548]	; (8006760 <HAL_RCC_OscConfig+0x26c>)
 800653c:	681b      	ldr	r3, [r3, #0]
 800653e:	f403 3300 	and.w	r3, r3, #131072	; 0x20000
 8006542:	2b00      	cmp	r3, #0
 8006544:	d06c      	beq.n	8006620 <HAL_RCC_OscConfig+0x12c>
 8006546:	687b      	ldr	r3, [r7, #4]
 8006548:	685b      	ldr	r3, [r3, #4]
 800654a:	2b00      	cmp	r3, #0
 800654c:	d168      	bne.n	8006620 <HAL_RCC_OscConfig+0x12c>
      {
        return HAL_ERROR;
 800654e:	2301      	movs	r3, #1
 8006550:	e24c      	b.n	80069ec <HAL_RCC_OscConfig+0x4f8>
      }
    }
    else
    {
      /* Set the new HSE configuration ---------------------------------------*/
      __HAL_RCC_HSE_CONFIG(RCC_OscInitStruct->HSEState);
 8006552:	687b      	ldr	r3, [r7, #4]
 8006554:	685b      	ldr	r3, [r3, #4]
 8006556:	f5b3 3f80 	cmp.w	r3, #65536	; 0x10000
 800655a:	d106      	bne.n	800656a <HAL_RCC_OscConfig+0x76>
 800655c:	4b80      	ldr	r3, [pc, #512]	; (8006760 <HAL_RCC_OscConfig+0x26c>)
 800655e:	681b      	ldr	r3, [r3, #0]
 8006560:	4a7f      	ldr	r2, [pc, #508]	; (8006760 <HAL_RCC_OscConfig+0x26c>)
 8006562:	f443 3380 	orr.w	r3, r3, #65536	; 0x10000
 8006566:	6013      	str	r3, [r2, #0]
 8006568:	e02e      	b.n	80065c8 <HAL_RCC_OscConfig+0xd4>
 800656a:	687b      	ldr	r3, [r7, #4]
 800656c:	685b      	ldr	r3, [r3, #4]
 800656e:	2b00      	cmp	r3, #0
 8006570:	d10c      	bne.n	800658c <HAL_RCC_OscConfig+0x98>
 8006572:	4b7b      	ldr	r3, [pc, #492]	; (8006760 <HAL_RCC_OscConfig+0x26c>)
 8006574:	681b      	ldr	r3, [r3, #0]
 8006576:	4a7a      	ldr	r2, [pc, #488]	; (8006760 <HAL_RCC_OscConfig+0x26c>)
 8006578:	f423 3380 	bic.w	r3, r3, #65536	; 0x10000
 800657c:	6013      	str	r3, [r2, #0]
 800657e:	4b78      	ldr	r3, [pc, #480]	; (8006760 <HAL_RCC_OscConfig+0x26c>)
 8006580:	681b      	ldr	r3, [r3, #0]
 8006582:	4a77      	ldr	r2, [pc, #476]	; (8006760 <HAL_RCC_OscConfig+0x26c>)
 8006584:	f423 2380 	bic.w	r3, r3, #262144	; 0x40000
 8006588:	6013      	str	r3, [r2, #0]
 800658a:	e01d      	b.n	80065c8 <HAL_RCC_OscConfig+0xd4>
 800658c:	687b      	ldr	r3, [r7, #4]
 800658e:	685b      	ldr	r3, [r3, #4]
 8006590:	f5b3 2fa0 	cmp.w	r3, #327680	; 0x50000
 8006594:	d10c      	bne.n	80065b0 <HAL_RCC_OscConfig+0xbc>
 8006596:	4b72      	ldr	r3, [pc, #456]	; (8006760 <HAL_RCC_OscConfig+0x26c>)
 8006598:	681b      	ldr	r3, [r3, #0]
 800659a:	4a71      	ldr	r2, [pc, #452]	; (8006760 <HAL_RCC_OscConfig+0x26c>)
 800659c:	f443 2380 	orr.w	r3, r3, #262144	; 0x40000
 80065a0:	6013      	str	r3, [r2, #0]
 80065a2:	4b6f      	ldr	r3, [pc, #444]	; (8006760 <HAL_RCC_OscConfig+0x26c>)
 80065a4:	681b      	ldr	r3, [r3, #0]
 80065a6:	4a6e      	ldr	r2, [pc, #440]	; (8006760 <HAL_RCC_OscConfig+0x26c>)
 80065a8:	f443 3380 	orr.w	r3, r3, #65536	; 0x10000
 80065ac:	6013      	str	r3, [r2, #0]
 80065ae:	e00b      	b.n	80065c8 <HAL_RCC_OscConfig+0xd4>
 80065b0:	4b6b      	ldr	r3, [pc, #428]	; (8006760 <HAL_RCC_OscConfig+0x26c>)
 80065b2:	681b      	ldr	r3, [r3, #0]
 80065b4:	4a6a      	ldr	r2, [pc, #424]	; (8006760 <HAL_RCC_OscConfig+0x26c>)
 80065b6:	f423 3380 	bic.w	r3, r3, #65536	; 0x10000
 80065ba:	6013      	str	r3, [r2, #0]
 80065bc:	4b68      	ldr	r3, [pc, #416]	; (8006760 <HAL_RCC_OscConfig+0x26c>)
 80065be:	681b      	ldr	r3, [r3, #0]
 80065c0:	4a67      	ldr	r2, [pc, #412]	; (8006760 <HAL_RCC_OscConfig+0x26c>)
 80065c2:	f423 2380 	bic.w	r3, r3, #262144	; 0x40000
 80065c6:	6013      	str	r3, [r2, #0]


      /* Check the HSE State */
      if (RCC_OscInitStruct->HSEState != RCC_HSE_OFF)
 80065c8:	687b      	ldr	r3, [r7, #4]
 80065ca:	685b      	ldr	r3, [r3, #4]
 80065cc:	2b00      	cmp	r3, #0
 80065ce:	d013      	beq.n	80065f8 <HAL_RCC_OscConfig+0x104>
      {
        /* Get Start Tick */
        tickstart = HAL_GetTick();
 80065d0:	f7fe fbd0 	bl	8004d74 <HAL_GetTick>
 80065d4:	6138      	str	r0, [r7, #16]

        /* Wait till HSE is ready */
        while (__HAL_RCC_GET_FLAG(RCC_FLAG_HSERDY) == RESET)
 80065d6:	e008      	b.n	80065ea <HAL_RCC_OscConfig+0xf6>
        {
          if ((HAL_GetTick() - tickstart) > HSE_TIMEOUT_VALUE)
 80065d8:	f7fe fbcc 	bl	8004d74 <HAL_GetTick>
 80065dc:	4602      	mov	r2, r0
 80065de:	693b      	ldr	r3, [r7, #16]
 80065e0:	1ad3      	subs	r3, r2, r3
 80065e2:	2b64      	cmp	r3, #100	; 0x64
 80065e4:	d901      	bls.n	80065ea <HAL_RCC_OscConfig+0xf6>
          {
            return HAL_TIMEOUT;
 80065e6:	2303      	movs	r3, #3
 80065e8:	e200      	b.n	80069ec <HAL_RCC_OscConfig+0x4f8>
        while (__HAL_RCC_GET_FLAG(RCC_FLAG_HSERDY) == RESET)
 80065ea:	4b5d      	ldr	r3, [pc, #372]	; (8006760 <HAL_RCC_OscConfig+0x26c>)
 80065ec:	681b      	ldr	r3, [r3, #0]
 80065ee:	f403 3300 	and.w	r3, r3, #131072	; 0x20000
 80065f2:	2b00      	cmp	r3, #0
 80065f4:	d0f0      	beq.n	80065d8 <HAL_RCC_OscConfig+0xe4>
 80065f6:	e014      	b.n	8006622 <HAL_RCC_OscConfig+0x12e>
        }
      }
      else
      {
        /* Get Start Tick */
        tickstart = HAL_GetTick();
 80065f8:	f7fe fbbc 	bl	8004d74 <HAL_GetTick>
 80065fc:	6138      	str	r0, [r7, #16]

        /* Wait till HSE is disabled */
        while (__HAL_RCC_GET_FLAG(RCC_FLAG_HSERDY) != RESET)
 80065fe:	e008      	b.n	8006612 <HAL_RCC_OscConfig+0x11e>
        {
          if ((HAL_GetTick() - tickstart) > HSE_TIMEOUT_VALUE)
 8006600:	f7fe fbb8 	bl	8004d74 <HAL_GetTick>
 8006604:	4602      	mov	r2, r0
 8006606:	693b      	ldr	r3, [r7, #16]
 8006608:	1ad3      	subs	r3, r2, r3
 800660a:	2b64      	cmp	r3, #100	; 0x64
 800660c:	d901      	bls.n	8006612 <HAL_RCC_OscConfig+0x11e>
          {
            return HAL_TIMEOUT;
 800660e:	2303      	movs	r3, #3
 8006610:	e1ec      	b.n	80069ec <HAL_RCC_OscConfig+0x4f8>
        while (__HAL_RCC_GET_FLAG(RCC_FLAG_HSERDY) != RESET)
 8006612:	4b53      	ldr	r3, [pc, #332]	; (8006760 <HAL_RCC_OscConfig+0x26c>)
 8006614:	681b      	ldr	r3, [r3, #0]
 8006616:	f403 3300 	and.w	r3, r3, #131072	; 0x20000
 800661a:	2b00      	cmp	r3, #0
 800661c:	d1f0      	bne.n	8006600 <HAL_RCC_OscConfig+0x10c>
 800661e:	e000      	b.n	8006622 <HAL_RCC_OscConfig+0x12e>
      if ((__HAL_RCC_GET_FLAG(RCC_FLAG_HSERDY) != RESET) && (RCC_OscInitStruct->HSEState == RCC_HSE_OFF))
 8006620:	bf00      	nop
        }
      }
    }
  }
  /*----------------------------- HSI Configuration --------------------------*/
  if (((RCC_OscInitStruct->OscillatorType) & RCC_OSCILLATORTYPE_HSI) == RCC_OSCILLATORTYPE_HSI)
 8006622:	687b      	ldr	r3, [r7, #4]
 8006624:	681b      	ldr	r3, [r3, #0]
 8006626:	f003 0302 	and.w	r3, r3, #2
 800662a:	2b00      	cmp	r3, #0
 800662c:	d063      	beq.n	80066f6 <HAL_RCC_OscConfig+0x202>
    /* Check the parameters */
    assert_param(IS_RCC_HSI(RCC_OscInitStruct->HSIState));
    assert_param(IS_RCC_CALIBRATION_VALUE(RCC_OscInitStruct->HSICalibrationValue));

    /* Check if HSI is used as system clock or as PLL source when PLL is selected as system clock */
    if ((__HAL_RCC_GET_SYSCLK_SOURCE() == RCC_SYSCLKSOURCE_STATUS_HSI)
 800662e:	4b4c      	ldr	r3, [pc, #304]	; (8006760 <HAL_RCC_OscConfig+0x26c>)
 8006630:	685b      	ldr	r3, [r3, #4]
 8006632:	f003 030c 	and.w	r3, r3, #12
 8006636:	2b00      	cmp	r3, #0
 8006638:	d00b      	beq.n	8006652 <HAL_RCC_OscConfig+0x15e>
        || ((__HAL_RCC_GET_SYSCLK_SOURCE() == RCC_SYSCLKSOURCE_STATUS_PLLCLK) && (__HAL_RCC_GET_PLL_OSCSOURCE() == RCC_PLLSOURCE_HSI_DIV2)))
 800663a:	4b49      	ldr	r3, [pc, #292]	; (8006760 <HAL_RCC_OscConfig+0x26c>)
 800663c:	685b      	ldr	r3, [r3, #4]
 800663e:	f003 030c 	and.w	r3, r3, #12
 8006642:	2b08      	cmp	r3, #8
 8006644:	d11c      	bne.n	8006680 <HAL_RCC_OscConfig+0x18c>
 8006646:	4b46      	ldr	r3, [pc, #280]	; (8006760 <HAL_RCC_OscConfig+0x26c>)
 8006648:	685b      	ldr	r3, [r3, #4]
 800664a:	f403 3380 	and.w	r3, r3, #65536	; 0x10000
 800664e:	2b00      	cmp	r3, #0
 8006650:	d116      	bne.n	8006680 <HAL_RCC_OscConfig+0x18c>
    {
      /* When HSI is used as system clock it will not disabled */
      if ((__HAL_RCC_GET_FLAG(RCC_FLAG_HSIRDY) != RESET) && (RCC_OscInitStruct->HSIState != RCC_HSI_ON))
 8006652:	4b43      	ldr	r3, [pc, #268]	; (8006760 <HAL_RCC_OscConfig+0x26c>)
 8006654:	681b      	ldr	r3, [r3, #0]
 8006656:	f003 0302 	and.w	r3, r3, #2
 800665a:	2b00      	cmp	r3, #0
 800665c:	d005      	beq.n	800666a <HAL_RCC_OscConfig+0x176>
 800665e:	687b      	ldr	r3, [r7, #4]
 8006660:	691b      	ldr	r3, [r3, #16]
 8006662:	2b01      	cmp	r3, #1
 8006664:	d001      	beq.n	800666a <HAL_RCC_OscConfig+0x176>
      {
        return HAL_ERROR;
 8006666:	2301      	movs	r3, #1
 8006668:	e1c0      	b.n	80069ec <HAL_RCC_OscConfig+0x4f8>
      }
      /* Otherwise, just the calibration is allowed */
      else
      {
        /* Adjusts the Internal High Speed oscillator (HSI) calibration value.*/
        __HAL_RCC_HSI_CALIBRATIONVALUE_ADJUST(RCC_OscInitStruct->HSICalibrationValue);
 800666a:	4b3d      	ldr	r3, [pc, #244]	; (8006760 <HAL_RCC_OscConfig+0x26c>)
 800666c:	681b      	ldr	r3, [r3, #0]
 800666e:	f023 02f8 	bic.w	r2, r3, #248	; 0xf8
 8006672:	687b      	ldr	r3, [r7, #4]
 8006674:	695b      	ldr	r3, [r3, #20]
 8006676:	00db      	lsls	r3, r3, #3
 8006678:	4939      	ldr	r1, [pc, #228]	; (8006760 <HAL_RCC_OscConfig+0x26c>)
 800667a:	4313      	orrs	r3, r2
 800667c:	600b      	str	r3, [r1, #0]
      if ((__HAL_RCC_GET_FLAG(RCC_FLAG_HSIRDY) != RESET) && (RCC_OscInitStruct->HSIState != RCC_HSI_ON))
 800667e:	e03a      	b.n	80066f6 <HAL_RCC_OscConfig+0x202>
      }
    }
    else
    {
      /* Check the HSI State */
      if (RCC_OscInitStruct->HSIState != RCC_HSI_OFF)
 8006680:	687b      	ldr	r3, [r7, #4]
 8006682:	691b      	ldr	r3, [r3, #16]
 8006684:	2b00      	cmp	r3, #0
 8006686:	d020      	beq.n	80066ca <HAL_RCC_OscConfig+0x1d6>
      {
        /* Enable the Internal High Speed oscillator (HSI). */
        __HAL_RCC_HSI_ENABLE();
 8006688:	4b36      	ldr	r3, [pc, #216]	; (8006764 <HAL_RCC_OscConfig+0x270>)
 800668a:	2201      	movs	r2, #1
 800668c:	601a      	str	r2, [r3, #0]

        /* Get Start Tick */
        tickstart = HAL_GetTick();
 800668e:	f7fe fb71 	bl	8004d74 <HAL_GetTick>
 8006692:	6138      	str	r0, [r7, #16]

        /* Wait till HSI is ready */
        while (__HAL_RCC_GET_FLAG(RCC_FLAG_HSIRDY) == RESET)
 8006694:	e008      	b.n	80066a8 <HAL_RCC_OscConfig+0x1b4>
        {
          if ((HAL_GetTick() - tickstart) > HSI_TIMEOUT_VALUE)
 8006696:	f7fe fb6d 	bl	8004d74 <HAL_GetTick>
 800669a:	4602      	mov	r2, r0
 800669c:	693b      	ldr	r3, [r7, #16]
 800669e:	1ad3      	subs	r3, r2, r3
 80066a0:	2b02      	cmp	r3, #2
 80066a2:	d901      	bls.n	80066a8 <HAL_RCC_OscConfig+0x1b4>
          {
            return HAL_TIMEOUT;
 80066a4:	2303      	movs	r3, #3
 80066a6:	e1a1      	b.n	80069ec <HAL_RCC_OscConfig+0x4f8>
        while (__HAL_RCC_GET_FLAG(RCC_FLAG_HSIRDY) == RESET)
 80066a8:	4b2d      	ldr	r3, [pc, #180]	; (8006760 <HAL_RCC_OscConfig+0x26c>)
 80066aa:	681b      	ldr	r3, [r3, #0]
 80066ac:	f003 0302 	and.w	r3, r3, #2
 80066b0:	2b00      	cmp	r3, #0
 80066b2:	d0f0      	beq.n	8006696 <HAL_RCC_OscConfig+0x1a2>
          }
        }

        /* Adjusts the Internal High Speed oscillator (HSI) calibration value.*/
        __HAL_RCC_HSI_CALIBRATIONVALUE_ADJUST(RCC_OscInitStruct->HSICalibrationValue);
 80066b4:	4b2a      	ldr	r3, [pc, #168]	; (8006760 <HAL_RCC_OscConfig+0x26c>)
 80066b6:	681b      	ldr	r3, [r3, #0]
 80066b8:	f023 02f8 	bic.w	r2, r3, #248	; 0xf8
 80066bc:	687b      	ldr	r3, [r7, #4]
 80066be:	695b      	ldr	r3, [r3, #20]
 80066c0:	00db      	lsls	r3, r3, #3
 80066c2:	4927      	ldr	r1, [pc, #156]	; (8006760 <HAL_RCC_OscConfig+0x26c>)
 80066c4:	4313      	orrs	r3, r2
 80066c6:	600b      	str	r3, [r1, #0]
 80066c8:	e015      	b.n	80066f6 <HAL_RCC_OscConfig+0x202>
      }
      else
      {
        /* Disable the Internal High Speed oscillator (HSI). */
        __HAL_RCC_HSI_DISABLE();
 80066ca:	4b26      	ldr	r3, [pc, #152]	; (8006764 <HAL_RCC_OscConfig+0x270>)
 80066cc:	2200      	movs	r2, #0
 80066ce:	601a      	str	r2, [r3, #0]

        /* Get Start Tick */
        tickstart = HAL_GetTick();
 80066d0:	f7fe fb50 	bl	8004d74 <HAL_GetTick>
 80066d4:	6138      	str	r0, [r7, #16]

        /* Wait till HSI is disabled */
        while (__HAL_RCC_GET_FLAG(RCC_FLAG_HSIRDY) != RESET)
 80066d6:	e008      	b.n	80066ea <HAL_RCC_OscConfig+0x1f6>
        {
          if ((HAL_GetTick() - tickstart) > HSI_TIMEOUT_VALUE)
 80066d8:	f7fe fb4c 	bl	8004d74 <HAL_GetTick>
 80066dc:	4602      	mov	r2, r0
 80066de:	693b      	ldr	r3, [r7, #16]
 80066e0:	1ad3      	subs	r3, r2, r3
 80066e2:	2b02      	cmp	r3, #2
 80066e4:	d901      	bls.n	80066ea <HAL_RCC_OscConfig+0x1f6>
          {
            return HAL_TIMEOUT;
 80066e6:	2303      	movs	r3, #3
 80066e8:	e180      	b.n	80069ec <HAL_RCC_OscConfig+0x4f8>
        while (__HAL_RCC_GET_FLAG(RCC_FLAG_HSIRDY) != RESET)
 80066ea:	4b1d      	ldr	r3, [pc, #116]	; (8006760 <HAL_RCC_OscConfig+0x26c>)
 80066ec:	681b      	ldr	r3, [r3, #0]
 80066ee:	f003 0302 	and.w	r3, r3, #2
 80066f2:	2b00      	cmp	r3, #0
 80066f4:	d1f0      	bne.n	80066d8 <HAL_RCC_OscConfig+0x1e4>
        }
      }
    }
  }
  /*------------------------------ LSI Configuration -------------------------*/
  if (((RCC_OscInitStruct->OscillatorType) & RCC_OSCILLATORTYPE_LSI) == RCC_OSCILLATORTYPE_LSI)
 80066f6:	687b      	ldr	r3, [r7, #4]
 80066f8:	681b      	ldr	r3, [r3, #0]
 80066fa:	f003 0308 	and.w	r3, r3, #8
 80066fe:	2b00      	cmp	r3, #0
 8006700:	d03a      	beq.n	8006778 <HAL_RCC_OscConfig+0x284>
  {
    /* Check the parameters */
    assert_param(IS_RCC_LSI(RCC_OscInitStruct->LSIState));

    /* Check the LSI State */
    if (RCC_OscInitStruct->LSIState != RCC_LSI_OFF)
 8006702:	687b      	ldr	r3, [r7, #4]
 8006704:	699b      	ldr	r3, [r3, #24]
 8006706:	2b00      	cmp	r3, #0
 8006708:	d019      	beq.n	800673e <HAL_RCC_OscConfig+0x24a>
    {
      /* Enable the Internal Low Speed oscillator (LSI). */
      __HAL_RCC_LSI_ENABLE();
 800670a:	4b17      	ldr	r3, [pc, #92]	; (8006768 <HAL_RCC_OscConfig+0x274>)
 800670c:	2201      	movs	r2, #1
 800670e:	601a      	str	r2, [r3, #0]

      /* Get Start Tick */
      tickstart = HAL_GetTick();
 8006710:	f7fe fb30 	bl	8004d74 <HAL_GetTick>
 8006714:	6138      	str	r0, [r7, #16]

      /* Wait till LSI is ready */
      while (__HAL_RCC_GET_FLAG(RCC_FLAG_LSIRDY) == RESET)
 8006716:	e008      	b.n	800672a <HAL_RCC_OscConfig+0x236>
      {
        if ((HAL_GetTick() - tickstart) > LSI_TIMEOUT_VALUE)
 8006718:	f7fe fb2c 	bl	8004d74 <HAL_GetTick>
 800671c:	4602      	mov	r2, r0
 800671e:	693b      	ldr	r3, [r7, #16]
 8006720:	1ad3      	subs	r3, r2, r3
 8006722:	2b02      	cmp	r3, #2
 8006724:	d901      	bls.n	800672a <HAL_RCC_OscConfig+0x236>
        {
          return HAL_TIMEOUT;
 8006726:	2303      	movs	r3, #3
 8006728:	e160      	b.n	80069ec <HAL_RCC_OscConfig+0x4f8>
      while (__HAL_RCC_GET_FLAG(RCC_FLAG_LSIRDY) == RESET)
 800672a:	4b0d      	ldr	r3, [pc, #52]	; (8006760 <HAL_RCC_OscConfig+0x26c>)
 800672c:	6a5b      	ldr	r3, [r3, #36]	; 0x24
 800672e:	f003 0302 	and.w	r3, r3, #2
 8006732:	2b00      	cmp	r3, #0
 8006734:	d0f0      	beq.n	8006718 <HAL_RCC_OscConfig+0x224>
        }
      }
      /*  To have a fully stabilized clock in the specified range, a software delay of 1ms
          should be added.*/
      RCC_Delay(1);
 8006736:	2001      	movs	r0, #1
 8006738:	f000 face 	bl	8006cd8 <RCC_Delay>
 800673c:	e01c      	b.n	8006778 <HAL_RCC_OscConfig+0x284>
    }
    else
    {
      /* Disable the Internal Low Speed oscillator (LSI). */
      __HAL_RCC_LSI_DISABLE();
 800673e:	4b0a      	ldr	r3, [pc, #40]	; (8006768 <HAL_RCC_OscConfig+0x274>)
 8006740:	2200      	movs	r2, #0
 8006742:	601a      	str	r2, [r3, #0]

      /* Get Start Tick */
      tickstart = HAL_GetTick();
 8006744:	f7fe fb16 	bl	8004d74 <HAL_GetTick>
 8006748:	6138      	str	r0, [r7, #16]

      /* Wait till LSI is disabled */
      while (__HAL_RCC_GET_FLAG(RCC_FLAG_LSIRDY) != RESET)
 800674a:	e00f      	b.n	800676c <HAL_RCC_OscConfig+0x278>
      {
        if ((HAL_GetTick() - tickstart) > LSI_TIMEOUT_VALUE)
 800674c:	f7fe fb12 	bl	8004d74 <HAL_GetTick>
 8006750:	4602      	mov	r2, r0
 8006752:	693b      	ldr	r3, [r7, #16]
 8006754:	1ad3      	subs	r3, r2, r3
 8006756:	2b02      	cmp	r3, #2
 8006758:	d908      	bls.n	800676c <HAL_RCC_OscConfig+0x278>
        {
          return HAL_TIMEOUT;
 800675a:	2303      	movs	r3, #3
 800675c:	e146      	b.n	80069ec <HAL_RCC_OscConfig+0x4f8>
 800675e:	bf00      	nop
 8006760:	40021000 	.word	0x40021000
 8006764:	42420000 	.word	0x42420000
 8006768:	42420480 	.word	0x42420480
      while (__HAL_RCC_GET_FLAG(RCC_FLAG_LSIRDY) != RESET)
 800676c:	4b92      	ldr	r3, [pc, #584]	; (80069b8 <HAL_RCC_OscConfig+0x4c4>)
 800676e:	6a5b      	ldr	r3, [r3, #36]	; 0x24
 8006770:	f003 0302 	and.w	r3, r3, #2
 8006774:	2b00      	cmp	r3, #0
 8006776:	d1e9      	bne.n	800674c <HAL_RCC_OscConfig+0x258>
        }
      }
    }
  }
  /*------------------------------ LSE Configuration -------------------------*/
  if (((RCC_OscInitStruct->OscillatorType) & RCC_OSCILLATORTYPE_LSE) == RCC_OSCILLATORTYPE_LSE)
 8006778:	687b      	ldr	r3, [r7, #4]
 800677a:	681b      	ldr	r3, [r3, #0]
 800677c:	f003 0304 	and.w	r3, r3, #4
 8006780:	2b00      	cmp	r3, #0
 8006782:	f000 80a6 	beq.w	80068d2 <HAL_RCC_OscConfig+0x3de>
  {
    FlagStatus       pwrclkchanged = RESET;
 8006786:	2300      	movs	r3, #0
 8006788:	75fb      	strb	r3, [r7, #23]
    /* Check the parameters */
    assert_param(IS_RCC_LSE(RCC_OscInitStruct->LSEState));

    /* Update LSE configuration in Backup Domain control register    */
    /* Requires to enable write access to Backup Domain of necessary */
    if (__HAL_RCC_PWR_IS_CLK_DISABLED())
 800678a:	4b8b      	ldr	r3, [pc, #556]	; (80069b8 <HAL_RCC_OscConfig+0x4c4>)
 800678c:	69db      	ldr	r3, [r3, #28]
 800678e:	f003 5380 	and.w	r3, r3, #268435456	; 0x10000000
 8006792:	2b00      	cmp	r3, #0
 8006794:	d10d      	bne.n	80067b2 <HAL_RCC_OscConfig+0x2be>
    {
      __HAL_RCC_PWR_CLK_ENABLE();
 8006796:	4b88      	ldr	r3, [pc, #544]	; (80069b8 <HAL_RCC_OscConfig+0x4c4>)
 8006798:	69db      	ldr	r3, [r3, #28]
 800679a:	4a87      	ldr	r2, [pc, #540]	; (80069b8 <HAL_RCC_OscConfig+0x4c4>)
 800679c:	f043 5380 	orr.w	r3, r3, #268435456	; 0x10000000
 80067a0:	61d3      	str	r3, [r2, #28]
 80067a2:	4b85      	ldr	r3, [pc, #532]	; (80069b8 <HAL_RCC_OscConfig+0x4c4>)
 80067a4:	69db      	ldr	r3, [r3, #28]
 80067a6:	f003 5380 	and.w	r3, r3, #268435456	; 0x10000000
 80067aa:	60bb      	str	r3, [r7, #8]
 80067ac:	68bb      	ldr	r3, [r7, #8]
      pwrclkchanged = SET;
 80067ae:	2301      	movs	r3, #1
 80067b0:	75fb      	strb	r3, [r7, #23]
    }

    if (HAL_IS_BIT_CLR(PWR->CR, PWR_CR_DBP))
 80067b2:	4b82      	ldr	r3, [pc, #520]	; (80069bc <HAL_RCC_OscConfig+0x4c8>)
 80067b4:	681b      	ldr	r3, [r3, #0]
 80067b6:	f403 7380 	and.w	r3, r3, #256	; 0x100
 80067ba:	2b00      	cmp	r3, #0
 80067bc:	d118      	bne.n	80067f0 <HAL_RCC_OscConfig+0x2fc>
    {
      /* Enable write access to Backup domain */
      SET_BIT(PWR->CR, PWR_CR_DBP);
 80067be:	4b7f      	ldr	r3, [pc, #508]	; (80069bc <HAL_RCC_OscConfig+0x4c8>)
 80067c0:	681b      	ldr	r3, [r3, #0]
 80067c2:	4a7e      	ldr	r2, [pc, #504]	; (80069bc <HAL_RCC_OscConfig+0x4c8>)
 80067c4:	f443 7380 	orr.w	r3, r3, #256	; 0x100
 80067c8:	6013      	str	r3, [r2, #0]

      /* Wait for Backup domain Write protection disable */
      tickstart = HAL_GetTick();
 80067ca:	f7fe fad3 	bl	8004d74 <HAL_GetTick>
 80067ce:	6138      	str	r0, [r7, #16]

      while (HAL_IS_BIT_CLR(PWR->CR, PWR_CR_DBP))
 80067d0:	e008      	b.n	80067e4 <HAL_RCC_OscConfig+0x2f0>
      {
        if ((HAL_GetTick() - tickstart) > RCC_DBP_TIMEOUT_VALUE)
 80067d2:	f7fe facf 	bl	8004d74 <HAL_GetTick>
 80067d6:	4602      	mov	r2, r0
 80067d8:	693b      	ldr	r3, [r7, #16]
 80067da:	1ad3      	subs	r3, r2, r3
 80067dc:	2b64      	cmp	r3, #100	; 0x64
 80067de:	d901      	bls.n	80067e4 <HAL_RCC_OscConfig+0x2f0>
        {
          return HAL_TIMEOUT;
 80067e0:	2303      	movs	r3, #3
 80067e2:	e103      	b.n	80069ec <HAL_RCC_OscConfig+0x4f8>
      while (HAL_IS_BIT_CLR(PWR->CR, PWR_CR_DBP))
 80067e4:	4b75      	ldr	r3, [pc, #468]	; (80069bc <HAL_RCC_OscConfig+0x4c8>)
 80067e6:	681b      	ldr	r3, [r3, #0]
 80067e8:	f403 7380 	and.w	r3, r3, #256	; 0x100
 80067ec:	2b00      	cmp	r3, #0
 80067ee:	d0f0      	beq.n	80067d2 <HAL_RCC_OscConfig+0x2de>
        }
      }
    }

    /* Set the new LSE configuration -----------------------------------------*/
    __HAL_RCC_LSE_CONFIG(RCC_OscInitStruct->LSEState);
 80067f0:	687b      	ldr	r3, [r7, #4]
 80067f2:	68db      	ldr	r3, [r3, #12]
 80067f4:	2b01      	cmp	r3, #1
 80067f6:	d106      	bne.n	8006806 <HAL_RCC_OscConfig+0x312>
 80067f8:	4b6f      	ldr	r3, [pc, #444]	; (80069b8 <HAL_RCC_OscConfig+0x4c4>)
 80067fa:	6a1b      	ldr	r3, [r3, #32]
 80067fc:	4a6e      	ldr	r2, [pc, #440]	; (80069b8 <HAL_RCC_OscConfig+0x4c4>)
 80067fe:	f043 0301 	orr.w	r3, r3, #1
 8006802:	6213      	str	r3, [r2, #32]
 8006804:	e02d      	b.n	8006862 <HAL_RCC_OscConfig+0x36e>
 8006806:	687b      	ldr	r3, [r7, #4]
 8006808:	68db      	ldr	r3, [r3, #12]
 800680a:	2b00      	cmp	r3, #0
 800680c:	d10c      	bne.n	8006828 <HAL_RCC_OscConfig+0x334>
 800680e:	4b6a      	ldr	r3, [pc, #424]	; (80069b8 <HAL_RCC_OscConfig+0x4c4>)
 8006810:	6a1b      	ldr	r3, [r3, #32]
 8006812:	4a69      	ldr	r2, [pc, #420]	; (80069b8 <HAL_RCC_OscConfig+0x4c4>)
 8006814:	f023 0301 	bic.w	r3, r3, #1
 8006818:	6213      	str	r3, [r2, #32]
 800681a:	4b67      	ldr	r3, [pc, #412]	; (80069b8 <HAL_RCC_OscConfig+0x4c4>)
 800681c:	6a1b      	ldr	r3, [r3, #32]
 800681e:	4a66      	ldr	r2, [pc, #408]	; (80069b8 <HAL_RCC_OscConfig+0x4c4>)
 8006820:	f023 0304 	bic.w	r3, r3, #4
 8006824:	6213      	str	r3, [r2, #32]
 8006826:	e01c      	b.n	8006862 <HAL_RCC_OscConfig+0x36e>
 8006828:	687b      	ldr	r3, [r7, #4]
 800682a:	68db      	ldr	r3, [r3, #12]
 800682c:	2b05      	cmp	r3, #5
 800682e:	d10c      	bne.n	800684a <HAL_RCC_OscConfig+0x356>
 8006830:	4b61      	ldr	r3, [pc, #388]	; (80069b8 <HAL_RCC_OscConfig+0x4c4>)
 8006832:	6a1b      	ldr	r3, [r3, #32]
 8006834:	4a60      	ldr	r2, [pc, #384]	; (80069b8 <HAL_RCC_OscConfig+0x4c4>)
 8006836:	f043 0304 	orr.w	r3, r3, #4
 800683a:	6213      	str	r3, [r2, #32]
 800683c:	4b5e      	ldr	r3, [pc, #376]	; (80069b8 <HAL_RCC_OscConfig+0x4c4>)
 800683e:	6a1b      	ldr	r3, [r3, #32]
 8006840:	4a5d      	ldr	r2, [pc, #372]	; (80069b8 <HAL_RCC_OscConfig+0x4c4>)
 8006842:	f043 0301 	orr.w	r3, r3, #1
 8006846:	6213      	str	r3, [r2, #32]
 8006848:	e00b      	b.n	8006862 <HAL_RCC_OscConfig+0x36e>
 800684a:	4b5b      	ldr	r3, [pc, #364]	; (80069b8 <HAL_RCC_OscConfig+0x4c4>)
 800684c:	6a1b      	ldr	r3, [r3, #32]
 800684e:	4a5a      	ldr	r2, [pc, #360]	; (80069b8 <HAL_RCC_OscConfig+0x4c4>)
 8006850:	f023 0301 	bic.w	r3, r3, #1
 8006854:	6213      	str	r3, [r2, #32]
 8006856:	4b58      	ldr	r3, [pc, #352]	; (80069b8 <HAL_RCC_OscConfig+0x4c4>)
 8006858:	6a1b      	ldr	r3, [r3, #32]
 800685a:	4a57      	ldr	r2, [pc, #348]	; (80069b8 <HAL_RCC_OscConfig+0x4c4>)
 800685c:	f023 0304 	bic.w	r3, r3, #4
 8006860:	6213      	str	r3, [r2, #32]
    /* Check the LSE State */
    if (RCC_OscInitStruct->LSEState != RCC_LSE_OFF)
 8006862:	687b      	ldr	r3, [r7, #4]
 8006864:	68db      	ldr	r3, [r3, #12]
 8006866:	2b00      	cmp	r3, #0
 8006868:	d015      	beq.n	8006896 <HAL_RCC_OscConfig+0x3a2>
    {
      /* Get Start Tick */
      tickstart = HAL_GetTick();
 800686a:	f7fe fa83 	bl	8004d74 <HAL_GetTick>
 800686e:	6138      	str	r0, [r7, #16]

      /* Wait till LSE is ready */
      while (__HAL_RCC_GET_FLAG(RCC_FLAG_LSERDY) == RESET)
 8006870:	e00a      	b.n	8006888 <HAL_RCC_OscConfig+0x394>
      {
        if ((HAL_GetTick() - tickstart) > RCC_LSE_TIMEOUT_VALUE)
 8006872:	f7fe fa7f 	bl	8004d74 <HAL_GetTick>
 8006876:	4602      	mov	r2, r0
 8006878:	693b      	ldr	r3, [r7, #16]
 800687a:	1ad3      	subs	r3, r2, r3
 800687c:	f241 3288 	movw	r2, #5000	; 0x1388
 8006880:	4293      	cmp	r3, r2
 8006882:	d901      	bls.n	8006888 <HAL_RCC_OscConfig+0x394>
        {
          return HAL_TIMEOUT;
 8006884:	2303      	movs	r3, #3
 8006886:	e0b1      	b.n	80069ec <HAL_RCC_OscConfig+0x4f8>
      while (__HAL_RCC_GET_FLAG(RCC_FLAG_LSERDY) == RESET)
 8006888:	4b4b      	ldr	r3, [pc, #300]	; (80069b8 <HAL_RCC_OscConfig+0x4c4>)
 800688a:	6a1b      	ldr	r3, [r3, #32]
 800688c:	f003 0302 	and.w	r3, r3, #2
 8006890:	2b00      	cmp	r3, #0
 8006892:	d0ee      	beq.n	8006872 <HAL_RCC_OscConfig+0x37e>
 8006894:	e014      	b.n	80068c0 <HAL_RCC_OscConfig+0x3cc>
      }
    }
    else
    {
      /* Get Start Tick */
      tickstart = HAL_GetTick();
 8006896:	f7fe fa6d 	bl	8004d74 <HAL_GetTick>
 800689a:	6138      	str	r0, [r7, #16]

      /* Wait till LSE is disabled */
      while (__HAL_RCC_GET_FLAG(RCC_FLAG_LSERDY) != RESET)
 800689c:	e00a      	b.n	80068b4 <HAL_RCC_OscConfig+0x3c0>
      {
        if ((HAL_GetTick() - tickstart) > RCC_LSE_TIMEOUT_VALUE)
 800689e:	f7fe fa69 	bl	8004d74 <HAL_GetTick>
 80068a2:	4602      	mov	r2, r0
 80068a4:	693b      	ldr	r3, [r7, #16]
 80068a6:	1ad3      	subs	r3, r2, r3
 80068a8:	f241 3288 	movw	r2, #5000	; 0x1388
 80068ac:	4293      	cmp	r3, r2
 80068ae:	d901      	bls.n	80068b4 <HAL_RCC_OscConfig+0x3c0>
        {
          return HAL_TIMEOUT;
 80068b0:	2303      	movs	r3, #3
 80068b2:	e09b      	b.n	80069ec <HAL_RCC_OscConfig+0x4f8>
      while (__HAL_RCC_GET_FLAG(RCC_FLAG_LSERDY) != RESET)
 80068b4:	4b40      	ldr	r3, [pc, #256]	; (80069b8 <HAL_RCC_OscConfig+0x4c4>)
 80068b6:	6a1b      	ldr	r3, [r3, #32]
 80068b8:	f003 0302 	and.w	r3, r3, #2
 80068bc:	2b00      	cmp	r3, #0
 80068be:	d1ee      	bne.n	800689e <HAL_RCC_OscConfig+0x3aa>
        }
      }
    }

    /* Require to disable power clock if necessary */
    if (pwrclkchanged == SET)
 80068c0:	7dfb      	ldrb	r3, [r7, #23]
 80068c2:	2b01      	cmp	r3, #1
 80068c4:	d105      	bne.n	80068d2 <HAL_RCC_OscConfig+0x3de>
    {
      __HAL_RCC_PWR_CLK_DISABLE();
 80068c6:	4b3c      	ldr	r3, [pc, #240]	; (80069b8 <HAL_RCC_OscConfig+0x4c4>)
 80068c8:	69db      	ldr	r3, [r3, #28]
 80068ca:	4a3b      	ldr	r2, [pc, #236]	; (80069b8 <HAL_RCC_OscConfig+0x4c4>)
 80068cc:	f023 5380 	bic.w	r3, r3, #268435456	; 0x10000000
 80068d0:	61d3      	str	r3, [r2, #28]

#endif /* RCC_CR_PLL2ON */
  /*-------------------------------- PLL Configuration -----------------------*/
  /* Check the parameters */
  assert_param(IS_RCC_PLL(RCC_OscInitStruct->PLL.PLLState));
  if ((RCC_OscInitStruct->PLL.PLLState) != RCC_PLL_NONE)
 80068d2:	687b      	ldr	r3, [r7, #4]
 80068d4:	69db      	ldr	r3, [r3, #28]
 80068d6:	2b00      	cmp	r3, #0
 80068d8:	f000 8087 	beq.w	80069ea <HAL_RCC_OscConfig+0x4f6>
  {
    /* Check if the PLL is used as system clock or not */
    if (__HAL_RCC_GET_SYSCLK_SOURCE() != RCC_SYSCLKSOURCE_STATUS_PLLCLK)
 80068dc:	4b36      	ldr	r3, [pc, #216]	; (80069b8 <HAL_RCC_OscConfig+0x4c4>)
 80068de:	685b      	ldr	r3, [r3, #4]
 80068e0:	f003 030c 	and.w	r3, r3, #12
 80068e4:	2b08      	cmp	r3, #8
 80068e6:	d061      	beq.n	80069ac <HAL_RCC_OscConfig+0x4b8>
    {
      if ((RCC_OscInitStruct->PLL.PLLState) == RCC_PLL_ON)
 80068e8:	687b      	ldr	r3, [r7, #4]
 80068ea:	69db      	ldr	r3, [r3, #28]
 80068ec:	2b02      	cmp	r3, #2
 80068ee:	d146      	bne.n	800697e <HAL_RCC_OscConfig+0x48a>
        /* Check the parameters */
        assert_param(IS_RCC_PLLSOURCE(RCC_OscInitStruct->PLL.PLLSource));
        assert_param(IS_RCC_PLL_MUL(RCC_OscInitStruct->PLL.PLLMUL));

        /* Disable the main PLL. */
        __HAL_RCC_PLL_DISABLE();
 80068f0:	4b33      	ldr	r3, [pc, #204]	; (80069c0 <HAL_RCC_OscConfig+0x4cc>)
 80068f2:	2200      	movs	r2, #0
 80068f4:	601a      	str	r2, [r3, #0]

        /* Get Start Tick */
        tickstart = HAL_GetTick();
 80068f6:	f7fe fa3d 	bl	8004d74 <HAL_GetTick>
 80068fa:	6138      	str	r0, [r7, #16]

        /* Wait till PLL is disabled */
        while (__HAL_RCC_GET_FLAG(RCC_FLAG_PLLRDY)  != RESET)
 80068fc:	e008      	b.n	8006910 <HAL_RCC_OscConfig+0x41c>
        {
          if ((HAL_GetTick() - tickstart) > PLL_TIMEOUT_VALUE)
 80068fe:	f7fe fa39 	bl	8004d74 <HAL_GetTick>
 8006902:	4602      	mov	r2, r0
 8006904:	693b      	ldr	r3, [r7, #16]
 8006906:	1ad3      	subs	r3, r2, r3
 8006908:	2b02      	cmp	r3, #2
 800690a:	d901      	bls.n	8006910 <HAL_RCC_OscConfig+0x41c>
          {
            return HAL_TIMEOUT;
 800690c:	2303      	movs	r3, #3
 800690e:	e06d      	b.n	80069ec <HAL_RCC_OscConfig+0x4f8>
        while (__HAL_RCC_GET_FLAG(RCC_FLAG_PLLRDY)  != RESET)
 8006910:	4b29      	ldr	r3, [pc, #164]	; (80069b8 <HAL_RCC_OscConfig+0x4c4>)
 8006912:	681b      	ldr	r3, [r3, #0]
 8006914:	f003 7300 	and.w	r3, r3, #33554432	; 0x2000000
 8006918:	2b00      	cmp	r3, #0
 800691a:	d1f0      	bne.n	80068fe <HAL_RCC_OscConfig+0x40a>
          }
        }

        /* Configure the HSE prediv factor --------------------------------*/
        /* It can be written only when the PLL is disabled. Not used in PLL source is different than HSE */
        if (RCC_OscInitStruct->PLL.PLLSource == RCC_PLLSOURCE_HSE)
 800691c:	687b      	ldr	r3, [r7, #4]
 800691e:	6a1b      	ldr	r3, [r3, #32]
 8006920:	f5b3 3f80 	cmp.w	r3, #65536	; 0x10000
 8006924:	d108      	bne.n	8006938 <HAL_RCC_OscConfig+0x444>
          /* Set PREDIV1 source */
          SET_BIT(RCC->CFGR2, RCC_OscInitStruct->Prediv1Source);
#endif /* RCC_CFGR2_PREDIV1SRC */

          /* Set PREDIV1 Value */
          __HAL_RCC_HSE_PREDIV_CONFIG(RCC_OscInitStruct->HSEPredivValue);
 8006926:	4b24      	ldr	r3, [pc, #144]	; (80069b8 <HAL_RCC_OscConfig+0x4c4>)
 8006928:	685b      	ldr	r3, [r3, #4]
 800692a:	f423 3200 	bic.w	r2, r3, #131072	; 0x20000
 800692e:	687b      	ldr	r3, [r7, #4]
 8006930:	689b      	ldr	r3, [r3, #8]
 8006932:	4921      	ldr	r1, [pc, #132]	; (80069b8 <HAL_RCC_OscConfig+0x4c4>)
 8006934:	4313      	orrs	r3, r2
 8006936:	604b      	str	r3, [r1, #4]
        }

        /* Configure the main PLL clock source and multiplication factors. */
        __HAL_RCC_PLL_CONFIG(RCC_OscInitStruct->PLL.PLLSource,
 8006938:	4b1f      	ldr	r3, [pc, #124]	; (80069b8 <HAL_RCC_OscConfig+0x4c4>)
 800693a:	685b      	ldr	r3, [r3, #4]
 800693c:	f423 1274 	bic.w	r2, r3, #3997696	; 0x3d0000
 8006940:	687b      	ldr	r3, [r7, #4]
 8006942:	6a19      	ldr	r1, [r3, #32]
 8006944:	687b      	ldr	r3, [r7, #4]
 8006946:	6a5b      	ldr	r3, [r3, #36]	; 0x24
 8006948:	430b      	orrs	r3, r1
 800694a:	491b      	ldr	r1, [pc, #108]	; (80069b8 <HAL_RCC_OscConfig+0x4c4>)
 800694c:	4313      	orrs	r3, r2
 800694e:	604b      	str	r3, [r1, #4]
                             RCC_OscInitStruct->PLL.PLLMUL);
        /* Enable the main PLL. */
        __HAL_RCC_PLL_ENABLE();
 8006950:	4b1b      	ldr	r3, [pc, #108]	; (80069c0 <HAL_RCC_OscConfig+0x4cc>)
 8006952:	2201      	movs	r2, #1
 8006954:	601a      	str	r2, [r3, #0]

        /* Get Start Tick */
        tickstart = HAL_GetTick();
 8006956:	f7fe fa0d 	bl	8004d74 <HAL_GetTick>
 800695a:	6138      	str	r0, [r7, #16]

        /* Wait till PLL is ready */
        while (__HAL_RCC_GET_FLAG(RCC_FLAG_PLLRDY)  == RESET)
 800695c:	e008      	b.n	8006970 <HAL_RCC_OscConfig+0x47c>
        {
          if ((HAL_GetTick() - tickstart) > PLL_TIMEOUT_VALUE)
 800695e:	f7fe fa09 	bl	8004d74 <HAL_GetTick>
 8006962:	4602      	mov	r2, r0
 8006964:	693b      	ldr	r3, [r7, #16]
 8006966:	1ad3      	subs	r3, r2, r3
 8006968:	2b02      	cmp	r3, #2
 800696a:	d901      	bls.n	8006970 <HAL_RCC_OscConfig+0x47c>
          {
            return HAL_TIMEOUT;
 800696c:	2303      	movs	r3, #3
 800696e:	e03d      	b.n	80069ec <HAL_RCC_OscConfig+0x4f8>
        while (__HAL_RCC_GET_FLAG(RCC_FLAG_PLLRDY)  == RESET)
 8006970:	4b11      	ldr	r3, [pc, #68]	; (80069b8 <HAL_RCC_OscConfig+0x4c4>)
 8006972:	681b      	ldr	r3, [r3, #0]
 8006974:	f003 7300 	and.w	r3, r3, #33554432	; 0x2000000
 8006978:	2b00      	cmp	r3, #0
 800697a:	d0f0      	beq.n	800695e <HAL_RCC_OscConfig+0x46a>
 800697c:	e035      	b.n	80069ea <HAL_RCC_OscConfig+0x4f6>
        }
      }
      else
      {
        /* Disable the main PLL. */
        __HAL_RCC_PLL_DISABLE();
 800697e:	4b10      	ldr	r3, [pc, #64]	; (80069c0 <HAL_RCC_OscConfig+0x4cc>)
 8006980:	2200      	movs	r2, #0
 8006982:	601a      	str	r2, [r3, #0]

        /* Get Start Tick */
        tickstart = HAL_GetTick();
 8006984:	f7fe f9f6 	bl	8004d74 <HAL_GetTick>
 8006988:	6138      	str	r0, [r7, #16]

        /* Wait till PLL is disabled */
        while (__HAL_RCC_GET_FLAG(RCC_FLAG_PLLRDY)  != RESET)
 800698a:	e008      	b.n	800699e <HAL_RCC_OscConfig+0x4aa>
        {
          if ((HAL_GetTick() - tickstart) > PLL_TIMEOUT_VALUE)
 800698c:	f7fe f9f2 	bl	8004d74 <HAL_GetTick>
 8006990:	4602      	mov	r2, r0
 8006992:	693b      	ldr	r3, [r7, #16]
 8006994:	1ad3      	subs	r3, r2, r3
 8006996:	2b02      	cmp	r3, #2
 8006998:	d901      	bls.n	800699e <HAL_RCC_OscConfig+0x4aa>
          {
            return HAL_TIMEOUT;
 800699a:	2303      	movs	r3, #3
 800699c:	e026      	b.n	80069ec <HAL_RCC_OscConfig+0x4f8>
        while (__HAL_RCC_GET_FLAG(RCC_FLAG_PLLRDY)  != RESET)
 800699e:	4b06      	ldr	r3, [pc, #24]	; (80069b8 <HAL_RCC_OscConfig+0x4c4>)
 80069a0:	681b      	ldr	r3, [r3, #0]
 80069a2:	f003 7300 	and.w	r3, r3, #33554432	; 0x2000000
 80069a6:	2b00      	cmp	r3, #0
 80069a8:	d1f0      	bne.n	800698c <HAL_RCC_OscConfig+0x498>
 80069aa:	e01e      	b.n	80069ea <HAL_RCC_OscConfig+0x4f6>
      }
    }
    else
    {
      /* Check if there is a request to disable the PLL used as System clock source */
      if ((RCC_OscInitStruct->PLL.PLLState) == RCC_PLL_OFF)
 80069ac:	687b      	ldr	r3, [r7, #4]
 80069ae:	69db      	ldr	r3, [r3, #28]
 80069b0:	2b01      	cmp	r3, #1
 80069b2:	d107      	bne.n	80069c4 <HAL_RCC_OscConfig+0x4d0>
      {
        return HAL_ERROR;
 80069b4:	2301      	movs	r3, #1
 80069b6:	e019      	b.n	80069ec <HAL_RCC_OscConfig+0x4f8>
 80069b8:	40021000 	.word	0x40021000
 80069bc:	40007000 	.word	0x40007000
 80069c0:	42420060 	.word	0x42420060
      }
      else
      {
        /* Do not return HAL_ERROR if request repeats the current configuration */
        pll_config = RCC->CFGR;
 80069c4:	4b0b      	ldr	r3, [pc, #44]	; (80069f4 <HAL_RCC_OscConfig+0x500>)
 80069c6:	685b      	ldr	r3, [r3, #4]
 80069c8:	60fb      	str	r3, [r7, #12]
        if ((READ_BIT(pll_config, RCC_CFGR_PLLSRC) != RCC_OscInitStruct->PLL.PLLSource) ||
 80069ca:	68fb      	ldr	r3, [r7, #12]
 80069cc:	f403 3280 	and.w	r2, r3, #65536	; 0x10000
 80069d0:	687b      	ldr	r3, [r7, #4]
 80069d2:	6a1b      	ldr	r3, [r3, #32]
 80069d4:	429a      	cmp	r2, r3
 80069d6:	d106      	bne.n	80069e6 <HAL_RCC_OscConfig+0x4f2>
            (READ_BIT(pll_config, RCC_CFGR_PLLMULL) != RCC_OscInitStruct->PLL.PLLMUL))
 80069d8:	68fb      	ldr	r3, [r7, #12]
 80069da:	f403 1270 	and.w	r2, r3, #3932160	; 0x3c0000
 80069de:	687b      	ldr	r3, [r7, #4]
 80069e0:	6a5b      	ldr	r3, [r3, #36]	; 0x24
        if ((READ_BIT(pll_config, RCC_CFGR_PLLSRC) != RCC_OscInitStruct->PLL.PLLSource) ||
 80069e2:	429a      	cmp	r2, r3
 80069e4:	d001      	beq.n	80069ea <HAL_RCC_OscConfig+0x4f6>
        {
          return HAL_ERROR;
 80069e6:	2301      	movs	r3, #1
 80069e8:	e000      	b.n	80069ec <HAL_RCC_OscConfig+0x4f8>
        }
      }
    }
  }

  return HAL_OK;
 80069ea:	2300      	movs	r3, #0
}
 80069ec:	4618      	mov	r0, r3
 80069ee:	3718      	adds	r7, #24
 80069f0:	46bd      	mov	sp, r7
 80069f2:	bd80      	pop	{r7, pc}
 80069f4:	40021000 	.word	0x40021000

080069f8 <HAL_RCC_ClockConfig>:
  *         You can use @ref HAL_RCC_GetClockConfig() function to know which clock is
  *         currently used as system clock source.
  * @retval HAL status
  */
HAL_StatusTypeDef HAL_RCC_ClockConfig(RCC_ClkInitTypeDef  *RCC_ClkInitStruct, uint32_t FLatency)
{
 80069f8:	b580      	push	{r7, lr}
 80069fa:	b084      	sub	sp, #16
 80069fc:	af00      	add	r7, sp, #0
 80069fe:	6078      	str	r0, [r7, #4]
 8006a00:	6039      	str	r1, [r7, #0]
  uint32_t tickstart;

  /* Check Null pointer */
  if (RCC_ClkInitStruct == NULL)
 8006a02:	687b      	ldr	r3, [r7, #4]
 8006a04:	2b00      	cmp	r3, #0
 8006a06:	d101      	bne.n	8006a0c <HAL_RCC_ClockConfig+0x14>
  {
    return HAL_ERROR;
 8006a08:	2301      	movs	r3, #1
 8006a0a:	e0d0      	b.n	8006bae <HAL_RCC_ClockConfig+0x1b6>
  must be correctly programmed according to the frequency of the CPU clock
    (HCLK) of the device. */

#if defined(FLASH_ACR_LATENCY)
  /* Increasing the number of wait states because of higher CPU frequency */
  if (FLatency > __HAL_FLASH_GET_LATENCY())
 8006a0c:	4b6a      	ldr	r3, [pc, #424]	; (8006bb8 <HAL_RCC_ClockConfig+0x1c0>)
 8006a0e:	681b      	ldr	r3, [r3, #0]
 8006a10:	f003 0307 	and.w	r3, r3, #7
 8006a14:	683a      	ldr	r2, [r7, #0]
 8006a16:	429a      	cmp	r2, r3
 8006a18:	d910      	bls.n	8006a3c <HAL_RCC_ClockConfig+0x44>
  {
    /* Program the new number of wait states to the LATENCY bits in the FLASH_ACR register */
    __HAL_FLASH_SET_LATENCY(FLatency);
 8006a1a:	4b67      	ldr	r3, [pc, #412]	; (8006bb8 <HAL_RCC_ClockConfig+0x1c0>)
 8006a1c:	681b      	ldr	r3, [r3, #0]
 8006a1e:	f023 0207 	bic.w	r2, r3, #7
 8006a22:	4965      	ldr	r1, [pc, #404]	; (8006bb8 <HAL_RCC_ClockConfig+0x1c0>)
 8006a24:	683b      	ldr	r3, [r7, #0]
 8006a26:	4313      	orrs	r3, r2
 8006a28:	600b      	str	r3, [r1, #0]

    /* Check that the new number of wait states is taken into account to access the Flash
    memory by reading the FLASH_ACR register */
    if (__HAL_FLASH_GET_LATENCY() != FLatency)
 8006a2a:	4b63      	ldr	r3, [pc, #396]	; (8006bb8 <HAL_RCC_ClockConfig+0x1c0>)
 8006a2c:	681b      	ldr	r3, [r3, #0]
 8006a2e:	f003 0307 	and.w	r3, r3, #7
 8006a32:	683a      	ldr	r2, [r7, #0]
 8006a34:	429a      	cmp	r2, r3
 8006a36:	d001      	beq.n	8006a3c <HAL_RCC_ClockConfig+0x44>
  {
    return HAL_ERROR;
 8006a38:	2301      	movs	r3, #1
 8006a3a:	e0b8      	b.n	8006bae <HAL_RCC_ClockConfig+0x1b6>
  }
}

#endif /* FLASH_ACR_LATENCY */
/*-------------------------- HCLK Configuration --------------------------*/
if (((RCC_ClkInitStruct->ClockType) & RCC_CLOCKTYPE_HCLK) == RCC_CLOCKTYPE_HCLK)
 8006a3c:	687b      	ldr	r3, [r7, #4]
 8006a3e:	681b      	ldr	r3, [r3, #0]
 8006a40:	f003 0302 	and.w	r3, r3, #2
 8006a44:	2b00      	cmp	r3, #0
 8006a46:	d020      	beq.n	8006a8a <HAL_RCC_ClockConfig+0x92>
  {
    /* Set the highest APBx dividers in order to ensure that we do not go through
    a non-spec phase whatever we decrease or increase HCLK. */
    if (((RCC_ClkInitStruct->ClockType) & RCC_CLOCKTYPE_PCLK1) == RCC_CLOCKTYPE_PCLK1)
 8006a48:	687b      	ldr	r3, [r7, #4]
 8006a4a:	681b      	ldr	r3, [r3, #0]
 8006a4c:	f003 0304 	and.w	r3, r3, #4
 8006a50:	2b00      	cmp	r3, #0
 8006a52:	d005      	beq.n	8006a60 <HAL_RCC_ClockConfig+0x68>
    {
      MODIFY_REG(RCC->CFGR, RCC_CFGR_PPRE1, RCC_HCLK_DIV16);
 8006a54:	4b59      	ldr	r3, [pc, #356]	; (8006bbc <HAL_RCC_ClockConfig+0x1c4>)
 8006a56:	685b      	ldr	r3, [r3, #4]
 8006a58:	4a58      	ldr	r2, [pc, #352]	; (8006bbc <HAL_RCC_ClockConfig+0x1c4>)
 8006a5a:	f443 63e0 	orr.w	r3, r3, #1792	; 0x700
 8006a5e:	6053      	str	r3, [r2, #4]
    }

    if (((RCC_ClkInitStruct->ClockType) & RCC_CLOCKTYPE_PCLK2) == RCC_CLOCKTYPE_PCLK2)
 8006a60:	687b      	ldr	r3, [r7, #4]
 8006a62:	681b      	ldr	r3, [r3, #0]
 8006a64:	f003 0308 	and.w	r3, r3, #8
 8006a68:	2b00      	cmp	r3, #0
 8006a6a:	d005      	beq.n	8006a78 <HAL_RCC_ClockConfig+0x80>
    {
      MODIFY_REG(RCC->CFGR, RCC_CFGR_PPRE2, (RCC_HCLK_DIV16 << 3));
 8006a6c:	4b53      	ldr	r3, [pc, #332]	; (8006bbc <HAL_RCC_ClockConfig+0x1c4>)
 8006a6e:	685b      	ldr	r3, [r3, #4]
 8006a70:	4a52      	ldr	r2, [pc, #328]	; (8006bbc <HAL_RCC_ClockConfig+0x1c4>)
 8006a72:	f443 5360 	orr.w	r3, r3, #14336	; 0x3800
 8006a76:	6053      	str	r3, [r2, #4]
    }

    /* Set the new HCLK clock divider */
    assert_param(IS_RCC_HCLK(RCC_ClkInitStruct->AHBCLKDivider));
    MODIFY_REG(RCC->CFGR, RCC_CFGR_HPRE, RCC_ClkInitStruct->AHBCLKDivider);
 8006a78:	4b50      	ldr	r3, [pc, #320]	; (8006bbc <HAL_RCC_ClockConfig+0x1c4>)
 8006a7a:	685b      	ldr	r3, [r3, #4]
 8006a7c:	f023 02f0 	bic.w	r2, r3, #240	; 0xf0
 8006a80:	687b      	ldr	r3, [r7, #4]
 8006a82:	689b      	ldr	r3, [r3, #8]
 8006a84:	494d      	ldr	r1, [pc, #308]	; (8006bbc <HAL_RCC_ClockConfig+0x1c4>)
 8006a86:	4313      	orrs	r3, r2
 8006a88:	604b      	str	r3, [r1, #4]
  }

  /*------------------------- SYSCLK Configuration ---------------------------*/
  if (((RCC_ClkInitStruct->ClockType) & RCC_CLOCKTYPE_SYSCLK) == RCC_CLOCKTYPE_SYSCLK)
 8006a8a:	687b      	ldr	r3, [r7, #4]
 8006a8c:	681b      	ldr	r3, [r3, #0]
 8006a8e:	f003 0301 	and.w	r3, r3, #1
 8006a92:	2b00      	cmp	r3, #0
 8006a94:	d040      	beq.n	8006b18 <HAL_RCC_ClockConfig+0x120>
  {
    assert_param(IS_RCC_SYSCLKSOURCE(RCC_ClkInitStruct->SYSCLKSource));

    /* HSE is selected as System Clock Source */
    if (RCC_ClkInitStruct->SYSCLKSource == RCC_SYSCLKSOURCE_HSE)
 8006a96:	687b      	ldr	r3, [r7, #4]
 8006a98:	685b      	ldr	r3, [r3, #4]
 8006a9a:	2b01      	cmp	r3, #1
 8006a9c:	d107      	bne.n	8006aae <HAL_RCC_ClockConfig+0xb6>
    {
      /* Check the HSE ready flag */
      if (__HAL_RCC_GET_FLAG(RCC_FLAG_HSERDY) == RESET)
 8006a9e:	4b47      	ldr	r3, [pc, #284]	; (8006bbc <HAL_RCC_ClockConfig+0x1c4>)
 8006aa0:	681b      	ldr	r3, [r3, #0]
 8006aa2:	f403 3300 	and.w	r3, r3, #131072	; 0x20000
 8006aa6:	2b00      	cmp	r3, #0
 8006aa8:	d115      	bne.n	8006ad6 <HAL_RCC_ClockConfig+0xde>
      {
        return HAL_ERROR;
 8006aaa:	2301      	movs	r3, #1
 8006aac:	e07f      	b.n	8006bae <HAL_RCC_ClockConfig+0x1b6>
      }
    }
    /* PLL is selected as System Clock Source */
    else if (RCC_ClkInitStruct->SYSCLKSource == RCC_SYSCLKSOURCE_PLLCLK)
 8006aae:	687b      	ldr	r3, [r7, #4]
 8006ab0:	685b      	ldr	r3, [r3, #4]
 8006ab2:	2b02      	cmp	r3, #2
 8006ab4:	d107      	bne.n	8006ac6 <HAL_RCC_ClockConfig+0xce>
    {
      /* Check the PLL ready flag */
      if (__HAL_RCC_GET_FLAG(RCC_FLAG_PLLRDY) == RESET)
 8006ab6:	4b41      	ldr	r3, [pc, #260]	; (8006bbc <HAL_RCC_ClockConfig+0x1c4>)
 8006ab8:	681b      	ldr	r3, [r3, #0]
 8006aba:	f003 7300 	and.w	r3, r3, #33554432	; 0x2000000
 8006abe:	2b00      	cmp	r3, #0
 8006ac0:	d109      	bne.n	8006ad6 <HAL_RCC_ClockConfig+0xde>
      {
        return HAL_ERROR;
 8006ac2:	2301      	movs	r3, #1
 8006ac4:	e073      	b.n	8006bae <HAL_RCC_ClockConfig+0x1b6>
    }
    /* HSI is selected as System Clock Source */
    else
    {
      /* Check the HSI ready flag */
      if (__HAL_RCC_GET_FLAG(RCC_FLAG_HSIRDY) == RESET)
 8006ac6:	4b3d      	ldr	r3, [pc, #244]	; (8006bbc <HAL_RCC_ClockConfig+0x1c4>)
 8006ac8:	681b      	ldr	r3, [r3, #0]
 8006aca:	f003 0302 	and.w	r3, r3, #2
 8006ace:	2b00      	cmp	r3, #0
 8006ad0:	d101      	bne.n	8006ad6 <HAL_RCC_ClockConfig+0xde>
      {
        return HAL_ERROR;
 8006ad2:	2301      	movs	r3, #1
 8006ad4:	e06b      	b.n	8006bae <HAL_RCC_ClockConfig+0x1b6>
      }
    }
    __HAL_RCC_SYSCLK_CONFIG(RCC_ClkInitStruct->SYSCLKSource);
 8006ad6:	4b39      	ldr	r3, [pc, #228]	; (8006bbc <HAL_RCC_ClockConfig+0x1c4>)
 8006ad8:	685b      	ldr	r3, [r3, #4]
 8006ada:	f023 0203 	bic.w	r2, r3, #3
 8006ade:	687b      	ldr	r3, [r7, #4]
 8006ae0:	685b      	ldr	r3, [r3, #4]
 8006ae2:	4936      	ldr	r1, [pc, #216]	; (8006bbc <HAL_RCC_ClockConfig+0x1c4>)
 8006ae4:	4313      	orrs	r3, r2
 8006ae6:	604b      	str	r3, [r1, #4]

    /* Get Start Tick */
    tickstart = HAL_GetTick();
 8006ae8:	f7fe f944 	bl	8004d74 <HAL_GetTick>
 8006aec:	60f8      	str	r0, [r7, #12]

    while (__HAL_RCC_GET_SYSCLK_SOURCE() != (RCC_ClkInitStruct->SYSCLKSource << RCC_CFGR_SWS_Pos))
 8006aee:	e00a      	b.n	8006b06 <HAL_RCC_ClockConfig+0x10e>
    {
      if ((HAL_GetTick() - tickstart) > CLOCKSWITCH_TIMEOUT_VALUE)
 8006af0:	f7fe f940 	bl	8004d74 <HAL_GetTick>
 8006af4:	4602      	mov	r2, r0
 8006af6:	68fb      	ldr	r3, [r7, #12]
 8006af8:	1ad3      	subs	r3, r2, r3
 8006afa:	f241 3288 	movw	r2, #5000	; 0x1388
 8006afe:	4293      	cmp	r3, r2
 8006b00:	d901      	bls.n	8006b06 <HAL_RCC_ClockConfig+0x10e>
      {
        return HAL_TIMEOUT;
 8006b02:	2303      	movs	r3, #3
 8006b04:	e053      	b.n	8006bae <HAL_RCC_ClockConfig+0x1b6>
    while (__HAL_RCC_GET_SYSCLK_SOURCE() != (RCC_ClkInitStruct->SYSCLKSource << RCC_CFGR_SWS_Pos))
 8006b06:	4b2d      	ldr	r3, [pc, #180]	; (8006bbc <HAL_RCC_ClockConfig+0x1c4>)
 8006b08:	685b      	ldr	r3, [r3, #4]
 8006b0a:	f003 020c 	and.w	r2, r3, #12
 8006b0e:	687b      	ldr	r3, [r7, #4]
 8006b10:	685b      	ldr	r3, [r3, #4]
 8006b12:	009b      	lsls	r3, r3, #2
 8006b14:	429a      	cmp	r2, r3
 8006b16:	d1eb      	bne.n	8006af0 <HAL_RCC_ClockConfig+0xf8>
    }
  }

#if defined(FLASH_ACR_LATENCY)
  /* Decreasing the number of wait states because of lower CPU frequency */
  if (FLatency < __HAL_FLASH_GET_LATENCY())
 8006b18:	4b27      	ldr	r3, [pc, #156]	; (8006bb8 <HAL_RCC_ClockConfig+0x1c0>)
 8006b1a:	681b      	ldr	r3, [r3, #0]
 8006b1c:	f003 0307 	and.w	r3, r3, #7
 8006b20:	683a      	ldr	r2, [r7, #0]
 8006b22:	429a      	cmp	r2, r3
 8006b24:	d210      	bcs.n	8006b48 <HAL_RCC_ClockConfig+0x150>
  {
    /* Program the new number of wait states to the LATENCY bits in the FLASH_ACR register */
    __HAL_FLASH_SET_LATENCY(FLatency);
 8006b26:	4b24      	ldr	r3, [pc, #144]	; (8006bb8 <HAL_RCC_ClockConfig+0x1c0>)
 8006b28:	681b      	ldr	r3, [r3, #0]
 8006b2a:	f023 0207 	bic.w	r2, r3, #7
 8006b2e:	4922      	ldr	r1, [pc, #136]	; (8006bb8 <HAL_RCC_ClockConfig+0x1c0>)
 8006b30:	683b      	ldr	r3, [r7, #0]
 8006b32:	4313      	orrs	r3, r2
 8006b34:	600b      	str	r3, [r1, #0]

    /* Check that the new number of wait states is taken into account to access the Flash
    memory by reading the FLASH_ACR register */
    if (__HAL_FLASH_GET_LATENCY() != FLatency)
 8006b36:	4b20      	ldr	r3, [pc, #128]	; (8006bb8 <HAL_RCC_ClockConfig+0x1c0>)
 8006b38:	681b      	ldr	r3, [r3, #0]
 8006b3a:	f003 0307 	and.w	r3, r3, #7
 8006b3e:	683a      	ldr	r2, [r7, #0]
 8006b40:	429a      	cmp	r2, r3
 8006b42:	d001      	beq.n	8006b48 <HAL_RCC_ClockConfig+0x150>
  {
    return HAL_ERROR;
 8006b44:	2301      	movs	r3, #1
 8006b46:	e032      	b.n	8006bae <HAL_RCC_ClockConfig+0x1b6>
  }
}
#endif /* FLASH_ACR_LATENCY */

/*-------------------------- PCLK1 Configuration ---------------------------*/
if (((RCC_ClkInitStruct->ClockType) & RCC_CLOCKTYPE_PCLK1) == RCC_CLOCKTYPE_PCLK1)
 8006b48:	687b      	ldr	r3, [r7, #4]
 8006b4a:	681b      	ldr	r3, [r3, #0]
 8006b4c:	f003 0304 	and.w	r3, r3, #4
 8006b50:	2b00      	cmp	r3, #0
 8006b52:	d008      	beq.n	8006b66 <HAL_RCC_ClockConfig+0x16e>
  {
    assert_param(IS_RCC_PCLK(RCC_ClkInitStruct->APB1CLKDivider));
    MODIFY_REG(RCC->CFGR, RCC_CFGR_PPRE1, RCC_ClkInitStruct->APB1CLKDivider);
 8006b54:	4b19      	ldr	r3, [pc, #100]	; (8006bbc <HAL_RCC_ClockConfig+0x1c4>)
 8006b56:	685b      	ldr	r3, [r3, #4]
 8006b58:	f423 62e0 	bic.w	r2, r3, #1792	; 0x700
 8006b5c:	687b      	ldr	r3, [r7, #4]
 8006b5e:	68db      	ldr	r3, [r3, #12]
 8006b60:	4916      	ldr	r1, [pc, #88]	; (8006bbc <HAL_RCC_ClockConfig+0x1c4>)
 8006b62:	4313      	orrs	r3, r2
 8006b64:	604b      	str	r3, [r1, #4]
  }

  /*-------------------------- PCLK2 Configuration ---------------------------*/
  if (((RCC_ClkInitStruct->ClockType) & RCC_CLOCKTYPE_PCLK2) == RCC_CLOCKTYPE_PCLK2)
 8006b66:	687b      	ldr	r3, [r7, #4]
 8006b68:	681b      	ldr	r3, [r3, #0]
 8006b6a:	f003 0308 	and.w	r3, r3, #8
 8006b6e:	2b00      	cmp	r3, #0
 8006b70:	d009      	beq.n	8006b86 <HAL_RCC_ClockConfig+0x18e>
  {
    assert_param(IS_RCC_PCLK(RCC_ClkInitStruct->APB2CLKDivider));
    MODIFY_REG(RCC->CFGR, RCC_CFGR_PPRE2, ((RCC_ClkInitStruct->APB2CLKDivider) << 3));
 8006b72:	4b12      	ldr	r3, [pc, #72]	; (8006bbc <HAL_RCC_ClockConfig+0x1c4>)
 8006b74:	685b      	ldr	r3, [r3, #4]
 8006b76:	f423 5260 	bic.w	r2, r3, #14336	; 0x3800
 8006b7a:	687b      	ldr	r3, [r7, #4]
 8006b7c:	691b      	ldr	r3, [r3, #16]
 8006b7e:	00db      	lsls	r3, r3, #3
 8006b80:	490e      	ldr	r1, [pc, #56]	; (8006bbc <HAL_RCC_ClockConfig+0x1c4>)
 8006b82:	4313      	orrs	r3, r2
 8006b84:	604b      	str	r3, [r1, #4]
  }

  /* Update the SystemCoreClock global variable */
  SystemCoreClock = HAL_RCC_GetSysClockFreq() >> AHBPrescTable[(RCC->CFGR & RCC_CFGR_HPRE) >> RCC_CFGR_HPRE_Pos];
 8006b86:	f000 f821 	bl	8006bcc <HAL_RCC_GetSysClockFreq>
 8006b8a:	4602      	mov	r2, r0
 8006b8c:	4b0b      	ldr	r3, [pc, #44]	; (8006bbc <HAL_RCC_ClockConfig+0x1c4>)
 8006b8e:	685b      	ldr	r3, [r3, #4]
 8006b90:	091b      	lsrs	r3, r3, #4
 8006b92:	f003 030f 	and.w	r3, r3, #15
 8006b96:	490a      	ldr	r1, [pc, #40]	; (8006bc0 <HAL_RCC_ClockConfig+0x1c8>)
 8006b98:	5ccb      	ldrb	r3, [r1, r3]
 8006b9a:	fa22 f303 	lsr.w	r3, r2, r3
 8006b9e:	4a09      	ldr	r2, [pc, #36]	; (8006bc4 <HAL_RCC_ClockConfig+0x1cc>)
 8006ba0:	6013      	str	r3, [r2, #0]

  /* Configure the source of time base considering new system clocks settings*/
  HAL_InitTick(uwTickPrio);
 8006ba2:	4b09      	ldr	r3, [pc, #36]	; (8006bc8 <HAL_RCC_ClockConfig+0x1d0>)
 8006ba4:	681b      	ldr	r3, [r3, #0]
 8006ba6:	4618      	mov	r0, r3
 8006ba8:	f7fe f8a2 	bl	8004cf0 <HAL_InitTick>

  return HAL_OK;
 8006bac:	2300      	movs	r3, #0
}
 8006bae:	4618      	mov	r0, r3
 8006bb0:	3710      	adds	r7, #16
 8006bb2:	46bd      	mov	sp, r7
 8006bb4:	bd80      	pop	{r7, pc}
 8006bb6:	bf00      	nop
 8006bb8:	40022000 	.word	0x40022000
 8006bbc:	40021000 	.word	0x40021000
 8006bc0:	08009b30 	.word	0x08009b30
 8006bc4:	200000ac 	.word	0x200000ac
 8006bc8:	200000b0 	.word	0x200000b0

08006bcc <HAL_RCC_GetSysClockFreq>:
  *         right SYSCLK value. Otherwise, any configuration based on this function will be incorrect.
  *
  * @retval SYSCLK frequency
  */
uint32_t HAL_RCC_GetSysClockFreq(void)
{
 8006bcc:	b480      	push	{r7}
 8006bce:	b087      	sub	sp, #28
 8006bd0:	af00      	add	r7, sp, #0
#else
  static const uint8_t aPredivFactorTable[2U] = {1, 2};
#endif /*RCC_CFGR2_PREDIV1*/

#endif
  uint32_t tmpreg = 0U, prediv = 0U, pllclk = 0U, pllmul = 0U;
 8006bd2:	2300      	movs	r3, #0
 8006bd4:	60fb      	str	r3, [r7, #12]
 8006bd6:	2300      	movs	r3, #0
 8006bd8:	60bb      	str	r3, [r7, #8]
 8006bda:	2300      	movs	r3, #0
 8006bdc:	617b      	str	r3, [r7, #20]
 8006bde:	2300      	movs	r3, #0
 8006be0:	607b      	str	r3, [r7, #4]
  uint32_t sysclockfreq = 0U;
 8006be2:	2300      	movs	r3, #0
 8006be4:	613b      	str	r3, [r7, #16]
#if defined(RCC_CFGR2_PREDIV1SRC)
  uint32_t prediv2 = 0U, pll2mul = 0U;
#endif /*RCC_CFGR2_PREDIV1SRC*/

  tmpreg = RCC->CFGR;
 8006be6:	4b1e      	ldr	r3, [pc, #120]	; (8006c60 <HAL_RCC_GetSysClockFreq+0x94>)
 8006be8:	685b      	ldr	r3, [r3, #4]
 8006bea:	60fb      	str	r3, [r7, #12]

  /* Get SYSCLK source -------------------------------------------------------*/
  switch (tmpreg & RCC_CFGR_SWS)
 8006bec:	68fb      	ldr	r3, [r7, #12]
 8006bee:	f003 030c 	and.w	r3, r3, #12
 8006bf2:	2b04      	cmp	r3, #4
 8006bf4:	d002      	beq.n	8006bfc <HAL_RCC_GetSysClockFreq+0x30>
 8006bf6:	2b08      	cmp	r3, #8
 8006bf8:	d003      	beq.n	8006c02 <HAL_RCC_GetSysClockFreq+0x36>
 8006bfa:	e027      	b.n	8006c4c <HAL_RCC_GetSysClockFreq+0x80>
  {
    case RCC_SYSCLKSOURCE_STATUS_HSE:  /* HSE used as system clock */
    {
      sysclockfreq = HSE_VALUE;
 8006bfc:	4b19      	ldr	r3, [pc, #100]	; (8006c64 <HAL_RCC_GetSysClockFreq+0x98>)
 8006bfe:	613b      	str	r3, [r7, #16]
      break;
 8006c00:	e027      	b.n	8006c52 <HAL_RCC_GetSysClockFreq+0x86>
    }
    case RCC_SYSCLKSOURCE_STATUS_PLLCLK:  /* PLL used as system clock */
    {
      pllmul = aPLLMULFactorTable[(uint32_t)(tmpreg & RCC_CFGR_PLLMULL) >> RCC_CFGR_PLLMULL_Pos];
 8006c02:	68fb      	ldr	r3, [r7, #12]
 8006c04:	0c9b      	lsrs	r3, r3, #18
 8006c06:	f003 030f 	and.w	r3, r3, #15
 8006c0a:	4a17      	ldr	r2, [pc, #92]	; (8006c68 <HAL_RCC_GetSysClockFreq+0x9c>)
 8006c0c:	5cd3      	ldrb	r3, [r2, r3]
 8006c0e:	607b      	str	r3, [r7, #4]
      if ((tmpreg & RCC_CFGR_PLLSRC) != RCC_PLLSOURCE_HSI_DIV2)
 8006c10:	68fb      	ldr	r3, [r7, #12]
 8006c12:	f403 3380 	and.w	r3, r3, #65536	; 0x10000
 8006c16:	2b00      	cmp	r3, #0
 8006c18:	d010      	beq.n	8006c3c <HAL_RCC_GetSysClockFreq+0x70>
      {
#if defined(RCC_CFGR2_PREDIV1)
        prediv = aPredivFactorTable[(uint32_t)(RCC->CFGR2 & RCC_CFGR2_PREDIV1) >> RCC_CFGR2_PREDIV1_Pos];
#else
        prediv = aPredivFactorTable[(uint32_t)(RCC->CFGR & RCC_CFGR_PLLXTPRE) >> RCC_CFGR_PLLXTPRE_Pos];
 8006c1a:	4b11      	ldr	r3, [pc, #68]	; (8006c60 <HAL_RCC_GetSysClockFreq+0x94>)
 8006c1c:	685b      	ldr	r3, [r3, #4]
 8006c1e:	0c5b      	lsrs	r3, r3, #17
 8006c20:	f003 0301 	and.w	r3, r3, #1
 8006c24:	4a11      	ldr	r2, [pc, #68]	; (8006c6c <HAL_RCC_GetSysClockFreq+0xa0>)
 8006c26:	5cd3      	ldrb	r3, [r2, r3]
 8006c28:	60bb      	str	r3, [r7, #8]
        {
          pllclk = pllclk / 2;
        }
#else
        /* HSE used as PLL clock source : PLLCLK = HSE/PREDIV1 * PLLMUL */
        pllclk = (uint32_t)((HSE_VALUE  * pllmul) / prediv);
 8006c2a:	687b      	ldr	r3, [r7, #4]
 8006c2c:	4a0d      	ldr	r2, [pc, #52]	; (8006c64 <HAL_RCC_GetSysClockFreq+0x98>)
 8006c2e:	fb03 f202 	mul.w	r2, r3, r2
 8006c32:	68bb      	ldr	r3, [r7, #8]
 8006c34:	fbb2 f3f3 	udiv	r3, r2, r3
 8006c38:	617b      	str	r3, [r7, #20]
 8006c3a:	e004      	b.n	8006c46 <HAL_RCC_GetSysClockFreq+0x7a>
#endif /*RCC_CFGR2_PREDIV1SRC*/
      }
      else
      {
        /* HSI used as PLL clock source : PLLCLK = HSI/2 * PLLMUL */
        pllclk = (uint32_t)((HSI_VALUE >> 1) * pllmul);
 8006c3c:	687b      	ldr	r3, [r7, #4]
 8006c3e:	4a0c      	ldr	r2, [pc, #48]	; (8006c70 <HAL_RCC_GetSysClockFreq+0xa4>)
 8006c40:	fb02 f303 	mul.w	r3, r2, r3
 8006c44:	617b      	str	r3, [r7, #20]
      }
      sysclockfreq = pllclk;
 8006c46:	697b      	ldr	r3, [r7, #20]
 8006c48:	613b      	str	r3, [r7, #16]
      break;
 8006c4a:	e002      	b.n	8006c52 <HAL_RCC_GetSysClockFreq+0x86>
    }
    case RCC_SYSCLKSOURCE_STATUS_HSI:  /* HSI used as system clock source */
    default: /* HSI used as system clock */
    {
      sysclockfreq = HSI_VALUE;
 8006c4c:	4b05      	ldr	r3, [pc, #20]	; (8006c64 <HAL_RCC_GetSysClockFreq+0x98>)
 8006c4e:	613b      	str	r3, [r7, #16]
      break;
 8006c50:	bf00      	nop
    }
  }
  return sysclockfreq;
 8006c52:	693b      	ldr	r3, [r7, #16]
}
 8006c54:	4618      	mov	r0, r3
 8006c56:	371c      	adds	r7, #28
 8006c58:	46bd      	mov	sp, r7
 8006c5a:	bc80      	pop	{r7}
 8006c5c:	4770      	bx	lr
 8006c5e:	bf00      	nop
 8006c60:	40021000 	.word	0x40021000
 8006c64:	007a1200 	.word	0x007a1200
 8006c68:	08009b48 	.word	0x08009b48
 8006c6c:	08009b58 	.word	0x08009b58
 8006c70:	003d0900 	.word	0x003d0900

08006c74 <HAL_RCC_GetHCLKFreq>:
  * @note   The SystemCoreClock CMSIS variable is used to store System Clock Frequency
  *         and updated within this function
  * @retval HCLK frequency
  */
uint32_t HAL_RCC_GetHCLKFreq(void)
{
 8006c74:	b480      	push	{r7}
 8006c76:	af00      	add	r7, sp, #0
  return SystemCoreClock;
 8006c78:	4b02      	ldr	r3, [pc, #8]	; (8006c84 <HAL_RCC_GetHCLKFreq+0x10>)
 8006c7a:	681b      	ldr	r3, [r3, #0]
}
 8006c7c:	4618      	mov	r0, r3
 8006c7e:	46bd      	mov	sp, r7
 8006c80:	bc80      	pop	{r7}
 8006c82:	4770      	bx	lr
 8006c84:	200000ac 	.word	0x200000ac

08006c88 <HAL_RCC_GetPCLK1Freq>:
  * @note   Each time PCLK1 changes, this function must be called to update the
  *         right PCLK1 value. Otherwise, any configuration based on this function will be incorrect.
  * @retval PCLK1 frequency
  */
uint32_t HAL_RCC_GetPCLK1Freq(void)
{
 8006c88:	b580      	push	{r7, lr}
 8006c8a:	af00      	add	r7, sp, #0
  /* Get HCLK source and Compute PCLK1 frequency ---------------------------*/
  return (HAL_RCC_GetHCLKFreq() >> APBPrescTable[(RCC->CFGR & RCC_CFGR_PPRE1) >> RCC_CFGR_PPRE1_Pos]);
 8006c8c:	f7ff fff2 	bl	8006c74 <HAL_RCC_GetHCLKFreq>
 8006c90:	4602      	mov	r2, r0
 8006c92:	4b05      	ldr	r3, [pc, #20]	; (8006ca8 <HAL_RCC_GetPCLK1Freq+0x20>)
 8006c94:	685b      	ldr	r3, [r3, #4]
 8006c96:	0a1b      	lsrs	r3, r3, #8
 8006c98:	f003 0307 	and.w	r3, r3, #7
 8006c9c:	4903      	ldr	r1, [pc, #12]	; (8006cac <HAL_RCC_GetPCLK1Freq+0x24>)
 8006c9e:	5ccb      	ldrb	r3, [r1, r3]
 8006ca0:	fa22 f303 	lsr.w	r3, r2, r3
}
 8006ca4:	4618      	mov	r0, r3
 8006ca6:	bd80      	pop	{r7, pc}
 8006ca8:	40021000 	.word	0x40021000
 8006cac:	08009b40 	.word	0x08009b40

08006cb0 <HAL_RCC_GetPCLK2Freq>:
  * @note   Each time PCLK2 changes, this function must be called to update the
  *         right PCLK2 value. Otherwise, any configuration based on this function will be incorrect.
  * @retval PCLK2 frequency
  */
uint32_t HAL_RCC_GetPCLK2Freq(void)
{
 8006cb0:	b580      	push	{r7, lr}
 8006cb2:	af00      	add	r7, sp, #0
  /* Get HCLK source and Compute PCLK2 frequency ---------------------------*/
  return (HAL_RCC_GetHCLKFreq() >> APBPrescTable[(RCC->CFGR & RCC_CFGR_PPRE2) >> RCC_CFGR_PPRE2_Pos]);
 8006cb4:	f7ff ffde 	bl	8006c74 <HAL_RCC_GetHCLKFreq>
 8006cb8:	4602      	mov	r2, r0
 8006cba:	4b05      	ldr	r3, [pc, #20]	; (8006cd0 <HAL_RCC_GetPCLK2Freq+0x20>)
 8006cbc:	685b      	ldr	r3, [r3, #4]
 8006cbe:	0adb      	lsrs	r3, r3, #11
 8006cc0:	f003 0307 	and.w	r3, r3, #7
 8006cc4:	4903      	ldr	r1, [pc, #12]	; (8006cd4 <HAL_RCC_GetPCLK2Freq+0x24>)
 8006cc6:	5ccb      	ldrb	r3, [r1, r3]
 8006cc8:	fa22 f303 	lsr.w	r3, r2, r3
}
 8006ccc:	4618      	mov	r0, r3
 8006cce:	bd80      	pop	{r7, pc}
 8006cd0:	40021000 	.word	0x40021000
 8006cd4:	08009b40 	.word	0x08009b40

08006cd8 <RCC_Delay>:
  * @brief  This function provides delay (in milliseconds) based on CPU cycles method.
  * @param  mdelay: specifies the delay time length, in milliseconds.
  * @retval None
  */
static void RCC_Delay(uint32_t mdelay)
{
 8006cd8:	b480      	push	{r7}
 8006cda:	b085      	sub	sp, #20
 8006cdc:	af00      	add	r7, sp, #0
 8006cde:	6078      	str	r0, [r7, #4]
  __IO uint32_t Delay = mdelay * (SystemCoreClock / 8U / 1000U);
 8006ce0:	4b0a      	ldr	r3, [pc, #40]	; (8006d0c <RCC_Delay+0x34>)
 8006ce2:	681b      	ldr	r3, [r3, #0]
 8006ce4:	4a0a      	ldr	r2, [pc, #40]	; (8006d10 <RCC_Delay+0x38>)
 8006ce6:	fba2 2303 	umull	r2, r3, r2, r3
 8006cea:	0a5b      	lsrs	r3, r3, #9
 8006cec:	687a      	ldr	r2, [r7, #4]
 8006cee:	fb02 f303 	mul.w	r3, r2, r3
 8006cf2:	60fb      	str	r3, [r7, #12]
  do
  {
    __NOP();
 8006cf4:	bf00      	nop
  }
  while (Delay --);
 8006cf6:	68fb      	ldr	r3, [r7, #12]
 8006cf8:	1e5a      	subs	r2, r3, #1
 8006cfa:	60fa      	str	r2, [r7, #12]
 8006cfc:	2b00      	cmp	r3, #0
 8006cfe:	d1f9      	bne.n	8006cf4 <RCC_Delay+0x1c>
}
 8006d00:	bf00      	nop
 8006d02:	bf00      	nop
 8006d04:	3714      	adds	r7, #20
 8006d06:	46bd      	mov	sp, r7
 8006d08:	bc80      	pop	{r7}
 8006d0a:	4770      	bx	lr
 8006d0c:	200000ac 	.word	0x200000ac
 8006d10:	10624dd3 	.word	0x10624dd3

08006d14 <HAL_TIM_Base_Init>:
  *         Ex: call @ref HAL_TIM_Base_DeInit() before HAL_TIM_Base_Init()
  * @param  htim TIM Base handle
  * @retval HAL status
  */
HAL_StatusTypeDef HAL_TIM_Base_Init(TIM_HandleTypeDef *htim)
{
 8006d14:	b580      	push	{r7, lr}
 8006d16:	b082      	sub	sp, #8
 8006d18:	af00      	add	r7, sp, #0
 8006d1a:	6078      	str	r0, [r7, #4]
  /* Check the TIM handle allocation */
  if (htim == NULL)
 8006d1c:	687b      	ldr	r3, [r7, #4]
 8006d1e:	2b00      	cmp	r3, #0
 8006d20:	d101      	bne.n	8006d26 <HAL_TIM_Base_Init+0x12>
  {
    return HAL_ERROR;
 8006d22:	2301      	movs	r3, #1
 8006d24:	e041      	b.n	8006daa <HAL_TIM_Base_Init+0x96>
  assert_param(IS_TIM_COUNTER_MODE(htim->Init.CounterMode));
  assert_param(IS_TIM_CLOCKDIVISION_DIV(htim->Init.ClockDivision));
  assert_param(IS_TIM_PERIOD(htim->Init.Period));
  assert_param(IS_TIM_AUTORELOAD_PRELOAD(htim->Init.AutoReloadPreload));

  if (htim->State == HAL_TIM_STATE_RESET)
 8006d26:	687b      	ldr	r3, [r7, #4]
 8006d28:	f893 303d 	ldrb.w	r3, [r3, #61]	; 0x3d
 8006d2c:	b2db      	uxtb	r3, r3
 8006d2e:	2b00      	cmp	r3, #0
 8006d30:	d106      	bne.n	8006d40 <HAL_TIM_Base_Init+0x2c>
  {
    /* Allocate lock resource and initialize it */
    htim->Lock = HAL_UNLOCKED;
 8006d32:	687b      	ldr	r3, [r7, #4]
 8006d34:	2200      	movs	r2, #0
 8006d36:	f883 203c 	strb.w	r2, [r3, #60]	; 0x3c
    }
    /* Init the low level hardware : GPIO, CLOCK, NVIC */
    htim->Base_MspInitCallback(htim);
#else
    /* Init the low level hardware : GPIO, CLOCK, NVIC */
    HAL_TIM_Base_MspInit(htim);
 8006d3a:	6878      	ldr	r0, [r7, #4]
 8006d3c:	f7fd fe12 	bl	8004964 <HAL_TIM_Base_MspInit>
#endif /* USE_HAL_TIM_REGISTER_CALLBACKS */
  }

  /* Set the TIM state */
  htim->State = HAL_TIM_STATE_BUSY;
 8006d40:	687b      	ldr	r3, [r7, #4]
 8006d42:	2202      	movs	r2, #2
 8006d44:	f883 203d 	strb.w	r2, [r3, #61]	; 0x3d

  /* Set the Time Base configuration */
  TIM_Base_SetConfig(htim->Instance, &htim->Init);
 8006d48:	687b      	ldr	r3, [r7, #4]
 8006d4a:	681a      	ldr	r2, [r3, #0]
 8006d4c:	687b      	ldr	r3, [r7, #4]
 8006d4e:	3304      	adds	r3, #4
 8006d50:	4619      	mov	r1, r3
 8006d52:	4610      	mov	r0, r2
 8006d54:	f000 fc28 	bl	80075a8 <TIM_Base_SetConfig>

  /* Initialize the DMA burst operation state */
  htim->DMABurstState = HAL_DMA_BURST_STATE_READY;
 8006d58:	687b      	ldr	r3, [r7, #4]
 8006d5a:	2201      	movs	r2, #1
 8006d5c:	f883 2046 	strb.w	r2, [r3, #70]	; 0x46

  /* Initialize the TIM channels state */
  TIM_CHANNEL_STATE_SET_ALL(htim, HAL_TIM_CHANNEL_STATE_READY);
 8006d60:	687b      	ldr	r3, [r7, #4]
 8006d62:	2201      	movs	r2, #1
 8006d64:	f883 203e 	strb.w	r2, [r3, #62]	; 0x3e
 8006d68:	687b      	ldr	r3, [r7, #4]
 8006d6a:	2201      	movs	r2, #1
 8006d6c:	f883 203f 	strb.w	r2, [r3, #63]	; 0x3f
 8006d70:	687b      	ldr	r3, [r7, #4]
 8006d72:	2201      	movs	r2, #1
 8006d74:	f883 2040 	strb.w	r2, [r3, #64]	; 0x40
 8006d78:	687b      	ldr	r3, [r7, #4]
 8006d7a:	2201      	movs	r2, #1
 8006d7c:	f883 2041 	strb.w	r2, [r3, #65]	; 0x41
  TIM_CHANNEL_N_STATE_SET_ALL(htim, HAL_TIM_CHANNEL_STATE_READY);
 8006d80:	687b      	ldr	r3, [r7, #4]
 8006d82:	2201      	movs	r2, #1
 8006d84:	f883 2042 	strb.w	r2, [r3, #66]	; 0x42
 8006d88:	687b      	ldr	r3, [r7, #4]
 8006d8a:	2201      	movs	r2, #1
 8006d8c:	f883 2043 	strb.w	r2, [r3, #67]	; 0x43
 8006d90:	687b      	ldr	r3, [r7, #4]
 8006d92:	2201      	movs	r2, #1
 8006d94:	f883 2044 	strb.w	r2, [r3, #68]	; 0x44
 8006d98:	687b      	ldr	r3, [r7, #4]
 8006d9a:	2201      	movs	r2, #1
 8006d9c:	f883 2045 	strb.w	r2, [r3, #69]	; 0x45

  /* Initialize the TIM state*/
  htim->State = HAL_TIM_STATE_READY;
 8006da0:	687b      	ldr	r3, [r7, #4]
 8006da2:	2201      	movs	r2, #1
 8006da4:	f883 203d 	strb.w	r2, [r3, #61]	; 0x3d

  return HAL_OK;
 8006da8:	2300      	movs	r3, #0
}
 8006daa:	4618      	mov	r0, r3
 8006dac:	3708      	adds	r7, #8
 8006dae:	46bd      	mov	sp, r7
 8006db0:	bd80      	pop	{r7, pc}
	...

08006db4 <HAL_TIM_Base_Start_IT>:
  * @brief  Starts the TIM Base generation in interrupt mode.
  * @param  htim TIM Base handle
  * @retval HAL status
  */
HAL_StatusTypeDef HAL_TIM_Base_Start_IT(TIM_HandleTypeDef *htim)
{
 8006db4:	b480      	push	{r7}
 8006db6:	b085      	sub	sp, #20
 8006db8:	af00      	add	r7, sp, #0
 8006dba:	6078      	str	r0, [r7, #4]

  /* Check the parameters */
  assert_param(IS_TIM_INSTANCE(htim->Instance));

  /* Check the TIM state */
  if (htim->State != HAL_TIM_STATE_READY)
 8006dbc:	687b      	ldr	r3, [r7, #4]
 8006dbe:	f893 303d 	ldrb.w	r3, [r3, #61]	; 0x3d
 8006dc2:	b2db      	uxtb	r3, r3
 8006dc4:	2b01      	cmp	r3, #1
 8006dc6:	d001      	beq.n	8006dcc <HAL_TIM_Base_Start_IT+0x18>
  {
    return HAL_ERROR;
 8006dc8:	2301      	movs	r3, #1
 8006dca:	e03a      	b.n	8006e42 <HAL_TIM_Base_Start_IT+0x8e>
  }

  /* Set the TIM state */
  htim->State = HAL_TIM_STATE_BUSY;
 8006dcc:	687b      	ldr	r3, [r7, #4]
 8006dce:	2202      	movs	r2, #2
 8006dd0:	f883 203d 	strb.w	r2, [r3, #61]	; 0x3d

  /* Enable the TIM Update interrupt */
  __HAL_TIM_ENABLE_IT(htim, TIM_IT_UPDATE);
 8006dd4:	687b      	ldr	r3, [r7, #4]
 8006dd6:	681b      	ldr	r3, [r3, #0]
 8006dd8:	68da      	ldr	r2, [r3, #12]
 8006dda:	687b      	ldr	r3, [r7, #4]
 8006ddc:	681b      	ldr	r3, [r3, #0]
 8006dde:	f042 0201 	orr.w	r2, r2, #1
 8006de2:	60da      	str	r2, [r3, #12]

  /* Enable the Peripheral, except in trigger mode where enable is automatically done with trigger */
  if (IS_TIM_SLAVE_INSTANCE(htim->Instance))
 8006de4:	687b      	ldr	r3, [r7, #4]
 8006de6:	681b      	ldr	r3, [r3, #0]
 8006de8:	4a18      	ldr	r2, [pc, #96]	; (8006e4c <HAL_TIM_Base_Start_IT+0x98>)
 8006dea:	4293      	cmp	r3, r2
 8006dec:	d00e      	beq.n	8006e0c <HAL_TIM_Base_Start_IT+0x58>
 8006dee:	687b      	ldr	r3, [r7, #4]
 8006df0:	681b      	ldr	r3, [r3, #0]
 8006df2:	f1b3 4f80 	cmp.w	r3, #1073741824	; 0x40000000
 8006df6:	d009      	beq.n	8006e0c <HAL_TIM_Base_Start_IT+0x58>
 8006df8:	687b      	ldr	r3, [r7, #4]
 8006dfa:	681b      	ldr	r3, [r3, #0]
 8006dfc:	4a14      	ldr	r2, [pc, #80]	; (8006e50 <HAL_TIM_Base_Start_IT+0x9c>)
 8006dfe:	4293      	cmp	r3, r2
 8006e00:	d004      	beq.n	8006e0c <HAL_TIM_Base_Start_IT+0x58>
 8006e02:	687b      	ldr	r3, [r7, #4]
 8006e04:	681b      	ldr	r3, [r3, #0]
 8006e06:	4a13      	ldr	r2, [pc, #76]	; (8006e54 <HAL_TIM_Base_Start_IT+0xa0>)
 8006e08:	4293      	cmp	r3, r2
 8006e0a:	d111      	bne.n	8006e30 <HAL_TIM_Base_Start_IT+0x7c>
  {
    tmpsmcr = htim->Instance->SMCR & TIM_SMCR_SMS;
 8006e0c:	687b      	ldr	r3, [r7, #4]
 8006e0e:	681b      	ldr	r3, [r3, #0]
 8006e10:	689b      	ldr	r3, [r3, #8]
 8006e12:	f003 0307 	and.w	r3, r3, #7
 8006e16:	60fb      	str	r3, [r7, #12]
    if (!IS_TIM_SLAVEMODE_TRIGGER_ENABLED(tmpsmcr))
 8006e18:	68fb      	ldr	r3, [r7, #12]
 8006e1a:	2b06      	cmp	r3, #6
 8006e1c:	d010      	beq.n	8006e40 <HAL_TIM_Base_Start_IT+0x8c>
    {
      __HAL_TIM_ENABLE(htim);
 8006e1e:	687b      	ldr	r3, [r7, #4]
 8006e20:	681b      	ldr	r3, [r3, #0]
 8006e22:	681a      	ldr	r2, [r3, #0]
 8006e24:	687b      	ldr	r3, [r7, #4]
 8006e26:	681b      	ldr	r3, [r3, #0]
 8006e28:	f042 0201 	orr.w	r2, r2, #1
 8006e2c:	601a      	str	r2, [r3, #0]
    if (!IS_TIM_SLAVEMODE_TRIGGER_ENABLED(tmpsmcr))
 8006e2e:	e007      	b.n	8006e40 <HAL_TIM_Base_Start_IT+0x8c>
    }
  }
  else
  {
    __HAL_TIM_ENABLE(htim);
 8006e30:	687b      	ldr	r3, [r7, #4]
 8006e32:	681b      	ldr	r3, [r3, #0]
 8006e34:	681a      	ldr	r2, [r3, #0]
 8006e36:	687b      	ldr	r3, [r7, #4]
 8006e38:	681b      	ldr	r3, [r3, #0]
 8006e3a:	f042 0201 	orr.w	r2, r2, #1
 8006e3e:	601a      	str	r2, [r3, #0]
  }

  /* Return function status */
  return HAL_OK;
 8006e40:	2300      	movs	r3, #0
}
 8006e42:	4618      	mov	r0, r3
 8006e44:	3714      	adds	r7, #20
 8006e46:	46bd      	mov	sp, r7
 8006e48:	bc80      	pop	{r7}
 8006e4a:	4770      	bx	lr
 8006e4c:	40012c00 	.word	0x40012c00
 8006e50:	40000400 	.word	0x40000400
 8006e54:	40000800 	.word	0x40000800

08006e58 <HAL_TIM_PWM_Init>:
  *         Ex: call @ref HAL_TIM_PWM_DeInit() before HAL_TIM_PWM_Init()
  * @param  htim TIM PWM handle
  * @retval HAL status
  */
HAL_StatusTypeDef HAL_TIM_PWM_Init(TIM_HandleTypeDef *htim)
{
 8006e58:	b580      	push	{r7, lr}
 8006e5a:	b082      	sub	sp, #8
 8006e5c:	af00      	add	r7, sp, #0
 8006e5e:	6078      	str	r0, [r7, #4]
  /* Check the TIM handle allocation */
  if (htim == NULL)
 8006e60:	687b      	ldr	r3, [r7, #4]
 8006e62:	2b00      	cmp	r3, #0
 8006e64:	d101      	bne.n	8006e6a <HAL_TIM_PWM_Init+0x12>
  {
    return HAL_ERROR;
 8006e66:	2301      	movs	r3, #1
 8006e68:	e041      	b.n	8006eee <HAL_TIM_PWM_Init+0x96>
  assert_param(IS_TIM_COUNTER_MODE(htim->Init.CounterMode));
  assert_param(IS_TIM_CLOCKDIVISION_DIV(htim->Init.ClockDivision));
  assert_param(IS_TIM_PERIOD(htim->Init.Period));
  assert_param(IS_TIM_AUTORELOAD_PRELOAD(htim->Init.AutoReloadPreload));

  if (htim->State == HAL_TIM_STATE_RESET)
 8006e6a:	687b      	ldr	r3, [r7, #4]
 8006e6c:	f893 303d 	ldrb.w	r3, [r3, #61]	; 0x3d
 8006e70:	b2db      	uxtb	r3, r3
 8006e72:	2b00      	cmp	r3, #0
 8006e74:	d106      	bne.n	8006e84 <HAL_TIM_PWM_Init+0x2c>
  {
    /* Allocate lock resource and initialize it */
    htim->Lock = HAL_UNLOCKED;
 8006e76:	687b      	ldr	r3, [r7, #4]
 8006e78:	2200      	movs	r2, #0
 8006e7a:	f883 203c 	strb.w	r2, [r3, #60]	; 0x3c
    }
    /* Init the low level hardware : GPIO, CLOCK, NVIC */
    htim->PWM_MspInitCallback(htim);
#else
    /* Init the low level hardware : GPIO, CLOCK, NVIC and DMA */
    HAL_TIM_PWM_MspInit(htim);
 8006e7e:	6878      	ldr	r0, [r7, #4]
 8006e80:	f7fd fd96 	bl	80049b0 <HAL_TIM_PWM_MspInit>
#endif /* USE_HAL_TIM_REGISTER_CALLBACKS */
  }

  /* Set the TIM state */
  htim->State = HAL_TIM_STATE_BUSY;
 8006e84:	687b      	ldr	r3, [r7, #4]
 8006e86:	2202      	movs	r2, #2
 8006e88:	f883 203d 	strb.w	r2, [r3, #61]	; 0x3d

  /* Init the base time for the PWM */
  TIM_Base_SetConfig(htim->Instance, &htim->Init);
 8006e8c:	687b      	ldr	r3, [r7, #4]
 8006e8e:	681a      	ldr	r2, [r3, #0]
 8006e90:	687b      	ldr	r3, [r7, #4]
 8006e92:	3304      	adds	r3, #4
 8006e94:	4619      	mov	r1, r3
 8006e96:	4610      	mov	r0, r2
 8006e98:	f000 fb86 	bl	80075a8 <TIM_Base_SetConfig>

  /* Initialize the DMA burst operation state */
  htim->DMABurstState = HAL_DMA_BURST_STATE_READY;
 8006e9c:	687b      	ldr	r3, [r7, #4]
 8006e9e:	2201      	movs	r2, #1
 8006ea0:	f883 2046 	strb.w	r2, [r3, #70]	; 0x46

  /* Initialize the TIM channels state */
  TIM_CHANNEL_STATE_SET_ALL(htim, HAL_TIM_CHANNEL_STATE_READY);
 8006ea4:	687b      	ldr	r3, [r7, #4]
 8006ea6:	2201      	movs	r2, #1
 8006ea8:	f883 203e 	strb.w	r2, [r3, #62]	; 0x3e
 8006eac:	687b      	ldr	r3, [r7, #4]
 8006eae:	2201      	movs	r2, #1
 8006eb0:	f883 203f 	strb.w	r2, [r3, #63]	; 0x3f
 8006eb4:	687b      	ldr	r3, [r7, #4]
 8006eb6:	2201      	movs	r2, #1
 8006eb8:	f883 2040 	strb.w	r2, [r3, #64]	; 0x40
 8006ebc:	687b      	ldr	r3, [r7, #4]
 8006ebe:	2201      	movs	r2, #1
 8006ec0:	f883 2041 	strb.w	r2, [r3, #65]	; 0x41
  TIM_CHANNEL_N_STATE_SET_ALL(htim, HAL_TIM_CHANNEL_STATE_READY);
 8006ec4:	687b      	ldr	r3, [r7, #4]
 8006ec6:	2201      	movs	r2, #1
 8006ec8:	f883 2042 	strb.w	r2, [r3, #66]	; 0x42
 8006ecc:	687b      	ldr	r3, [r7, #4]
 8006ece:	2201      	movs	r2, #1
 8006ed0:	f883 2043 	strb.w	r2, [r3, #67]	; 0x43
 8006ed4:	687b      	ldr	r3, [r7, #4]
 8006ed6:	2201      	movs	r2, #1
 8006ed8:	f883 2044 	strb.w	r2, [r3, #68]	; 0x44
 8006edc:	687b      	ldr	r3, [r7, #4]
 8006ede:	2201      	movs	r2, #1
 8006ee0:	f883 2045 	strb.w	r2, [r3, #69]	; 0x45

  /* Initialize the TIM state*/
  htim->State = HAL_TIM_STATE_READY;
 8006ee4:	687b      	ldr	r3, [r7, #4]
 8006ee6:	2201      	movs	r2, #1
 8006ee8:	f883 203d 	strb.w	r2, [r3, #61]	; 0x3d

  return HAL_OK;
 8006eec:	2300      	movs	r3, #0
}
 8006eee:	4618      	mov	r0, r3
 8006ef0:	3708      	adds	r7, #8
 8006ef2:	46bd      	mov	sp, r7
 8006ef4:	bd80      	pop	{r7, pc}
	...

08006ef8 <HAL_TIM_PWM_Start>:
  *            @arg TIM_CHANNEL_3: TIM Channel 3 selected
  *            @arg TIM_CHANNEL_4: TIM Channel 4 selected
  * @retval HAL status
  */
HAL_StatusTypeDef HAL_TIM_PWM_Start(TIM_HandleTypeDef *htim, uint32_t Channel)
{
 8006ef8:	b580      	push	{r7, lr}
 8006efa:	b084      	sub	sp, #16
 8006efc:	af00      	add	r7, sp, #0
 8006efe:	6078      	str	r0, [r7, #4]
 8006f00:	6039      	str	r1, [r7, #0]

  /* Check the parameters */
  assert_param(IS_TIM_CCX_INSTANCE(htim->Instance, Channel));

  /* Check the TIM channel state */
  if (TIM_CHANNEL_STATE_GET(htim, Channel) != HAL_TIM_CHANNEL_STATE_READY)
 8006f02:	683b      	ldr	r3, [r7, #0]
 8006f04:	2b00      	cmp	r3, #0
 8006f06:	d109      	bne.n	8006f1c <HAL_TIM_PWM_Start+0x24>
 8006f08:	687b      	ldr	r3, [r7, #4]
 8006f0a:	f893 303e 	ldrb.w	r3, [r3, #62]	; 0x3e
 8006f0e:	b2db      	uxtb	r3, r3
 8006f10:	2b01      	cmp	r3, #1
 8006f12:	bf14      	ite	ne
 8006f14:	2301      	movne	r3, #1
 8006f16:	2300      	moveq	r3, #0
 8006f18:	b2db      	uxtb	r3, r3
 8006f1a:	e022      	b.n	8006f62 <HAL_TIM_PWM_Start+0x6a>
 8006f1c:	683b      	ldr	r3, [r7, #0]
 8006f1e:	2b04      	cmp	r3, #4
 8006f20:	d109      	bne.n	8006f36 <HAL_TIM_PWM_Start+0x3e>
 8006f22:	687b      	ldr	r3, [r7, #4]
 8006f24:	f893 303f 	ldrb.w	r3, [r3, #63]	; 0x3f
 8006f28:	b2db      	uxtb	r3, r3
 8006f2a:	2b01      	cmp	r3, #1
 8006f2c:	bf14      	ite	ne
 8006f2e:	2301      	movne	r3, #1
 8006f30:	2300      	moveq	r3, #0
 8006f32:	b2db      	uxtb	r3, r3
 8006f34:	e015      	b.n	8006f62 <HAL_TIM_PWM_Start+0x6a>
 8006f36:	683b      	ldr	r3, [r7, #0]
 8006f38:	2b08      	cmp	r3, #8
 8006f3a:	d109      	bne.n	8006f50 <HAL_TIM_PWM_Start+0x58>
 8006f3c:	687b      	ldr	r3, [r7, #4]
 8006f3e:	f893 3040 	ldrb.w	r3, [r3, #64]	; 0x40
 8006f42:	b2db      	uxtb	r3, r3
 8006f44:	2b01      	cmp	r3, #1
 8006f46:	bf14      	ite	ne
 8006f48:	2301      	movne	r3, #1
 8006f4a:	2300      	moveq	r3, #0
 8006f4c:	b2db      	uxtb	r3, r3
 8006f4e:	e008      	b.n	8006f62 <HAL_TIM_PWM_Start+0x6a>
 8006f50:	687b      	ldr	r3, [r7, #4]
 8006f52:	f893 3041 	ldrb.w	r3, [r3, #65]	; 0x41
 8006f56:	b2db      	uxtb	r3, r3
 8006f58:	2b01      	cmp	r3, #1
 8006f5a:	bf14      	ite	ne
 8006f5c:	2301      	movne	r3, #1
 8006f5e:	2300      	moveq	r3, #0
 8006f60:	b2db      	uxtb	r3, r3
 8006f62:	2b00      	cmp	r3, #0
 8006f64:	d001      	beq.n	8006f6a <HAL_TIM_PWM_Start+0x72>
  {
    return HAL_ERROR;
 8006f66:	2301      	movs	r3, #1
 8006f68:	e05e      	b.n	8007028 <HAL_TIM_PWM_Start+0x130>
  }

  /* Set the TIM channel state */
  TIM_CHANNEL_STATE_SET(htim, Channel, HAL_TIM_CHANNEL_STATE_BUSY);
 8006f6a:	683b      	ldr	r3, [r7, #0]
 8006f6c:	2b00      	cmp	r3, #0
 8006f6e:	d104      	bne.n	8006f7a <HAL_TIM_PWM_Start+0x82>
 8006f70:	687b      	ldr	r3, [r7, #4]
 8006f72:	2202      	movs	r2, #2
 8006f74:	f883 203e 	strb.w	r2, [r3, #62]	; 0x3e
 8006f78:	e013      	b.n	8006fa2 <HAL_TIM_PWM_Start+0xaa>
 8006f7a:	683b      	ldr	r3, [r7, #0]
 8006f7c:	2b04      	cmp	r3, #4
 8006f7e:	d104      	bne.n	8006f8a <HAL_TIM_PWM_Start+0x92>
 8006f80:	687b      	ldr	r3, [r7, #4]
 8006f82:	2202      	movs	r2, #2
 8006f84:	f883 203f 	strb.w	r2, [r3, #63]	; 0x3f
 8006f88:	e00b      	b.n	8006fa2 <HAL_TIM_PWM_Start+0xaa>
 8006f8a:	683b      	ldr	r3, [r7, #0]
 8006f8c:	2b08      	cmp	r3, #8
 8006f8e:	d104      	bne.n	8006f9a <HAL_TIM_PWM_Start+0xa2>
 8006f90:	687b      	ldr	r3, [r7, #4]
 8006f92:	2202      	movs	r2, #2
 8006f94:	f883 2040 	strb.w	r2, [r3, #64]	; 0x40
 8006f98:	e003      	b.n	8006fa2 <HAL_TIM_PWM_Start+0xaa>
 8006f9a:	687b      	ldr	r3, [r7, #4]
 8006f9c:	2202      	movs	r2, #2
 8006f9e:	f883 2041 	strb.w	r2, [r3, #65]	; 0x41

  /* Enable the Capture compare channel */
  TIM_CCxChannelCmd(htim->Instance, Channel, TIM_CCx_ENABLE);
 8006fa2:	687b      	ldr	r3, [r7, #4]
 8006fa4:	681b      	ldr	r3, [r3, #0]
 8006fa6:	2201      	movs	r2, #1
 8006fa8:	6839      	ldr	r1, [r7, #0]
 8006faa:	4618      	mov	r0, r3
 8006fac:	f000 fd7c 	bl	8007aa8 <TIM_CCxChannelCmd>

  if (IS_TIM_BREAK_INSTANCE(htim->Instance) != RESET)
 8006fb0:	687b      	ldr	r3, [r7, #4]
 8006fb2:	681b      	ldr	r3, [r3, #0]
 8006fb4:	4a1e      	ldr	r2, [pc, #120]	; (8007030 <HAL_TIM_PWM_Start+0x138>)
 8006fb6:	4293      	cmp	r3, r2
 8006fb8:	d107      	bne.n	8006fca <HAL_TIM_PWM_Start+0xd2>
  {
    /* Enable the main output */
    __HAL_TIM_MOE_ENABLE(htim);
 8006fba:	687b      	ldr	r3, [r7, #4]
 8006fbc:	681b      	ldr	r3, [r3, #0]
 8006fbe:	6c5a      	ldr	r2, [r3, #68]	; 0x44
 8006fc0:	687b      	ldr	r3, [r7, #4]
 8006fc2:	681b      	ldr	r3, [r3, #0]
 8006fc4:	f442 4200 	orr.w	r2, r2, #32768	; 0x8000
 8006fc8:	645a      	str	r2, [r3, #68]	; 0x44
  }

  /* Enable the Peripheral, except in trigger mode where enable is automatically done with trigger */
  if (IS_TIM_SLAVE_INSTANCE(htim->Instance))
 8006fca:	687b      	ldr	r3, [r7, #4]
 8006fcc:	681b      	ldr	r3, [r3, #0]
 8006fce:	4a18      	ldr	r2, [pc, #96]	; (8007030 <HAL_TIM_PWM_Start+0x138>)
 8006fd0:	4293      	cmp	r3, r2
 8006fd2:	d00e      	beq.n	8006ff2 <HAL_TIM_PWM_Start+0xfa>
 8006fd4:	687b      	ldr	r3, [r7, #4]
 8006fd6:	681b      	ldr	r3, [r3, #0]
 8006fd8:	f1b3 4f80 	cmp.w	r3, #1073741824	; 0x40000000
 8006fdc:	d009      	beq.n	8006ff2 <HAL_TIM_PWM_Start+0xfa>
 8006fde:	687b      	ldr	r3, [r7, #4]
 8006fe0:	681b      	ldr	r3, [r3, #0]
 8006fe2:	4a14      	ldr	r2, [pc, #80]	; (8007034 <HAL_TIM_PWM_Start+0x13c>)
 8006fe4:	4293      	cmp	r3, r2
 8006fe6:	d004      	beq.n	8006ff2 <HAL_TIM_PWM_Start+0xfa>
 8006fe8:	687b      	ldr	r3, [r7, #4]
 8006fea:	681b      	ldr	r3, [r3, #0]
 8006fec:	4a12      	ldr	r2, [pc, #72]	; (8007038 <HAL_TIM_PWM_Start+0x140>)
 8006fee:	4293      	cmp	r3, r2
 8006ff0:	d111      	bne.n	8007016 <HAL_TIM_PWM_Start+0x11e>
  {
    tmpsmcr = htim->Instance->SMCR & TIM_SMCR_SMS;
 8006ff2:	687b      	ldr	r3, [r7, #4]
 8006ff4:	681b      	ldr	r3, [r3, #0]
 8006ff6:	689b      	ldr	r3, [r3, #8]
 8006ff8:	f003 0307 	and.w	r3, r3, #7
 8006ffc:	60fb      	str	r3, [r7, #12]
    if (!IS_TIM_SLAVEMODE_TRIGGER_ENABLED(tmpsmcr))
 8006ffe:	68fb      	ldr	r3, [r7, #12]
 8007000:	2b06      	cmp	r3, #6
 8007002:	d010      	beq.n	8007026 <HAL_TIM_PWM_Start+0x12e>
    {
      __HAL_TIM_ENABLE(htim);
 8007004:	687b      	ldr	r3, [r7, #4]
 8007006:	681b      	ldr	r3, [r3, #0]
 8007008:	681a      	ldr	r2, [r3, #0]
 800700a:	687b      	ldr	r3, [r7, #4]
 800700c:	681b      	ldr	r3, [r3, #0]
 800700e:	f042 0201 	orr.w	r2, r2, #1
 8007012:	601a      	str	r2, [r3, #0]
    if (!IS_TIM_SLAVEMODE_TRIGGER_ENABLED(tmpsmcr))
 8007014:	e007      	b.n	8007026 <HAL_TIM_PWM_Start+0x12e>
    }
  }
  else
  {
    __HAL_TIM_ENABLE(htim);
 8007016:	687b      	ldr	r3, [r7, #4]
 8007018:	681b      	ldr	r3, [r3, #0]
 800701a:	681a      	ldr	r2, [r3, #0]
 800701c:	687b      	ldr	r3, [r7, #4]
 800701e:	681b      	ldr	r3, [r3, #0]
 8007020:	f042 0201 	orr.w	r2, r2, #1
 8007024:	601a      	str	r2, [r3, #0]
  }

  /* Return function status */
  return HAL_OK;
 8007026:	2300      	movs	r3, #0
}
 8007028:	4618      	mov	r0, r3
 800702a:	3710      	adds	r7, #16
 800702c:	46bd      	mov	sp, r7
 800702e:	bd80      	pop	{r7, pc}
 8007030:	40012c00 	.word	0x40012c00
 8007034:	40000400 	.word	0x40000400
 8007038:	40000800 	.word	0x40000800

0800703c <HAL_TIM_IRQHandler>:
  * @brief  This function handles TIM interrupts requests.
  * @param  htim TIM  handle
  * @retval None
  */
void HAL_TIM_IRQHandler(TIM_HandleTypeDef *htim)
{
 800703c:	b580      	push	{r7, lr}
 800703e:	b082      	sub	sp, #8
 8007040:	af00      	add	r7, sp, #0
 8007042:	6078      	str	r0, [r7, #4]
  /* Capture compare 1 event */
  if (__HAL_TIM_GET_FLAG(htim, TIM_FLAG_CC1) != RESET)
 8007044:	687b      	ldr	r3, [r7, #4]
 8007046:	681b      	ldr	r3, [r3, #0]
 8007048:	691b      	ldr	r3, [r3, #16]
 800704a:	f003 0302 	and.w	r3, r3, #2
 800704e:	2b02      	cmp	r3, #2
 8007050:	d122      	bne.n	8007098 <HAL_TIM_IRQHandler+0x5c>
  {
    if (__HAL_TIM_GET_IT_SOURCE(htim, TIM_IT_CC1) != RESET)
 8007052:	687b      	ldr	r3, [r7, #4]
 8007054:	681b      	ldr	r3, [r3, #0]
 8007056:	68db      	ldr	r3, [r3, #12]
 8007058:	f003 0302 	and.w	r3, r3, #2
 800705c:	2b02      	cmp	r3, #2
 800705e:	d11b      	bne.n	8007098 <HAL_TIM_IRQHandler+0x5c>
    {
      {
        __HAL_TIM_CLEAR_IT(htim, TIM_IT_CC1);
 8007060:	687b      	ldr	r3, [r7, #4]
 8007062:	681b      	ldr	r3, [r3, #0]
 8007064:	f06f 0202 	mvn.w	r2, #2
 8007068:	611a      	str	r2, [r3, #16]
        htim->Channel = HAL_TIM_ACTIVE_CHANNEL_1;
 800706a:	687b      	ldr	r3, [r7, #4]
 800706c:	2201      	movs	r2, #1
 800706e:	771a      	strb	r2, [r3, #28]

        /* Input capture event */
        if ((htim->Instance->CCMR1 & TIM_CCMR1_CC1S) != 0x00U)
 8007070:	687b      	ldr	r3, [r7, #4]
 8007072:	681b      	ldr	r3, [r3, #0]
 8007074:	699b      	ldr	r3, [r3, #24]
 8007076:	f003 0303 	and.w	r3, r3, #3
 800707a:	2b00      	cmp	r3, #0
 800707c:	d003      	beq.n	8007086 <HAL_TIM_IRQHandler+0x4a>
        {
#if (USE_HAL_TIM_REGISTER_CALLBACKS == 1)
          htim->IC_CaptureCallback(htim);
#else
          HAL_TIM_IC_CaptureCallback(htim);
 800707e:	6878      	ldr	r0, [r7, #4]
 8007080:	f000 fa76 	bl	8007570 <HAL_TIM_IC_CaptureCallback>
 8007084:	e005      	b.n	8007092 <HAL_TIM_IRQHandler+0x56>
        {
#if (USE_HAL_TIM_REGISTER_CALLBACKS == 1)
          htim->OC_DelayElapsedCallback(htim);
          htim->PWM_PulseFinishedCallback(htim);
#else
          HAL_TIM_OC_DelayElapsedCallback(htim);
 8007086:	6878      	ldr	r0, [r7, #4]
 8007088:	f000 fa69 	bl	800755e <HAL_TIM_OC_DelayElapsedCallback>
          HAL_TIM_PWM_PulseFinishedCallback(htim);
 800708c:	6878      	ldr	r0, [r7, #4]
 800708e:	f000 fa78 	bl	8007582 <HAL_TIM_PWM_PulseFinishedCallback>
#endif /* USE_HAL_TIM_REGISTER_CALLBACKS */
        }
        htim->Channel = HAL_TIM_ACTIVE_CHANNEL_CLEARED;
 8007092:	687b      	ldr	r3, [r7, #4]
 8007094:	2200      	movs	r2, #0
 8007096:	771a      	strb	r2, [r3, #28]
      }
    }
  }
  /* Capture compare 2 event */
  if (__HAL_TIM_GET_FLAG(htim, TIM_FLAG_CC2) != RESET)
 8007098:	687b      	ldr	r3, [r7, #4]
 800709a:	681b      	ldr	r3, [r3, #0]
 800709c:	691b      	ldr	r3, [r3, #16]
 800709e:	f003 0304 	and.w	r3, r3, #4
 80070a2:	2b04      	cmp	r3, #4
 80070a4:	d122      	bne.n	80070ec <HAL_TIM_IRQHandler+0xb0>
  {
    if (__HAL_TIM_GET_IT_SOURCE(htim, TIM_IT_CC2) != RESET)
 80070a6:	687b      	ldr	r3, [r7, #4]
 80070a8:	681b      	ldr	r3, [r3, #0]
 80070aa:	68db      	ldr	r3, [r3, #12]
 80070ac:	f003 0304 	and.w	r3, r3, #4
 80070b0:	2b04      	cmp	r3, #4
 80070b2:	d11b      	bne.n	80070ec <HAL_TIM_IRQHandler+0xb0>
    {
      __HAL_TIM_CLEAR_IT(htim, TIM_IT_CC2);
 80070b4:	687b      	ldr	r3, [r7, #4]
 80070b6:	681b      	ldr	r3, [r3, #0]
 80070b8:	f06f 0204 	mvn.w	r2, #4
 80070bc:	611a      	str	r2, [r3, #16]
      htim->Channel = HAL_TIM_ACTIVE_CHANNEL_2;
 80070be:	687b      	ldr	r3, [r7, #4]
 80070c0:	2202      	movs	r2, #2
 80070c2:	771a      	strb	r2, [r3, #28]
      /* Input capture event */
      if ((htim->Instance->CCMR1 & TIM_CCMR1_CC2S) != 0x00U)
 80070c4:	687b      	ldr	r3, [r7, #4]
 80070c6:	681b      	ldr	r3, [r3, #0]
 80070c8:	699b      	ldr	r3, [r3, #24]
 80070ca:	f403 7340 	and.w	r3, r3, #768	; 0x300
 80070ce:	2b00      	cmp	r3, #0
 80070d0:	d003      	beq.n	80070da <HAL_TIM_IRQHandler+0x9e>
      {
#if (USE_HAL_TIM_REGISTER_CALLBACKS == 1)
        htim->IC_CaptureCallback(htim);
#else
        HAL_TIM_IC_CaptureCallback(htim);
 80070d2:	6878      	ldr	r0, [r7, #4]
 80070d4:	f000 fa4c 	bl	8007570 <HAL_TIM_IC_CaptureCallback>
 80070d8:	e005      	b.n	80070e6 <HAL_TIM_IRQHandler+0xaa>
      {
#if (USE_HAL_TIM_REGISTER_CALLBACKS == 1)
        htim->OC_DelayElapsedCallback(htim);
        htim->PWM_PulseFinishedCallback(htim);
#else
        HAL_TIM_OC_DelayElapsedCallback(htim);
 80070da:	6878      	ldr	r0, [r7, #4]
 80070dc:	f000 fa3f 	bl	800755e <HAL_TIM_OC_DelayElapsedCallback>
        HAL_TIM_PWM_PulseFinishedCallback(htim);
 80070e0:	6878      	ldr	r0, [r7, #4]
 80070e2:	f000 fa4e 	bl	8007582 <HAL_TIM_PWM_PulseFinishedCallback>
#endif /* USE_HAL_TIM_REGISTER_CALLBACKS */
      }
      htim->Channel = HAL_TIM_ACTIVE_CHANNEL_CLEARED;
 80070e6:	687b      	ldr	r3, [r7, #4]
 80070e8:	2200      	movs	r2, #0
 80070ea:	771a      	strb	r2, [r3, #28]
    }
  }
  /* Capture compare 3 event */
  if (__HAL_TIM_GET_FLAG(htim, TIM_FLAG_CC3) != RESET)
 80070ec:	687b      	ldr	r3, [r7, #4]
 80070ee:	681b      	ldr	r3, [r3, #0]
 80070f0:	691b      	ldr	r3, [r3, #16]
 80070f2:	f003 0308 	and.w	r3, r3, #8
 80070f6:	2b08      	cmp	r3, #8
 80070f8:	d122      	bne.n	8007140 <HAL_TIM_IRQHandler+0x104>
  {
    if (__HAL_TIM_GET_IT_SOURCE(htim, TIM_IT_CC3) != RESET)
 80070fa:	687b      	ldr	r3, [r7, #4]
 80070fc:	681b      	ldr	r3, [r3, #0]
 80070fe:	68db      	ldr	r3, [r3, #12]
 8007100:	f003 0308 	and.w	r3, r3, #8
 8007104:	2b08      	cmp	r3, #8
 8007106:	d11b      	bne.n	8007140 <HAL_TIM_IRQHandler+0x104>
    {
      __HAL_TIM_CLEAR_IT(htim, TIM_IT_CC3);
 8007108:	687b      	ldr	r3, [r7, #4]
 800710a:	681b      	ldr	r3, [r3, #0]
 800710c:	f06f 0208 	mvn.w	r2, #8
 8007110:	611a      	str	r2, [r3, #16]
      htim->Channel = HAL_TIM_ACTIVE_CHANNEL_3;
 8007112:	687b      	ldr	r3, [r7, #4]
 8007114:	2204      	movs	r2, #4
 8007116:	771a      	strb	r2, [r3, #28]
      /* Input capture event */
      if ((htim->Instance->CCMR2 & TIM_CCMR2_CC3S) != 0x00U)
 8007118:	687b      	ldr	r3, [r7, #4]
 800711a:	681b      	ldr	r3, [r3, #0]
 800711c:	69db      	ldr	r3, [r3, #28]
 800711e:	f003 0303 	and.w	r3, r3, #3
 8007122:	2b00      	cmp	r3, #0
 8007124:	d003      	beq.n	800712e <HAL_TIM_IRQHandler+0xf2>
      {
#if (USE_HAL_TIM_REGISTER_CALLBACKS == 1)
        htim->IC_CaptureCallback(htim);
#else
        HAL_TIM_IC_CaptureCallback(htim);
 8007126:	6878      	ldr	r0, [r7, #4]
 8007128:	f000 fa22 	bl	8007570 <HAL_TIM_IC_CaptureCallback>
 800712c:	e005      	b.n	800713a <HAL_TIM_IRQHandler+0xfe>
      {
#if (USE_HAL_TIM_REGISTER_CALLBACKS == 1)
        htim->OC_DelayElapsedCallback(htim);
        htim->PWM_PulseFinishedCallback(htim);
#else
        HAL_TIM_OC_DelayElapsedCallback(htim);
 800712e:	6878      	ldr	r0, [r7, #4]
 8007130:	f000 fa15 	bl	800755e <HAL_TIM_OC_DelayElapsedCallback>
        HAL_TIM_PWM_PulseFinishedCallback(htim);
 8007134:	6878      	ldr	r0, [r7, #4]
 8007136:	f000 fa24 	bl	8007582 <HAL_TIM_PWM_PulseFinishedCallback>
#endif /* USE_HAL_TIM_REGISTER_CALLBACKS */
      }
      htim->Channel = HAL_TIM_ACTIVE_CHANNEL_CLEARED;
 800713a:	687b      	ldr	r3, [r7, #4]
 800713c:	2200      	movs	r2, #0
 800713e:	771a      	strb	r2, [r3, #28]
    }
  }
  /* Capture compare 4 event */
  if (__HAL_TIM_GET_FLAG(htim, TIM_FLAG_CC4) != RESET)
 8007140:	687b      	ldr	r3, [r7, #4]
 8007142:	681b      	ldr	r3, [r3, #0]
 8007144:	691b      	ldr	r3, [r3, #16]
 8007146:	f003 0310 	and.w	r3, r3, #16
 800714a:	2b10      	cmp	r3, #16
 800714c:	d122      	bne.n	8007194 <HAL_TIM_IRQHandler+0x158>
  {
    if (__HAL_TIM_GET_IT_SOURCE(htim, TIM_IT_CC4) != RESET)
 800714e:	687b      	ldr	r3, [r7, #4]
 8007150:	681b      	ldr	r3, [r3, #0]
 8007152:	68db      	ldr	r3, [r3, #12]
 8007154:	f003 0310 	and.w	r3, r3, #16
 8007158:	2b10      	cmp	r3, #16
 800715a:	d11b      	bne.n	8007194 <HAL_TIM_IRQHandler+0x158>
    {
      __HAL_TIM_CLEAR_IT(htim, TIM_IT_CC4);
 800715c:	687b      	ldr	r3, [r7, #4]
 800715e:	681b      	ldr	r3, [r3, #0]
 8007160:	f06f 0210 	mvn.w	r2, #16
 8007164:	611a      	str	r2, [r3, #16]
      htim->Channel = HAL_TIM_ACTIVE_CHANNEL_4;
 8007166:	687b      	ldr	r3, [r7, #4]
 8007168:	2208      	movs	r2, #8
 800716a:	771a      	strb	r2, [r3, #28]
      /* Input capture event */
      if ((htim->Instance->CCMR2 & TIM_CCMR2_CC4S) != 0x00U)
 800716c:	687b      	ldr	r3, [r7, #4]
 800716e:	681b      	ldr	r3, [r3, #0]
 8007170:	69db      	ldr	r3, [r3, #28]
 8007172:	f403 7340 	and.w	r3, r3, #768	; 0x300
 8007176:	2b00      	cmp	r3, #0
 8007178:	d003      	beq.n	8007182 <HAL_TIM_IRQHandler+0x146>
      {
#if (USE_HAL_TIM_REGISTER_CALLBACKS == 1)
        htim->IC_CaptureCallback(htim);
#else
        HAL_TIM_IC_CaptureCallback(htim);
 800717a:	6878      	ldr	r0, [r7, #4]
 800717c:	f000 f9f8 	bl	8007570 <HAL_TIM_IC_CaptureCallback>
 8007180:	e005      	b.n	800718e <HAL_TIM_IRQHandler+0x152>
      {
#if (USE_HAL_TIM_REGISTER_CALLBACKS == 1)
        htim->OC_DelayElapsedCallback(htim);
        htim->PWM_PulseFinishedCallback(htim);
#else
        HAL_TIM_OC_DelayElapsedCallback(htim);
 8007182:	6878      	ldr	r0, [r7, #4]
 8007184:	f000 f9eb 	bl	800755e <HAL_TIM_OC_DelayElapsedCallback>
        HAL_TIM_PWM_PulseFinishedCallback(htim);
 8007188:	6878      	ldr	r0, [r7, #4]
 800718a:	f000 f9fa 	bl	8007582 <HAL_TIM_PWM_PulseFinishedCallback>
#endif /* USE_HAL_TIM_REGISTER_CALLBACKS */
      }
      htim->Channel = HAL_TIM_ACTIVE_CHANNEL_CLEARED;
 800718e:	687b      	ldr	r3, [r7, #4]
 8007190:	2200      	movs	r2, #0
 8007192:	771a      	strb	r2, [r3, #28]
    }
  }
  /* TIM Update event */
  if (__HAL_TIM_GET_FLAG(htim, TIM_FLAG_UPDATE) != RESET)
 8007194:	687b      	ldr	r3, [r7, #4]
 8007196:	681b      	ldr	r3, [r3, #0]
 8007198:	691b      	ldr	r3, [r3, #16]
 800719a:	f003 0301 	and.w	r3, r3, #1
 800719e:	2b01      	cmp	r3, #1
 80071a0:	d10e      	bne.n	80071c0 <HAL_TIM_IRQHandler+0x184>
  {
    if (__HAL_TIM_GET_IT_SOURCE(htim, TIM_IT_UPDATE) != RESET)
 80071a2:	687b      	ldr	r3, [r7, #4]
 80071a4:	681b      	ldr	r3, [r3, #0]
 80071a6:	68db      	ldr	r3, [r3, #12]
 80071a8:	f003 0301 	and.w	r3, r3, #1
 80071ac:	2b01      	cmp	r3, #1
 80071ae:	d107      	bne.n	80071c0 <HAL_TIM_IRQHandler+0x184>
    {
      __HAL_TIM_CLEAR_IT(htim, TIM_IT_UPDATE);
 80071b0:	687b      	ldr	r3, [r7, #4]
 80071b2:	681b      	ldr	r3, [r3, #0]
 80071b4:	f06f 0201 	mvn.w	r2, #1
 80071b8:	611a      	str	r2, [r3, #16]
#if (USE_HAL_TIM_REGISTER_CALLBACKS == 1)
      htim->PeriodElapsedCallback(htim);
#else
      HAL_TIM_PeriodElapsedCallback(htim);
 80071ba:	6878      	ldr	r0, [r7, #4]
 80071bc:	f7fa f952 	bl	8001464 <HAL_TIM_PeriodElapsedCallback>
#endif /* USE_HAL_TIM_REGISTER_CALLBACKS */
    }
  }
  /* TIM Break input event */
  if (__HAL_TIM_GET_FLAG(htim, TIM_FLAG_BREAK) != RESET)
 80071c0:	687b      	ldr	r3, [r7, #4]
 80071c2:	681b      	ldr	r3, [r3, #0]
 80071c4:	691b      	ldr	r3, [r3, #16]
 80071c6:	f003 0380 	and.w	r3, r3, #128	; 0x80
 80071ca:	2b80      	cmp	r3, #128	; 0x80
 80071cc:	d10e      	bne.n	80071ec <HAL_TIM_IRQHandler+0x1b0>
  {
    if (__HAL_TIM_GET_IT_SOURCE(htim, TIM_IT_BREAK) != RESET)
 80071ce:	687b      	ldr	r3, [r7, #4]
 80071d0:	681b      	ldr	r3, [r3, #0]
 80071d2:	68db      	ldr	r3, [r3, #12]
 80071d4:	f003 0380 	and.w	r3, r3, #128	; 0x80
 80071d8:	2b80      	cmp	r3, #128	; 0x80
 80071da:	d107      	bne.n	80071ec <HAL_TIM_IRQHandler+0x1b0>
    {
      __HAL_TIM_CLEAR_IT(htim, TIM_IT_BREAK);
 80071dc:	687b      	ldr	r3, [r7, #4]
 80071de:	681b      	ldr	r3, [r3, #0]
 80071e0:	f06f 0280 	mvn.w	r2, #128	; 0x80
 80071e4:	611a      	str	r2, [r3, #16]
#if (USE_HAL_TIM_REGISTER_CALLBACKS == 1)
      htim->BreakCallback(htim);
#else
      HAL_TIMEx_BreakCallback(htim);
 80071e6:	6878      	ldr	r0, [r7, #4]
 80071e8:	f000 fce9 	bl	8007bbe <HAL_TIMEx_BreakCallback>
#endif /* USE_HAL_TIM_REGISTER_CALLBACKS */
    }
  }
  /* TIM Trigger detection event */
  if (__HAL_TIM_GET_FLAG(htim, TIM_FLAG_TRIGGER) != RESET)
 80071ec:	687b      	ldr	r3, [r7, #4]
 80071ee:	681b      	ldr	r3, [r3, #0]
 80071f0:	691b      	ldr	r3, [r3, #16]
 80071f2:	f003 0340 	and.w	r3, r3, #64	; 0x40
 80071f6:	2b40      	cmp	r3, #64	; 0x40
 80071f8:	d10e      	bne.n	8007218 <HAL_TIM_IRQHandler+0x1dc>
  {
    if (__HAL_TIM_GET_IT_SOURCE(htim, TIM_IT_TRIGGER) != RESET)
 80071fa:	687b      	ldr	r3, [r7, #4]
 80071fc:	681b      	ldr	r3, [r3, #0]
 80071fe:	68db      	ldr	r3, [r3, #12]
 8007200:	f003 0340 	and.w	r3, r3, #64	; 0x40
 8007204:	2b40      	cmp	r3, #64	; 0x40
 8007206:	d107      	bne.n	8007218 <HAL_TIM_IRQHandler+0x1dc>
    {
      __HAL_TIM_CLEAR_IT(htim, TIM_IT_TRIGGER);
 8007208:	687b      	ldr	r3, [r7, #4]
 800720a:	681b      	ldr	r3, [r3, #0]
 800720c:	f06f 0240 	mvn.w	r2, #64	; 0x40
 8007210:	611a      	str	r2, [r3, #16]
#if (USE_HAL_TIM_REGISTER_CALLBACKS == 1)
      htim->TriggerCallback(htim);
#else
      HAL_TIM_TriggerCallback(htim);
 8007212:	6878      	ldr	r0, [r7, #4]
 8007214:	f000 f9be 	bl	8007594 <HAL_TIM_TriggerCallback>
#endif /* USE_HAL_TIM_REGISTER_CALLBACKS */
    }
  }
  /* TIM commutation event */
  if (__HAL_TIM_GET_FLAG(htim, TIM_FLAG_COM) != RESET)
 8007218:	687b      	ldr	r3, [r7, #4]
 800721a:	681b      	ldr	r3, [r3, #0]
 800721c:	691b      	ldr	r3, [r3, #16]
 800721e:	f003 0320 	and.w	r3, r3, #32
 8007222:	2b20      	cmp	r3, #32
 8007224:	d10e      	bne.n	8007244 <HAL_TIM_IRQHandler+0x208>
  {
    if (__HAL_TIM_GET_IT_SOURCE(htim, TIM_IT_COM) != RESET)
 8007226:	687b      	ldr	r3, [r7, #4]
 8007228:	681b      	ldr	r3, [r3, #0]
 800722a:	68db      	ldr	r3, [r3, #12]
 800722c:	f003 0320 	and.w	r3, r3, #32
 8007230:	2b20      	cmp	r3, #32
 8007232:	d107      	bne.n	8007244 <HAL_TIM_IRQHandler+0x208>
    {
      __HAL_TIM_CLEAR_IT(htim, TIM_FLAG_COM);
 8007234:	687b      	ldr	r3, [r7, #4]
 8007236:	681b      	ldr	r3, [r3, #0]
 8007238:	f06f 0220 	mvn.w	r2, #32
 800723c:	611a      	str	r2, [r3, #16]
#if (USE_HAL_TIM_REGISTER_CALLBACKS == 1)
      htim->CommutationCallback(htim);
#else
      HAL_TIMEx_CommutCallback(htim);
 800723e:	6878      	ldr	r0, [r7, #4]
 8007240:	f000 fcb4 	bl	8007bac <HAL_TIMEx_CommutCallback>
#endif /* USE_HAL_TIM_REGISTER_CALLBACKS */
    }
  }
}
 8007244:	bf00      	nop
 8007246:	3708      	adds	r7, #8
 8007248:	46bd      	mov	sp, r7
 800724a:	bd80      	pop	{r7, pc}

0800724c <HAL_TIM_PWM_ConfigChannel>:
  * @retval HAL status
  */
HAL_StatusTypeDef HAL_TIM_PWM_ConfigChannel(TIM_HandleTypeDef *htim,
                                            const TIM_OC_InitTypeDef *sConfig,
                                            uint32_t Channel)
{
 800724c:	b580      	push	{r7, lr}
 800724e:	b086      	sub	sp, #24
 8007250:	af00      	add	r7, sp, #0
 8007252:	60f8      	str	r0, [r7, #12]
 8007254:	60b9      	str	r1, [r7, #8]
 8007256:	607a      	str	r2, [r7, #4]
  HAL_StatusTypeDef status = HAL_OK;
 8007258:	2300      	movs	r3, #0
 800725a:	75fb      	strb	r3, [r7, #23]
  assert_param(IS_TIM_PWM_MODE(sConfig->OCMode));
  assert_param(IS_TIM_OC_POLARITY(sConfig->OCPolarity));
  assert_param(IS_TIM_FAST_STATE(sConfig->OCFastMode));

  /* Process Locked */
  __HAL_LOCK(htim);
 800725c:	68fb      	ldr	r3, [r7, #12]
 800725e:	f893 303c 	ldrb.w	r3, [r3, #60]	; 0x3c
 8007262:	2b01      	cmp	r3, #1
 8007264:	d101      	bne.n	800726a <HAL_TIM_PWM_ConfigChannel+0x1e>
 8007266:	2302      	movs	r3, #2
 8007268:	e0ae      	b.n	80073c8 <HAL_TIM_PWM_ConfigChannel+0x17c>
 800726a:	68fb      	ldr	r3, [r7, #12]
 800726c:	2201      	movs	r2, #1
 800726e:	f883 203c 	strb.w	r2, [r3, #60]	; 0x3c

  switch (Channel)
 8007272:	687b      	ldr	r3, [r7, #4]
 8007274:	2b0c      	cmp	r3, #12
 8007276:	f200 809f 	bhi.w	80073b8 <HAL_TIM_PWM_ConfigChannel+0x16c>
 800727a:	a201      	add	r2, pc, #4	; (adr r2, 8007280 <HAL_TIM_PWM_ConfigChannel+0x34>)
 800727c:	f852 f023 	ldr.w	pc, [r2, r3, lsl #2]
 8007280:	080072b5 	.word	0x080072b5
 8007284:	080073b9 	.word	0x080073b9
 8007288:	080073b9 	.word	0x080073b9
 800728c:	080073b9 	.word	0x080073b9
 8007290:	080072f5 	.word	0x080072f5
 8007294:	080073b9 	.word	0x080073b9
 8007298:	080073b9 	.word	0x080073b9
 800729c:	080073b9 	.word	0x080073b9
 80072a0:	08007337 	.word	0x08007337
 80072a4:	080073b9 	.word	0x080073b9
 80072a8:	080073b9 	.word	0x080073b9
 80072ac:	080073b9 	.word	0x080073b9
 80072b0:	08007377 	.word	0x08007377
    {
      /* Check the parameters */
      assert_param(IS_TIM_CC1_INSTANCE(htim->Instance));

      /* Configure the Channel 1 in PWM mode */
      TIM_OC1_SetConfig(htim->Instance, sConfig);
 80072b4:	68fb      	ldr	r3, [r7, #12]
 80072b6:	681b      	ldr	r3, [r3, #0]
 80072b8:	68b9      	ldr	r1, [r7, #8]
 80072ba:	4618      	mov	r0, r3
 80072bc:	f000 f9d6 	bl	800766c <TIM_OC1_SetConfig>

      /* Set the Preload enable bit for channel1 */
      htim->Instance->CCMR1 |= TIM_CCMR1_OC1PE;
 80072c0:	68fb      	ldr	r3, [r7, #12]
 80072c2:	681b      	ldr	r3, [r3, #0]
 80072c4:	699a      	ldr	r2, [r3, #24]
 80072c6:	68fb      	ldr	r3, [r7, #12]
 80072c8:	681b      	ldr	r3, [r3, #0]
 80072ca:	f042 0208 	orr.w	r2, r2, #8
 80072ce:	619a      	str	r2, [r3, #24]

      /* Configure the Output Fast mode */
      htim->Instance->CCMR1 &= ~TIM_CCMR1_OC1FE;
 80072d0:	68fb      	ldr	r3, [r7, #12]
 80072d2:	681b      	ldr	r3, [r3, #0]
 80072d4:	699a      	ldr	r2, [r3, #24]
 80072d6:	68fb      	ldr	r3, [r7, #12]
 80072d8:	681b      	ldr	r3, [r3, #0]
 80072da:	f022 0204 	bic.w	r2, r2, #4
 80072de:	619a      	str	r2, [r3, #24]
      htim->Instance->CCMR1 |= sConfig->OCFastMode;
 80072e0:	68fb      	ldr	r3, [r7, #12]
 80072e2:	681b      	ldr	r3, [r3, #0]
 80072e4:	6999      	ldr	r1, [r3, #24]
 80072e6:	68bb      	ldr	r3, [r7, #8]
 80072e8:	691a      	ldr	r2, [r3, #16]
 80072ea:	68fb      	ldr	r3, [r7, #12]
 80072ec:	681b      	ldr	r3, [r3, #0]
 80072ee:	430a      	orrs	r2, r1
 80072f0:	619a      	str	r2, [r3, #24]
      break;
 80072f2:	e064      	b.n	80073be <HAL_TIM_PWM_ConfigChannel+0x172>
    {
      /* Check the parameters */
      assert_param(IS_TIM_CC2_INSTANCE(htim->Instance));

      /* Configure the Channel 2 in PWM mode */
      TIM_OC2_SetConfig(htim->Instance, sConfig);
 80072f4:	68fb      	ldr	r3, [r7, #12]
 80072f6:	681b      	ldr	r3, [r3, #0]
 80072f8:	68b9      	ldr	r1, [r7, #8]
 80072fa:	4618      	mov	r0, r3
 80072fc:	f000 fa1c 	bl	8007738 <TIM_OC2_SetConfig>

      /* Set the Preload enable bit for channel2 */
      htim->Instance->CCMR1 |= TIM_CCMR1_OC2PE;
 8007300:	68fb      	ldr	r3, [r7, #12]
 8007302:	681b      	ldr	r3, [r3, #0]
 8007304:	699a      	ldr	r2, [r3, #24]
 8007306:	68fb      	ldr	r3, [r7, #12]
 8007308:	681b      	ldr	r3, [r3, #0]
 800730a:	f442 6200 	orr.w	r2, r2, #2048	; 0x800
 800730e:	619a      	str	r2, [r3, #24]

      /* Configure the Output Fast mode */
      htim->Instance->CCMR1 &= ~TIM_CCMR1_OC2FE;
 8007310:	68fb      	ldr	r3, [r7, #12]
 8007312:	681b      	ldr	r3, [r3, #0]
 8007314:	699a      	ldr	r2, [r3, #24]
 8007316:	68fb      	ldr	r3, [r7, #12]
 8007318:	681b      	ldr	r3, [r3, #0]
 800731a:	f422 6280 	bic.w	r2, r2, #1024	; 0x400
 800731e:	619a      	str	r2, [r3, #24]
      htim->Instance->CCMR1 |= sConfig->OCFastMode << 8U;
 8007320:	68fb      	ldr	r3, [r7, #12]
 8007322:	681b      	ldr	r3, [r3, #0]
 8007324:	6999      	ldr	r1, [r3, #24]
 8007326:	68bb      	ldr	r3, [r7, #8]
 8007328:	691b      	ldr	r3, [r3, #16]
 800732a:	021a      	lsls	r2, r3, #8
 800732c:	68fb      	ldr	r3, [r7, #12]
 800732e:	681b      	ldr	r3, [r3, #0]
 8007330:	430a      	orrs	r2, r1
 8007332:	619a      	str	r2, [r3, #24]
      break;
 8007334:	e043      	b.n	80073be <HAL_TIM_PWM_ConfigChannel+0x172>
    {
      /* Check the parameters */
      assert_param(IS_TIM_CC3_INSTANCE(htim->Instance));

      /* Configure the Channel 3 in PWM mode */
      TIM_OC3_SetConfig(htim->Instance, sConfig);
 8007336:	68fb      	ldr	r3, [r7, #12]
 8007338:	681b      	ldr	r3, [r3, #0]
 800733a:	68b9      	ldr	r1, [r7, #8]
 800733c:	4618      	mov	r0, r3
 800733e:	f000 fa65 	bl	800780c <TIM_OC3_SetConfig>

      /* Set the Preload enable bit for channel3 */
      htim->Instance->CCMR2 |= TIM_CCMR2_OC3PE;
 8007342:	68fb      	ldr	r3, [r7, #12]
 8007344:	681b      	ldr	r3, [r3, #0]
 8007346:	69da      	ldr	r2, [r3, #28]
 8007348:	68fb      	ldr	r3, [r7, #12]
 800734a:	681b      	ldr	r3, [r3, #0]
 800734c:	f042 0208 	orr.w	r2, r2, #8
 8007350:	61da      	str	r2, [r3, #28]

      /* Configure the Output Fast mode */
      htim->Instance->CCMR2 &= ~TIM_CCMR2_OC3FE;
 8007352:	68fb      	ldr	r3, [r7, #12]
 8007354:	681b      	ldr	r3, [r3, #0]
 8007356:	69da      	ldr	r2, [r3, #28]
 8007358:	68fb      	ldr	r3, [r7, #12]
 800735a:	681b      	ldr	r3, [r3, #0]
 800735c:	f022 0204 	bic.w	r2, r2, #4
 8007360:	61da      	str	r2, [r3, #28]
      htim->Instance->CCMR2 |= sConfig->OCFastMode;
 8007362:	68fb      	ldr	r3, [r7, #12]
 8007364:	681b      	ldr	r3, [r3, #0]
 8007366:	69d9      	ldr	r1, [r3, #28]
 8007368:	68bb      	ldr	r3, [r7, #8]
 800736a:	691a      	ldr	r2, [r3, #16]
 800736c:	68fb      	ldr	r3, [r7, #12]
 800736e:	681b      	ldr	r3, [r3, #0]
 8007370:	430a      	orrs	r2, r1
 8007372:	61da      	str	r2, [r3, #28]
      break;
 8007374:	e023      	b.n	80073be <HAL_TIM_PWM_ConfigChannel+0x172>
    {
      /* Check the parameters */
      assert_param(IS_TIM_CC4_INSTANCE(htim->Instance));

      /* Configure the Channel 4 in PWM mode */
      TIM_OC4_SetConfig(htim->Instance, sConfig);
 8007376:	68fb      	ldr	r3, [r7, #12]
 8007378:	681b      	ldr	r3, [r3, #0]
 800737a:	68b9      	ldr	r1, [r7, #8]
 800737c:	4618      	mov	r0, r3
 800737e:	f000 faaf 	bl	80078e0 <TIM_OC4_SetConfig>

      /* Set the Preload enable bit for channel4 */
      htim->Instance->CCMR2 |= TIM_CCMR2_OC4PE;
 8007382:	68fb      	ldr	r3, [r7, #12]
 8007384:	681b      	ldr	r3, [r3, #0]
 8007386:	69da      	ldr	r2, [r3, #28]
 8007388:	68fb      	ldr	r3, [r7, #12]
 800738a:	681b      	ldr	r3, [r3, #0]
 800738c:	f442 6200 	orr.w	r2, r2, #2048	; 0x800
 8007390:	61da      	str	r2, [r3, #28]

      /* Configure the Output Fast mode */
      htim->Instance->CCMR2 &= ~TIM_CCMR2_OC4FE;
 8007392:	68fb      	ldr	r3, [r7, #12]
 8007394:	681b      	ldr	r3, [r3, #0]
 8007396:	69da      	ldr	r2, [r3, #28]
 8007398:	68fb      	ldr	r3, [r7, #12]
 800739a:	681b      	ldr	r3, [r3, #0]
 800739c:	f422 6280 	bic.w	r2, r2, #1024	; 0x400
 80073a0:	61da      	str	r2, [r3, #28]
      htim->Instance->CCMR2 |= sConfig->OCFastMode << 8U;
 80073a2:	68fb      	ldr	r3, [r7, #12]
 80073a4:	681b      	ldr	r3, [r3, #0]
 80073a6:	69d9      	ldr	r1, [r3, #28]
 80073a8:	68bb      	ldr	r3, [r7, #8]
 80073aa:	691b      	ldr	r3, [r3, #16]
 80073ac:	021a      	lsls	r2, r3, #8
 80073ae:	68fb      	ldr	r3, [r7, #12]
 80073b0:	681b      	ldr	r3, [r3, #0]
 80073b2:	430a      	orrs	r2, r1
 80073b4:	61da      	str	r2, [r3, #28]
      break;
 80073b6:	e002      	b.n	80073be <HAL_TIM_PWM_ConfigChannel+0x172>
    }

    default:
      status = HAL_ERROR;
 80073b8:	2301      	movs	r3, #1
 80073ba:	75fb      	strb	r3, [r7, #23]
      break;
 80073bc:	bf00      	nop
  }

  __HAL_UNLOCK(htim);
 80073be:	68fb      	ldr	r3, [r7, #12]
 80073c0:	2200      	movs	r2, #0
 80073c2:	f883 203c 	strb.w	r2, [r3, #60]	; 0x3c

  return status;
 80073c6:	7dfb      	ldrb	r3, [r7, #23]
}
 80073c8:	4618      	mov	r0, r3
 80073ca:	3718      	adds	r7, #24
 80073cc:	46bd      	mov	sp, r7
 80073ce:	bd80      	pop	{r7, pc}

080073d0 <HAL_TIM_ConfigClockSource>:
  * @param  sClockSourceConfig pointer to a TIM_ClockConfigTypeDef structure that
  *         contains the clock source information for the TIM peripheral.
  * @retval HAL status
  */
HAL_StatusTypeDef HAL_TIM_ConfigClockSource(TIM_HandleTypeDef *htim, const TIM_ClockConfigTypeDef *sClockSourceConfig)
{
 80073d0:	b580      	push	{r7, lr}
 80073d2:	b084      	sub	sp, #16
 80073d4:	af00      	add	r7, sp, #0
 80073d6:	6078      	str	r0, [r7, #4]
 80073d8:	6039      	str	r1, [r7, #0]
  HAL_StatusTypeDef status = HAL_OK;
 80073da:	2300      	movs	r3, #0
 80073dc:	73fb      	strb	r3, [r7, #15]
  uint32_t tmpsmcr;

  /* Process Locked */
  __HAL_LOCK(htim);
 80073de:	687b      	ldr	r3, [r7, #4]
 80073e0:	f893 303c 	ldrb.w	r3, [r3, #60]	; 0x3c
 80073e4:	2b01      	cmp	r3, #1
 80073e6:	d101      	bne.n	80073ec <HAL_TIM_ConfigClockSource+0x1c>
 80073e8:	2302      	movs	r3, #2
 80073ea:	e0b4      	b.n	8007556 <HAL_TIM_ConfigClockSource+0x186>
 80073ec:	687b      	ldr	r3, [r7, #4]
 80073ee:	2201      	movs	r2, #1
 80073f0:	f883 203c 	strb.w	r2, [r3, #60]	; 0x3c

  htim->State = HAL_TIM_STATE_BUSY;
 80073f4:	687b      	ldr	r3, [r7, #4]
 80073f6:	2202      	movs	r2, #2
 80073f8:	f883 203d 	strb.w	r2, [r3, #61]	; 0x3d

  /* Check the parameters */
  assert_param(IS_TIM_CLOCKSOURCE(sClockSourceConfig->ClockSource));

  /* Reset the SMS, TS, ECE, ETPS and ETRF bits */
  tmpsmcr = htim->Instance->SMCR;
 80073fc:	687b      	ldr	r3, [r7, #4]
 80073fe:	681b      	ldr	r3, [r3, #0]
 8007400:	689b      	ldr	r3, [r3, #8]
 8007402:	60bb      	str	r3, [r7, #8]
  tmpsmcr &= ~(TIM_SMCR_SMS | TIM_SMCR_TS);
 8007404:	68bb      	ldr	r3, [r7, #8]
 8007406:	f023 0377 	bic.w	r3, r3, #119	; 0x77
 800740a:	60bb      	str	r3, [r7, #8]
  tmpsmcr &= ~(TIM_SMCR_ETF | TIM_SMCR_ETPS | TIM_SMCR_ECE | TIM_SMCR_ETP);
 800740c:	68bb      	ldr	r3, [r7, #8]
 800740e:	f423 437f 	bic.w	r3, r3, #65280	; 0xff00
 8007412:	60bb      	str	r3, [r7, #8]
  htim->Instance->SMCR = tmpsmcr;
 8007414:	687b      	ldr	r3, [r7, #4]
 8007416:	681b      	ldr	r3, [r3, #0]
 8007418:	68ba      	ldr	r2, [r7, #8]
 800741a:	609a      	str	r2, [r3, #8]

  switch (sClockSourceConfig->ClockSource)
 800741c:	683b      	ldr	r3, [r7, #0]
 800741e:	681b      	ldr	r3, [r3, #0]
 8007420:	f5b3 5f00 	cmp.w	r3, #8192	; 0x2000
 8007424:	d03e      	beq.n	80074a4 <HAL_TIM_ConfigClockSource+0xd4>
 8007426:	f5b3 5f00 	cmp.w	r3, #8192	; 0x2000
 800742a:	f200 8087 	bhi.w	800753c <HAL_TIM_ConfigClockSource+0x16c>
 800742e:	f5b3 5f80 	cmp.w	r3, #4096	; 0x1000
 8007432:	f000 8086 	beq.w	8007542 <HAL_TIM_ConfigClockSource+0x172>
 8007436:	f5b3 5f80 	cmp.w	r3, #4096	; 0x1000
 800743a:	d87f      	bhi.n	800753c <HAL_TIM_ConfigClockSource+0x16c>
 800743c:	2b70      	cmp	r3, #112	; 0x70
 800743e:	d01a      	beq.n	8007476 <HAL_TIM_ConfigClockSource+0xa6>
 8007440:	2b70      	cmp	r3, #112	; 0x70
 8007442:	d87b      	bhi.n	800753c <HAL_TIM_ConfigClockSource+0x16c>
 8007444:	2b60      	cmp	r3, #96	; 0x60
 8007446:	d050      	beq.n	80074ea <HAL_TIM_ConfigClockSource+0x11a>
 8007448:	2b60      	cmp	r3, #96	; 0x60
 800744a:	d877      	bhi.n	800753c <HAL_TIM_ConfigClockSource+0x16c>
 800744c:	2b50      	cmp	r3, #80	; 0x50
 800744e:	d03c      	beq.n	80074ca <HAL_TIM_ConfigClockSource+0xfa>
 8007450:	2b50      	cmp	r3, #80	; 0x50
 8007452:	d873      	bhi.n	800753c <HAL_TIM_ConfigClockSource+0x16c>
 8007454:	2b40      	cmp	r3, #64	; 0x40
 8007456:	d058      	beq.n	800750a <HAL_TIM_ConfigClockSource+0x13a>
 8007458:	2b40      	cmp	r3, #64	; 0x40
 800745a:	d86f      	bhi.n	800753c <HAL_TIM_ConfigClockSource+0x16c>
 800745c:	2b30      	cmp	r3, #48	; 0x30
 800745e:	d064      	beq.n	800752a <HAL_TIM_ConfigClockSource+0x15a>
 8007460:	2b30      	cmp	r3, #48	; 0x30
 8007462:	d86b      	bhi.n	800753c <HAL_TIM_ConfigClockSource+0x16c>
 8007464:	2b20      	cmp	r3, #32
 8007466:	d060      	beq.n	800752a <HAL_TIM_ConfigClockSource+0x15a>
 8007468:	2b20      	cmp	r3, #32
 800746a:	d867      	bhi.n	800753c <HAL_TIM_ConfigClockSource+0x16c>
 800746c:	2b00      	cmp	r3, #0
 800746e:	d05c      	beq.n	800752a <HAL_TIM_ConfigClockSource+0x15a>
 8007470:	2b10      	cmp	r3, #16
 8007472:	d05a      	beq.n	800752a <HAL_TIM_ConfigClockSource+0x15a>
 8007474:	e062      	b.n	800753c <HAL_TIM_ConfigClockSource+0x16c>
      assert_param(IS_TIM_CLOCKPRESCALER(sClockSourceConfig->ClockPrescaler));
      assert_param(IS_TIM_CLOCKPOLARITY(sClockSourceConfig->ClockPolarity));
      assert_param(IS_TIM_CLOCKFILTER(sClockSourceConfig->ClockFilter));

      /* Configure the ETR Clock source */
      TIM_ETR_SetConfig(htim->Instance,
 8007476:	687b      	ldr	r3, [r7, #4]
 8007478:	6818      	ldr	r0, [r3, #0]
                        sClockSourceConfig->ClockPrescaler,
 800747a:	683b      	ldr	r3, [r7, #0]
 800747c:	6899      	ldr	r1, [r3, #8]
                        sClockSourceConfig->ClockPolarity,
 800747e:	683b      	ldr	r3, [r7, #0]
 8007480:	685a      	ldr	r2, [r3, #4]
                        sClockSourceConfig->ClockFilter);
 8007482:	683b      	ldr	r3, [r7, #0]
 8007484:	68db      	ldr	r3, [r3, #12]
      TIM_ETR_SetConfig(htim->Instance,
 8007486:	f000 faf0 	bl	8007a6a <TIM_ETR_SetConfig>

      /* Select the External clock mode1 and the ETRF trigger */
      tmpsmcr = htim->Instance->SMCR;
 800748a:	687b      	ldr	r3, [r7, #4]
 800748c:	681b      	ldr	r3, [r3, #0]
 800748e:	689b      	ldr	r3, [r3, #8]
 8007490:	60bb      	str	r3, [r7, #8]
      tmpsmcr |= (TIM_SLAVEMODE_EXTERNAL1 | TIM_CLOCKSOURCE_ETRMODE1);
 8007492:	68bb      	ldr	r3, [r7, #8]
 8007494:	f043 0377 	orr.w	r3, r3, #119	; 0x77
 8007498:	60bb      	str	r3, [r7, #8]
      /* Write to TIMx SMCR */
      htim->Instance->SMCR = tmpsmcr;
 800749a:	687b      	ldr	r3, [r7, #4]
 800749c:	681b      	ldr	r3, [r3, #0]
 800749e:	68ba      	ldr	r2, [r7, #8]
 80074a0:	609a      	str	r2, [r3, #8]
      break;
 80074a2:	e04f      	b.n	8007544 <HAL_TIM_ConfigClockSource+0x174>
      assert_param(IS_TIM_CLOCKPRESCALER(sClockSourceConfig->ClockPrescaler));
      assert_param(IS_TIM_CLOCKPOLARITY(sClockSourceConfig->ClockPolarity));
      assert_param(IS_TIM_CLOCKFILTER(sClockSourceConfig->ClockFilter));

      /* Configure the ETR Clock source */
      TIM_ETR_SetConfig(htim->Instance,
 80074a4:	687b      	ldr	r3, [r7, #4]
 80074a6:	6818      	ldr	r0, [r3, #0]
                        sClockSourceConfig->ClockPrescaler,
 80074a8:	683b      	ldr	r3, [r7, #0]
 80074aa:	6899      	ldr	r1, [r3, #8]
                        sClockSourceConfig->ClockPolarity,
 80074ac:	683b      	ldr	r3, [r7, #0]
 80074ae:	685a      	ldr	r2, [r3, #4]
                        sClockSourceConfig->ClockFilter);
 80074b0:	683b      	ldr	r3, [r7, #0]
 80074b2:	68db      	ldr	r3, [r3, #12]
      TIM_ETR_SetConfig(htim->Instance,
 80074b4:	f000 fad9 	bl	8007a6a <TIM_ETR_SetConfig>
      /* Enable the External clock mode2 */
      htim->Instance->SMCR |= TIM_SMCR_ECE;
 80074b8:	687b      	ldr	r3, [r7, #4]
 80074ba:	681b      	ldr	r3, [r3, #0]
 80074bc:	689a      	ldr	r2, [r3, #8]
 80074be:	687b      	ldr	r3, [r7, #4]
 80074c0:	681b      	ldr	r3, [r3, #0]
 80074c2:	f442 4280 	orr.w	r2, r2, #16384	; 0x4000
 80074c6:	609a      	str	r2, [r3, #8]
      break;
 80074c8:	e03c      	b.n	8007544 <HAL_TIM_ConfigClockSource+0x174>

      /* Check TI1 input conditioning related parameters */
      assert_param(IS_TIM_CLOCKPOLARITY(sClockSourceConfig->ClockPolarity));
      assert_param(IS_TIM_CLOCKFILTER(sClockSourceConfig->ClockFilter));

      TIM_TI1_ConfigInputStage(htim->Instance,
 80074ca:	687b      	ldr	r3, [r7, #4]
 80074cc:	6818      	ldr	r0, [r3, #0]
                               sClockSourceConfig->ClockPolarity,
 80074ce:	683b      	ldr	r3, [r7, #0]
 80074d0:	6859      	ldr	r1, [r3, #4]
                               sClockSourceConfig->ClockFilter);
 80074d2:	683b      	ldr	r3, [r7, #0]
 80074d4:	68db      	ldr	r3, [r3, #12]
      TIM_TI1_ConfigInputStage(htim->Instance,
 80074d6:	461a      	mov	r2, r3
 80074d8:	f000 fa50 	bl	800797c <TIM_TI1_ConfigInputStage>
      TIM_ITRx_SetConfig(htim->Instance, TIM_CLOCKSOURCE_TI1);
 80074dc:	687b      	ldr	r3, [r7, #4]
 80074de:	681b      	ldr	r3, [r3, #0]
 80074e0:	2150      	movs	r1, #80	; 0x50
 80074e2:	4618      	mov	r0, r3
 80074e4:	f000 faa7 	bl	8007a36 <TIM_ITRx_SetConfig>
      break;
 80074e8:	e02c      	b.n	8007544 <HAL_TIM_ConfigClockSource+0x174>

      /* Check TI2 input conditioning related parameters */
      assert_param(IS_TIM_CLOCKPOLARITY(sClockSourceConfig->ClockPolarity));
      assert_param(IS_TIM_CLOCKFILTER(sClockSourceConfig->ClockFilter));

      TIM_TI2_ConfigInputStage(htim->Instance,
 80074ea:	687b      	ldr	r3, [r7, #4]
 80074ec:	6818      	ldr	r0, [r3, #0]
                               sClockSourceConfig->ClockPolarity,
 80074ee:	683b      	ldr	r3, [r7, #0]
 80074f0:	6859      	ldr	r1, [r3, #4]
                               sClockSourceConfig->ClockFilter);
 80074f2:	683b      	ldr	r3, [r7, #0]
 80074f4:	68db      	ldr	r3, [r3, #12]
      TIM_TI2_ConfigInputStage(htim->Instance,
 80074f6:	461a      	mov	r2, r3
 80074f8:	f000 fa6e 	bl	80079d8 <TIM_TI2_ConfigInputStage>
      TIM_ITRx_SetConfig(htim->Instance, TIM_CLOCKSOURCE_TI2);
 80074fc:	687b      	ldr	r3, [r7, #4]
 80074fe:	681b      	ldr	r3, [r3, #0]
 8007500:	2160      	movs	r1, #96	; 0x60
 8007502:	4618      	mov	r0, r3
 8007504:	f000 fa97 	bl	8007a36 <TIM_ITRx_SetConfig>
      break;
 8007508:	e01c      	b.n	8007544 <HAL_TIM_ConfigClockSource+0x174>

      /* Check TI1 input conditioning related parameters */
      assert_param(IS_TIM_CLOCKPOLARITY(sClockSourceConfig->ClockPolarity));
      assert_param(IS_TIM_CLOCKFILTER(sClockSourceConfig->ClockFilter));

      TIM_TI1_ConfigInputStage(htim->Instance,
 800750a:	687b      	ldr	r3, [r7, #4]
 800750c:	6818      	ldr	r0, [r3, #0]
                               sClockSourceConfig->ClockPolarity,
 800750e:	683b      	ldr	r3, [r7, #0]
 8007510:	6859      	ldr	r1, [r3, #4]
                               sClockSourceConfig->ClockFilter);
 8007512:	683b      	ldr	r3, [r7, #0]
 8007514:	68db      	ldr	r3, [r3, #12]
      TIM_TI1_ConfigInputStage(htim->Instance,
 8007516:	461a      	mov	r2, r3
 8007518:	f000 fa30 	bl	800797c <TIM_TI1_ConfigInputStage>
      TIM_ITRx_SetConfig(htim->Instance, TIM_CLOCKSOURCE_TI1ED);
 800751c:	687b      	ldr	r3, [r7, #4]
 800751e:	681b      	ldr	r3, [r3, #0]
 8007520:	2140      	movs	r1, #64	; 0x40
 8007522:	4618      	mov	r0, r3
 8007524:	f000 fa87 	bl	8007a36 <TIM_ITRx_SetConfig>
      break;
 8007528:	e00c      	b.n	8007544 <HAL_TIM_ConfigClockSource+0x174>
    case TIM_CLOCKSOURCE_ITR3:
    {
      /* Check whether or not the timer instance supports internal trigger input */
      assert_param(IS_TIM_CLOCKSOURCE_ITRX_INSTANCE(htim->Instance));

      TIM_ITRx_SetConfig(htim->Instance, sClockSourceConfig->ClockSource);
 800752a:	687b      	ldr	r3, [r7, #4]
 800752c:	681a      	ldr	r2, [r3, #0]
 800752e:	683b      	ldr	r3, [r7, #0]
 8007530:	681b      	ldr	r3, [r3, #0]
 8007532:	4619      	mov	r1, r3
 8007534:	4610      	mov	r0, r2
 8007536:	f000 fa7e 	bl	8007a36 <TIM_ITRx_SetConfig>
      break;
 800753a:	e003      	b.n	8007544 <HAL_TIM_ConfigClockSource+0x174>
    }

    default:
      status = HAL_ERROR;
 800753c:	2301      	movs	r3, #1
 800753e:	73fb      	strb	r3, [r7, #15]
      break;
 8007540:	e000      	b.n	8007544 <HAL_TIM_ConfigClockSource+0x174>
      break;
 8007542:	bf00      	nop
  }
  htim->State = HAL_TIM_STATE_READY;
 8007544:	687b      	ldr	r3, [r7, #4]
 8007546:	2201      	movs	r2, #1
 8007548:	f883 203d 	strb.w	r2, [r3, #61]	; 0x3d

  __HAL_UNLOCK(htim);
 800754c:	687b      	ldr	r3, [r7, #4]
 800754e:	2200      	movs	r2, #0
 8007550:	f883 203c 	strb.w	r2, [r3, #60]	; 0x3c

  return status;
 8007554:	7bfb      	ldrb	r3, [r7, #15]
}
 8007556:	4618      	mov	r0, r3
 8007558:	3710      	adds	r7, #16
 800755a:	46bd      	mov	sp, r7
 800755c:	bd80      	pop	{r7, pc}

0800755e <HAL_TIM_OC_DelayElapsedCallback>:
  * @brief  Output Compare callback in non-blocking mode
  * @param  htim TIM OC handle
  * @retval None
  */
__weak void HAL_TIM_OC_DelayElapsedCallback(TIM_HandleTypeDef *htim)
{
 800755e:	b480      	push	{r7}
 8007560:	b083      	sub	sp, #12
 8007562:	af00      	add	r7, sp, #0
 8007564:	6078      	str	r0, [r7, #4]
  UNUSED(htim);

  /* NOTE : This function should not be modified, when the callback is needed,
            the HAL_TIM_OC_DelayElapsedCallback could be implemented in the user file
   */
}
 8007566:	bf00      	nop
 8007568:	370c      	adds	r7, #12
 800756a:	46bd      	mov	sp, r7
 800756c:	bc80      	pop	{r7}
 800756e:	4770      	bx	lr

08007570 <HAL_TIM_IC_CaptureCallback>:
  * @brief  Input Capture callback in non-blocking mode
  * @param  htim TIM IC handle
  * @retval None
  */
__weak void HAL_TIM_IC_CaptureCallback(TIM_HandleTypeDef *htim)
{
 8007570:	b480      	push	{r7}
 8007572:	b083      	sub	sp, #12
 8007574:	af00      	add	r7, sp, #0
 8007576:	6078      	str	r0, [r7, #4]
  UNUSED(htim);

  /* NOTE : This function should not be modified, when the callback is needed,
            the HAL_TIM_IC_CaptureCallback could be implemented in the user file
   */
}
 8007578:	bf00      	nop
 800757a:	370c      	adds	r7, #12
 800757c:	46bd      	mov	sp, r7
 800757e:	bc80      	pop	{r7}
 8007580:	4770      	bx	lr

08007582 <HAL_TIM_PWM_PulseFinishedCallback>:
  * @brief  PWM Pulse finished callback in non-blocking mode
  * @param  htim TIM handle
  * @retval None
  */
__weak void HAL_TIM_PWM_PulseFinishedCallback(TIM_HandleTypeDef *htim)
{
 8007582:	b480      	push	{r7}
 8007584:	b083      	sub	sp, #12
 8007586:	af00      	add	r7, sp, #0
 8007588:	6078      	str	r0, [r7, #4]
  UNUSED(htim);

  /* NOTE : This function should not be modified, when the callback is needed,
            the HAL_TIM_PWM_PulseFinishedCallback could be implemented in the user file
   */
}
 800758a:	bf00      	nop
 800758c:	370c      	adds	r7, #12
 800758e:	46bd      	mov	sp, r7
 8007590:	bc80      	pop	{r7}
 8007592:	4770      	bx	lr

08007594 <HAL_TIM_TriggerCallback>:
  * @brief  Hall Trigger detection callback in non-blocking mode
  * @param  htim TIM handle
  * @retval None
  */
__weak void HAL_TIM_TriggerCallback(TIM_HandleTypeDef *htim)
{
 8007594:	b480      	push	{r7}
 8007596:	b083      	sub	sp, #12
 8007598:	af00      	add	r7, sp, #0
 800759a:	6078      	str	r0, [r7, #4]
  UNUSED(htim);

  /* NOTE : This function should not be modified, when the callback is needed,
            the HAL_TIM_TriggerCallback could be implemented in the user file
   */
}
 800759c:	bf00      	nop
 800759e:	370c      	adds	r7, #12
 80075a0:	46bd      	mov	sp, r7
 80075a2:	bc80      	pop	{r7}
 80075a4:	4770      	bx	lr
	...

080075a8 <TIM_Base_SetConfig>:
  * @param  TIMx TIM peripheral
  * @param  Structure TIM Base configuration structure
  * @retval None
  */
void TIM_Base_SetConfig(TIM_TypeDef *TIMx, const TIM_Base_InitTypeDef *Structure)
{
 80075a8:	b480      	push	{r7}
 80075aa:	b085      	sub	sp, #20
 80075ac:	af00      	add	r7, sp, #0
 80075ae:	6078      	str	r0, [r7, #4]
 80075b0:	6039      	str	r1, [r7, #0]
  uint32_t tmpcr1;
  tmpcr1 = TIMx->CR1;
 80075b2:	687b      	ldr	r3, [r7, #4]
 80075b4:	681b      	ldr	r3, [r3, #0]
 80075b6:	60fb      	str	r3, [r7, #12]

  /* Set TIM Time Base Unit parameters ---------------------------------------*/
  if (IS_TIM_COUNTER_MODE_SELECT_INSTANCE(TIMx))
 80075b8:	687b      	ldr	r3, [r7, #4]
 80075ba:	4a29      	ldr	r2, [pc, #164]	; (8007660 <TIM_Base_SetConfig+0xb8>)
 80075bc:	4293      	cmp	r3, r2
 80075be:	d00b      	beq.n	80075d8 <TIM_Base_SetConfig+0x30>
 80075c0:	687b      	ldr	r3, [r7, #4]
 80075c2:	f1b3 4f80 	cmp.w	r3, #1073741824	; 0x40000000
 80075c6:	d007      	beq.n	80075d8 <TIM_Base_SetConfig+0x30>
 80075c8:	687b      	ldr	r3, [r7, #4]
 80075ca:	4a26      	ldr	r2, [pc, #152]	; (8007664 <TIM_Base_SetConfig+0xbc>)
 80075cc:	4293      	cmp	r3, r2
 80075ce:	d003      	beq.n	80075d8 <TIM_Base_SetConfig+0x30>
 80075d0:	687b      	ldr	r3, [r7, #4]
 80075d2:	4a25      	ldr	r2, [pc, #148]	; (8007668 <TIM_Base_SetConfig+0xc0>)
 80075d4:	4293      	cmp	r3, r2
 80075d6:	d108      	bne.n	80075ea <TIM_Base_SetConfig+0x42>
  {
    /* Select the Counter Mode */
    tmpcr1 &= ~(TIM_CR1_DIR | TIM_CR1_CMS);
 80075d8:	68fb      	ldr	r3, [r7, #12]
 80075da:	f023 0370 	bic.w	r3, r3, #112	; 0x70
 80075de:	60fb      	str	r3, [r7, #12]
    tmpcr1 |= Structure->CounterMode;
 80075e0:	683b      	ldr	r3, [r7, #0]
 80075e2:	685b      	ldr	r3, [r3, #4]
 80075e4:	68fa      	ldr	r2, [r7, #12]
 80075e6:	4313      	orrs	r3, r2
 80075e8:	60fb      	str	r3, [r7, #12]
  }

  if (IS_TIM_CLOCK_DIVISION_INSTANCE(TIMx))
 80075ea:	687b      	ldr	r3, [r7, #4]
 80075ec:	4a1c      	ldr	r2, [pc, #112]	; (8007660 <TIM_Base_SetConfig+0xb8>)
 80075ee:	4293      	cmp	r3, r2
 80075f0:	d00b      	beq.n	800760a <TIM_Base_SetConfig+0x62>
 80075f2:	687b      	ldr	r3, [r7, #4]
 80075f4:	f1b3 4f80 	cmp.w	r3, #1073741824	; 0x40000000
 80075f8:	d007      	beq.n	800760a <TIM_Base_SetConfig+0x62>
 80075fa:	687b      	ldr	r3, [r7, #4]
 80075fc:	4a19      	ldr	r2, [pc, #100]	; (8007664 <TIM_Base_SetConfig+0xbc>)
 80075fe:	4293      	cmp	r3, r2
 8007600:	d003      	beq.n	800760a <TIM_Base_SetConfig+0x62>
 8007602:	687b      	ldr	r3, [r7, #4]
 8007604:	4a18      	ldr	r2, [pc, #96]	; (8007668 <TIM_Base_SetConfig+0xc0>)
 8007606:	4293      	cmp	r3, r2
 8007608:	d108      	bne.n	800761c <TIM_Base_SetConfig+0x74>
  {
    /* Set the clock division */
    tmpcr1 &= ~TIM_CR1_CKD;
 800760a:	68fb      	ldr	r3, [r7, #12]
 800760c:	f423 7340 	bic.w	r3, r3, #768	; 0x300
 8007610:	60fb      	str	r3, [r7, #12]
    tmpcr1 |= (uint32_t)Structure->ClockDivision;
 8007612:	683b      	ldr	r3, [r7, #0]
 8007614:	68db      	ldr	r3, [r3, #12]
 8007616:	68fa      	ldr	r2, [r7, #12]
 8007618:	4313      	orrs	r3, r2
 800761a:	60fb      	str	r3, [r7, #12]
  }

  /* Set the auto-reload preload */
  MODIFY_REG(tmpcr1, TIM_CR1_ARPE, Structure->AutoReloadPreload);
 800761c:	68fb      	ldr	r3, [r7, #12]
 800761e:	f023 0280 	bic.w	r2, r3, #128	; 0x80
 8007622:	683b      	ldr	r3, [r7, #0]
 8007624:	695b      	ldr	r3, [r3, #20]
 8007626:	4313      	orrs	r3, r2
 8007628:	60fb      	str	r3, [r7, #12]

  TIMx->CR1 = tmpcr1;
 800762a:	687b      	ldr	r3, [r7, #4]
 800762c:	68fa      	ldr	r2, [r7, #12]
 800762e:	601a      	str	r2, [r3, #0]

  /* Set the Autoreload value */
  TIMx->ARR = (uint32_t)Structure->Period ;
 8007630:	683b      	ldr	r3, [r7, #0]
 8007632:	689a      	ldr	r2, [r3, #8]
 8007634:	687b      	ldr	r3, [r7, #4]
 8007636:	62da      	str	r2, [r3, #44]	; 0x2c

  /* Set the Prescaler value */
  TIMx->PSC = Structure->Prescaler;
 8007638:	683b      	ldr	r3, [r7, #0]
 800763a:	681a      	ldr	r2, [r3, #0]
 800763c:	687b      	ldr	r3, [r7, #4]
 800763e:	629a      	str	r2, [r3, #40]	; 0x28

  if (IS_TIM_REPETITION_COUNTER_INSTANCE(TIMx))
 8007640:	687b      	ldr	r3, [r7, #4]
 8007642:	4a07      	ldr	r2, [pc, #28]	; (8007660 <TIM_Base_SetConfig+0xb8>)
 8007644:	4293      	cmp	r3, r2
 8007646:	d103      	bne.n	8007650 <TIM_Base_SetConfig+0xa8>
  {
    /* Set the Repetition Counter value */
    TIMx->RCR = Structure->RepetitionCounter;
 8007648:	683b      	ldr	r3, [r7, #0]
 800764a:	691a      	ldr	r2, [r3, #16]
 800764c:	687b      	ldr	r3, [r7, #4]
 800764e:	631a      	str	r2, [r3, #48]	; 0x30
  }

  /* Generate an update event to reload the Prescaler
     and the repetition counter (only for advanced timer) value immediately */
  TIMx->EGR = TIM_EGR_UG;
 8007650:	687b      	ldr	r3, [r7, #4]
 8007652:	2201      	movs	r2, #1
 8007654:	615a      	str	r2, [r3, #20]
}
 8007656:	bf00      	nop
 8007658:	3714      	adds	r7, #20
 800765a:	46bd      	mov	sp, r7
 800765c:	bc80      	pop	{r7}
 800765e:	4770      	bx	lr
 8007660:	40012c00 	.word	0x40012c00
 8007664:	40000400 	.word	0x40000400
 8007668:	40000800 	.word	0x40000800

0800766c <TIM_OC1_SetConfig>:
  * @param  TIMx to select the TIM peripheral
  * @param  OC_Config The output configuration structure
  * @retval None
  */
static void TIM_OC1_SetConfig(TIM_TypeDef *TIMx, const TIM_OC_InitTypeDef *OC_Config)
{
 800766c:	b480      	push	{r7}
 800766e:	b087      	sub	sp, #28
 8007670:	af00      	add	r7, sp, #0
 8007672:	6078      	str	r0, [r7, #4]
 8007674:	6039      	str	r1, [r7, #0]
  uint32_t tmpccmrx;
  uint32_t tmpccer;
  uint32_t tmpcr2;

  /* Get the TIMx CCER register value */
  tmpccer = TIMx->CCER;
 8007676:	687b      	ldr	r3, [r7, #4]
 8007678:	6a1b      	ldr	r3, [r3, #32]
 800767a:	617b      	str	r3, [r7, #20]

  /* Disable the Channel 1: Reset the CC1E Bit */
  TIMx->CCER &= ~TIM_CCER_CC1E;
 800767c:	687b      	ldr	r3, [r7, #4]
 800767e:	6a1b      	ldr	r3, [r3, #32]
 8007680:	f023 0201 	bic.w	r2, r3, #1
 8007684:	687b      	ldr	r3, [r7, #4]
 8007686:	621a      	str	r2, [r3, #32]

  /* Get the TIMx CR2 register value */
  tmpcr2 =  TIMx->CR2;
 8007688:	687b      	ldr	r3, [r7, #4]
 800768a:	685b      	ldr	r3, [r3, #4]
 800768c:	613b      	str	r3, [r7, #16]

  /* Get the TIMx CCMR1 register value */
  tmpccmrx = TIMx->CCMR1;
 800768e:	687b      	ldr	r3, [r7, #4]
 8007690:	699b      	ldr	r3, [r3, #24]
 8007692:	60fb      	str	r3, [r7, #12]

  /* Reset the Output Compare Mode Bits */
  tmpccmrx &= ~TIM_CCMR1_OC1M;
 8007694:	68fb      	ldr	r3, [r7, #12]
 8007696:	f023 0370 	bic.w	r3, r3, #112	; 0x70
 800769a:	60fb      	str	r3, [r7, #12]
  tmpccmrx &= ~TIM_CCMR1_CC1S;
 800769c:	68fb      	ldr	r3, [r7, #12]
 800769e:	f023 0303 	bic.w	r3, r3, #3
 80076a2:	60fb      	str	r3, [r7, #12]
  /* Select the Output Compare Mode */
  tmpccmrx |= OC_Config->OCMode;
 80076a4:	683b      	ldr	r3, [r7, #0]
 80076a6:	681b      	ldr	r3, [r3, #0]
 80076a8:	68fa      	ldr	r2, [r7, #12]
 80076aa:	4313      	orrs	r3, r2
 80076ac:	60fb      	str	r3, [r7, #12]

  /* Reset the Output Polarity level */
  tmpccer &= ~TIM_CCER_CC1P;
 80076ae:	697b      	ldr	r3, [r7, #20]
 80076b0:	f023 0302 	bic.w	r3, r3, #2
 80076b4:	617b      	str	r3, [r7, #20]
  /* Set the Output Compare Polarity */
  tmpccer |= OC_Config->OCPolarity;
 80076b6:	683b      	ldr	r3, [r7, #0]
 80076b8:	689b      	ldr	r3, [r3, #8]
 80076ba:	697a      	ldr	r2, [r7, #20]
 80076bc:	4313      	orrs	r3, r2
 80076be:	617b      	str	r3, [r7, #20]

  if (IS_TIM_CCXN_INSTANCE(TIMx, TIM_CHANNEL_1))
 80076c0:	687b      	ldr	r3, [r7, #4]
 80076c2:	4a1c      	ldr	r2, [pc, #112]	; (8007734 <TIM_OC1_SetConfig+0xc8>)
 80076c4:	4293      	cmp	r3, r2
 80076c6:	d10c      	bne.n	80076e2 <TIM_OC1_SetConfig+0x76>
  {
    /* Check parameters */
    assert_param(IS_TIM_OCN_POLARITY(OC_Config->OCNPolarity));

    /* Reset the Output N Polarity level */
    tmpccer &= ~TIM_CCER_CC1NP;
 80076c8:	697b      	ldr	r3, [r7, #20]
 80076ca:	f023 0308 	bic.w	r3, r3, #8
 80076ce:	617b      	str	r3, [r7, #20]
    /* Set the Output N Polarity */
    tmpccer |= OC_Config->OCNPolarity;
 80076d0:	683b      	ldr	r3, [r7, #0]
 80076d2:	68db      	ldr	r3, [r3, #12]
 80076d4:	697a      	ldr	r2, [r7, #20]
 80076d6:	4313      	orrs	r3, r2
 80076d8:	617b      	str	r3, [r7, #20]
    /* Reset the Output N State */
    tmpccer &= ~TIM_CCER_CC1NE;
 80076da:	697b      	ldr	r3, [r7, #20]
 80076dc:	f023 0304 	bic.w	r3, r3, #4
 80076e0:	617b      	str	r3, [r7, #20]
  }

  if (IS_TIM_BREAK_INSTANCE(TIMx))
 80076e2:	687b      	ldr	r3, [r7, #4]
 80076e4:	4a13      	ldr	r2, [pc, #76]	; (8007734 <TIM_OC1_SetConfig+0xc8>)
 80076e6:	4293      	cmp	r3, r2
 80076e8:	d111      	bne.n	800770e <TIM_OC1_SetConfig+0xa2>
    /* Check parameters */
    assert_param(IS_TIM_OCNIDLE_STATE(OC_Config->OCNIdleState));
    assert_param(IS_TIM_OCIDLE_STATE(OC_Config->OCIdleState));

    /* Reset the Output Compare and Output Compare N IDLE State */
    tmpcr2 &= ~TIM_CR2_OIS1;
 80076ea:	693b      	ldr	r3, [r7, #16]
 80076ec:	f423 7380 	bic.w	r3, r3, #256	; 0x100
 80076f0:	613b      	str	r3, [r7, #16]
    tmpcr2 &= ~TIM_CR2_OIS1N;
 80076f2:	693b      	ldr	r3, [r7, #16]
 80076f4:	f423 7300 	bic.w	r3, r3, #512	; 0x200
 80076f8:	613b      	str	r3, [r7, #16]
    /* Set the Output Idle state */
    tmpcr2 |= OC_Config->OCIdleState;
 80076fa:	683b      	ldr	r3, [r7, #0]
 80076fc:	695b      	ldr	r3, [r3, #20]
 80076fe:	693a      	ldr	r2, [r7, #16]
 8007700:	4313      	orrs	r3, r2
 8007702:	613b      	str	r3, [r7, #16]
    /* Set the Output N Idle state */
    tmpcr2 |= OC_Config->OCNIdleState;
 8007704:	683b      	ldr	r3, [r7, #0]
 8007706:	699b      	ldr	r3, [r3, #24]
 8007708:	693a      	ldr	r2, [r7, #16]
 800770a:	4313      	orrs	r3, r2
 800770c:	613b      	str	r3, [r7, #16]
  }

  /* Write to TIMx CR2 */
  TIMx->CR2 = tmpcr2;
 800770e:	687b      	ldr	r3, [r7, #4]
 8007710:	693a      	ldr	r2, [r7, #16]
 8007712:	605a      	str	r2, [r3, #4]

  /* Write to TIMx CCMR1 */
  TIMx->CCMR1 = tmpccmrx;
 8007714:	687b      	ldr	r3, [r7, #4]
 8007716:	68fa      	ldr	r2, [r7, #12]
 8007718:	619a      	str	r2, [r3, #24]

  /* Set the Capture Compare Register value */
  TIMx->CCR1 = OC_Config->Pulse;
 800771a:	683b      	ldr	r3, [r7, #0]
 800771c:	685a      	ldr	r2, [r3, #4]
 800771e:	687b      	ldr	r3, [r7, #4]
 8007720:	635a      	str	r2, [r3, #52]	; 0x34

  /* Write to TIMx CCER */
  TIMx->CCER = tmpccer;
 8007722:	687b      	ldr	r3, [r7, #4]
 8007724:	697a      	ldr	r2, [r7, #20]
 8007726:	621a      	str	r2, [r3, #32]
}
 8007728:	bf00      	nop
 800772a:	371c      	adds	r7, #28
 800772c:	46bd      	mov	sp, r7
 800772e:	bc80      	pop	{r7}
 8007730:	4770      	bx	lr
 8007732:	bf00      	nop
 8007734:	40012c00 	.word	0x40012c00

08007738 <TIM_OC2_SetConfig>:
  * @param  TIMx to select the TIM peripheral
  * @param  OC_Config The output configuration structure
  * @retval None
  */
void TIM_OC2_SetConfig(TIM_TypeDef *TIMx, const TIM_OC_InitTypeDef *OC_Config)
{
 8007738:	b480      	push	{r7}
 800773a:	b087      	sub	sp, #28
 800773c:	af00      	add	r7, sp, #0
 800773e:	6078      	str	r0, [r7, #4]
 8007740:	6039      	str	r1, [r7, #0]
  uint32_t tmpccmrx;
  uint32_t tmpccer;
  uint32_t tmpcr2;

  /* Get the TIMx CCER register value */
  tmpccer = TIMx->CCER;
 8007742:	687b      	ldr	r3, [r7, #4]
 8007744:	6a1b      	ldr	r3, [r3, #32]
 8007746:	617b      	str	r3, [r7, #20]

  /* Disable the Channel 2: Reset the CC2E Bit */
  TIMx->CCER &= ~TIM_CCER_CC2E;
 8007748:	687b      	ldr	r3, [r7, #4]
 800774a:	6a1b      	ldr	r3, [r3, #32]
 800774c:	f023 0210 	bic.w	r2, r3, #16
 8007750:	687b      	ldr	r3, [r7, #4]
 8007752:	621a      	str	r2, [r3, #32]

  /* Get the TIMx CR2 register value */
  tmpcr2 =  TIMx->CR2;
 8007754:	687b      	ldr	r3, [r7, #4]
 8007756:	685b      	ldr	r3, [r3, #4]
 8007758:	613b      	str	r3, [r7, #16]

  /* Get the TIMx CCMR1 register value */
  tmpccmrx = TIMx->CCMR1;
 800775a:	687b      	ldr	r3, [r7, #4]
 800775c:	699b      	ldr	r3, [r3, #24]
 800775e:	60fb      	str	r3, [r7, #12]

  /* Reset the Output Compare mode and Capture/Compare selection Bits */
  tmpccmrx &= ~TIM_CCMR1_OC2M;
 8007760:	68fb      	ldr	r3, [r7, #12]
 8007762:	f423 43e0 	bic.w	r3, r3, #28672	; 0x7000
 8007766:	60fb      	str	r3, [r7, #12]
  tmpccmrx &= ~TIM_CCMR1_CC2S;
 8007768:	68fb      	ldr	r3, [r7, #12]
 800776a:	f423 7340 	bic.w	r3, r3, #768	; 0x300
 800776e:	60fb      	str	r3, [r7, #12]

  /* Select the Output Compare Mode */
  tmpccmrx |= (OC_Config->OCMode << 8U);
 8007770:	683b      	ldr	r3, [r7, #0]
 8007772:	681b      	ldr	r3, [r3, #0]
 8007774:	021b      	lsls	r3, r3, #8
 8007776:	68fa      	ldr	r2, [r7, #12]
 8007778:	4313      	orrs	r3, r2
 800777a:	60fb      	str	r3, [r7, #12]

  /* Reset the Output Polarity level */
  tmpccer &= ~TIM_CCER_CC2P;
 800777c:	697b      	ldr	r3, [r7, #20]
 800777e:	f023 0320 	bic.w	r3, r3, #32
 8007782:	617b      	str	r3, [r7, #20]
  /* Set the Output Compare Polarity */
  tmpccer |= (OC_Config->OCPolarity << 4U);
 8007784:	683b      	ldr	r3, [r7, #0]
 8007786:	689b      	ldr	r3, [r3, #8]
 8007788:	011b      	lsls	r3, r3, #4
 800778a:	697a      	ldr	r2, [r7, #20]
 800778c:	4313      	orrs	r3, r2
 800778e:	617b      	str	r3, [r7, #20]

  if (IS_TIM_CCXN_INSTANCE(TIMx, TIM_CHANNEL_2))
 8007790:	687b      	ldr	r3, [r7, #4]
 8007792:	4a1d      	ldr	r2, [pc, #116]	; (8007808 <TIM_OC2_SetConfig+0xd0>)
 8007794:	4293      	cmp	r3, r2
 8007796:	d10d      	bne.n	80077b4 <TIM_OC2_SetConfig+0x7c>
  {
    assert_param(IS_TIM_OCN_POLARITY(OC_Config->OCNPolarity));

    /* Reset the Output N Polarity level */
    tmpccer &= ~TIM_CCER_CC2NP;
 8007798:	697b      	ldr	r3, [r7, #20]
 800779a:	f023 0380 	bic.w	r3, r3, #128	; 0x80
 800779e:	617b      	str	r3, [r7, #20]
    /* Set the Output N Polarity */
    tmpccer |= (OC_Config->OCNPolarity << 4U);
 80077a0:	683b      	ldr	r3, [r7, #0]
 80077a2:	68db      	ldr	r3, [r3, #12]
 80077a4:	011b      	lsls	r3, r3, #4
 80077a6:	697a      	ldr	r2, [r7, #20]
 80077a8:	4313      	orrs	r3, r2
 80077aa:	617b      	str	r3, [r7, #20]
    /* Reset the Output N State */
    tmpccer &= ~TIM_CCER_CC2NE;
 80077ac:	697b      	ldr	r3, [r7, #20]
 80077ae:	f023 0340 	bic.w	r3, r3, #64	; 0x40
 80077b2:	617b      	str	r3, [r7, #20]

  }

  if (IS_TIM_BREAK_INSTANCE(TIMx))
 80077b4:	687b      	ldr	r3, [r7, #4]
 80077b6:	4a14      	ldr	r2, [pc, #80]	; (8007808 <TIM_OC2_SetConfig+0xd0>)
 80077b8:	4293      	cmp	r3, r2
 80077ba:	d113      	bne.n	80077e4 <TIM_OC2_SetConfig+0xac>
    /* Check parameters */
    assert_param(IS_TIM_OCNIDLE_STATE(OC_Config->OCNIdleState));
    assert_param(IS_TIM_OCIDLE_STATE(OC_Config->OCIdleState));

    /* Reset the Output Compare and Output Compare N IDLE State */
    tmpcr2 &= ~TIM_CR2_OIS2;
 80077bc:	693b      	ldr	r3, [r7, #16]
 80077be:	f423 6380 	bic.w	r3, r3, #1024	; 0x400
 80077c2:	613b      	str	r3, [r7, #16]
    tmpcr2 &= ~TIM_CR2_OIS2N;
 80077c4:	693b      	ldr	r3, [r7, #16]
 80077c6:	f423 6300 	bic.w	r3, r3, #2048	; 0x800
 80077ca:	613b      	str	r3, [r7, #16]
    /* Set the Output Idle state */
    tmpcr2 |= (OC_Config->OCIdleState << 2U);
 80077cc:	683b      	ldr	r3, [r7, #0]
 80077ce:	695b      	ldr	r3, [r3, #20]
 80077d0:	009b      	lsls	r3, r3, #2
 80077d2:	693a      	ldr	r2, [r7, #16]
 80077d4:	4313      	orrs	r3, r2
 80077d6:	613b      	str	r3, [r7, #16]
    /* Set the Output N Idle state */
    tmpcr2 |= (OC_Config->OCNIdleState << 2U);
 80077d8:	683b      	ldr	r3, [r7, #0]
 80077da:	699b      	ldr	r3, [r3, #24]
 80077dc:	009b      	lsls	r3, r3, #2
 80077de:	693a      	ldr	r2, [r7, #16]
 80077e0:	4313      	orrs	r3, r2
 80077e2:	613b      	str	r3, [r7, #16]
  }

  /* Write to TIMx CR2 */
  TIMx->CR2 = tmpcr2;
 80077e4:	687b      	ldr	r3, [r7, #4]
 80077e6:	693a      	ldr	r2, [r7, #16]
 80077e8:	605a      	str	r2, [r3, #4]

  /* Write to TIMx CCMR1 */
  TIMx->CCMR1 = tmpccmrx;
 80077ea:	687b      	ldr	r3, [r7, #4]
 80077ec:	68fa      	ldr	r2, [r7, #12]
 80077ee:	619a      	str	r2, [r3, #24]

  /* Set the Capture Compare Register value */
  TIMx->CCR2 = OC_Config->Pulse;
 80077f0:	683b      	ldr	r3, [r7, #0]
 80077f2:	685a      	ldr	r2, [r3, #4]
 80077f4:	687b      	ldr	r3, [r7, #4]
 80077f6:	639a      	str	r2, [r3, #56]	; 0x38

  /* Write to TIMx CCER */
  TIMx->CCER = tmpccer;
 80077f8:	687b      	ldr	r3, [r7, #4]
 80077fa:	697a      	ldr	r2, [r7, #20]
 80077fc:	621a      	str	r2, [r3, #32]
}
 80077fe:	bf00      	nop
 8007800:	371c      	adds	r7, #28
 8007802:	46bd      	mov	sp, r7
 8007804:	bc80      	pop	{r7}
 8007806:	4770      	bx	lr
 8007808:	40012c00 	.word	0x40012c00

0800780c <TIM_OC3_SetConfig>:
  * @param  TIMx to select the TIM peripheral
  * @param  OC_Config The output configuration structure
  * @retval None
  */
static void TIM_OC3_SetConfig(TIM_TypeDef *TIMx, const TIM_OC_InitTypeDef *OC_Config)
{
 800780c:	b480      	push	{r7}
 800780e:	b087      	sub	sp, #28
 8007810:	af00      	add	r7, sp, #0
 8007812:	6078      	str	r0, [r7, #4]
 8007814:	6039      	str	r1, [r7, #0]
  uint32_t tmpccmrx;
  uint32_t tmpccer;
  uint32_t tmpcr2;

  /* Get the TIMx CCER register value */
  tmpccer = TIMx->CCER;
 8007816:	687b      	ldr	r3, [r7, #4]
 8007818:	6a1b      	ldr	r3, [r3, #32]
 800781a:	617b      	str	r3, [r7, #20]

  /* Disable the Channel 3: Reset the CC2E Bit */
  TIMx->CCER &= ~TIM_CCER_CC3E;
 800781c:	687b      	ldr	r3, [r7, #4]
 800781e:	6a1b      	ldr	r3, [r3, #32]
 8007820:	f423 7280 	bic.w	r2, r3, #256	; 0x100
 8007824:	687b      	ldr	r3, [r7, #4]
 8007826:	621a      	str	r2, [r3, #32]

  /* Get the TIMx CR2 register value */
  tmpcr2 =  TIMx->CR2;
 8007828:	687b      	ldr	r3, [r7, #4]
 800782a:	685b      	ldr	r3, [r3, #4]
 800782c:	613b      	str	r3, [r7, #16]

  /* Get the TIMx CCMR2 register value */
  tmpccmrx = TIMx->CCMR2;
 800782e:	687b      	ldr	r3, [r7, #4]
 8007830:	69db      	ldr	r3, [r3, #28]
 8007832:	60fb      	str	r3, [r7, #12]

  /* Reset the Output Compare mode and Capture/Compare selection Bits */
  tmpccmrx &= ~TIM_CCMR2_OC3M;
 8007834:	68fb      	ldr	r3, [r7, #12]
 8007836:	f023 0370 	bic.w	r3, r3, #112	; 0x70
 800783a:	60fb      	str	r3, [r7, #12]
  tmpccmrx &= ~TIM_CCMR2_CC3S;
 800783c:	68fb      	ldr	r3, [r7, #12]
 800783e:	f023 0303 	bic.w	r3, r3, #3
 8007842:	60fb      	str	r3, [r7, #12]
  /* Select the Output Compare Mode */
  tmpccmrx |= OC_Config->OCMode;
 8007844:	683b      	ldr	r3, [r7, #0]
 8007846:	681b      	ldr	r3, [r3, #0]
 8007848:	68fa      	ldr	r2, [r7, #12]
 800784a:	4313      	orrs	r3, r2
 800784c:	60fb      	str	r3, [r7, #12]

  /* Reset the Output Polarity level */
  tmpccer &= ~TIM_CCER_CC3P;
 800784e:	697b      	ldr	r3, [r7, #20]
 8007850:	f423 7300 	bic.w	r3, r3, #512	; 0x200
 8007854:	617b      	str	r3, [r7, #20]
  /* Set the Output Compare Polarity */
  tmpccer |= (OC_Config->OCPolarity << 8U);
 8007856:	683b      	ldr	r3, [r7, #0]
 8007858:	689b      	ldr	r3, [r3, #8]
 800785a:	021b      	lsls	r3, r3, #8
 800785c:	697a      	ldr	r2, [r7, #20]
 800785e:	4313      	orrs	r3, r2
 8007860:	617b      	str	r3, [r7, #20]

  if (IS_TIM_CCXN_INSTANCE(TIMx, TIM_CHANNEL_3))
 8007862:	687b      	ldr	r3, [r7, #4]
 8007864:	4a1d      	ldr	r2, [pc, #116]	; (80078dc <TIM_OC3_SetConfig+0xd0>)
 8007866:	4293      	cmp	r3, r2
 8007868:	d10d      	bne.n	8007886 <TIM_OC3_SetConfig+0x7a>
  {
    assert_param(IS_TIM_OCN_POLARITY(OC_Config->OCNPolarity));

    /* Reset the Output N Polarity level */
    tmpccer &= ~TIM_CCER_CC3NP;
 800786a:	697b      	ldr	r3, [r7, #20]
 800786c:	f423 6300 	bic.w	r3, r3, #2048	; 0x800
 8007870:	617b      	str	r3, [r7, #20]
    /* Set the Output N Polarity */
    tmpccer |= (OC_Config->OCNPolarity << 8U);
 8007872:	683b      	ldr	r3, [r7, #0]
 8007874:	68db      	ldr	r3, [r3, #12]
 8007876:	021b      	lsls	r3, r3, #8
 8007878:	697a      	ldr	r2, [r7, #20]
 800787a:	4313      	orrs	r3, r2
 800787c:	617b      	str	r3, [r7, #20]
    /* Reset the Output N State */
    tmpccer &= ~TIM_CCER_CC3NE;
 800787e:	697b      	ldr	r3, [r7, #20]
 8007880:	f423 6380 	bic.w	r3, r3, #1024	; 0x400
 8007884:	617b      	str	r3, [r7, #20]
  }

  if (IS_TIM_BREAK_INSTANCE(TIMx))
 8007886:	687b      	ldr	r3, [r7, #4]
 8007888:	4a14      	ldr	r2, [pc, #80]	; (80078dc <TIM_OC3_SetConfig+0xd0>)
 800788a:	4293      	cmp	r3, r2
 800788c:	d113      	bne.n	80078b6 <TIM_OC3_SetConfig+0xaa>
    /* Check parameters */
    assert_param(IS_TIM_OCNIDLE_STATE(OC_Config->OCNIdleState));
    assert_param(IS_TIM_OCIDLE_STATE(OC_Config->OCIdleState));

    /* Reset the Output Compare and Output Compare N IDLE State */
    tmpcr2 &= ~TIM_CR2_OIS3;
 800788e:	693b      	ldr	r3, [r7, #16]
 8007890:	f423 5380 	bic.w	r3, r3, #4096	; 0x1000
 8007894:	613b      	str	r3, [r7, #16]
    tmpcr2 &= ~TIM_CR2_OIS3N;
 8007896:	693b      	ldr	r3, [r7, #16]
 8007898:	f423 5300 	bic.w	r3, r3, #8192	; 0x2000
 800789c:	613b      	str	r3, [r7, #16]
    /* Set the Output Idle state */
    tmpcr2 |= (OC_Config->OCIdleState << 4U);
 800789e:	683b      	ldr	r3, [r7, #0]
 80078a0:	695b      	ldr	r3, [r3, #20]
 80078a2:	011b      	lsls	r3, r3, #4
 80078a4:	693a      	ldr	r2, [r7, #16]
 80078a6:	4313      	orrs	r3, r2
 80078a8:	613b      	str	r3, [r7, #16]
    /* Set the Output N Idle state */
    tmpcr2 |= (OC_Config->OCNIdleState << 4U);
 80078aa:	683b      	ldr	r3, [r7, #0]
 80078ac:	699b      	ldr	r3, [r3, #24]
 80078ae:	011b      	lsls	r3, r3, #4
 80078b0:	693a      	ldr	r2, [r7, #16]
 80078b2:	4313      	orrs	r3, r2
 80078b4:	613b      	str	r3, [r7, #16]
  }

  /* Write to TIMx CR2 */
  TIMx->CR2 = tmpcr2;
 80078b6:	687b      	ldr	r3, [r7, #4]
 80078b8:	693a      	ldr	r2, [r7, #16]
 80078ba:	605a      	str	r2, [r3, #4]

  /* Write to TIMx CCMR2 */
  TIMx->CCMR2 = tmpccmrx;
 80078bc:	687b      	ldr	r3, [r7, #4]
 80078be:	68fa      	ldr	r2, [r7, #12]
 80078c0:	61da      	str	r2, [r3, #28]

  /* Set the Capture Compare Register value */
  TIMx->CCR3 = OC_Config->Pulse;
 80078c2:	683b      	ldr	r3, [r7, #0]
 80078c4:	685a      	ldr	r2, [r3, #4]
 80078c6:	687b      	ldr	r3, [r7, #4]
 80078c8:	63da      	str	r2, [r3, #60]	; 0x3c

  /* Write to TIMx CCER */
  TIMx->CCER = tmpccer;
 80078ca:	687b      	ldr	r3, [r7, #4]
 80078cc:	697a      	ldr	r2, [r7, #20]
 80078ce:	621a      	str	r2, [r3, #32]
}
 80078d0:	bf00      	nop
 80078d2:	371c      	adds	r7, #28
 80078d4:	46bd      	mov	sp, r7
 80078d6:	bc80      	pop	{r7}
 80078d8:	4770      	bx	lr
 80078da:	bf00      	nop
 80078dc:	40012c00 	.word	0x40012c00

080078e0 <TIM_OC4_SetConfig>:
  * @param  TIMx to select the TIM peripheral
  * @param  OC_Config The output configuration structure
  * @retval None
  */
static void TIM_OC4_SetConfig(TIM_TypeDef *TIMx, const TIM_OC_InitTypeDef *OC_Config)
{
 80078e0:	b480      	push	{r7}
 80078e2:	b087      	sub	sp, #28
 80078e4:	af00      	add	r7, sp, #0
 80078e6:	6078      	str	r0, [r7, #4]
 80078e8:	6039      	str	r1, [r7, #0]
  uint32_t tmpccmrx;
  uint32_t tmpccer;
  uint32_t tmpcr2;

  /* Get the TIMx CCER register value */
  tmpccer = TIMx->CCER;
 80078ea:	687b      	ldr	r3, [r7, #4]
 80078ec:	6a1b      	ldr	r3, [r3, #32]
 80078ee:	613b      	str	r3, [r7, #16]

  /* Disable the Channel 4: Reset the CC4E Bit */
  TIMx->CCER &= ~TIM_CCER_CC4E;
 80078f0:	687b      	ldr	r3, [r7, #4]
 80078f2:	6a1b      	ldr	r3, [r3, #32]
 80078f4:	f423 5280 	bic.w	r2, r3, #4096	; 0x1000
 80078f8:	687b      	ldr	r3, [r7, #4]
 80078fa:	621a      	str	r2, [r3, #32]

  /* Get the TIMx CR2 register value */
  tmpcr2 =  TIMx->CR2;
 80078fc:	687b      	ldr	r3, [r7, #4]
 80078fe:	685b      	ldr	r3, [r3, #4]
 8007900:	617b      	str	r3, [r7, #20]

  /* Get the TIMx CCMR2 register value */
  tmpccmrx = TIMx->CCMR2;
 8007902:	687b      	ldr	r3, [r7, #4]
 8007904:	69db      	ldr	r3, [r3, #28]
 8007906:	60fb      	str	r3, [r7, #12]

  /* Reset the Output Compare mode and Capture/Compare selection Bits */
  tmpccmrx &= ~TIM_CCMR2_OC4M;
 8007908:	68fb      	ldr	r3, [r7, #12]
 800790a:	f423 43e0 	bic.w	r3, r3, #28672	; 0x7000
 800790e:	60fb      	str	r3, [r7, #12]
  tmpccmrx &= ~TIM_CCMR2_CC4S;
 8007910:	68fb      	ldr	r3, [r7, #12]
 8007912:	f423 7340 	bic.w	r3, r3, #768	; 0x300
 8007916:	60fb      	str	r3, [r7, #12]

  /* Select the Output Compare Mode */
  tmpccmrx |= (OC_Config->OCMode << 8U);
 8007918:	683b      	ldr	r3, [r7, #0]
 800791a:	681b      	ldr	r3, [r3, #0]
 800791c:	021b      	lsls	r3, r3, #8
 800791e:	68fa      	ldr	r2, [r7, #12]
 8007920:	4313      	orrs	r3, r2
 8007922:	60fb      	str	r3, [r7, #12]

  /* Reset the Output Polarity level */
  tmpccer &= ~TIM_CCER_CC4P;
 8007924:	693b      	ldr	r3, [r7, #16]
 8007926:	f423 5300 	bic.w	r3, r3, #8192	; 0x2000
 800792a:	613b      	str	r3, [r7, #16]
  /* Set the Output Compare Polarity */
  tmpccer |= (OC_Config->OCPolarity << 12U);
 800792c:	683b      	ldr	r3, [r7, #0]
 800792e:	689b      	ldr	r3, [r3, #8]
 8007930:	031b      	lsls	r3, r3, #12
 8007932:	693a      	ldr	r2, [r7, #16]
 8007934:	4313      	orrs	r3, r2
 8007936:	613b      	str	r3, [r7, #16]

  if (IS_TIM_BREAK_INSTANCE(TIMx))
 8007938:	687b      	ldr	r3, [r7, #4]
 800793a:	4a0f      	ldr	r2, [pc, #60]	; (8007978 <TIM_OC4_SetConfig+0x98>)
 800793c:	4293      	cmp	r3, r2
 800793e:	d109      	bne.n	8007954 <TIM_OC4_SetConfig+0x74>
  {
    /* Check parameters */
    assert_param(IS_TIM_OCIDLE_STATE(OC_Config->OCIdleState));

    /* Reset the Output Compare IDLE State */
    tmpcr2 &= ~TIM_CR2_OIS4;
 8007940:	697b      	ldr	r3, [r7, #20]
 8007942:	f423 4380 	bic.w	r3, r3, #16384	; 0x4000
 8007946:	617b      	str	r3, [r7, #20]

    /* Set the Output Idle state */
    tmpcr2 |= (OC_Config->OCIdleState << 6U);
 8007948:	683b      	ldr	r3, [r7, #0]
 800794a:	695b      	ldr	r3, [r3, #20]
 800794c:	019b      	lsls	r3, r3, #6
 800794e:	697a      	ldr	r2, [r7, #20]
 8007950:	4313      	orrs	r3, r2
 8007952:	617b      	str	r3, [r7, #20]
  }

  /* Write to TIMx CR2 */
  TIMx->CR2 = tmpcr2;
 8007954:	687b      	ldr	r3, [r7, #4]
 8007956:	697a      	ldr	r2, [r7, #20]
 8007958:	605a      	str	r2, [r3, #4]

  /* Write to TIMx CCMR2 */
  TIMx->CCMR2 = tmpccmrx;
 800795a:	687b      	ldr	r3, [r7, #4]
 800795c:	68fa      	ldr	r2, [r7, #12]
 800795e:	61da      	str	r2, [r3, #28]

  /* Set the Capture Compare Register value */
  TIMx->CCR4 = OC_Config->Pulse;
 8007960:	683b      	ldr	r3, [r7, #0]
 8007962:	685a      	ldr	r2, [r3, #4]
 8007964:	687b      	ldr	r3, [r7, #4]
 8007966:	641a      	str	r2, [r3, #64]	; 0x40

  /* Write to TIMx CCER */
  TIMx->CCER = tmpccer;
 8007968:	687b      	ldr	r3, [r7, #4]
 800796a:	693a      	ldr	r2, [r7, #16]
 800796c:	621a      	str	r2, [r3, #32]
}
 800796e:	bf00      	nop
 8007970:	371c      	adds	r7, #28
 8007972:	46bd      	mov	sp, r7
 8007974:	bc80      	pop	{r7}
 8007976:	4770      	bx	lr
 8007978:	40012c00 	.word	0x40012c00

0800797c <TIM_TI1_ConfigInputStage>:
  * @param  TIM_ICFilter Specifies the Input Capture Filter.
  *          This parameter must be a value between 0x00 and 0x0F.
  * @retval None
  */
static void TIM_TI1_ConfigInputStage(TIM_TypeDef *TIMx, uint32_t TIM_ICPolarity, uint32_t TIM_ICFilter)
{
 800797c:	b480      	push	{r7}
 800797e:	b087      	sub	sp, #28
 8007980:	af00      	add	r7, sp, #0
 8007982:	60f8      	str	r0, [r7, #12]
 8007984:	60b9      	str	r1, [r7, #8]
 8007986:	607a      	str	r2, [r7, #4]
  uint32_t tmpccmr1;
  uint32_t tmpccer;

  /* Disable the Channel 1: Reset the CC1E Bit */
  tmpccer = TIMx->CCER;
 8007988:	68fb      	ldr	r3, [r7, #12]
 800798a:	6a1b      	ldr	r3, [r3, #32]
 800798c:	617b      	str	r3, [r7, #20]
  TIMx->CCER &= ~TIM_CCER_CC1E;
 800798e:	68fb      	ldr	r3, [r7, #12]
 8007990:	6a1b      	ldr	r3, [r3, #32]
 8007992:	f023 0201 	bic.w	r2, r3, #1
 8007996:	68fb      	ldr	r3, [r7, #12]
 8007998:	621a      	str	r2, [r3, #32]
  tmpccmr1 = TIMx->CCMR1;
 800799a:	68fb      	ldr	r3, [r7, #12]
 800799c:	699b      	ldr	r3, [r3, #24]
 800799e:	613b      	str	r3, [r7, #16]

  /* Set the filter */
  tmpccmr1 &= ~TIM_CCMR1_IC1F;
 80079a0:	693b      	ldr	r3, [r7, #16]
 80079a2:	f023 03f0 	bic.w	r3, r3, #240	; 0xf0
 80079a6:	613b      	str	r3, [r7, #16]
  tmpccmr1 |= (TIM_ICFilter << 4U);
 80079a8:	687b      	ldr	r3, [r7, #4]
 80079aa:	011b      	lsls	r3, r3, #4
 80079ac:	693a      	ldr	r2, [r7, #16]
 80079ae:	4313      	orrs	r3, r2
 80079b0:	613b      	str	r3, [r7, #16]

  /* Select the Polarity and set the CC1E Bit */
  tmpccer &= ~(TIM_CCER_CC1P | TIM_CCER_CC1NP);
 80079b2:	697b      	ldr	r3, [r7, #20]
 80079b4:	f023 030a 	bic.w	r3, r3, #10
 80079b8:	617b      	str	r3, [r7, #20]
  tmpccer |= TIM_ICPolarity;
 80079ba:	697a      	ldr	r2, [r7, #20]
 80079bc:	68bb      	ldr	r3, [r7, #8]
 80079be:	4313      	orrs	r3, r2
 80079c0:	617b      	str	r3, [r7, #20]

  /* Write to TIMx CCMR1 and CCER registers */
  TIMx->CCMR1 = tmpccmr1;
 80079c2:	68fb      	ldr	r3, [r7, #12]
 80079c4:	693a      	ldr	r2, [r7, #16]
 80079c6:	619a      	str	r2, [r3, #24]
  TIMx->CCER = tmpccer;
 80079c8:	68fb      	ldr	r3, [r7, #12]
 80079ca:	697a      	ldr	r2, [r7, #20]
 80079cc:	621a      	str	r2, [r3, #32]
}
 80079ce:	bf00      	nop
 80079d0:	371c      	adds	r7, #28
 80079d2:	46bd      	mov	sp, r7
 80079d4:	bc80      	pop	{r7}
 80079d6:	4770      	bx	lr

080079d8 <TIM_TI2_ConfigInputStage>:
  * @param  TIM_ICFilter Specifies the Input Capture Filter.
  *          This parameter must be a value between 0x00 and 0x0F.
  * @retval None
  */
static void TIM_TI2_ConfigInputStage(TIM_TypeDef *TIMx, uint32_t TIM_ICPolarity, uint32_t TIM_ICFilter)
{
 80079d8:	b480      	push	{r7}
 80079da:	b087      	sub	sp, #28
 80079dc:	af00      	add	r7, sp, #0
 80079de:	60f8      	str	r0, [r7, #12]
 80079e0:	60b9      	str	r1, [r7, #8]
 80079e2:	607a      	str	r2, [r7, #4]
  uint32_t tmpccmr1;
  uint32_t tmpccer;

  /* Disable the Channel 2: Reset the CC2E Bit */
  tmpccer = TIMx->CCER;
 80079e4:	68fb      	ldr	r3, [r7, #12]
 80079e6:	6a1b      	ldr	r3, [r3, #32]
 80079e8:	617b      	str	r3, [r7, #20]
  TIMx->CCER &= ~TIM_CCER_CC2E;
 80079ea:	68fb      	ldr	r3, [r7, #12]
 80079ec:	6a1b      	ldr	r3, [r3, #32]
 80079ee:	f023 0210 	bic.w	r2, r3, #16
 80079f2:	68fb      	ldr	r3, [r7, #12]
 80079f4:	621a      	str	r2, [r3, #32]
  tmpccmr1 = TIMx->CCMR1;
 80079f6:	68fb      	ldr	r3, [r7, #12]
 80079f8:	699b      	ldr	r3, [r3, #24]
 80079fa:	613b      	str	r3, [r7, #16]

  /* Set the filter */
  tmpccmr1 &= ~TIM_CCMR1_IC2F;
 80079fc:	693b      	ldr	r3, [r7, #16]
 80079fe:	f423 4370 	bic.w	r3, r3, #61440	; 0xf000
 8007a02:	613b      	str	r3, [r7, #16]
  tmpccmr1 |= (TIM_ICFilter << 12U);
 8007a04:	687b      	ldr	r3, [r7, #4]
 8007a06:	031b      	lsls	r3, r3, #12
 8007a08:	693a      	ldr	r2, [r7, #16]
 8007a0a:	4313      	orrs	r3, r2
 8007a0c:	613b      	str	r3, [r7, #16]

  /* Select the Polarity and set the CC2E Bit */
  tmpccer &= ~(TIM_CCER_CC2P | TIM_CCER_CC2NP);
 8007a0e:	697b      	ldr	r3, [r7, #20]
 8007a10:	f023 03a0 	bic.w	r3, r3, #160	; 0xa0
 8007a14:	617b      	str	r3, [r7, #20]
  tmpccer |= (TIM_ICPolarity << 4U);
 8007a16:	68bb      	ldr	r3, [r7, #8]
 8007a18:	011b      	lsls	r3, r3, #4
 8007a1a:	697a      	ldr	r2, [r7, #20]
 8007a1c:	4313      	orrs	r3, r2
 8007a1e:	617b      	str	r3, [r7, #20]

  /* Write to TIMx CCMR1 and CCER registers */
  TIMx->CCMR1 = tmpccmr1 ;
 8007a20:	68fb      	ldr	r3, [r7, #12]
 8007a22:	693a      	ldr	r2, [r7, #16]
 8007a24:	619a      	str	r2, [r3, #24]
  TIMx->CCER = tmpccer;
 8007a26:	68fb      	ldr	r3, [r7, #12]
 8007a28:	697a      	ldr	r2, [r7, #20]
 8007a2a:	621a      	str	r2, [r3, #32]
}
 8007a2c:	bf00      	nop
 8007a2e:	371c      	adds	r7, #28
 8007a30:	46bd      	mov	sp, r7
 8007a32:	bc80      	pop	{r7}
 8007a34:	4770      	bx	lr

08007a36 <TIM_ITRx_SetConfig>:
  *            @arg TIM_TS_TI2FP2: Filtered Timer Input 2
  *            @arg TIM_TS_ETRF: External Trigger input
  * @retval None
  */
static void TIM_ITRx_SetConfig(TIM_TypeDef *TIMx, uint32_t InputTriggerSource)
{
 8007a36:	b480      	push	{r7}
 8007a38:	b085      	sub	sp, #20
 8007a3a:	af00      	add	r7, sp, #0
 8007a3c:	6078      	str	r0, [r7, #4]
 8007a3e:	6039      	str	r1, [r7, #0]
  uint32_t tmpsmcr;

  /* Get the TIMx SMCR register value */
  tmpsmcr = TIMx->SMCR;
 8007a40:	687b      	ldr	r3, [r7, #4]
 8007a42:	689b      	ldr	r3, [r3, #8]
 8007a44:	60fb      	str	r3, [r7, #12]
  /* Reset the TS Bits */
  tmpsmcr &= ~TIM_SMCR_TS;
 8007a46:	68fb      	ldr	r3, [r7, #12]
 8007a48:	f023 0370 	bic.w	r3, r3, #112	; 0x70
 8007a4c:	60fb      	str	r3, [r7, #12]
  /* Set the Input Trigger source and the slave mode*/
  tmpsmcr |= (InputTriggerSource | TIM_SLAVEMODE_EXTERNAL1);
 8007a4e:	683a      	ldr	r2, [r7, #0]
 8007a50:	68fb      	ldr	r3, [r7, #12]
 8007a52:	4313      	orrs	r3, r2
 8007a54:	f043 0307 	orr.w	r3, r3, #7
 8007a58:	60fb      	str	r3, [r7, #12]
  /* Write to TIMx SMCR */
  TIMx->SMCR = tmpsmcr;
 8007a5a:	687b      	ldr	r3, [r7, #4]
 8007a5c:	68fa      	ldr	r2, [r7, #12]
 8007a5e:	609a      	str	r2, [r3, #8]
}
 8007a60:	bf00      	nop
 8007a62:	3714      	adds	r7, #20
 8007a64:	46bd      	mov	sp, r7
 8007a66:	bc80      	pop	{r7}
 8007a68:	4770      	bx	lr

08007a6a <TIM_ETR_SetConfig>:
  *          This parameter must be a value between 0x00 and 0x0F
  * @retval None
  */
void TIM_ETR_SetConfig(TIM_TypeDef *TIMx, uint32_t TIM_ExtTRGPrescaler,
                       uint32_t TIM_ExtTRGPolarity, uint32_t ExtTRGFilter)
{
 8007a6a:	b480      	push	{r7}
 8007a6c:	b087      	sub	sp, #28
 8007a6e:	af00      	add	r7, sp, #0
 8007a70:	60f8      	str	r0, [r7, #12]
 8007a72:	60b9      	str	r1, [r7, #8]
 8007a74:	607a      	str	r2, [r7, #4]
 8007a76:	603b      	str	r3, [r7, #0]
  uint32_t tmpsmcr;

  tmpsmcr = TIMx->SMCR;
 8007a78:	68fb      	ldr	r3, [r7, #12]
 8007a7a:	689b      	ldr	r3, [r3, #8]
 8007a7c:	617b      	str	r3, [r7, #20]

  /* Reset the ETR Bits */
  tmpsmcr &= ~(TIM_SMCR_ETF | TIM_SMCR_ETPS | TIM_SMCR_ECE | TIM_SMCR_ETP);
 8007a7e:	697b      	ldr	r3, [r7, #20]
 8007a80:	f423 437f 	bic.w	r3, r3, #65280	; 0xff00
 8007a84:	617b      	str	r3, [r7, #20]

  /* Set the Prescaler, the Filter value and the Polarity */
  tmpsmcr |= (uint32_t)(TIM_ExtTRGPrescaler | (TIM_ExtTRGPolarity | (ExtTRGFilter << 8U)));
 8007a86:	683b      	ldr	r3, [r7, #0]
 8007a88:	021a      	lsls	r2, r3, #8
 8007a8a:	687b      	ldr	r3, [r7, #4]
 8007a8c:	431a      	orrs	r2, r3
 8007a8e:	68bb      	ldr	r3, [r7, #8]
 8007a90:	4313      	orrs	r3, r2
 8007a92:	697a      	ldr	r2, [r7, #20]
 8007a94:	4313      	orrs	r3, r2
 8007a96:	617b      	str	r3, [r7, #20]

  /* Write to TIMx SMCR */
  TIMx->SMCR = tmpsmcr;
 8007a98:	68fb      	ldr	r3, [r7, #12]
 8007a9a:	697a      	ldr	r2, [r7, #20]
 8007a9c:	609a      	str	r2, [r3, #8]
}
 8007a9e:	bf00      	nop
 8007aa0:	371c      	adds	r7, #28
 8007aa2:	46bd      	mov	sp, r7
 8007aa4:	bc80      	pop	{r7}
 8007aa6:	4770      	bx	lr

08007aa8 <TIM_CCxChannelCmd>:
  * @param  ChannelState specifies the TIM Channel CCxE bit new state.
  *          This parameter can be: TIM_CCx_ENABLE or TIM_CCx_DISABLE.
  * @retval None
  */
void TIM_CCxChannelCmd(TIM_TypeDef *TIMx, uint32_t Channel, uint32_t ChannelState)
{
 8007aa8:	b480      	push	{r7}
 8007aaa:	b087      	sub	sp, #28
 8007aac:	af00      	add	r7, sp, #0
 8007aae:	60f8      	str	r0, [r7, #12]
 8007ab0:	60b9      	str	r1, [r7, #8]
 8007ab2:	607a      	str	r2, [r7, #4]

  /* Check the parameters */
  assert_param(IS_TIM_CC1_INSTANCE(TIMx));
  assert_param(IS_TIM_CHANNELS(Channel));

  tmp = TIM_CCER_CC1E << (Channel & 0x1FU); /* 0x1FU = 31 bits max shift */
 8007ab4:	68bb      	ldr	r3, [r7, #8]
 8007ab6:	f003 031f 	and.w	r3, r3, #31
 8007aba:	2201      	movs	r2, #1
 8007abc:	fa02 f303 	lsl.w	r3, r2, r3
 8007ac0:	617b      	str	r3, [r7, #20]

  /* Reset the CCxE Bit */
  TIMx->CCER &= ~tmp;
 8007ac2:	68fb      	ldr	r3, [r7, #12]
 8007ac4:	6a1a      	ldr	r2, [r3, #32]
 8007ac6:	697b      	ldr	r3, [r7, #20]
 8007ac8:	43db      	mvns	r3, r3
 8007aca:	401a      	ands	r2, r3
 8007acc:	68fb      	ldr	r3, [r7, #12]
 8007ace:	621a      	str	r2, [r3, #32]

  /* Set or reset the CCxE Bit */
  TIMx->CCER |= (uint32_t)(ChannelState << (Channel & 0x1FU)); /* 0x1FU = 31 bits max shift */
 8007ad0:	68fb      	ldr	r3, [r7, #12]
 8007ad2:	6a1a      	ldr	r2, [r3, #32]
 8007ad4:	68bb      	ldr	r3, [r7, #8]
 8007ad6:	f003 031f 	and.w	r3, r3, #31
 8007ada:	6879      	ldr	r1, [r7, #4]
 8007adc:	fa01 f303 	lsl.w	r3, r1, r3
 8007ae0:	431a      	orrs	r2, r3
 8007ae2:	68fb      	ldr	r3, [r7, #12]
 8007ae4:	621a      	str	r2, [r3, #32]
}
 8007ae6:	bf00      	nop
 8007ae8:	371c      	adds	r7, #28
 8007aea:	46bd      	mov	sp, r7
 8007aec:	bc80      	pop	{r7}
 8007aee:	4770      	bx	lr

08007af0 <HAL_TIMEx_MasterConfigSynchronization>:
  *         mode.
  * @retval HAL status
  */
HAL_StatusTypeDef HAL_TIMEx_MasterConfigSynchronization(TIM_HandleTypeDef *htim,
                                                        const TIM_MasterConfigTypeDef *sMasterConfig)
{
 8007af0:	b480      	push	{r7}
 8007af2:	b085      	sub	sp, #20
 8007af4:	af00      	add	r7, sp, #0
 8007af6:	6078      	str	r0, [r7, #4]
 8007af8:	6039      	str	r1, [r7, #0]
  assert_param(IS_TIM_MASTER_INSTANCE(htim->Instance));
  assert_param(IS_TIM_TRGO_SOURCE(sMasterConfig->MasterOutputTrigger));
  assert_param(IS_TIM_MSM_STATE(sMasterConfig->MasterSlaveMode));

  /* Check input state */
  __HAL_LOCK(htim);
 8007afa:	687b      	ldr	r3, [r7, #4]
 8007afc:	f893 303c 	ldrb.w	r3, [r3, #60]	; 0x3c
 8007b00:	2b01      	cmp	r3, #1
 8007b02:	d101      	bne.n	8007b08 <HAL_TIMEx_MasterConfigSynchronization+0x18>
 8007b04:	2302      	movs	r3, #2
 8007b06:	e046      	b.n	8007b96 <HAL_TIMEx_MasterConfigSynchronization+0xa6>
 8007b08:	687b      	ldr	r3, [r7, #4]
 8007b0a:	2201      	movs	r2, #1
 8007b0c:	f883 203c 	strb.w	r2, [r3, #60]	; 0x3c

  /* Change the handler state */
  htim->State = HAL_TIM_STATE_BUSY;
 8007b10:	687b      	ldr	r3, [r7, #4]
 8007b12:	2202      	movs	r2, #2
 8007b14:	f883 203d 	strb.w	r2, [r3, #61]	; 0x3d

  /* Get the TIMx CR2 register value */
  tmpcr2 = htim->Instance->CR2;
 8007b18:	687b      	ldr	r3, [r7, #4]
 8007b1a:	681b      	ldr	r3, [r3, #0]
 8007b1c:	685b      	ldr	r3, [r3, #4]
 8007b1e:	60fb      	str	r3, [r7, #12]

  /* Get the TIMx SMCR register value */
  tmpsmcr = htim->Instance->SMCR;
 8007b20:	687b      	ldr	r3, [r7, #4]
 8007b22:	681b      	ldr	r3, [r3, #0]
 8007b24:	689b      	ldr	r3, [r3, #8]
 8007b26:	60bb      	str	r3, [r7, #8]

  /* Reset the MMS Bits */
  tmpcr2 &= ~TIM_CR2_MMS;
 8007b28:	68fb      	ldr	r3, [r7, #12]
 8007b2a:	f023 0370 	bic.w	r3, r3, #112	; 0x70
 8007b2e:	60fb      	str	r3, [r7, #12]
  /* Select the TRGO source */
  tmpcr2 |=  sMasterConfig->MasterOutputTrigger;
 8007b30:	683b      	ldr	r3, [r7, #0]
 8007b32:	681b      	ldr	r3, [r3, #0]
 8007b34:	68fa      	ldr	r2, [r7, #12]
 8007b36:	4313      	orrs	r3, r2
 8007b38:	60fb      	str	r3, [r7, #12]

  /* Update TIMx CR2 */
  htim->Instance->CR2 = tmpcr2;
 8007b3a:	687b      	ldr	r3, [r7, #4]
 8007b3c:	681b      	ldr	r3, [r3, #0]
 8007b3e:	68fa      	ldr	r2, [r7, #12]
 8007b40:	605a      	str	r2, [r3, #4]

  if (IS_TIM_SLAVE_INSTANCE(htim->Instance))
 8007b42:	687b      	ldr	r3, [r7, #4]
 8007b44:	681b      	ldr	r3, [r3, #0]
 8007b46:	4a16      	ldr	r2, [pc, #88]	; (8007ba0 <HAL_TIMEx_MasterConfigSynchronization+0xb0>)
 8007b48:	4293      	cmp	r3, r2
 8007b4a:	d00e      	beq.n	8007b6a <HAL_TIMEx_MasterConfigSynchronization+0x7a>
 8007b4c:	687b      	ldr	r3, [r7, #4]
 8007b4e:	681b      	ldr	r3, [r3, #0]
 8007b50:	f1b3 4f80 	cmp.w	r3, #1073741824	; 0x40000000
 8007b54:	d009      	beq.n	8007b6a <HAL_TIMEx_MasterConfigSynchronization+0x7a>
 8007b56:	687b      	ldr	r3, [r7, #4]
 8007b58:	681b      	ldr	r3, [r3, #0]
 8007b5a:	4a12      	ldr	r2, [pc, #72]	; (8007ba4 <HAL_TIMEx_MasterConfigSynchronization+0xb4>)
 8007b5c:	4293      	cmp	r3, r2
 8007b5e:	d004      	beq.n	8007b6a <HAL_TIMEx_MasterConfigSynchronization+0x7a>
 8007b60:	687b      	ldr	r3, [r7, #4]
 8007b62:	681b      	ldr	r3, [r3, #0]
 8007b64:	4a10      	ldr	r2, [pc, #64]	; (8007ba8 <HAL_TIMEx_MasterConfigSynchronization+0xb8>)
 8007b66:	4293      	cmp	r3, r2
 8007b68:	d10c      	bne.n	8007b84 <HAL_TIMEx_MasterConfigSynchronization+0x94>
  {
    /* Reset the MSM Bit */
    tmpsmcr &= ~TIM_SMCR_MSM;
 8007b6a:	68bb      	ldr	r3, [r7, #8]
 8007b6c:	f023 0380 	bic.w	r3, r3, #128	; 0x80
 8007b70:	60bb      	str	r3, [r7, #8]
    /* Set master mode */
    tmpsmcr |= sMasterConfig->MasterSlaveMode;
 8007b72:	683b      	ldr	r3, [r7, #0]
 8007b74:	685b      	ldr	r3, [r3, #4]
 8007b76:	68ba      	ldr	r2, [r7, #8]
 8007b78:	4313      	orrs	r3, r2
 8007b7a:	60bb      	str	r3, [r7, #8]

    /* Update TIMx SMCR */
    htim->Instance->SMCR = tmpsmcr;
 8007b7c:	687b      	ldr	r3, [r7, #4]
 8007b7e:	681b      	ldr	r3, [r3, #0]
 8007b80:	68ba      	ldr	r2, [r7, #8]
 8007b82:	609a      	str	r2, [r3, #8]
  }

  /* Change the htim state */
  htim->State = HAL_TIM_STATE_READY;
 8007b84:	687b      	ldr	r3, [r7, #4]
 8007b86:	2201      	movs	r2, #1
 8007b88:	f883 203d 	strb.w	r2, [r3, #61]	; 0x3d

  __HAL_UNLOCK(htim);
 8007b8c:	687b      	ldr	r3, [r7, #4]
 8007b8e:	2200      	movs	r2, #0
 8007b90:	f883 203c 	strb.w	r2, [r3, #60]	; 0x3c

  return HAL_OK;
 8007b94:	2300      	movs	r3, #0
}
 8007b96:	4618      	mov	r0, r3
 8007b98:	3714      	adds	r7, #20
 8007b9a:	46bd      	mov	sp, r7
 8007b9c:	bc80      	pop	{r7}
 8007b9e:	4770      	bx	lr
 8007ba0:	40012c00 	.word	0x40012c00
 8007ba4:	40000400 	.word	0x40000400
 8007ba8:	40000800 	.word	0x40000800

08007bac <HAL_TIMEx_CommutCallback>:
  * @brief  Hall commutation changed callback in non-blocking mode
  * @param  htim TIM handle
  * @retval None
  */
__weak void HAL_TIMEx_CommutCallback(TIM_HandleTypeDef *htim)
{
 8007bac:	b480      	push	{r7}
 8007bae:	b083      	sub	sp, #12
 8007bb0:	af00      	add	r7, sp, #0
 8007bb2:	6078      	str	r0, [r7, #4]
  UNUSED(htim);

  /* NOTE : This function should not be modified, when the callback is needed,
            the HAL_TIMEx_CommutCallback could be implemented in the user file
   */
}
 8007bb4:	bf00      	nop
 8007bb6:	370c      	adds	r7, #12
 8007bb8:	46bd      	mov	sp, r7
 8007bba:	bc80      	pop	{r7}
 8007bbc:	4770      	bx	lr

08007bbe <HAL_TIMEx_BreakCallback>:
  * @brief  Hall Break detection callback in non-blocking mode
  * @param  htim TIM handle
  * @retval None
  */
__weak void HAL_TIMEx_BreakCallback(TIM_HandleTypeDef *htim)
{
 8007bbe:	b480      	push	{r7}
 8007bc0:	b083      	sub	sp, #12
 8007bc2:	af00      	add	r7, sp, #0
 8007bc4:	6078      	str	r0, [r7, #4]
  UNUSED(htim);

  /* NOTE : This function should not be modified, when the callback is needed,
            the HAL_TIMEx_BreakCallback could be implemented in the user file
   */
}
 8007bc6:	bf00      	nop
 8007bc8:	370c      	adds	r7, #12
 8007bca:	46bd      	mov	sp, r7
 8007bcc:	bc80      	pop	{r7}
 8007bce:	4770      	bx	lr

08007bd0 <HAL_UART_Init>:
  * @param  huart  Pointer to a UART_HandleTypeDef structure that contains
  *                the configuration information for the specified UART module.
  * @retval HAL status
  */
HAL_StatusTypeDef HAL_UART_Init(UART_HandleTypeDef *huart)
{
 8007bd0:	b580      	push	{r7, lr}
 8007bd2:	b082      	sub	sp, #8
 8007bd4:	af00      	add	r7, sp, #0
 8007bd6:	6078      	str	r0, [r7, #4]
  /* Check the UART handle allocation */
  if (huart == NULL)
 8007bd8:	687b      	ldr	r3, [r7, #4]
 8007bda:	2b00      	cmp	r3, #0
 8007bdc:	d101      	bne.n	8007be2 <HAL_UART_Init+0x12>
  {
    return HAL_ERROR;
 8007bde:	2301      	movs	r3, #1
 8007be0:	e042      	b.n	8007c68 <HAL_UART_Init+0x98>
  assert_param(IS_UART_WORD_LENGTH(huart->Init.WordLength));
#if defined(USART_CR1_OVER8)
  assert_param(IS_UART_OVERSAMPLING(huart->Init.OverSampling));
#endif /* USART_CR1_OVER8 */

  if (huart->gState == HAL_UART_STATE_RESET)
 8007be2:	687b      	ldr	r3, [r7, #4]
 8007be4:	f893 3041 	ldrb.w	r3, [r3, #65]	; 0x41
 8007be8:	b2db      	uxtb	r3, r3
 8007bea:	2b00      	cmp	r3, #0
 8007bec:	d106      	bne.n	8007bfc <HAL_UART_Init+0x2c>
  {
    /* Allocate lock resource and initialize it */
    huart->Lock = HAL_UNLOCKED;
 8007bee:	687b      	ldr	r3, [r7, #4]
 8007bf0:	2200      	movs	r2, #0
 8007bf2:	f883 2040 	strb.w	r2, [r3, #64]	; 0x40

    /* Init the low level hardware */
    huart->MspInitCallback(huart);
#else
    /* Init the low level hardware : GPIO, CLOCK */
    HAL_UART_MspInit(huart);
 8007bf6:	6878      	ldr	r0, [r7, #4]
 8007bf8:	f7fc ff72 	bl	8004ae0 <HAL_UART_MspInit>
#endif /* (USE_HAL_UART_REGISTER_CALLBACKS) */
  }

  huart->gState = HAL_UART_STATE_BUSY;
 8007bfc:	687b      	ldr	r3, [r7, #4]
 8007bfe:	2224      	movs	r2, #36	; 0x24
 8007c00:	f883 2041 	strb.w	r2, [r3, #65]	; 0x41

  /* Disable the peripheral */
  __HAL_UART_DISABLE(huart);
 8007c04:	687b      	ldr	r3, [r7, #4]
 8007c06:	681b      	ldr	r3, [r3, #0]
 8007c08:	68da      	ldr	r2, [r3, #12]
 8007c0a:	687b      	ldr	r3, [r7, #4]
 8007c0c:	681b      	ldr	r3, [r3, #0]
 8007c0e:	f422 5200 	bic.w	r2, r2, #8192	; 0x2000
 8007c12:	60da      	str	r2, [r3, #12]

  /* Set the UART Communication parameters */
  UART_SetConfig(huart);
 8007c14:	6878      	ldr	r0, [r7, #4]
 8007c16:	f000 fd71 	bl	80086fc <UART_SetConfig>

  /* In asynchronous mode, the following bits must be kept cleared:
     - LINEN and CLKEN bits in the USART_CR2 register,
     - SCEN, HDSEL and IREN  bits in the USART_CR3 register.*/
  CLEAR_BIT(huart->Instance->CR2, (USART_CR2_LINEN | USART_CR2_CLKEN));
 8007c1a:	687b      	ldr	r3, [r7, #4]
 8007c1c:	681b      	ldr	r3, [r3, #0]
 8007c1e:	691a      	ldr	r2, [r3, #16]
 8007c20:	687b      	ldr	r3, [r7, #4]
 8007c22:	681b      	ldr	r3, [r3, #0]
 8007c24:	f422 4290 	bic.w	r2, r2, #18432	; 0x4800
 8007c28:	611a      	str	r2, [r3, #16]
  CLEAR_BIT(huart->Instance->CR3, (USART_CR3_SCEN | USART_CR3_HDSEL | USART_CR3_IREN));
 8007c2a:	687b      	ldr	r3, [r7, #4]
 8007c2c:	681b      	ldr	r3, [r3, #0]
 8007c2e:	695a      	ldr	r2, [r3, #20]
 8007c30:	687b      	ldr	r3, [r7, #4]
 8007c32:	681b      	ldr	r3, [r3, #0]
 8007c34:	f022 022a 	bic.w	r2, r2, #42	; 0x2a
 8007c38:	615a      	str	r2, [r3, #20]

  /* Enable the peripheral */
  __HAL_UART_ENABLE(huart);
 8007c3a:	687b      	ldr	r3, [r7, #4]
 8007c3c:	681b      	ldr	r3, [r3, #0]
 8007c3e:	68da      	ldr	r2, [r3, #12]
 8007c40:	687b      	ldr	r3, [r7, #4]
 8007c42:	681b      	ldr	r3, [r3, #0]
 8007c44:	f442 5200 	orr.w	r2, r2, #8192	; 0x2000
 8007c48:	60da      	str	r2, [r3, #12]

  /* Initialize the UART state */
  huart->ErrorCode = HAL_UART_ERROR_NONE;
 8007c4a:	687b      	ldr	r3, [r7, #4]
 8007c4c:	2200      	movs	r2, #0
 8007c4e:	645a      	str	r2, [r3, #68]	; 0x44
  huart->gState = HAL_UART_STATE_READY;
 8007c50:	687b      	ldr	r3, [r7, #4]
 8007c52:	2220      	movs	r2, #32
 8007c54:	f883 2041 	strb.w	r2, [r3, #65]	; 0x41
  huart->RxState = HAL_UART_STATE_READY;
 8007c58:	687b      	ldr	r3, [r7, #4]
 8007c5a:	2220      	movs	r2, #32
 8007c5c:	f883 2042 	strb.w	r2, [r3, #66]	; 0x42
  huart->RxEventType = HAL_UART_RXEVENT_TC;
 8007c60:	687b      	ldr	r3, [r7, #4]
 8007c62:	2200      	movs	r2, #0
 8007c64:	635a      	str	r2, [r3, #52]	; 0x34

  return HAL_OK;
 8007c66:	2300      	movs	r3, #0
}
 8007c68:	4618      	mov	r0, r3
 8007c6a:	3708      	adds	r7, #8
 8007c6c:	46bd      	mov	sp, r7
 8007c6e:	bd80      	pop	{r7, pc}

08007c70 <HAL_UART_Transmit>:
  * @param  Size  Amount of data elements (u8 or u16) to be sent
  * @param  Timeout Timeout duration
  * @retval HAL status
  */
HAL_StatusTypeDef HAL_UART_Transmit(UART_HandleTypeDef *huart, const uint8_t *pData, uint16_t Size, uint32_t Timeout)
{
 8007c70:	b580      	push	{r7, lr}
 8007c72:	b08a      	sub	sp, #40	; 0x28
 8007c74:	af02      	add	r7, sp, #8
 8007c76:	60f8      	str	r0, [r7, #12]
 8007c78:	60b9      	str	r1, [r7, #8]
 8007c7a:	603b      	str	r3, [r7, #0]
 8007c7c:	4613      	mov	r3, r2
 8007c7e:	80fb      	strh	r3, [r7, #6]
  const uint8_t  *pdata8bits;
  const uint16_t *pdata16bits;
  uint32_t tickstart = 0U;
 8007c80:	2300      	movs	r3, #0
 8007c82:	617b      	str	r3, [r7, #20]

  /* Check that a Tx process is not already ongoing */
  if (huart->gState == HAL_UART_STATE_READY)
 8007c84:	68fb      	ldr	r3, [r7, #12]
 8007c86:	f893 3041 	ldrb.w	r3, [r3, #65]	; 0x41
 8007c8a:	b2db      	uxtb	r3, r3
 8007c8c:	2b20      	cmp	r3, #32
 8007c8e:	d16d      	bne.n	8007d6c <HAL_UART_Transmit+0xfc>
  {
    if ((pData == NULL) || (Size == 0U))
 8007c90:	68bb      	ldr	r3, [r7, #8]
 8007c92:	2b00      	cmp	r3, #0
 8007c94:	d002      	beq.n	8007c9c <HAL_UART_Transmit+0x2c>
 8007c96:	88fb      	ldrh	r3, [r7, #6]
 8007c98:	2b00      	cmp	r3, #0
 8007c9a:	d101      	bne.n	8007ca0 <HAL_UART_Transmit+0x30>
    {
      return  HAL_ERROR;
 8007c9c:	2301      	movs	r3, #1
 8007c9e:	e066      	b.n	8007d6e <HAL_UART_Transmit+0xfe>
    }

    huart->ErrorCode = HAL_UART_ERROR_NONE;
 8007ca0:	68fb      	ldr	r3, [r7, #12]
 8007ca2:	2200      	movs	r2, #0
 8007ca4:	645a      	str	r2, [r3, #68]	; 0x44
    huart->gState = HAL_UART_STATE_BUSY_TX;
 8007ca6:	68fb      	ldr	r3, [r7, #12]
 8007ca8:	2221      	movs	r2, #33	; 0x21
 8007caa:	f883 2041 	strb.w	r2, [r3, #65]	; 0x41

    /* Init tickstart for timeout management */
    tickstart = HAL_GetTick();
 8007cae:	f7fd f861 	bl	8004d74 <HAL_GetTick>
 8007cb2:	6178      	str	r0, [r7, #20]

    huart->TxXferSize = Size;
 8007cb4:	68fb      	ldr	r3, [r7, #12]
 8007cb6:	88fa      	ldrh	r2, [r7, #6]
 8007cb8:	849a      	strh	r2, [r3, #36]	; 0x24
    huart->TxXferCount = Size;
 8007cba:	68fb      	ldr	r3, [r7, #12]
 8007cbc:	88fa      	ldrh	r2, [r7, #6]
 8007cbe:	84da      	strh	r2, [r3, #38]	; 0x26

    /* In case of 9bits/No Parity transfer, pData needs to be handled as a uint16_t pointer */
    if ((huart->Init.WordLength == UART_WORDLENGTH_9B) && (huart->Init.Parity == UART_PARITY_NONE))
 8007cc0:	68fb      	ldr	r3, [r7, #12]
 8007cc2:	689b      	ldr	r3, [r3, #8]
 8007cc4:	f5b3 5f80 	cmp.w	r3, #4096	; 0x1000
 8007cc8:	d108      	bne.n	8007cdc <HAL_UART_Transmit+0x6c>
 8007cca:	68fb      	ldr	r3, [r7, #12]
 8007ccc:	691b      	ldr	r3, [r3, #16]
 8007cce:	2b00      	cmp	r3, #0
 8007cd0:	d104      	bne.n	8007cdc <HAL_UART_Transmit+0x6c>
    {
      pdata8bits  = NULL;
 8007cd2:	2300      	movs	r3, #0
 8007cd4:	61fb      	str	r3, [r7, #28]
      pdata16bits = (const uint16_t *) pData;
 8007cd6:	68bb      	ldr	r3, [r7, #8]
 8007cd8:	61bb      	str	r3, [r7, #24]
 8007cda:	e003      	b.n	8007ce4 <HAL_UART_Transmit+0x74>
    }
    else
    {
      pdata8bits  = pData;
 8007cdc:	68bb      	ldr	r3, [r7, #8]
 8007cde:	61fb      	str	r3, [r7, #28]
      pdata16bits = NULL;
 8007ce0:	2300      	movs	r3, #0
 8007ce2:	61bb      	str	r3, [r7, #24]
    }

    while (huart->TxXferCount > 0U)
 8007ce4:	e02a      	b.n	8007d3c <HAL_UART_Transmit+0xcc>
    {
      if (UART_WaitOnFlagUntilTimeout(huart, UART_FLAG_TXE, RESET, tickstart, Timeout) != HAL_OK)
 8007ce6:	683b      	ldr	r3, [r7, #0]
 8007ce8:	9300      	str	r3, [sp, #0]
 8007cea:	697b      	ldr	r3, [r7, #20]
 8007cec:	2200      	movs	r2, #0
 8007cee:	2180      	movs	r1, #128	; 0x80
 8007cf0:	68f8      	ldr	r0, [r7, #12]
 8007cf2:	f000 faf9 	bl	80082e8 <UART_WaitOnFlagUntilTimeout>
 8007cf6:	4603      	mov	r3, r0
 8007cf8:	2b00      	cmp	r3, #0
 8007cfa:	d001      	beq.n	8007d00 <HAL_UART_Transmit+0x90>
      {
        return HAL_TIMEOUT;
 8007cfc:	2303      	movs	r3, #3
 8007cfe:	e036      	b.n	8007d6e <HAL_UART_Transmit+0xfe>
      }
      if (pdata8bits == NULL)
 8007d00:	69fb      	ldr	r3, [r7, #28]
 8007d02:	2b00      	cmp	r3, #0
 8007d04:	d10b      	bne.n	8007d1e <HAL_UART_Transmit+0xae>
      {
        huart->Instance->DR = (uint16_t)(*pdata16bits & 0x01FFU);
 8007d06:	69bb      	ldr	r3, [r7, #24]
 8007d08:	881b      	ldrh	r3, [r3, #0]
 8007d0a:	461a      	mov	r2, r3
 8007d0c:	68fb      	ldr	r3, [r7, #12]
 8007d0e:	681b      	ldr	r3, [r3, #0]
 8007d10:	f3c2 0208 	ubfx	r2, r2, #0, #9
 8007d14:	605a      	str	r2, [r3, #4]
        pdata16bits++;
 8007d16:	69bb      	ldr	r3, [r7, #24]
 8007d18:	3302      	adds	r3, #2
 8007d1a:	61bb      	str	r3, [r7, #24]
 8007d1c:	e007      	b.n	8007d2e <HAL_UART_Transmit+0xbe>
      }
      else
      {
        huart->Instance->DR = (uint8_t)(*pdata8bits & 0xFFU);
 8007d1e:	69fb      	ldr	r3, [r7, #28]
 8007d20:	781a      	ldrb	r2, [r3, #0]
 8007d22:	68fb      	ldr	r3, [r7, #12]
 8007d24:	681b      	ldr	r3, [r3, #0]
 8007d26:	605a      	str	r2, [r3, #4]
        pdata8bits++;
 8007d28:	69fb      	ldr	r3, [r7, #28]
 8007d2a:	3301      	adds	r3, #1
 8007d2c:	61fb      	str	r3, [r7, #28]
      }
      huart->TxXferCount--;
 8007d2e:	68fb      	ldr	r3, [r7, #12]
 8007d30:	8cdb      	ldrh	r3, [r3, #38]	; 0x26
 8007d32:	b29b      	uxth	r3, r3
 8007d34:	3b01      	subs	r3, #1
 8007d36:	b29a      	uxth	r2, r3
 8007d38:	68fb      	ldr	r3, [r7, #12]
 8007d3a:	84da      	strh	r2, [r3, #38]	; 0x26
    while (huart->TxXferCount > 0U)
 8007d3c:	68fb      	ldr	r3, [r7, #12]
 8007d3e:	8cdb      	ldrh	r3, [r3, #38]	; 0x26
 8007d40:	b29b      	uxth	r3, r3
 8007d42:	2b00      	cmp	r3, #0
 8007d44:	d1cf      	bne.n	8007ce6 <HAL_UART_Transmit+0x76>
    }

    if (UART_WaitOnFlagUntilTimeout(huart, UART_FLAG_TC, RESET, tickstart, Timeout) != HAL_OK)
 8007d46:	683b      	ldr	r3, [r7, #0]
 8007d48:	9300      	str	r3, [sp, #0]
 8007d4a:	697b      	ldr	r3, [r7, #20]
 8007d4c:	2200      	movs	r2, #0
 8007d4e:	2140      	movs	r1, #64	; 0x40
 8007d50:	68f8      	ldr	r0, [r7, #12]
 8007d52:	f000 fac9 	bl	80082e8 <UART_WaitOnFlagUntilTimeout>
 8007d56:	4603      	mov	r3, r0
 8007d58:	2b00      	cmp	r3, #0
 8007d5a:	d001      	beq.n	8007d60 <HAL_UART_Transmit+0xf0>
    {
      return HAL_TIMEOUT;
 8007d5c:	2303      	movs	r3, #3
 8007d5e:	e006      	b.n	8007d6e <HAL_UART_Transmit+0xfe>
    }

    /* At end of Tx process, restore huart->gState to Ready */
    huart->gState = HAL_UART_STATE_READY;
 8007d60:	68fb      	ldr	r3, [r7, #12]
 8007d62:	2220      	movs	r2, #32
 8007d64:	f883 2041 	strb.w	r2, [r3, #65]	; 0x41

    return HAL_OK;
 8007d68:	2300      	movs	r3, #0
 8007d6a:	e000      	b.n	8007d6e <HAL_UART_Transmit+0xfe>
  }
  else
  {
    return HAL_BUSY;
 8007d6c:	2302      	movs	r3, #2
  }
}
 8007d6e:	4618      	mov	r0, r3
 8007d70:	3720      	adds	r7, #32
 8007d72:	46bd      	mov	sp, r7
 8007d74:	bd80      	pop	{r7, pc}
	...

08007d78 <HAL_UART_IRQHandler>:
  * @param  huart  Pointer to a UART_HandleTypeDef structure that contains
  *                the configuration information for the specified UART module.
  * @retval None
  */
void HAL_UART_IRQHandler(UART_HandleTypeDef *huart)
{
 8007d78:	b580      	push	{r7, lr}
 8007d7a:	b0ba      	sub	sp, #232	; 0xe8
 8007d7c:	af00      	add	r7, sp, #0
 8007d7e:	6078      	str	r0, [r7, #4]
  uint32_t isrflags   = READ_REG(huart->Instance->SR);
 8007d80:	687b      	ldr	r3, [r7, #4]
 8007d82:	681b      	ldr	r3, [r3, #0]
 8007d84:	681b      	ldr	r3, [r3, #0]
 8007d86:	f8c7 30e4 	str.w	r3, [r7, #228]	; 0xe4
  uint32_t cr1its     = READ_REG(huart->Instance->CR1);
 8007d8a:	687b      	ldr	r3, [r7, #4]
 8007d8c:	681b      	ldr	r3, [r3, #0]
 8007d8e:	68db      	ldr	r3, [r3, #12]
 8007d90:	f8c7 30e0 	str.w	r3, [r7, #224]	; 0xe0
  uint32_t cr3its     = READ_REG(huart->Instance->CR3);
 8007d94:	687b      	ldr	r3, [r7, #4]
 8007d96:	681b      	ldr	r3, [r3, #0]
 8007d98:	695b      	ldr	r3, [r3, #20]
 8007d9a:	f8c7 30dc 	str.w	r3, [r7, #220]	; 0xdc
  uint32_t errorflags = 0x00U;
 8007d9e:	2300      	movs	r3, #0
 8007da0:	f8c7 30d8 	str.w	r3, [r7, #216]	; 0xd8
  uint32_t dmarequest = 0x00U;
 8007da4:	2300      	movs	r3, #0
 8007da6:	f8c7 30d4 	str.w	r3, [r7, #212]	; 0xd4

  /* If no error occurs */
  errorflags = (isrflags & (uint32_t)(USART_SR_PE | USART_SR_FE | USART_SR_ORE | USART_SR_NE));
 8007daa:	f8d7 30e4 	ldr.w	r3, [r7, #228]	; 0xe4
 8007dae:	f003 030f 	and.w	r3, r3, #15
 8007db2:	f8c7 30d8 	str.w	r3, [r7, #216]	; 0xd8
  if (errorflags == RESET)
 8007db6:	f8d7 30d8 	ldr.w	r3, [r7, #216]	; 0xd8
 8007dba:	2b00      	cmp	r3, #0
 8007dbc:	d10f      	bne.n	8007dde <HAL_UART_IRQHandler+0x66>
  {
    /* UART in mode Receiver -------------------------------------------------*/
    if (((isrflags & USART_SR_RXNE) != RESET) && ((cr1its & USART_CR1_RXNEIE) != RESET))
 8007dbe:	f8d7 30e4 	ldr.w	r3, [r7, #228]	; 0xe4
 8007dc2:	f003 0320 	and.w	r3, r3, #32
 8007dc6:	2b00      	cmp	r3, #0
 8007dc8:	d009      	beq.n	8007dde <HAL_UART_IRQHandler+0x66>
 8007dca:	f8d7 30e0 	ldr.w	r3, [r7, #224]	; 0xe0
 8007dce:	f003 0320 	and.w	r3, r3, #32
 8007dd2:	2b00      	cmp	r3, #0
 8007dd4:	d003      	beq.n	8007dde <HAL_UART_IRQHandler+0x66>
    {
      UART_Receive_IT(huart);
 8007dd6:	6878      	ldr	r0, [r7, #4]
 8007dd8:	f000 fbd1 	bl	800857e <UART_Receive_IT>
      return;
 8007ddc:	e25b      	b.n	8008296 <HAL_UART_IRQHandler+0x51e>
    }
  }

  /* If some errors occur */
  if ((errorflags != RESET) && (((cr3its & USART_CR3_EIE) != RESET)
 8007dde:	f8d7 30d8 	ldr.w	r3, [r7, #216]	; 0xd8
 8007de2:	2b00      	cmp	r3, #0
 8007de4:	f000 80de 	beq.w	8007fa4 <HAL_UART_IRQHandler+0x22c>
 8007de8:	f8d7 30dc 	ldr.w	r3, [r7, #220]	; 0xdc
 8007dec:	f003 0301 	and.w	r3, r3, #1
 8007df0:	2b00      	cmp	r3, #0
 8007df2:	d106      	bne.n	8007e02 <HAL_UART_IRQHandler+0x8a>
                                || ((cr1its & (USART_CR1_RXNEIE | USART_CR1_PEIE)) != RESET)))
 8007df4:	f8d7 30e0 	ldr.w	r3, [r7, #224]	; 0xe0
 8007df8:	f403 7390 	and.w	r3, r3, #288	; 0x120
 8007dfc:	2b00      	cmp	r3, #0
 8007dfe:	f000 80d1 	beq.w	8007fa4 <HAL_UART_IRQHandler+0x22c>
  {
    /* UART parity error interrupt occurred ----------------------------------*/
    if (((isrflags & USART_SR_PE) != RESET) && ((cr1its & USART_CR1_PEIE) != RESET))
 8007e02:	f8d7 30e4 	ldr.w	r3, [r7, #228]	; 0xe4
 8007e06:	f003 0301 	and.w	r3, r3, #1
 8007e0a:	2b00      	cmp	r3, #0
 8007e0c:	d00b      	beq.n	8007e26 <HAL_UART_IRQHandler+0xae>
 8007e0e:	f8d7 30e0 	ldr.w	r3, [r7, #224]	; 0xe0
 8007e12:	f403 7380 	and.w	r3, r3, #256	; 0x100
 8007e16:	2b00      	cmp	r3, #0
 8007e18:	d005      	beq.n	8007e26 <HAL_UART_IRQHandler+0xae>
    {
      huart->ErrorCode |= HAL_UART_ERROR_PE;
 8007e1a:	687b      	ldr	r3, [r7, #4]
 8007e1c:	6c5b      	ldr	r3, [r3, #68]	; 0x44
 8007e1e:	f043 0201 	orr.w	r2, r3, #1
 8007e22:	687b      	ldr	r3, [r7, #4]
 8007e24:	645a      	str	r2, [r3, #68]	; 0x44
    }

    /* UART noise error interrupt occurred -----------------------------------*/
    if (((isrflags & USART_SR_NE) != RESET) && ((cr3its & USART_CR3_EIE) != RESET))
 8007e26:	f8d7 30e4 	ldr.w	r3, [r7, #228]	; 0xe4
 8007e2a:	f003 0304 	and.w	r3, r3, #4
 8007e2e:	2b00      	cmp	r3, #0
 8007e30:	d00b      	beq.n	8007e4a <HAL_UART_IRQHandler+0xd2>
 8007e32:	f8d7 30dc 	ldr.w	r3, [r7, #220]	; 0xdc
 8007e36:	f003 0301 	and.w	r3, r3, #1
 8007e3a:	2b00      	cmp	r3, #0
 8007e3c:	d005      	beq.n	8007e4a <HAL_UART_IRQHandler+0xd2>
    {
      huart->ErrorCode |= HAL_UART_ERROR_NE;
 8007e3e:	687b      	ldr	r3, [r7, #4]
 8007e40:	6c5b      	ldr	r3, [r3, #68]	; 0x44
 8007e42:	f043 0202 	orr.w	r2, r3, #2
 8007e46:	687b      	ldr	r3, [r7, #4]
 8007e48:	645a      	str	r2, [r3, #68]	; 0x44
    }

    /* UART frame error interrupt occurred -----------------------------------*/
    if (((isrflags & USART_SR_FE) != RESET) && ((cr3its & USART_CR3_EIE) != RESET))
 8007e4a:	f8d7 30e4 	ldr.w	r3, [r7, #228]	; 0xe4
 8007e4e:	f003 0302 	and.w	r3, r3, #2
 8007e52:	2b00      	cmp	r3, #0
 8007e54:	d00b      	beq.n	8007e6e <HAL_UART_IRQHandler+0xf6>
 8007e56:	f8d7 30dc 	ldr.w	r3, [r7, #220]	; 0xdc
 8007e5a:	f003 0301 	and.w	r3, r3, #1
 8007e5e:	2b00      	cmp	r3, #0
 8007e60:	d005      	beq.n	8007e6e <HAL_UART_IRQHandler+0xf6>
    {
      huart->ErrorCode |= HAL_UART_ERROR_FE;
 8007e62:	687b      	ldr	r3, [r7, #4]
 8007e64:	6c5b      	ldr	r3, [r3, #68]	; 0x44
 8007e66:	f043 0204 	orr.w	r2, r3, #4
 8007e6a:	687b      	ldr	r3, [r7, #4]
 8007e6c:	645a      	str	r2, [r3, #68]	; 0x44
    }

    /* UART Over-Run interrupt occurred --------------------------------------*/
    if (((isrflags & USART_SR_ORE) != RESET) && (((cr1its & USART_CR1_RXNEIE) != RESET)
 8007e6e:	f8d7 30e4 	ldr.w	r3, [r7, #228]	; 0xe4
 8007e72:	f003 0308 	and.w	r3, r3, #8
 8007e76:	2b00      	cmp	r3, #0
 8007e78:	d011      	beq.n	8007e9e <HAL_UART_IRQHandler+0x126>
 8007e7a:	f8d7 30e0 	ldr.w	r3, [r7, #224]	; 0xe0
 8007e7e:	f003 0320 	and.w	r3, r3, #32
 8007e82:	2b00      	cmp	r3, #0
 8007e84:	d105      	bne.n	8007e92 <HAL_UART_IRQHandler+0x11a>
                                                 || ((cr3its & USART_CR3_EIE) != RESET)))
 8007e86:	f8d7 30dc 	ldr.w	r3, [r7, #220]	; 0xdc
 8007e8a:	f003 0301 	and.w	r3, r3, #1
 8007e8e:	2b00      	cmp	r3, #0
 8007e90:	d005      	beq.n	8007e9e <HAL_UART_IRQHandler+0x126>
    {
      huart->ErrorCode |= HAL_UART_ERROR_ORE;
 8007e92:	687b      	ldr	r3, [r7, #4]
 8007e94:	6c5b      	ldr	r3, [r3, #68]	; 0x44
 8007e96:	f043 0208 	orr.w	r2, r3, #8
 8007e9a:	687b      	ldr	r3, [r7, #4]
 8007e9c:	645a      	str	r2, [r3, #68]	; 0x44
    }

    /* Call UART Error Call back function if need be --------------------------*/
    if (huart->ErrorCode != HAL_UART_ERROR_NONE)
 8007e9e:	687b      	ldr	r3, [r7, #4]
 8007ea0:	6c5b      	ldr	r3, [r3, #68]	; 0x44
 8007ea2:	2b00      	cmp	r3, #0
 8007ea4:	f000 81f2 	beq.w	800828c <HAL_UART_IRQHandler+0x514>
    {
      /* UART in mode Receiver -----------------------------------------------*/
      if (((isrflags & USART_SR_RXNE) != RESET) && ((cr1its & USART_CR1_RXNEIE) != RESET))
 8007ea8:	f8d7 30e4 	ldr.w	r3, [r7, #228]	; 0xe4
 8007eac:	f003 0320 	and.w	r3, r3, #32
 8007eb0:	2b00      	cmp	r3, #0
 8007eb2:	d008      	beq.n	8007ec6 <HAL_UART_IRQHandler+0x14e>
 8007eb4:	f8d7 30e0 	ldr.w	r3, [r7, #224]	; 0xe0
 8007eb8:	f003 0320 	and.w	r3, r3, #32
 8007ebc:	2b00      	cmp	r3, #0
 8007ebe:	d002      	beq.n	8007ec6 <HAL_UART_IRQHandler+0x14e>
      {
        UART_Receive_IT(huart);
 8007ec0:	6878      	ldr	r0, [r7, #4]
 8007ec2:	f000 fb5c 	bl	800857e <UART_Receive_IT>
      }

      /* If Overrun error occurs, or if any error occurs in DMA mode reception,
         consider error as blocking */
      dmarequest = HAL_IS_BIT_SET(huart->Instance->CR3, USART_CR3_DMAR);
 8007ec6:	687b      	ldr	r3, [r7, #4]
 8007ec8:	681b      	ldr	r3, [r3, #0]
 8007eca:	695b      	ldr	r3, [r3, #20]
 8007ecc:	f003 0340 	and.w	r3, r3, #64	; 0x40
 8007ed0:	2b00      	cmp	r3, #0
 8007ed2:	bf14      	ite	ne
 8007ed4:	2301      	movne	r3, #1
 8007ed6:	2300      	moveq	r3, #0
 8007ed8:	b2db      	uxtb	r3, r3
 8007eda:	f8c7 30d4 	str.w	r3, [r7, #212]	; 0xd4
      if (((huart->ErrorCode & HAL_UART_ERROR_ORE) != RESET) || dmarequest)
 8007ede:	687b      	ldr	r3, [r7, #4]
 8007ee0:	6c5b      	ldr	r3, [r3, #68]	; 0x44
 8007ee2:	f003 0308 	and.w	r3, r3, #8
 8007ee6:	2b00      	cmp	r3, #0
 8007ee8:	d103      	bne.n	8007ef2 <HAL_UART_IRQHandler+0x17a>
 8007eea:	f8d7 30d4 	ldr.w	r3, [r7, #212]	; 0xd4
 8007eee:	2b00      	cmp	r3, #0
 8007ef0:	d04f      	beq.n	8007f92 <HAL_UART_IRQHandler+0x21a>
      {
        /* Blocking error : transfer is aborted
           Set the UART state ready to be able to start again the process,
           Disable Rx Interrupts, and disable Rx DMA request, if ongoing */
        UART_EndRxTransfer(huart);
 8007ef2:	6878      	ldr	r0, [r7, #4]
 8007ef4:	f000 fa66 	bl	80083c4 <UART_EndRxTransfer>

        /* Disable the UART DMA Rx request if enabled */
        if (HAL_IS_BIT_SET(huart->Instance->CR3, USART_CR3_DMAR))
 8007ef8:	687b      	ldr	r3, [r7, #4]
 8007efa:	681b      	ldr	r3, [r3, #0]
 8007efc:	695b      	ldr	r3, [r3, #20]
 8007efe:	f003 0340 	and.w	r3, r3, #64	; 0x40
 8007f02:	2b00      	cmp	r3, #0
 8007f04:	d041      	beq.n	8007f8a <HAL_UART_IRQHandler+0x212>
        {
          ATOMIC_CLEAR_BIT(huart->Instance->CR3, USART_CR3_DMAR);
 8007f06:	687b      	ldr	r3, [r7, #4]
 8007f08:	681b      	ldr	r3, [r3, #0]
 8007f0a:	3314      	adds	r3, #20
 8007f0c:	f8c7 309c 	str.w	r3, [r7, #156]	; 0x9c
 */
__STATIC_FORCEINLINE uint32_t __LDREXW(volatile uint32_t *addr)
{
    uint32_t result;

   __ASM volatile ("ldrex %0, %1" : "=r" (result) : "Q" (*addr) );
 8007f10:	f8d7 309c 	ldr.w	r3, [r7, #156]	; 0x9c
 8007f14:	e853 3f00 	ldrex	r3, [r3]
 8007f18:	f8c7 3098 	str.w	r3, [r7, #152]	; 0x98
   return(result);
 8007f1c:	f8d7 3098 	ldr.w	r3, [r7, #152]	; 0x98
 8007f20:	f023 0340 	bic.w	r3, r3, #64	; 0x40
 8007f24:	f8c7 30d0 	str.w	r3, [r7, #208]	; 0xd0
 8007f28:	687b      	ldr	r3, [r7, #4]
 8007f2a:	681b      	ldr	r3, [r3, #0]
 8007f2c:	3314      	adds	r3, #20
 8007f2e:	f8d7 20d0 	ldr.w	r2, [r7, #208]	; 0xd0
 8007f32:	f8c7 20a8 	str.w	r2, [r7, #168]	; 0xa8
 8007f36:	f8c7 30a4 	str.w	r3, [r7, #164]	; 0xa4
 */
__STATIC_FORCEINLINE uint32_t __STREXW(uint32_t value, volatile uint32_t *addr)
{
   uint32_t result;

   __ASM volatile ("strex %0, %2, %1" : "=&r" (result), "=Q" (*addr) : "r" (value) );
 8007f3a:	f8d7 10a4 	ldr.w	r1, [r7, #164]	; 0xa4
 8007f3e:	f8d7 20a8 	ldr.w	r2, [r7, #168]	; 0xa8
 8007f42:	e841 2300 	strex	r3, r2, [r1]
 8007f46:	f8c7 30a0 	str.w	r3, [r7, #160]	; 0xa0
   return(result);
 8007f4a:	f8d7 30a0 	ldr.w	r3, [r7, #160]	; 0xa0
 8007f4e:	2b00      	cmp	r3, #0
 8007f50:	d1d9      	bne.n	8007f06 <HAL_UART_IRQHandler+0x18e>

          /* Abort the UART DMA Rx channel */
          if (huart->hdmarx != NULL)
 8007f52:	687b      	ldr	r3, [r7, #4]
 8007f54:	6bdb      	ldr	r3, [r3, #60]	; 0x3c
 8007f56:	2b00      	cmp	r3, #0
 8007f58:	d013      	beq.n	8007f82 <HAL_UART_IRQHandler+0x20a>
          {
            /* Set the UART DMA Abort callback :
               will lead to call HAL_UART_ErrorCallback() at end of DMA abort procedure */
            huart->hdmarx->XferAbortCallback = UART_DMAAbortOnError;
 8007f5a:	687b      	ldr	r3, [r7, #4]
 8007f5c:	6bdb      	ldr	r3, [r3, #60]	; 0x3c
 8007f5e:	4a7e      	ldr	r2, [pc, #504]	; (8008158 <HAL_UART_IRQHandler+0x3e0>)
 8007f60:	635a      	str	r2, [r3, #52]	; 0x34
            if (HAL_DMA_Abort_IT(huart->hdmarx) != HAL_OK)
 8007f62:	687b      	ldr	r3, [r7, #4]
 8007f64:	6bdb      	ldr	r3, [r3, #60]	; 0x3c
 8007f66:	4618      	mov	r0, r3
 8007f68:	f7fd f856 	bl	8005018 <HAL_DMA_Abort_IT>
 8007f6c:	4603      	mov	r3, r0
 8007f6e:	2b00      	cmp	r3, #0
 8007f70:	d016      	beq.n	8007fa0 <HAL_UART_IRQHandler+0x228>
            {
              /* Call Directly XferAbortCallback function in case of error */
              huart->hdmarx->XferAbortCallback(huart->hdmarx);
 8007f72:	687b      	ldr	r3, [r7, #4]
 8007f74:	6bdb      	ldr	r3, [r3, #60]	; 0x3c
 8007f76:	6b5b      	ldr	r3, [r3, #52]	; 0x34
 8007f78:	687a      	ldr	r2, [r7, #4]
 8007f7a:	6bd2      	ldr	r2, [r2, #60]	; 0x3c
 8007f7c:	4610      	mov	r0, r2
 8007f7e:	4798      	blx	r3
        if (HAL_IS_BIT_SET(huart->Instance->CR3, USART_CR3_DMAR))
 8007f80:	e00e      	b.n	8007fa0 <HAL_UART_IRQHandler+0x228>
#if (USE_HAL_UART_REGISTER_CALLBACKS == 1)
            /*Call registered error callback*/
            huart->ErrorCallback(huart);
#else
            /*Call legacy weak error callback*/
            HAL_UART_ErrorCallback(huart);
 8007f82:	6878      	ldr	r0, [r7, #4]
 8007f84:	f000 f99c 	bl	80082c0 <HAL_UART_ErrorCallback>
        if (HAL_IS_BIT_SET(huart->Instance->CR3, USART_CR3_DMAR))
 8007f88:	e00a      	b.n	8007fa0 <HAL_UART_IRQHandler+0x228>
#if (USE_HAL_UART_REGISTER_CALLBACKS == 1)
          /*Call registered error callback*/
          huart->ErrorCallback(huart);
#else
          /*Call legacy weak error callback*/
          HAL_UART_ErrorCallback(huart);
 8007f8a:	6878      	ldr	r0, [r7, #4]
 8007f8c:	f000 f998 	bl	80082c0 <HAL_UART_ErrorCallback>
        if (HAL_IS_BIT_SET(huart->Instance->CR3, USART_CR3_DMAR))
 8007f90:	e006      	b.n	8007fa0 <HAL_UART_IRQHandler+0x228>
#if (USE_HAL_UART_REGISTER_CALLBACKS == 1)
        /*Call registered error callback*/
        huart->ErrorCallback(huart);
#else
        /*Call legacy weak error callback*/
        HAL_UART_ErrorCallback(huart);
 8007f92:	6878      	ldr	r0, [r7, #4]
 8007f94:	f000 f994 	bl	80082c0 <HAL_UART_ErrorCallback>
#endif /* USE_HAL_UART_REGISTER_CALLBACKS */

        huart->ErrorCode = HAL_UART_ERROR_NONE;
 8007f98:	687b      	ldr	r3, [r7, #4]
 8007f9a:	2200      	movs	r2, #0
 8007f9c:	645a      	str	r2, [r3, #68]	; 0x44
      }
    }
    return;
 8007f9e:	e175      	b.n	800828c <HAL_UART_IRQHandler+0x514>
        if (HAL_IS_BIT_SET(huart->Instance->CR3, USART_CR3_DMAR))
 8007fa0:	bf00      	nop
    return;
 8007fa2:	e173      	b.n	800828c <HAL_UART_IRQHandler+0x514>
  } /* End if some error occurs */

  /* Check current reception Mode :
     If Reception till IDLE event has been selected : */
  if ((huart->ReceptionType == HAL_UART_RECEPTION_TOIDLE)
 8007fa4:	687b      	ldr	r3, [r7, #4]
 8007fa6:	6b1b      	ldr	r3, [r3, #48]	; 0x30
 8007fa8:	2b01      	cmp	r3, #1
 8007faa:	f040 814f 	bne.w	800824c <HAL_UART_IRQHandler+0x4d4>
      && ((isrflags & USART_SR_IDLE) != 0U)
 8007fae:	f8d7 30e4 	ldr.w	r3, [r7, #228]	; 0xe4
 8007fb2:	f003 0310 	and.w	r3, r3, #16
 8007fb6:	2b00      	cmp	r3, #0
 8007fb8:	f000 8148 	beq.w	800824c <HAL_UART_IRQHandler+0x4d4>
      && ((cr1its & USART_SR_IDLE) != 0U))
 8007fbc:	f8d7 30e0 	ldr.w	r3, [r7, #224]	; 0xe0
 8007fc0:	f003 0310 	and.w	r3, r3, #16
 8007fc4:	2b00      	cmp	r3, #0
 8007fc6:	f000 8141 	beq.w	800824c <HAL_UART_IRQHandler+0x4d4>
  {
    __HAL_UART_CLEAR_IDLEFLAG(huart);
 8007fca:	2300      	movs	r3, #0
 8007fcc:	60bb      	str	r3, [r7, #8]
 8007fce:	687b      	ldr	r3, [r7, #4]
 8007fd0:	681b      	ldr	r3, [r3, #0]
 8007fd2:	681b      	ldr	r3, [r3, #0]
 8007fd4:	60bb      	str	r3, [r7, #8]
 8007fd6:	687b      	ldr	r3, [r7, #4]
 8007fd8:	681b      	ldr	r3, [r3, #0]
 8007fda:	685b      	ldr	r3, [r3, #4]
 8007fdc:	60bb      	str	r3, [r7, #8]
 8007fde:	68bb      	ldr	r3, [r7, #8]

    /* Check if DMA mode is enabled in UART */
    if (HAL_IS_BIT_SET(huart->Instance->CR3, USART_CR3_DMAR))
 8007fe0:	687b      	ldr	r3, [r7, #4]
 8007fe2:	681b      	ldr	r3, [r3, #0]
 8007fe4:	695b      	ldr	r3, [r3, #20]
 8007fe6:	f003 0340 	and.w	r3, r3, #64	; 0x40
 8007fea:	2b00      	cmp	r3, #0
 8007fec:	f000 80b6 	beq.w	800815c <HAL_UART_IRQHandler+0x3e4>
    {
      /* DMA mode enabled */
      /* Check received length : If all expected data are received, do nothing,
         (DMA cplt callback will be called).
         Otherwise, if at least one data has already been received, IDLE event is to be notified to user */
      uint16_t nb_remaining_rx_data = (uint16_t) __HAL_DMA_GET_COUNTER(huart->hdmarx);
 8007ff0:	687b      	ldr	r3, [r7, #4]
 8007ff2:	6bdb      	ldr	r3, [r3, #60]	; 0x3c
 8007ff4:	681b      	ldr	r3, [r3, #0]
 8007ff6:	685b      	ldr	r3, [r3, #4]
 8007ff8:	f8a7 30be 	strh.w	r3, [r7, #190]	; 0xbe
      if ((nb_remaining_rx_data > 0U)
 8007ffc:	f8b7 30be 	ldrh.w	r3, [r7, #190]	; 0xbe
 8008000:	2b00      	cmp	r3, #0
 8008002:	f000 8145 	beq.w	8008290 <HAL_UART_IRQHandler+0x518>
          && (nb_remaining_rx_data < huart->RxXferSize))
 8008006:	687b      	ldr	r3, [r7, #4]
 8008008:	8d9b      	ldrh	r3, [r3, #44]	; 0x2c
 800800a:	f8b7 20be 	ldrh.w	r2, [r7, #190]	; 0xbe
 800800e:	429a      	cmp	r2, r3
 8008010:	f080 813e 	bcs.w	8008290 <HAL_UART_IRQHandler+0x518>
      {
        /* Reception is not complete */
        huart->RxXferCount = nb_remaining_rx_data;
 8008014:	687b      	ldr	r3, [r7, #4]
 8008016:	f8b7 20be 	ldrh.w	r2, [r7, #190]	; 0xbe
 800801a:	85da      	strh	r2, [r3, #46]	; 0x2e

        /* In Normal mode, end DMA xfer and HAL UART Rx process*/
        if (huart->hdmarx->Init.Mode != DMA_CIRCULAR)
 800801c:	687b      	ldr	r3, [r7, #4]
 800801e:	6bdb      	ldr	r3, [r3, #60]	; 0x3c
 8008020:	699b      	ldr	r3, [r3, #24]
 8008022:	2b20      	cmp	r3, #32
 8008024:	f000 8088 	beq.w	8008138 <HAL_UART_IRQHandler+0x3c0>
        {
          /* Disable PE and ERR (Frame error, noise error, overrun error) interrupts */
          ATOMIC_CLEAR_BIT(huart->Instance->CR1, USART_CR1_PEIE);
 8008028:	687b      	ldr	r3, [r7, #4]
 800802a:	681b      	ldr	r3, [r3, #0]
 800802c:	330c      	adds	r3, #12
 800802e:	f8c7 3088 	str.w	r3, [r7, #136]	; 0x88
   __ASM volatile ("ldrex %0, %1" : "=r" (result) : "Q" (*addr) );
 8008032:	f8d7 3088 	ldr.w	r3, [r7, #136]	; 0x88
 8008036:	e853 3f00 	ldrex	r3, [r3]
 800803a:	f8c7 3084 	str.w	r3, [r7, #132]	; 0x84
   return(result);
 800803e:	f8d7 3084 	ldr.w	r3, [r7, #132]	; 0x84
 8008042:	f423 7380 	bic.w	r3, r3, #256	; 0x100
 8008046:	f8c7 30b8 	str.w	r3, [r7, #184]	; 0xb8
 800804a:	687b      	ldr	r3, [r7, #4]
 800804c:	681b      	ldr	r3, [r3, #0]
 800804e:	330c      	adds	r3, #12
 8008050:	f8d7 20b8 	ldr.w	r2, [r7, #184]	; 0xb8
 8008054:	f8c7 2094 	str.w	r2, [r7, #148]	; 0x94
 8008058:	f8c7 3090 	str.w	r3, [r7, #144]	; 0x90
   __ASM volatile ("strex %0, %2, %1" : "=&r" (result), "=Q" (*addr) : "r" (value) );
 800805c:	f8d7 1090 	ldr.w	r1, [r7, #144]	; 0x90
 8008060:	f8d7 2094 	ldr.w	r2, [r7, #148]	; 0x94
 8008064:	e841 2300 	strex	r3, r2, [r1]
 8008068:	f8c7 308c 	str.w	r3, [r7, #140]	; 0x8c
   return(result);
 800806c:	f8d7 308c 	ldr.w	r3, [r7, #140]	; 0x8c
 8008070:	2b00      	cmp	r3, #0
 8008072:	d1d9      	bne.n	8008028 <HAL_UART_IRQHandler+0x2b0>
          ATOMIC_CLEAR_BIT(huart->Instance->CR3, USART_CR3_EIE);
 8008074:	687b      	ldr	r3, [r7, #4]
 8008076:	681b      	ldr	r3, [r3, #0]
 8008078:	3314      	adds	r3, #20
 800807a:	677b      	str	r3, [r7, #116]	; 0x74
   __ASM volatile ("ldrex %0, %1" : "=r" (result) : "Q" (*addr) );
 800807c:	6f7b      	ldr	r3, [r7, #116]	; 0x74
 800807e:	e853 3f00 	ldrex	r3, [r3]
 8008082:	673b      	str	r3, [r7, #112]	; 0x70
   return(result);
 8008084:	6f3b      	ldr	r3, [r7, #112]	; 0x70
 8008086:	f023 0301 	bic.w	r3, r3, #1
 800808a:	f8c7 30b4 	str.w	r3, [r7, #180]	; 0xb4
 800808e:	687b      	ldr	r3, [r7, #4]
 8008090:	681b      	ldr	r3, [r3, #0]
 8008092:	3314      	adds	r3, #20
 8008094:	f8d7 20b4 	ldr.w	r2, [r7, #180]	; 0xb4
 8008098:	f8c7 2080 	str.w	r2, [r7, #128]	; 0x80
 800809c:	67fb      	str	r3, [r7, #124]	; 0x7c
   __ASM volatile ("strex %0, %2, %1" : "=&r" (result), "=Q" (*addr) : "r" (value) );
 800809e:	6ff9      	ldr	r1, [r7, #124]	; 0x7c
 80080a0:	f8d7 2080 	ldr.w	r2, [r7, #128]	; 0x80
 80080a4:	e841 2300 	strex	r3, r2, [r1]
 80080a8:	67bb      	str	r3, [r7, #120]	; 0x78
   return(result);
 80080aa:	6fbb      	ldr	r3, [r7, #120]	; 0x78
 80080ac:	2b00      	cmp	r3, #0
 80080ae:	d1e1      	bne.n	8008074 <HAL_UART_IRQHandler+0x2fc>

          /* Disable the DMA transfer for the receiver request by resetting the DMAR bit
             in the UART CR3 register */
          ATOMIC_CLEAR_BIT(huart->Instance->CR3, USART_CR3_DMAR);
 80080b0:	687b      	ldr	r3, [r7, #4]
 80080b2:	681b      	ldr	r3, [r3, #0]
 80080b4:	3314      	adds	r3, #20
 80080b6:	663b      	str	r3, [r7, #96]	; 0x60
   __ASM volatile ("ldrex %0, %1" : "=r" (result) : "Q" (*addr) );
 80080b8:	6e3b      	ldr	r3, [r7, #96]	; 0x60
 80080ba:	e853 3f00 	ldrex	r3, [r3]
 80080be:	65fb      	str	r3, [r7, #92]	; 0x5c
   return(result);
 80080c0:	6dfb      	ldr	r3, [r7, #92]	; 0x5c
 80080c2:	f023 0340 	bic.w	r3, r3, #64	; 0x40
 80080c6:	f8c7 30b0 	str.w	r3, [r7, #176]	; 0xb0
 80080ca:	687b      	ldr	r3, [r7, #4]
 80080cc:	681b      	ldr	r3, [r3, #0]
 80080ce:	3314      	adds	r3, #20
 80080d0:	f8d7 20b0 	ldr.w	r2, [r7, #176]	; 0xb0
 80080d4:	66fa      	str	r2, [r7, #108]	; 0x6c
 80080d6:	66bb      	str	r3, [r7, #104]	; 0x68
   __ASM volatile ("strex %0, %2, %1" : "=&r" (result), "=Q" (*addr) : "r" (value) );
 80080d8:	6eb9      	ldr	r1, [r7, #104]	; 0x68
 80080da:	6efa      	ldr	r2, [r7, #108]	; 0x6c
 80080dc:	e841 2300 	strex	r3, r2, [r1]
 80080e0:	667b      	str	r3, [r7, #100]	; 0x64
   return(result);
 80080e2:	6e7b      	ldr	r3, [r7, #100]	; 0x64
 80080e4:	2b00      	cmp	r3, #0
 80080e6:	d1e3      	bne.n	80080b0 <HAL_UART_IRQHandler+0x338>

          /* At end of Rx process, restore huart->RxState to Ready */
          huart->RxState = HAL_UART_STATE_READY;
 80080e8:	687b      	ldr	r3, [r7, #4]
 80080ea:	2220      	movs	r2, #32
 80080ec:	f883 2042 	strb.w	r2, [r3, #66]	; 0x42
          huart->ReceptionType = HAL_UART_RECEPTION_STANDARD;
 80080f0:	687b      	ldr	r3, [r7, #4]
 80080f2:	2200      	movs	r2, #0
 80080f4:	631a      	str	r2, [r3, #48]	; 0x30

          ATOMIC_CLEAR_BIT(huart->Instance->CR1, USART_CR1_IDLEIE);
 80080f6:	687b      	ldr	r3, [r7, #4]
 80080f8:	681b      	ldr	r3, [r3, #0]
 80080fa:	330c      	adds	r3, #12
 80080fc:	64fb      	str	r3, [r7, #76]	; 0x4c
   __ASM volatile ("ldrex %0, %1" : "=r" (result) : "Q" (*addr) );
 80080fe:	6cfb      	ldr	r3, [r7, #76]	; 0x4c
 8008100:	e853 3f00 	ldrex	r3, [r3]
 8008104:	64bb      	str	r3, [r7, #72]	; 0x48
   return(result);
 8008106:	6cbb      	ldr	r3, [r7, #72]	; 0x48
 8008108:	f023 0310 	bic.w	r3, r3, #16
 800810c:	f8c7 30ac 	str.w	r3, [r7, #172]	; 0xac
 8008110:	687b      	ldr	r3, [r7, #4]
 8008112:	681b      	ldr	r3, [r3, #0]
 8008114:	330c      	adds	r3, #12
 8008116:	f8d7 20ac 	ldr.w	r2, [r7, #172]	; 0xac
 800811a:	65ba      	str	r2, [r7, #88]	; 0x58
 800811c:	657b      	str	r3, [r7, #84]	; 0x54
   __ASM volatile ("strex %0, %2, %1" : "=&r" (result), "=Q" (*addr) : "r" (value) );
 800811e:	6d79      	ldr	r1, [r7, #84]	; 0x54
 8008120:	6dba      	ldr	r2, [r7, #88]	; 0x58
 8008122:	e841 2300 	strex	r3, r2, [r1]
 8008126:	653b      	str	r3, [r7, #80]	; 0x50
   return(result);
 8008128:	6d3b      	ldr	r3, [r7, #80]	; 0x50
 800812a:	2b00      	cmp	r3, #0
 800812c:	d1e3      	bne.n	80080f6 <HAL_UART_IRQHandler+0x37e>

          /* Last bytes received, so no need as the abort is immediate */
          (void)HAL_DMA_Abort(huart->hdmarx);
 800812e:	687b      	ldr	r3, [r7, #4]
 8008130:	6bdb      	ldr	r3, [r3, #60]	; 0x3c
 8008132:	4618      	mov	r0, r3
 8008134:	f7fc ff35 	bl	8004fa2 <HAL_DMA_Abort>
        }

        /* Initialize type of RxEvent that correspond to RxEvent callback execution;
        In this case, Rx Event type is Idle Event */
        huart->RxEventType = HAL_UART_RXEVENT_IDLE;
 8008138:	687b      	ldr	r3, [r7, #4]
 800813a:	2202      	movs	r2, #2
 800813c:	635a      	str	r2, [r3, #52]	; 0x34
#if (USE_HAL_UART_REGISTER_CALLBACKS == 1)
        /*Call registered Rx Event callback*/
        huart->RxEventCallback(huart, (huart->RxXferSize - huart->RxXferCount));
#else
        /*Call legacy weak Rx Event callback*/
        HAL_UARTEx_RxEventCallback(huart, (huart->RxXferSize - huart->RxXferCount));
 800813e:	687b      	ldr	r3, [r7, #4]
 8008140:	8d9a      	ldrh	r2, [r3, #44]	; 0x2c
 8008142:	687b      	ldr	r3, [r7, #4]
 8008144:	8ddb      	ldrh	r3, [r3, #46]	; 0x2e
 8008146:	b29b      	uxth	r3, r3
 8008148:	1ad3      	subs	r3, r2, r3
 800814a:	b29b      	uxth	r3, r3
 800814c:	4619      	mov	r1, r3
 800814e:	6878      	ldr	r0, [r7, #4]
 8008150:	f000 f8bf 	bl	80082d2 <HAL_UARTEx_RxEventCallback>
#endif /* USE_HAL_UART_REGISTER_CALLBACKS */
      }
      return;
 8008154:	e09c      	b.n	8008290 <HAL_UART_IRQHandler+0x518>
 8008156:	bf00      	nop
 8008158:	08008489 	.word	0x08008489
    else
    {
      /* DMA mode not enabled */
      /* Check received length : If all expected data are received, do nothing.
         Otherwise, if at least one data has already been received, IDLE event is to be notified to user */
      uint16_t nb_rx_data = huart->RxXferSize - huart->RxXferCount;
 800815c:	687b      	ldr	r3, [r7, #4]
 800815e:	8d9a      	ldrh	r2, [r3, #44]	; 0x2c
 8008160:	687b      	ldr	r3, [r7, #4]
 8008162:	8ddb      	ldrh	r3, [r3, #46]	; 0x2e
 8008164:	b29b      	uxth	r3, r3
 8008166:	1ad3      	subs	r3, r2, r3
 8008168:	f8a7 30ce 	strh.w	r3, [r7, #206]	; 0xce
      if ((huart->RxXferCount > 0U)
 800816c:	687b      	ldr	r3, [r7, #4]
 800816e:	8ddb      	ldrh	r3, [r3, #46]	; 0x2e
 8008170:	b29b      	uxth	r3, r3
 8008172:	2b00      	cmp	r3, #0
 8008174:	f000 808e 	beq.w	8008294 <HAL_UART_IRQHandler+0x51c>
          && (nb_rx_data > 0U))
 8008178:	f8b7 30ce 	ldrh.w	r3, [r7, #206]	; 0xce
 800817c:	2b00      	cmp	r3, #0
 800817e:	f000 8089 	beq.w	8008294 <HAL_UART_IRQHandler+0x51c>
      {
        /* Disable the UART Parity Error Interrupt and RXNE interrupts */
        ATOMIC_CLEAR_BIT(huart->Instance->CR1, (USART_CR1_RXNEIE | USART_CR1_PEIE));
 8008182:	687b      	ldr	r3, [r7, #4]
 8008184:	681b      	ldr	r3, [r3, #0]
 8008186:	330c      	adds	r3, #12
 8008188:	63bb      	str	r3, [r7, #56]	; 0x38
   __ASM volatile ("ldrex %0, %1" : "=r" (result) : "Q" (*addr) );
 800818a:	6bbb      	ldr	r3, [r7, #56]	; 0x38
 800818c:	e853 3f00 	ldrex	r3, [r3]
 8008190:	637b      	str	r3, [r7, #52]	; 0x34
   return(result);
 8008192:	6b7b      	ldr	r3, [r7, #52]	; 0x34
 8008194:	f423 7390 	bic.w	r3, r3, #288	; 0x120
 8008198:	f8c7 30c8 	str.w	r3, [r7, #200]	; 0xc8
 800819c:	687b      	ldr	r3, [r7, #4]
 800819e:	681b      	ldr	r3, [r3, #0]
 80081a0:	330c      	adds	r3, #12
 80081a2:	f8d7 20c8 	ldr.w	r2, [r7, #200]	; 0xc8
 80081a6:	647a      	str	r2, [r7, #68]	; 0x44
 80081a8:	643b      	str	r3, [r7, #64]	; 0x40
   __ASM volatile ("strex %0, %2, %1" : "=&r" (result), "=Q" (*addr) : "r" (value) );
 80081aa:	6c39      	ldr	r1, [r7, #64]	; 0x40
 80081ac:	6c7a      	ldr	r2, [r7, #68]	; 0x44
 80081ae:	e841 2300 	strex	r3, r2, [r1]
 80081b2:	63fb      	str	r3, [r7, #60]	; 0x3c
   return(result);
 80081b4:	6bfb      	ldr	r3, [r7, #60]	; 0x3c
 80081b6:	2b00      	cmp	r3, #0
 80081b8:	d1e3      	bne.n	8008182 <HAL_UART_IRQHandler+0x40a>

        /* Disable the UART Error Interrupt: (Frame error, noise error, overrun error) */
        ATOMIC_CLEAR_BIT(huart->Instance->CR3, USART_CR3_EIE);
 80081ba:	687b      	ldr	r3, [r7, #4]
 80081bc:	681b      	ldr	r3, [r3, #0]
 80081be:	3314      	adds	r3, #20
 80081c0:	627b      	str	r3, [r7, #36]	; 0x24
   __ASM volatile ("ldrex %0, %1" : "=r" (result) : "Q" (*addr) );
 80081c2:	6a7b      	ldr	r3, [r7, #36]	; 0x24
 80081c4:	e853 3f00 	ldrex	r3, [r3]
 80081c8:	623b      	str	r3, [r7, #32]
   return(result);
 80081ca:	6a3b      	ldr	r3, [r7, #32]
 80081cc:	f023 0301 	bic.w	r3, r3, #1
 80081d0:	f8c7 30c4 	str.w	r3, [r7, #196]	; 0xc4
 80081d4:	687b      	ldr	r3, [r7, #4]
 80081d6:	681b      	ldr	r3, [r3, #0]
 80081d8:	3314      	adds	r3, #20
 80081da:	f8d7 20c4 	ldr.w	r2, [r7, #196]	; 0xc4
 80081de:	633a      	str	r2, [r7, #48]	; 0x30
 80081e0:	62fb      	str	r3, [r7, #44]	; 0x2c
   __ASM volatile ("strex %0, %2, %1" : "=&r" (result), "=Q" (*addr) : "r" (value) );
 80081e2:	6af9      	ldr	r1, [r7, #44]	; 0x2c
 80081e4:	6b3a      	ldr	r2, [r7, #48]	; 0x30
 80081e6:	e841 2300 	strex	r3, r2, [r1]
 80081ea:	62bb      	str	r3, [r7, #40]	; 0x28
   return(result);
 80081ec:	6abb      	ldr	r3, [r7, #40]	; 0x28
 80081ee:	2b00      	cmp	r3, #0
 80081f0:	d1e3      	bne.n	80081ba <HAL_UART_IRQHandler+0x442>

        /* Rx process is completed, restore huart->RxState to Ready */
        huart->RxState = HAL_UART_STATE_READY;
 80081f2:	687b      	ldr	r3, [r7, #4]
 80081f4:	2220      	movs	r2, #32
 80081f6:	f883 2042 	strb.w	r2, [r3, #66]	; 0x42
        huart->ReceptionType = HAL_UART_RECEPTION_STANDARD;
 80081fa:	687b      	ldr	r3, [r7, #4]
 80081fc:	2200      	movs	r2, #0
 80081fe:	631a      	str	r2, [r3, #48]	; 0x30

        ATOMIC_CLEAR_BIT(huart->Instance->CR1, USART_CR1_IDLEIE);
 8008200:	687b      	ldr	r3, [r7, #4]
 8008202:	681b      	ldr	r3, [r3, #0]
 8008204:	330c      	adds	r3, #12
 8008206:	613b      	str	r3, [r7, #16]
   __ASM volatile ("ldrex %0, %1" : "=r" (result) : "Q" (*addr) );
 8008208:	693b      	ldr	r3, [r7, #16]
 800820a:	e853 3f00 	ldrex	r3, [r3]
 800820e:	60fb      	str	r3, [r7, #12]
   return(result);
 8008210:	68fb      	ldr	r3, [r7, #12]
 8008212:	f023 0310 	bic.w	r3, r3, #16
 8008216:	f8c7 30c0 	str.w	r3, [r7, #192]	; 0xc0
 800821a:	687b      	ldr	r3, [r7, #4]
 800821c:	681b      	ldr	r3, [r3, #0]
 800821e:	330c      	adds	r3, #12
 8008220:	f8d7 20c0 	ldr.w	r2, [r7, #192]	; 0xc0
 8008224:	61fa      	str	r2, [r7, #28]
 8008226:	61bb      	str	r3, [r7, #24]
   __ASM volatile ("strex %0, %2, %1" : "=&r" (result), "=Q" (*addr) : "r" (value) );
 8008228:	69b9      	ldr	r1, [r7, #24]
 800822a:	69fa      	ldr	r2, [r7, #28]
 800822c:	e841 2300 	strex	r3, r2, [r1]
 8008230:	617b      	str	r3, [r7, #20]
   return(result);
 8008232:	697b      	ldr	r3, [r7, #20]
 8008234:	2b00      	cmp	r3, #0
 8008236:	d1e3      	bne.n	8008200 <HAL_UART_IRQHandler+0x488>

        /* Initialize type of RxEvent that correspond to RxEvent callback execution;
           In this case, Rx Event type is Idle Event */
        huart->RxEventType = HAL_UART_RXEVENT_IDLE;
 8008238:	687b      	ldr	r3, [r7, #4]
 800823a:	2202      	movs	r2, #2
 800823c:	635a      	str	r2, [r3, #52]	; 0x34
#if (USE_HAL_UART_REGISTER_CALLBACKS == 1)
        /*Call registered Rx complete callback*/
        huart->RxEventCallback(huart, nb_rx_data);
#else
        /*Call legacy weak Rx Event callback*/
        HAL_UARTEx_RxEventCallback(huart, nb_rx_data);
 800823e:	f8b7 30ce 	ldrh.w	r3, [r7, #206]	; 0xce
 8008242:	4619      	mov	r1, r3
 8008244:	6878      	ldr	r0, [r7, #4]
 8008246:	f000 f844 	bl	80082d2 <HAL_UARTEx_RxEventCallback>
#endif /* USE_HAL_UART_REGISTER_CALLBACKS */
      }
      return;
 800824a:	e023      	b.n	8008294 <HAL_UART_IRQHandler+0x51c>
    }
  }

  /* UART in mode Transmitter ------------------------------------------------*/
  if (((isrflags & USART_SR_TXE) != RESET) && ((cr1its & USART_CR1_TXEIE) != RESET))
 800824c:	f8d7 30e4 	ldr.w	r3, [r7, #228]	; 0xe4
 8008250:	f003 0380 	and.w	r3, r3, #128	; 0x80
 8008254:	2b00      	cmp	r3, #0
 8008256:	d009      	beq.n	800826c <HAL_UART_IRQHandler+0x4f4>
 8008258:	f8d7 30e0 	ldr.w	r3, [r7, #224]	; 0xe0
 800825c:	f003 0380 	and.w	r3, r3, #128	; 0x80
 8008260:	2b00      	cmp	r3, #0
 8008262:	d003      	beq.n	800826c <HAL_UART_IRQHandler+0x4f4>
  {
    UART_Transmit_IT(huart);
 8008264:	6878      	ldr	r0, [r7, #4]
 8008266:	f000 f923 	bl	80084b0 <UART_Transmit_IT>
    return;
 800826a:	e014      	b.n	8008296 <HAL_UART_IRQHandler+0x51e>
  }

  /* UART in mode Transmitter end --------------------------------------------*/
  if (((isrflags & USART_SR_TC) != RESET) && ((cr1its & USART_CR1_TCIE) != RESET))
 800826c:	f8d7 30e4 	ldr.w	r3, [r7, #228]	; 0xe4
 8008270:	f003 0340 	and.w	r3, r3, #64	; 0x40
 8008274:	2b00      	cmp	r3, #0
 8008276:	d00e      	beq.n	8008296 <HAL_UART_IRQHandler+0x51e>
 8008278:	f8d7 30e0 	ldr.w	r3, [r7, #224]	; 0xe0
 800827c:	f003 0340 	and.w	r3, r3, #64	; 0x40
 8008280:	2b00      	cmp	r3, #0
 8008282:	d008      	beq.n	8008296 <HAL_UART_IRQHandler+0x51e>
  {
    UART_EndTransmit_IT(huart);
 8008284:	6878      	ldr	r0, [r7, #4]
 8008286:	f000 f962 	bl	800854e <UART_EndTransmit_IT>
    return;
 800828a:	e004      	b.n	8008296 <HAL_UART_IRQHandler+0x51e>
    return;
 800828c:	bf00      	nop
 800828e:	e002      	b.n	8008296 <HAL_UART_IRQHandler+0x51e>
      return;
 8008290:	bf00      	nop
 8008292:	e000      	b.n	8008296 <HAL_UART_IRQHandler+0x51e>
      return;
 8008294:	bf00      	nop
  }
}
 8008296:	37e8      	adds	r7, #232	; 0xe8
 8008298:	46bd      	mov	sp, r7
 800829a:	bd80      	pop	{r7, pc}

0800829c <HAL_UART_TxCpltCallback>:
  * @param  huart  Pointer to a UART_HandleTypeDef structure that contains
  *                the configuration information for the specified UART module.
  * @retval None
  */
__weak void HAL_UART_TxCpltCallback(UART_HandleTypeDef *huart)
{
 800829c:	b480      	push	{r7}
 800829e:	b083      	sub	sp, #12
 80082a0:	af00      	add	r7, sp, #0
 80082a2:	6078      	str	r0, [r7, #4]
  /* Prevent unused argument(s) compilation warning */
  UNUSED(huart);
  /* NOTE: This function should not be modified, when the callback is needed,
           the HAL_UART_TxCpltCallback could be implemented in the user file
   */
}
 80082a4:	bf00      	nop
 80082a6:	370c      	adds	r7, #12
 80082a8:	46bd      	mov	sp, r7
 80082aa:	bc80      	pop	{r7}
 80082ac:	4770      	bx	lr

080082ae <HAL_UART_RxCpltCallback>:
  * @param  huart  Pointer to a UART_HandleTypeDef structure that contains
  *                the configuration information for the specified UART module.
  * @retval None
  */
__weak void HAL_UART_RxCpltCallback(UART_HandleTypeDef *huart)
{
 80082ae:	b480      	push	{r7}
 80082b0:	b083      	sub	sp, #12
 80082b2:	af00      	add	r7, sp, #0
 80082b4:	6078      	str	r0, [r7, #4]
  /* Prevent unused argument(s) compilation warning */
  UNUSED(huart);
  /* NOTE: This function should not be modified, when the callback is needed,
           the HAL_UART_RxCpltCallback could be implemented in the user file
   */
}
 80082b6:	bf00      	nop
 80082b8:	370c      	adds	r7, #12
 80082ba:	46bd      	mov	sp, r7
 80082bc:	bc80      	pop	{r7}
 80082be:	4770      	bx	lr

080082c0 <HAL_UART_ErrorCallback>:
  * @param  huart  Pointer to a UART_HandleTypeDef structure that contains
  *                the configuration information for the specified UART module.
  * @retval None
  */
__weak void HAL_UART_ErrorCallback(UART_HandleTypeDef *huart)
{
 80082c0:	b480      	push	{r7}
 80082c2:	b083      	sub	sp, #12
 80082c4:	af00      	add	r7, sp, #0
 80082c6:	6078      	str	r0, [r7, #4]
  /* Prevent unused argument(s) compilation warning */
  UNUSED(huart);
  /* NOTE: This function should not be modified, when the callback is needed,
           the HAL_UART_ErrorCallback could be implemented in the user file
   */
}
 80082c8:	bf00      	nop
 80082ca:	370c      	adds	r7, #12
 80082cc:	46bd      	mov	sp, r7
 80082ce:	bc80      	pop	{r7}
 80082d0:	4770      	bx	lr

080082d2 <HAL_UARTEx_RxEventCallback>:
  * @param  Size  Number of data available in application reception buffer (indicates a position in
  *               reception buffer until which, data are available)
  * @retval None
  */
__weak void HAL_UARTEx_RxEventCallback(UART_HandleTypeDef *huart, uint16_t Size)
{
 80082d2:	b480      	push	{r7}
 80082d4:	b083      	sub	sp, #12
 80082d6:	af00      	add	r7, sp, #0
 80082d8:	6078      	str	r0, [r7, #4]
 80082da:	460b      	mov	r3, r1
 80082dc:	807b      	strh	r3, [r7, #2]
  UNUSED(Size);

  /* NOTE : This function should not be modified, when the callback is needed,
            the HAL_UARTEx_RxEventCallback can be implemented in the user file.
   */
}
 80082de:	bf00      	nop
 80082e0:	370c      	adds	r7, #12
 80082e2:	46bd      	mov	sp, r7
 80082e4:	bc80      	pop	{r7}
 80082e6:	4770      	bx	lr

080082e8 <UART_WaitOnFlagUntilTimeout>:
  * @param  Timeout Timeout duration
  * @retval HAL status
  */
static HAL_StatusTypeDef UART_WaitOnFlagUntilTimeout(UART_HandleTypeDef *huart, uint32_t Flag, FlagStatus Status,
                                                     uint32_t Tickstart, uint32_t Timeout)
{
 80082e8:	b580      	push	{r7, lr}
 80082ea:	b090      	sub	sp, #64	; 0x40
 80082ec:	af00      	add	r7, sp, #0
 80082ee:	60f8      	str	r0, [r7, #12]
 80082f0:	60b9      	str	r1, [r7, #8]
 80082f2:	603b      	str	r3, [r7, #0]
 80082f4:	4613      	mov	r3, r2
 80082f6:	71fb      	strb	r3, [r7, #7]
  /* Wait until flag is set */
  while ((__HAL_UART_GET_FLAG(huart, Flag) ? SET : RESET) == Status)
 80082f8:	e050      	b.n	800839c <UART_WaitOnFlagUntilTimeout+0xb4>
  {
    /* Check for the Timeout */
    if (Timeout != HAL_MAX_DELAY)
 80082fa:	6cbb      	ldr	r3, [r7, #72]	; 0x48
 80082fc:	f1b3 3fff 	cmp.w	r3, #4294967295
 8008300:	d04c      	beq.n	800839c <UART_WaitOnFlagUntilTimeout+0xb4>
    {
      if ((Timeout == 0U) || ((HAL_GetTick() - Tickstart) > Timeout))
 8008302:	6cbb      	ldr	r3, [r7, #72]	; 0x48
 8008304:	2b00      	cmp	r3, #0
 8008306:	d007      	beq.n	8008318 <UART_WaitOnFlagUntilTimeout+0x30>
 8008308:	f7fc fd34 	bl	8004d74 <HAL_GetTick>
 800830c:	4602      	mov	r2, r0
 800830e:	683b      	ldr	r3, [r7, #0]
 8008310:	1ad3      	subs	r3, r2, r3
 8008312:	6cba      	ldr	r2, [r7, #72]	; 0x48
 8008314:	429a      	cmp	r2, r3
 8008316:	d241      	bcs.n	800839c <UART_WaitOnFlagUntilTimeout+0xb4>
      {
        /* Disable TXE, RXNE, PE and ERR (Frame error, noise error, overrun error) interrupts for the interrupt process */
        ATOMIC_CLEAR_BIT(huart->Instance->CR1, (USART_CR1_RXNEIE | USART_CR1_PEIE | USART_CR1_TXEIE));
 8008318:	68fb      	ldr	r3, [r7, #12]
 800831a:	681b      	ldr	r3, [r3, #0]
 800831c:	330c      	adds	r3, #12
 800831e:	62bb      	str	r3, [r7, #40]	; 0x28
   __ASM volatile ("ldrex %0, %1" : "=r" (result) : "Q" (*addr) );
 8008320:	6abb      	ldr	r3, [r7, #40]	; 0x28
 8008322:	e853 3f00 	ldrex	r3, [r3]
 8008326:	627b      	str	r3, [r7, #36]	; 0x24
   return(result);
 8008328:	6a7b      	ldr	r3, [r7, #36]	; 0x24
 800832a:	f423 73d0 	bic.w	r3, r3, #416	; 0x1a0
 800832e:	63fb      	str	r3, [r7, #60]	; 0x3c
 8008330:	68fb      	ldr	r3, [r7, #12]
 8008332:	681b      	ldr	r3, [r3, #0]
 8008334:	330c      	adds	r3, #12
 8008336:	6bfa      	ldr	r2, [r7, #60]	; 0x3c
 8008338:	637a      	str	r2, [r7, #52]	; 0x34
 800833a:	633b      	str	r3, [r7, #48]	; 0x30
   __ASM volatile ("strex %0, %2, %1" : "=&r" (result), "=Q" (*addr) : "r" (value) );
 800833c:	6b39      	ldr	r1, [r7, #48]	; 0x30
 800833e:	6b7a      	ldr	r2, [r7, #52]	; 0x34
 8008340:	e841 2300 	strex	r3, r2, [r1]
 8008344:	62fb      	str	r3, [r7, #44]	; 0x2c
   return(result);
 8008346:	6afb      	ldr	r3, [r7, #44]	; 0x2c
 8008348:	2b00      	cmp	r3, #0
 800834a:	d1e5      	bne.n	8008318 <UART_WaitOnFlagUntilTimeout+0x30>
        ATOMIC_CLEAR_BIT(huart->Instance->CR3, USART_CR3_EIE);
 800834c:	68fb      	ldr	r3, [r7, #12]
 800834e:	681b      	ldr	r3, [r3, #0]
 8008350:	3314      	adds	r3, #20
 8008352:	617b      	str	r3, [r7, #20]
   __ASM volatile ("ldrex %0, %1" : "=r" (result) : "Q" (*addr) );
 8008354:	697b      	ldr	r3, [r7, #20]
 8008356:	e853 3f00 	ldrex	r3, [r3]
 800835a:	613b      	str	r3, [r7, #16]
   return(result);
 800835c:	693b      	ldr	r3, [r7, #16]
 800835e:	f023 0301 	bic.w	r3, r3, #1
 8008362:	63bb      	str	r3, [r7, #56]	; 0x38
 8008364:	68fb      	ldr	r3, [r7, #12]
 8008366:	681b      	ldr	r3, [r3, #0]
 8008368:	3314      	adds	r3, #20
 800836a:	6bba      	ldr	r2, [r7, #56]	; 0x38
 800836c:	623a      	str	r2, [r7, #32]
 800836e:	61fb      	str	r3, [r7, #28]
   __ASM volatile ("strex %0, %2, %1" : "=&r" (result), "=Q" (*addr) : "r" (value) );
 8008370:	69f9      	ldr	r1, [r7, #28]
 8008372:	6a3a      	ldr	r2, [r7, #32]
 8008374:	e841 2300 	strex	r3, r2, [r1]
 8008378:	61bb      	str	r3, [r7, #24]
   return(result);
 800837a:	69bb      	ldr	r3, [r7, #24]
 800837c:	2b00      	cmp	r3, #0
 800837e:	d1e5      	bne.n	800834c <UART_WaitOnFlagUntilTimeout+0x64>

        huart->gState  = HAL_UART_STATE_READY;
 8008380:	68fb      	ldr	r3, [r7, #12]
 8008382:	2220      	movs	r2, #32
 8008384:	f883 2041 	strb.w	r2, [r3, #65]	; 0x41
        huart->RxState = HAL_UART_STATE_READY;
 8008388:	68fb      	ldr	r3, [r7, #12]
 800838a:	2220      	movs	r2, #32
 800838c:	f883 2042 	strb.w	r2, [r3, #66]	; 0x42

        /* Process Unlocked */
        __HAL_UNLOCK(huart);
 8008390:	68fb      	ldr	r3, [r7, #12]
 8008392:	2200      	movs	r2, #0
 8008394:	f883 2040 	strb.w	r2, [r3, #64]	; 0x40

        return HAL_TIMEOUT;
 8008398:	2303      	movs	r3, #3
 800839a:	e00f      	b.n	80083bc <UART_WaitOnFlagUntilTimeout+0xd4>
  while ((__HAL_UART_GET_FLAG(huart, Flag) ? SET : RESET) == Status)
 800839c:	68fb      	ldr	r3, [r7, #12]
 800839e:	681b      	ldr	r3, [r3, #0]
 80083a0:	681a      	ldr	r2, [r3, #0]
 80083a2:	68bb      	ldr	r3, [r7, #8]
 80083a4:	4013      	ands	r3, r2
 80083a6:	68ba      	ldr	r2, [r7, #8]
 80083a8:	429a      	cmp	r2, r3
 80083aa:	bf0c      	ite	eq
 80083ac:	2301      	moveq	r3, #1
 80083ae:	2300      	movne	r3, #0
 80083b0:	b2db      	uxtb	r3, r3
 80083b2:	461a      	mov	r2, r3
 80083b4:	79fb      	ldrb	r3, [r7, #7]
 80083b6:	429a      	cmp	r2, r3
 80083b8:	d09f      	beq.n	80082fa <UART_WaitOnFlagUntilTimeout+0x12>
      }
    }
  }
  return HAL_OK;
 80083ba:	2300      	movs	r3, #0
}
 80083bc:	4618      	mov	r0, r3
 80083be:	3740      	adds	r7, #64	; 0x40
 80083c0:	46bd      	mov	sp, r7
 80083c2:	bd80      	pop	{r7, pc}

080083c4 <UART_EndRxTransfer>:
  * @brief  End ongoing Rx transfer on UART peripheral (following error detection or Reception completion).
  * @param  huart UART handle.
  * @retval None
  */
static void UART_EndRxTransfer(UART_HandleTypeDef *huart)
{
 80083c4:	b480      	push	{r7}
 80083c6:	b095      	sub	sp, #84	; 0x54
 80083c8:	af00      	add	r7, sp, #0
 80083ca:	6078      	str	r0, [r7, #4]
  /* Disable RXNE, PE and ERR (Frame error, noise error, overrun error) interrupts */
  ATOMIC_CLEAR_BIT(huart->Instance->CR1, (USART_CR1_RXNEIE | USART_CR1_PEIE));
 80083cc:	687b      	ldr	r3, [r7, #4]
 80083ce:	681b      	ldr	r3, [r3, #0]
 80083d0:	330c      	adds	r3, #12
 80083d2:	637b      	str	r3, [r7, #52]	; 0x34
   __ASM volatile ("ldrex %0, %1" : "=r" (result) : "Q" (*addr) );
 80083d4:	6b7b      	ldr	r3, [r7, #52]	; 0x34
 80083d6:	e853 3f00 	ldrex	r3, [r3]
 80083da:	633b      	str	r3, [r7, #48]	; 0x30
   return(result);
 80083dc:	6b3b      	ldr	r3, [r7, #48]	; 0x30
 80083de:	f423 7390 	bic.w	r3, r3, #288	; 0x120
 80083e2:	64fb      	str	r3, [r7, #76]	; 0x4c
 80083e4:	687b      	ldr	r3, [r7, #4]
 80083e6:	681b      	ldr	r3, [r3, #0]
 80083e8:	330c      	adds	r3, #12
 80083ea:	6cfa      	ldr	r2, [r7, #76]	; 0x4c
 80083ec:	643a      	str	r2, [r7, #64]	; 0x40
 80083ee:	63fb      	str	r3, [r7, #60]	; 0x3c
   __ASM volatile ("strex %0, %2, %1" : "=&r" (result), "=Q" (*addr) : "r" (value) );
 80083f0:	6bf9      	ldr	r1, [r7, #60]	; 0x3c
 80083f2:	6c3a      	ldr	r2, [r7, #64]	; 0x40
 80083f4:	e841 2300 	strex	r3, r2, [r1]
 80083f8:	63bb      	str	r3, [r7, #56]	; 0x38
   return(result);
 80083fa:	6bbb      	ldr	r3, [r7, #56]	; 0x38
 80083fc:	2b00      	cmp	r3, #0
 80083fe:	d1e5      	bne.n	80083cc <UART_EndRxTransfer+0x8>
  ATOMIC_CLEAR_BIT(huart->Instance->CR3, USART_CR3_EIE);
 8008400:	687b      	ldr	r3, [r7, #4]
 8008402:	681b      	ldr	r3, [r3, #0]
 8008404:	3314      	adds	r3, #20
 8008406:	623b      	str	r3, [r7, #32]
   __ASM volatile ("ldrex %0, %1" : "=r" (result) : "Q" (*addr) );
 8008408:	6a3b      	ldr	r3, [r7, #32]
 800840a:	e853 3f00 	ldrex	r3, [r3]
 800840e:	61fb      	str	r3, [r7, #28]
   return(result);
 8008410:	69fb      	ldr	r3, [r7, #28]
 8008412:	f023 0301 	bic.w	r3, r3, #1
 8008416:	64bb      	str	r3, [r7, #72]	; 0x48
 8008418:	687b      	ldr	r3, [r7, #4]
 800841a:	681b      	ldr	r3, [r3, #0]
 800841c:	3314      	adds	r3, #20
 800841e:	6cba      	ldr	r2, [r7, #72]	; 0x48
 8008420:	62fa      	str	r2, [r7, #44]	; 0x2c
 8008422:	62bb      	str	r3, [r7, #40]	; 0x28
   __ASM volatile ("strex %0, %2, %1" : "=&r" (result), "=Q" (*addr) : "r" (value) );
 8008424:	6ab9      	ldr	r1, [r7, #40]	; 0x28
 8008426:	6afa      	ldr	r2, [r7, #44]	; 0x2c
 8008428:	e841 2300 	strex	r3, r2, [r1]
 800842c:	627b      	str	r3, [r7, #36]	; 0x24
   return(result);
 800842e:	6a7b      	ldr	r3, [r7, #36]	; 0x24
 8008430:	2b00      	cmp	r3, #0
 8008432:	d1e5      	bne.n	8008400 <UART_EndRxTransfer+0x3c>

  /* In case of reception waiting for IDLE event, disable also the IDLE IE interrupt source */
  if (huart->ReceptionType == HAL_UART_RECEPTION_TOIDLE)
 8008434:	687b      	ldr	r3, [r7, #4]
 8008436:	6b1b      	ldr	r3, [r3, #48]	; 0x30
 8008438:	2b01      	cmp	r3, #1
 800843a:	d119      	bne.n	8008470 <UART_EndRxTransfer+0xac>
  {
    ATOMIC_CLEAR_BIT(huart->Instance->CR1, USART_CR1_IDLEIE);
 800843c:	687b      	ldr	r3, [r7, #4]
 800843e:	681b      	ldr	r3, [r3, #0]
 8008440:	330c      	adds	r3, #12
 8008442:	60fb      	str	r3, [r7, #12]
   __ASM volatile ("ldrex %0, %1" : "=r" (result) : "Q" (*addr) );
 8008444:	68fb      	ldr	r3, [r7, #12]
 8008446:	e853 3f00 	ldrex	r3, [r3]
 800844a:	60bb      	str	r3, [r7, #8]
   return(result);
 800844c:	68bb      	ldr	r3, [r7, #8]
 800844e:	f023 0310 	bic.w	r3, r3, #16
 8008452:	647b      	str	r3, [r7, #68]	; 0x44
 8008454:	687b      	ldr	r3, [r7, #4]
 8008456:	681b      	ldr	r3, [r3, #0]
 8008458:	330c      	adds	r3, #12
 800845a:	6c7a      	ldr	r2, [r7, #68]	; 0x44
 800845c:	61ba      	str	r2, [r7, #24]
 800845e:	617b      	str	r3, [r7, #20]
   __ASM volatile ("strex %0, %2, %1" : "=&r" (result), "=Q" (*addr) : "r" (value) );
 8008460:	6979      	ldr	r1, [r7, #20]
 8008462:	69ba      	ldr	r2, [r7, #24]
 8008464:	e841 2300 	strex	r3, r2, [r1]
 8008468:	613b      	str	r3, [r7, #16]
   return(result);
 800846a:	693b      	ldr	r3, [r7, #16]
 800846c:	2b00      	cmp	r3, #0
 800846e:	d1e5      	bne.n	800843c <UART_EndRxTransfer+0x78>
  }

  /* At end of Rx process, restore huart->RxState to Ready */
  huart->RxState = HAL_UART_STATE_READY;
 8008470:	687b      	ldr	r3, [r7, #4]
 8008472:	2220      	movs	r2, #32
 8008474:	f883 2042 	strb.w	r2, [r3, #66]	; 0x42
  huart->ReceptionType = HAL_UART_RECEPTION_STANDARD;
 8008478:	687b      	ldr	r3, [r7, #4]
 800847a:	2200      	movs	r2, #0
 800847c:	631a      	str	r2, [r3, #48]	; 0x30
}
 800847e:	bf00      	nop
 8008480:	3754      	adds	r7, #84	; 0x54
 8008482:	46bd      	mov	sp, r7
 8008484:	bc80      	pop	{r7}
 8008486:	4770      	bx	lr

08008488 <UART_DMAAbortOnError>:
  * @param  hdma  Pointer to a DMA_HandleTypeDef structure that contains
  *               the configuration information for the specified DMA module.
  * @retval None
  */
static void UART_DMAAbortOnError(DMA_HandleTypeDef *hdma)
{
 8008488:	b580      	push	{r7, lr}
 800848a:	b084      	sub	sp, #16
 800848c:	af00      	add	r7, sp, #0
 800848e:	6078      	str	r0, [r7, #4]
  UART_HandleTypeDef *huart = (UART_HandleTypeDef *)((DMA_HandleTypeDef *)hdma)->Parent;
 8008490:	687b      	ldr	r3, [r7, #4]
 8008492:	6a5b      	ldr	r3, [r3, #36]	; 0x24
 8008494:	60fb      	str	r3, [r7, #12]
  huart->RxXferCount = 0x00U;
 8008496:	68fb      	ldr	r3, [r7, #12]
 8008498:	2200      	movs	r2, #0
 800849a:	85da      	strh	r2, [r3, #46]	; 0x2e
  huart->TxXferCount = 0x00U;
 800849c:	68fb      	ldr	r3, [r7, #12]
 800849e:	2200      	movs	r2, #0
 80084a0:	84da      	strh	r2, [r3, #38]	; 0x26
#if (USE_HAL_UART_REGISTER_CALLBACKS == 1)
  /*Call registered error callback*/
  huart->ErrorCallback(huart);
#else
  /*Call legacy weak error callback*/
  HAL_UART_ErrorCallback(huart);
 80084a2:	68f8      	ldr	r0, [r7, #12]
 80084a4:	f7ff ff0c 	bl	80082c0 <HAL_UART_ErrorCallback>
#endif /* USE_HAL_UART_REGISTER_CALLBACKS */
}
 80084a8:	bf00      	nop
 80084aa:	3710      	adds	r7, #16
 80084ac:	46bd      	mov	sp, r7
 80084ae:	bd80      	pop	{r7, pc}

080084b0 <UART_Transmit_IT>:
  * @param  huart  Pointer to a UART_HandleTypeDef structure that contains
  *                the configuration information for the specified UART module.
  * @retval HAL status
  */
static HAL_StatusTypeDef UART_Transmit_IT(UART_HandleTypeDef *huart)
{
 80084b0:	b480      	push	{r7}
 80084b2:	b085      	sub	sp, #20
 80084b4:	af00      	add	r7, sp, #0
 80084b6:	6078      	str	r0, [r7, #4]
  const uint16_t *tmp;

  /* Check that a Tx process is ongoing */
  if (huart->gState == HAL_UART_STATE_BUSY_TX)
 80084b8:	687b      	ldr	r3, [r7, #4]
 80084ba:	f893 3041 	ldrb.w	r3, [r3, #65]	; 0x41
 80084be:	b2db      	uxtb	r3, r3
 80084c0:	2b21      	cmp	r3, #33	; 0x21
 80084c2:	d13e      	bne.n	8008542 <UART_Transmit_IT+0x92>
  {
    if ((huart->Init.WordLength == UART_WORDLENGTH_9B) && (huart->Init.Parity == UART_PARITY_NONE))
 80084c4:	687b      	ldr	r3, [r7, #4]
 80084c6:	689b      	ldr	r3, [r3, #8]
 80084c8:	f5b3 5f80 	cmp.w	r3, #4096	; 0x1000
 80084cc:	d114      	bne.n	80084f8 <UART_Transmit_IT+0x48>
 80084ce:	687b      	ldr	r3, [r7, #4]
 80084d0:	691b      	ldr	r3, [r3, #16]
 80084d2:	2b00      	cmp	r3, #0
 80084d4:	d110      	bne.n	80084f8 <UART_Transmit_IT+0x48>
    {
      tmp = (const uint16_t *) huart->pTxBuffPtr;
 80084d6:	687b      	ldr	r3, [r7, #4]
 80084d8:	6a1b      	ldr	r3, [r3, #32]
 80084da:	60fb      	str	r3, [r7, #12]
      huart->Instance->DR = (uint16_t)(*tmp & (uint16_t)0x01FF);
 80084dc:	68fb      	ldr	r3, [r7, #12]
 80084de:	881b      	ldrh	r3, [r3, #0]
 80084e0:	461a      	mov	r2, r3
 80084e2:	687b      	ldr	r3, [r7, #4]
 80084e4:	681b      	ldr	r3, [r3, #0]
 80084e6:	f3c2 0208 	ubfx	r2, r2, #0, #9
 80084ea:	605a      	str	r2, [r3, #4]
      huart->pTxBuffPtr += 2U;
 80084ec:	687b      	ldr	r3, [r7, #4]
 80084ee:	6a1b      	ldr	r3, [r3, #32]
 80084f0:	1c9a      	adds	r2, r3, #2
 80084f2:	687b      	ldr	r3, [r7, #4]
 80084f4:	621a      	str	r2, [r3, #32]
 80084f6:	e008      	b.n	800850a <UART_Transmit_IT+0x5a>
    }
    else
    {
      huart->Instance->DR = (uint8_t)(*huart->pTxBuffPtr++ & (uint8_t)0x00FF);
 80084f8:	687b      	ldr	r3, [r7, #4]
 80084fa:	6a1b      	ldr	r3, [r3, #32]
 80084fc:	1c59      	adds	r1, r3, #1
 80084fe:	687a      	ldr	r2, [r7, #4]
 8008500:	6211      	str	r1, [r2, #32]
 8008502:	781a      	ldrb	r2, [r3, #0]
 8008504:	687b      	ldr	r3, [r7, #4]
 8008506:	681b      	ldr	r3, [r3, #0]
 8008508:	605a      	str	r2, [r3, #4]
    }

    if (--huart->TxXferCount == 0U)
 800850a:	687b      	ldr	r3, [r7, #4]
 800850c:	8cdb      	ldrh	r3, [r3, #38]	; 0x26
 800850e:	b29b      	uxth	r3, r3
 8008510:	3b01      	subs	r3, #1
 8008512:	b29b      	uxth	r3, r3
 8008514:	687a      	ldr	r2, [r7, #4]
 8008516:	4619      	mov	r1, r3
 8008518:	84d1      	strh	r1, [r2, #38]	; 0x26
 800851a:	2b00      	cmp	r3, #0
 800851c:	d10f      	bne.n	800853e <UART_Transmit_IT+0x8e>
    {
      /* Disable the UART Transmit Data Register Empty Interrupt */
      __HAL_UART_DISABLE_IT(huart, UART_IT_TXE);
 800851e:	687b      	ldr	r3, [r7, #4]
 8008520:	681b      	ldr	r3, [r3, #0]
 8008522:	68da      	ldr	r2, [r3, #12]
 8008524:	687b      	ldr	r3, [r7, #4]
 8008526:	681b      	ldr	r3, [r3, #0]
 8008528:	f022 0280 	bic.w	r2, r2, #128	; 0x80
 800852c:	60da      	str	r2, [r3, #12]

      /* Enable the UART Transmit Complete Interrupt */
      __HAL_UART_ENABLE_IT(huart, UART_IT_TC);
 800852e:	687b      	ldr	r3, [r7, #4]
 8008530:	681b      	ldr	r3, [r3, #0]
 8008532:	68da      	ldr	r2, [r3, #12]
 8008534:	687b      	ldr	r3, [r7, #4]
 8008536:	681b      	ldr	r3, [r3, #0]
 8008538:	f042 0240 	orr.w	r2, r2, #64	; 0x40
 800853c:	60da      	str	r2, [r3, #12]
    }
    return HAL_OK;
 800853e:	2300      	movs	r3, #0
 8008540:	e000      	b.n	8008544 <UART_Transmit_IT+0x94>
  }
  else
  {
    return HAL_BUSY;
 8008542:	2302      	movs	r3, #2
  }
}
 8008544:	4618      	mov	r0, r3
 8008546:	3714      	adds	r7, #20
 8008548:	46bd      	mov	sp, r7
 800854a:	bc80      	pop	{r7}
 800854c:	4770      	bx	lr

0800854e <UART_EndTransmit_IT>:
  * @param  huart  Pointer to a UART_HandleTypeDef structure that contains
  *                the configuration information for the specified UART module.
  * @retval HAL status
  */
static HAL_StatusTypeDef UART_EndTransmit_IT(UART_HandleTypeDef *huart)
{
 800854e:	b580      	push	{r7, lr}
 8008550:	b082      	sub	sp, #8
 8008552:	af00      	add	r7, sp, #0
 8008554:	6078      	str	r0, [r7, #4]
  /* Disable the UART Transmit Complete Interrupt */
  __HAL_UART_DISABLE_IT(huart, UART_IT_TC);
 8008556:	687b      	ldr	r3, [r7, #4]
 8008558:	681b      	ldr	r3, [r3, #0]
 800855a:	68da      	ldr	r2, [r3, #12]
 800855c:	687b      	ldr	r3, [r7, #4]
 800855e:	681b      	ldr	r3, [r3, #0]
 8008560:	f022 0240 	bic.w	r2, r2, #64	; 0x40
 8008564:	60da      	str	r2, [r3, #12]

  /* Tx process is ended, restore huart->gState to Ready */
  huart->gState = HAL_UART_STATE_READY;
 8008566:	687b      	ldr	r3, [r7, #4]
 8008568:	2220      	movs	r2, #32
 800856a:	f883 2041 	strb.w	r2, [r3, #65]	; 0x41
#if (USE_HAL_UART_REGISTER_CALLBACKS == 1)
  /*Call registered Tx complete callback*/
  huart->TxCpltCallback(huart);
#else
  /*Call legacy weak Tx complete callback*/
  HAL_UART_TxCpltCallback(huart);
 800856e:	6878      	ldr	r0, [r7, #4]
 8008570:	f7ff fe94 	bl	800829c <HAL_UART_TxCpltCallback>
#endif /* USE_HAL_UART_REGISTER_CALLBACKS */

  return HAL_OK;
 8008574:	2300      	movs	r3, #0
}
 8008576:	4618      	mov	r0, r3
 8008578:	3708      	adds	r7, #8
 800857a:	46bd      	mov	sp, r7
 800857c:	bd80      	pop	{r7, pc}

0800857e <UART_Receive_IT>:
  * @param  huart  Pointer to a UART_HandleTypeDef structure that contains
  *                the configuration information for the specified UART module.
  * @retval HAL status
  */
static HAL_StatusTypeDef UART_Receive_IT(UART_HandleTypeDef *huart)
{
 800857e:	b580      	push	{r7, lr}
 8008580:	b08c      	sub	sp, #48	; 0x30
 8008582:	af00      	add	r7, sp, #0
 8008584:	6078      	str	r0, [r7, #4]
  uint8_t  *pdata8bits;
  uint16_t *pdata16bits;

  /* Check that a Rx process is ongoing */
  if (huart->RxState == HAL_UART_STATE_BUSY_RX)
 8008586:	687b      	ldr	r3, [r7, #4]
 8008588:	f893 3042 	ldrb.w	r3, [r3, #66]	; 0x42
 800858c:	b2db      	uxtb	r3, r3
 800858e:	2b22      	cmp	r3, #34	; 0x22
 8008590:	f040 80ae 	bne.w	80086f0 <UART_Receive_IT+0x172>
  {
    if ((huart->Init.WordLength == UART_WORDLENGTH_9B) && (huart->Init.Parity == UART_PARITY_NONE))
 8008594:	687b      	ldr	r3, [r7, #4]
 8008596:	689b      	ldr	r3, [r3, #8]
 8008598:	f5b3 5f80 	cmp.w	r3, #4096	; 0x1000
 800859c:	d117      	bne.n	80085ce <UART_Receive_IT+0x50>
 800859e:	687b      	ldr	r3, [r7, #4]
 80085a0:	691b      	ldr	r3, [r3, #16]
 80085a2:	2b00      	cmp	r3, #0
 80085a4:	d113      	bne.n	80085ce <UART_Receive_IT+0x50>
    {
      pdata8bits  = NULL;
 80085a6:	2300      	movs	r3, #0
 80085a8:	62fb      	str	r3, [r7, #44]	; 0x2c
      pdata16bits = (uint16_t *) huart->pRxBuffPtr;
 80085aa:	687b      	ldr	r3, [r7, #4]
 80085ac:	6a9b      	ldr	r3, [r3, #40]	; 0x28
 80085ae:	62bb      	str	r3, [r7, #40]	; 0x28
      *pdata16bits = (uint16_t)(huart->Instance->DR & (uint16_t)0x01FF);
 80085b0:	687b      	ldr	r3, [r7, #4]
 80085b2:	681b      	ldr	r3, [r3, #0]
 80085b4:	685b      	ldr	r3, [r3, #4]
 80085b6:	b29b      	uxth	r3, r3
 80085b8:	f3c3 0308 	ubfx	r3, r3, #0, #9
 80085bc:	b29a      	uxth	r2, r3
 80085be:	6abb      	ldr	r3, [r7, #40]	; 0x28
 80085c0:	801a      	strh	r2, [r3, #0]
      huart->pRxBuffPtr += 2U;
 80085c2:	687b      	ldr	r3, [r7, #4]
 80085c4:	6a9b      	ldr	r3, [r3, #40]	; 0x28
 80085c6:	1c9a      	adds	r2, r3, #2
 80085c8:	687b      	ldr	r3, [r7, #4]
 80085ca:	629a      	str	r2, [r3, #40]	; 0x28
 80085cc:	e026      	b.n	800861c <UART_Receive_IT+0x9e>
    }
    else
    {
      pdata8bits = (uint8_t *) huart->pRxBuffPtr;
 80085ce:	687b      	ldr	r3, [r7, #4]
 80085d0:	6a9b      	ldr	r3, [r3, #40]	; 0x28
 80085d2:	62fb      	str	r3, [r7, #44]	; 0x2c
      pdata16bits  = NULL;
 80085d4:	2300      	movs	r3, #0
 80085d6:	62bb      	str	r3, [r7, #40]	; 0x28

      if ((huart->Init.WordLength == UART_WORDLENGTH_9B) || ((huart->Init.WordLength == UART_WORDLENGTH_8B) && (huart->Init.Parity == UART_PARITY_NONE)))
 80085d8:	687b      	ldr	r3, [r7, #4]
 80085da:	689b      	ldr	r3, [r3, #8]
 80085dc:	f5b3 5f80 	cmp.w	r3, #4096	; 0x1000
 80085e0:	d007      	beq.n	80085f2 <UART_Receive_IT+0x74>
 80085e2:	687b      	ldr	r3, [r7, #4]
 80085e4:	689b      	ldr	r3, [r3, #8]
 80085e6:	2b00      	cmp	r3, #0
 80085e8:	d10a      	bne.n	8008600 <UART_Receive_IT+0x82>
 80085ea:	687b      	ldr	r3, [r7, #4]
 80085ec:	691b      	ldr	r3, [r3, #16]
 80085ee:	2b00      	cmp	r3, #0
 80085f0:	d106      	bne.n	8008600 <UART_Receive_IT+0x82>
      {
        *pdata8bits = (uint8_t)(huart->Instance->DR & (uint8_t)0x00FF);
 80085f2:	687b      	ldr	r3, [r7, #4]
 80085f4:	681b      	ldr	r3, [r3, #0]
 80085f6:	685b      	ldr	r3, [r3, #4]
 80085f8:	b2da      	uxtb	r2, r3
 80085fa:	6afb      	ldr	r3, [r7, #44]	; 0x2c
 80085fc:	701a      	strb	r2, [r3, #0]
 80085fe:	e008      	b.n	8008612 <UART_Receive_IT+0x94>
      }
      else
      {
        *pdata8bits = (uint8_t)(huart->Instance->DR & (uint8_t)0x007F);
 8008600:	687b      	ldr	r3, [r7, #4]
 8008602:	681b      	ldr	r3, [r3, #0]
 8008604:	685b      	ldr	r3, [r3, #4]
 8008606:	b2db      	uxtb	r3, r3
 8008608:	f003 037f 	and.w	r3, r3, #127	; 0x7f
 800860c:	b2da      	uxtb	r2, r3
 800860e:	6afb      	ldr	r3, [r7, #44]	; 0x2c
 8008610:	701a      	strb	r2, [r3, #0]
      }
      huart->pRxBuffPtr += 1U;
 8008612:	687b      	ldr	r3, [r7, #4]
 8008614:	6a9b      	ldr	r3, [r3, #40]	; 0x28
 8008616:	1c5a      	adds	r2, r3, #1
 8008618:	687b      	ldr	r3, [r7, #4]
 800861a:	629a      	str	r2, [r3, #40]	; 0x28
    }

    if (--huart->RxXferCount == 0U)
 800861c:	687b      	ldr	r3, [r7, #4]
 800861e:	8ddb      	ldrh	r3, [r3, #46]	; 0x2e
 8008620:	b29b      	uxth	r3, r3
 8008622:	3b01      	subs	r3, #1
 8008624:	b29b      	uxth	r3, r3
 8008626:	687a      	ldr	r2, [r7, #4]
 8008628:	4619      	mov	r1, r3
 800862a:	85d1      	strh	r1, [r2, #46]	; 0x2e
 800862c:	2b00      	cmp	r3, #0
 800862e:	d15d      	bne.n	80086ec <UART_Receive_IT+0x16e>
    {
      /* Disable the UART Data Register not empty Interrupt */
      __HAL_UART_DISABLE_IT(huart, UART_IT_RXNE);
 8008630:	687b      	ldr	r3, [r7, #4]
 8008632:	681b      	ldr	r3, [r3, #0]
 8008634:	68da      	ldr	r2, [r3, #12]
 8008636:	687b      	ldr	r3, [r7, #4]
 8008638:	681b      	ldr	r3, [r3, #0]
 800863a:	f022 0220 	bic.w	r2, r2, #32
 800863e:	60da      	str	r2, [r3, #12]

      /* Disable the UART Parity Error Interrupt */
      __HAL_UART_DISABLE_IT(huart, UART_IT_PE);
 8008640:	687b      	ldr	r3, [r7, #4]
 8008642:	681b      	ldr	r3, [r3, #0]
 8008644:	68da      	ldr	r2, [r3, #12]
 8008646:	687b      	ldr	r3, [r7, #4]
 8008648:	681b      	ldr	r3, [r3, #0]
 800864a:	f422 7280 	bic.w	r2, r2, #256	; 0x100
 800864e:	60da      	str	r2, [r3, #12]

      /* Disable the UART Error Interrupt: (Frame error, noise error, overrun error) */
      __HAL_UART_DISABLE_IT(huart, UART_IT_ERR);
 8008650:	687b      	ldr	r3, [r7, #4]
 8008652:	681b      	ldr	r3, [r3, #0]
 8008654:	695a      	ldr	r2, [r3, #20]
 8008656:	687b      	ldr	r3, [r7, #4]
 8008658:	681b      	ldr	r3, [r3, #0]
 800865a:	f022 0201 	bic.w	r2, r2, #1
 800865e:	615a      	str	r2, [r3, #20]

      /* Rx process is completed, restore huart->RxState to Ready */
      huart->RxState = HAL_UART_STATE_READY;
 8008660:	687b      	ldr	r3, [r7, #4]
 8008662:	2220      	movs	r2, #32
 8008664:	f883 2042 	strb.w	r2, [r3, #66]	; 0x42

      /* Initialize type of RxEvent to Transfer Complete */
      huart->RxEventType = HAL_UART_RXEVENT_TC;
 8008668:	687b      	ldr	r3, [r7, #4]
 800866a:	2200      	movs	r2, #0
 800866c:	635a      	str	r2, [r3, #52]	; 0x34

      /* Check current reception Mode :
         If Reception till IDLE event has been selected : */
      if (huart->ReceptionType == HAL_UART_RECEPTION_TOIDLE)
 800866e:	687b      	ldr	r3, [r7, #4]
 8008670:	6b1b      	ldr	r3, [r3, #48]	; 0x30
 8008672:	2b01      	cmp	r3, #1
 8008674:	d135      	bne.n	80086e2 <UART_Receive_IT+0x164>
      {
        /* Set reception type to Standard */
        huart->ReceptionType = HAL_UART_RECEPTION_STANDARD;
 8008676:	687b      	ldr	r3, [r7, #4]
 8008678:	2200      	movs	r2, #0
 800867a:	631a      	str	r2, [r3, #48]	; 0x30

        /* Disable IDLE interrupt */
        ATOMIC_CLEAR_BIT(huart->Instance->CR1, USART_CR1_IDLEIE);
 800867c:	687b      	ldr	r3, [r7, #4]
 800867e:	681b      	ldr	r3, [r3, #0]
 8008680:	330c      	adds	r3, #12
 8008682:	617b      	str	r3, [r7, #20]
   __ASM volatile ("ldrex %0, %1" : "=r" (result) : "Q" (*addr) );
 8008684:	697b      	ldr	r3, [r7, #20]
 8008686:	e853 3f00 	ldrex	r3, [r3]
 800868a:	613b      	str	r3, [r7, #16]
   return(result);
 800868c:	693b      	ldr	r3, [r7, #16]
 800868e:	f023 0310 	bic.w	r3, r3, #16
 8008692:	627b      	str	r3, [r7, #36]	; 0x24
 8008694:	687b      	ldr	r3, [r7, #4]
 8008696:	681b      	ldr	r3, [r3, #0]
 8008698:	330c      	adds	r3, #12
 800869a:	6a7a      	ldr	r2, [r7, #36]	; 0x24
 800869c:	623a      	str	r2, [r7, #32]
 800869e:	61fb      	str	r3, [r7, #28]
   __ASM volatile ("strex %0, %2, %1" : "=&r" (result), "=Q" (*addr) : "r" (value) );
 80086a0:	69f9      	ldr	r1, [r7, #28]
 80086a2:	6a3a      	ldr	r2, [r7, #32]
 80086a4:	e841 2300 	strex	r3, r2, [r1]
 80086a8:	61bb      	str	r3, [r7, #24]
   return(result);
 80086aa:	69bb      	ldr	r3, [r7, #24]
 80086ac:	2b00      	cmp	r3, #0
 80086ae:	d1e5      	bne.n	800867c <UART_Receive_IT+0xfe>

        /* Check if IDLE flag is set */
        if (__HAL_UART_GET_FLAG(huart, UART_FLAG_IDLE))
 80086b0:	687b      	ldr	r3, [r7, #4]
 80086b2:	681b      	ldr	r3, [r3, #0]
 80086b4:	681b      	ldr	r3, [r3, #0]
 80086b6:	f003 0310 	and.w	r3, r3, #16
 80086ba:	2b10      	cmp	r3, #16
 80086bc:	d10a      	bne.n	80086d4 <UART_Receive_IT+0x156>
        {
          /* Clear IDLE flag in ISR */
          __HAL_UART_CLEAR_IDLEFLAG(huart);
 80086be:	2300      	movs	r3, #0
 80086c0:	60fb      	str	r3, [r7, #12]
 80086c2:	687b      	ldr	r3, [r7, #4]
 80086c4:	681b      	ldr	r3, [r3, #0]
 80086c6:	681b      	ldr	r3, [r3, #0]
 80086c8:	60fb      	str	r3, [r7, #12]
 80086ca:	687b      	ldr	r3, [r7, #4]
 80086cc:	681b      	ldr	r3, [r3, #0]
 80086ce:	685b      	ldr	r3, [r3, #4]
 80086d0:	60fb      	str	r3, [r7, #12]
 80086d2:	68fb      	ldr	r3, [r7, #12]
#if (USE_HAL_UART_REGISTER_CALLBACKS == 1)
        /*Call registered Rx Event callback*/
        huart->RxEventCallback(huart, huart->RxXferSize);
#else
        /*Call legacy weak Rx Event callback*/
        HAL_UARTEx_RxEventCallback(huart, huart->RxXferSize);
 80086d4:	687b      	ldr	r3, [r7, #4]
 80086d6:	8d9b      	ldrh	r3, [r3, #44]	; 0x2c
 80086d8:	4619      	mov	r1, r3
 80086da:	6878      	ldr	r0, [r7, #4]
 80086dc:	f7ff fdf9 	bl	80082d2 <HAL_UARTEx_RxEventCallback>
 80086e0:	e002      	b.n	80086e8 <UART_Receive_IT+0x16a>
#if (USE_HAL_UART_REGISTER_CALLBACKS == 1)
        /*Call registered Rx complete callback*/
        huart->RxCpltCallback(huart);
#else
        /*Call legacy weak Rx complete callback*/
        HAL_UART_RxCpltCallback(huart);
 80086e2:	6878      	ldr	r0, [r7, #4]
 80086e4:	f7ff fde3 	bl	80082ae <HAL_UART_RxCpltCallback>
#endif /* USE_HAL_UART_REGISTER_CALLBACKS */
      }

      return HAL_OK;
 80086e8:	2300      	movs	r3, #0
 80086ea:	e002      	b.n	80086f2 <UART_Receive_IT+0x174>
    }
    return HAL_OK;
 80086ec:	2300      	movs	r3, #0
 80086ee:	e000      	b.n	80086f2 <UART_Receive_IT+0x174>
  }
  else
  {
    return HAL_BUSY;
 80086f0:	2302      	movs	r3, #2
  }
}
 80086f2:	4618      	mov	r0, r3
 80086f4:	3730      	adds	r7, #48	; 0x30
 80086f6:	46bd      	mov	sp, r7
 80086f8:	bd80      	pop	{r7, pc}
	...

080086fc <UART_SetConfig>:
  * @param  huart  Pointer to a UART_HandleTypeDef structure that contains
  *                the configuration information for the specified UART module.
  * @retval None
  */
static void UART_SetConfig(UART_HandleTypeDef *huart)
{
 80086fc:	b580      	push	{r7, lr}
 80086fe:	b084      	sub	sp, #16
 8008700:	af00      	add	r7, sp, #0
 8008702:	6078      	str	r0, [r7, #4]
  assert_param(IS_UART_MODE(huart->Init.Mode));

  /*-------------------------- USART CR2 Configuration -----------------------*/
  /* Configure the UART Stop Bits: Set STOP[13:12] bits
     according to huart->Init.StopBits value */
  MODIFY_REG(huart->Instance->CR2, USART_CR2_STOP, huart->Init.StopBits);
 8008704:	687b      	ldr	r3, [r7, #4]
 8008706:	681b      	ldr	r3, [r3, #0]
 8008708:	691b      	ldr	r3, [r3, #16]
 800870a:	f423 5140 	bic.w	r1, r3, #12288	; 0x3000
 800870e:	687b      	ldr	r3, [r7, #4]
 8008710:	68da      	ldr	r2, [r3, #12]
 8008712:	687b      	ldr	r3, [r7, #4]
 8008714:	681b      	ldr	r3, [r3, #0]
 8008716:	430a      	orrs	r2, r1
 8008718:	611a      	str	r2, [r3, #16]
  tmpreg = (uint32_t)huart->Init.WordLength | huart->Init.Parity | huart->Init.Mode | huart->Init.OverSampling;
  MODIFY_REG(huart->Instance->CR1,
             (uint32_t)(USART_CR1_M | USART_CR1_PCE | USART_CR1_PS | USART_CR1_TE | USART_CR1_RE | USART_CR1_OVER8),
             tmpreg);
#else
  tmpreg = (uint32_t)huart->Init.WordLength | huart->Init.Parity | huart->Init.Mode;
 800871a:	687b      	ldr	r3, [r7, #4]
 800871c:	689a      	ldr	r2, [r3, #8]
 800871e:	687b      	ldr	r3, [r7, #4]
 8008720:	691b      	ldr	r3, [r3, #16]
 8008722:	431a      	orrs	r2, r3
 8008724:	687b      	ldr	r3, [r7, #4]
 8008726:	695b      	ldr	r3, [r3, #20]
 8008728:	4313      	orrs	r3, r2
 800872a:	60bb      	str	r3, [r7, #8]
  MODIFY_REG(huart->Instance->CR1,
 800872c:	687b      	ldr	r3, [r7, #4]
 800872e:	681b      	ldr	r3, [r3, #0]
 8008730:	68db      	ldr	r3, [r3, #12]
 8008732:	f423 53b0 	bic.w	r3, r3, #5632	; 0x1600
 8008736:	f023 030c 	bic.w	r3, r3, #12
 800873a:	687a      	ldr	r2, [r7, #4]
 800873c:	6812      	ldr	r2, [r2, #0]
 800873e:	68b9      	ldr	r1, [r7, #8]
 8008740:	430b      	orrs	r3, r1
 8008742:	60d3      	str	r3, [r2, #12]
             tmpreg);
#endif /* USART_CR1_OVER8 */

  /*-------------------------- USART CR3 Configuration -----------------------*/
  /* Configure the UART HFC: Set CTSE and RTSE bits according to huart->Init.HwFlowCtl value */
  MODIFY_REG(huart->Instance->CR3, (USART_CR3_RTSE | USART_CR3_CTSE), huart->Init.HwFlowCtl);
 8008744:	687b      	ldr	r3, [r7, #4]
 8008746:	681b      	ldr	r3, [r3, #0]
 8008748:	695b      	ldr	r3, [r3, #20]
 800874a:	f423 7140 	bic.w	r1, r3, #768	; 0x300
 800874e:	687b      	ldr	r3, [r7, #4]
 8008750:	699a      	ldr	r2, [r3, #24]
 8008752:	687b      	ldr	r3, [r7, #4]
 8008754:	681b      	ldr	r3, [r3, #0]
 8008756:	430a      	orrs	r2, r1
 8008758:	615a      	str	r2, [r3, #20]


  if(huart->Instance == USART1)
 800875a:	687b      	ldr	r3, [r7, #4]
 800875c:	681b      	ldr	r3, [r3, #0]
 800875e:	4a2c      	ldr	r2, [pc, #176]	; (8008810 <UART_SetConfig+0x114>)
 8008760:	4293      	cmp	r3, r2
 8008762:	d103      	bne.n	800876c <UART_SetConfig+0x70>
  {
    pclk = HAL_RCC_GetPCLK2Freq();
 8008764:	f7fe faa4 	bl	8006cb0 <HAL_RCC_GetPCLK2Freq>
 8008768:	60f8      	str	r0, [r7, #12]
 800876a:	e002      	b.n	8008772 <UART_SetConfig+0x76>
  }
  else
  {
    pclk = HAL_RCC_GetPCLK1Freq();
 800876c:	f7fe fa8c 	bl	8006c88 <HAL_RCC_GetPCLK1Freq>
 8008770:	60f8      	str	r0, [r7, #12]
  else
  {
    huart->Instance->BRR = UART_BRR_SAMPLING16(pclk, huart->Init.BaudRate);
  }
#else
  huart->Instance->BRR = UART_BRR_SAMPLING16(pclk, huart->Init.BaudRate);
 8008772:	68fa      	ldr	r2, [r7, #12]
 8008774:	4613      	mov	r3, r2
 8008776:	009b      	lsls	r3, r3, #2
 8008778:	4413      	add	r3, r2
 800877a:	009a      	lsls	r2, r3, #2
 800877c:	441a      	add	r2, r3
 800877e:	687b      	ldr	r3, [r7, #4]
 8008780:	685b      	ldr	r3, [r3, #4]
 8008782:	009b      	lsls	r3, r3, #2
 8008784:	fbb2 f3f3 	udiv	r3, r2, r3
 8008788:	4a22      	ldr	r2, [pc, #136]	; (8008814 <UART_SetConfig+0x118>)
 800878a:	fba2 2303 	umull	r2, r3, r2, r3
 800878e:	095b      	lsrs	r3, r3, #5
 8008790:	0119      	lsls	r1, r3, #4
 8008792:	68fa      	ldr	r2, [r7, #12]
 8008794:	4613      	mov	r3, r2
 8008796:	009b      	lsls	r3, r3, #2
 8008798:	4413      	add	r3, r2
 800879a:	009a      	lsls	r2, r3, #2
 800879c:	441a      	add	r2, r3
 800879e:	687b      	ldr	r3, [r7, #4]
 80087a0:	685b      	ldr	r3, [r3, #4]
 80087a2:	009b      	lsls	r3, r3, #2
 80087a4:	fbb2 f2f3 	udiv	r2, r2, r3
 80087a8:	4b1a      	ldr	r3, [pc, #104]	; (8008814 <UART_SetConfig+0x118>)
 80087aa:	fba3 0302 	umull	r0, r3, r3, r2
 80087ae:	095b      	lsrs	r3, r3, #5
 80087b0:	2064      	movs	r0, #100	; 0x64
 80087b2:	fb00 f303 	mul.w	r3, r0, r3
 80087b6:	1ad3      	subs	r3, r2, r3
 80087b8:	011b      	lsls	r3, r3, #4
 80087ba:	3332      	adds	r3, #50	; 0x32
 80087bc:	4a15      	ldr	r2, [pc, #84]	; (8008814 <UART_SetConfig+0x118>)
 80087be:	fba2 2303 	umull	r2, r3, r2, r3
 80087c2:	095b      	lsrs	r3, r3, #5
 80087c4:	f003 03f0 	and.w	r3, r3, #240	; 0xf0
 80087c8:	4419      	add	r1, r3
 80087ca:	68fa      	ldr	r2, [r7, #12]
 80087cc:	4613      	mov	r3, r2
 80087ce:	009b      	lsls	r3, r3, #2
 80087d0:	4413      	add	r3, r2
 80087d2:	009a      	lsls	r2, r3, #2
 80087d4:	441a      	add	r2, r3
 80087d6:	687b      	ldr	r3, [r7, #4]
 80087d8:	685b      	ldr	r3, [r3, #4]
 80087da:	009b      	lsls	r3, r3, #2
 80087dc:	fbb2 f2f3 	udiv	r2, r2, r3
 80087e0:	4b0c      	ldr	r3, [pc, #48]	; (8008814 <UART_SetConfig+0x118>)
 80087e2:	fba3 0302 	umull	r0, r3, r3, r2
 80087e6:	095b      	lsrs	r3, r3, #5
 80087e8:	2064      	movs	r0, #100	; 0x64
 80087ea:	fb00 f303 	mul.w	r3, r0, r3
 80087ee:	1ad3      	subs	r3, r2, r3
 80087f0:	011b      	lsls	r3, r3, #4
 80087f2:	3332      	adds	r3, #50	; 0x32
 80087f4:	4a07      	ldr	r2, [pc, #28]	; (8008814 <UART_SetConfig+0x118>)
 80087f6:	fba2 2303 	umull	r2, r3, r2, r3
 80087fa:	095b      	lsrs	r3, r3, #5
 80087fc:	f003 020f 	and.w	r2, r3, #15
 8008800:	687b      	ldr	r3, [r7, #4]
 8008802:	681b      	ldr	r3, [r3, #0]
 8008804:	440a      	add	r2, r1
 8008806:	609a      	str	r2, [r3, #8]
#endif /* USART_CR1_OVER8 */
}
 8008808:	bf00      	nop
 800880a:	3710      	adds	r7, #16
 800880c:	46bd      	mov	sp, r7
 800880e:	bd80      	pop	{r7, pc}
 8008810:	40013800 	.word	0x40013800
 8008814:	51eb851f 	.word	0x51eb851f

08008818 <siprintf>:
 8008818:	b40e      	push	{r1, r2, r3}
 800881a:	f06f 4100 	mvn.w	r1, #2147483648	; 0x80000000
 800881e:	b500      	push	{lr}
 8008820:	b09c      	sub	sp, #112	; 0x70
 8008822:	ab1d      	add	r3, sp, #116	; 0x74
 8008824:	9002      	str	r0, [sp, #8]
 8008826:	9006      	str	r0, [sp, #24]
 8008828:	9107      	str	r1, [sp, #28]
 800882a:	9104      	str	r1, [sp, #16]
 800882c:	4808      	ldr	r0, [pc, #32]	; (8008850 <siprintf+0x38>)
 800882e:	4909      	ldr	r1, [pc, #36]	; (8008854 <siprintf+0x3c>)
 8008830:	f853 2b04 	ldr.w	r2, [r3], #4
 8008834:	9105      	str	r1, [sp, #20]
 8008836:	6800      	ldr	r0, [r0, #0]
 8008838:	a902      	add	r1, sp, #8
 800883a:	9301      	str	r3, [sp, #4]
 800883c:	f000 f98e 	bl	8008b5c <_svfiprintf_r>
 8008840:	2200      	movs	r2, #0
 8008842:	9b02      	ldr	r3, [sp, #8]
 8008844:	701a      	strb	r2, [r3, #0]
 8008846:	b01c      	add	sp, #112	; 0x70
 8008848:	f85d eb04 	ldr.w	lr, [sp], #4
 800884c:	b003      	add	sp, #12
 800884e:	4770      	bx	lr
 8008850:	20000104 	.word	0x20000104
 8008854:	ffff0208 	.word	0xffff0208

08008858 <memset>:
 8008858:	4603      	mov	r3, r0
 800885a:	4402      	add	r2, r0
 800885c:	4293      	cmp	r3, r2
 800885e:	d100      	bne.n	8008862 <memset+0xa>
 8008860:	4770      	bx	lr
 8008862:	f803 1b01 	strb.w	r1, [r3], #1
 8008866:	e7f9      	b.n	800885c <memset+0x4>

08008868 <__errno>:
 8008868:	4b01      	ldr	r3, [pc, #4]	; (8008870 <__errno+0x8>)
 800886a:	6818      	ldr	r0, [r3, #0]
 800886c:	4770      	bx	lr
 800886e:	bf00      	nop
 8008870:	20000104 	.word	0x20000104

08008874 <__libc_init_array>:
 8008874:	b570      	push	{r4, r5, r6, lr}
 8008876:	2600      	movs	r6, #0
 8008878:	4d0c      	ldr	r5, [pc, #48]	; (80088ac <__libc_init_array+0x38>)
 800887a:	4c0d      	ldr	r4, [pc, #52]	; (80088b0 <__libc_init_array+0x3c>)
 800887c:	1b64      	subs	r4, r4, r5
 800887e:	10a4      	asrs	r4, r4, #2
 8008880:	42a6      	cmp	r6, r4
 8008882:	d109      	bne.n	8008898 <__libc_init_array+0x24>
 8008884:	f000 ffd6 	bl	8009834 <_init>
 8008888:	2600      	movs	r6, #0
 800888a:	4d0a      	ldr	r5, [pc, #40]	; (80088b4 <__libc_init_array+0x40>)
 800888c:	4c0a      	ldr	r4, [pc, #40]	; (80088b8 <__libc_init_array+0x44>)
 800888e:	1b64      	subs	r4, r4, r5
 8008890:	10a4      	asrs	r4, r4, #2
 8008892:	42a6      	cmp	r6, r4
 8008894:	d105      	bne.n	80088a2 <__libc_init_array+0x2e>
 8008896:	bd70      	pop	{r4, r5, r6, pc}
 8008898:	f855 3b04 	ldr.w	r3, [r5], #4
 800889c:	4798      	blx	r3
 800889e:	3601      	adds	r6, #1
 80088a0:	e7ee      	b.n	8008880 <__libc_init_array+0xc>
 80088a2:	f855 3b04 	ldr.w	r3, [r5], #4
 80088a6:	4798      	blx	r3
 80088a8:	3601      	adds	r6, #1
 80088aa:	e7f2      	b.n	8008892 <__libc_init_array+0x1e>
 80088ac:	08009c00 	.word	0x08009c00
 80088b0:	08009c00 	.word	0x08009c00
 80088b4:	08009c00 	.word	0x08009c00
 80088b8:	08009c04 	.word	0x08009c04

080088bc <__retarget_lock_acquire_recursive>:
 80088bc:	4770      	bx	lr

080088be <__retarget_lock_release_recursive>:
 80088be:	4770      	bx	lr

080088c0 <_free_r>:
 80088c0:	b538      	push	{r3, r4, r5, lr}
 80088c2:	4605      	mov	r5, r0
 80088c4:	2900      	cmp	r1, #0
 80088c6:	d040      	beq.n	800894a <_free_r+0x8a>
 80088c8:	f851 3c04 	ldr.w	r3, [r1, #-4]
 80088cc:	1f0c      	subs	r4, r1, #4
 80088ce:	2b00      	cmp	r3, #0
 80088d0:	bfb8      	it	lt
 80088d2:	18e4      	addlt	r4, r4, r3
 80088d4:	f000 f8dc 	bl	8008a90 <__malloc_lock>
 80088d8:	4a1c      	ldr	r2, [pc, #112]	; (800894c <_free_r+0x8c>)
 80088da:	6813      	ldr	r3, [r2, #0]
 80088dc:	b933      	cbnz	r3, 80088ec <_free_r+0x2c>
 80088de:	6063      	str	r3, [r4, #4]
 80088e0:	6014      	str	r4, [r2, #0]
 80088e2:	4628      	mov	r0, r5
 80088e4:	e8bd 4038 	ldmia.w	sp!, {r3, r4, r5, lr}
 80088e8:	f000 b8d8 	b.w	8008a9c <__malloc_unlock>
 80088ec:	42a3      	cmp	r3, r4
 80088ee:	d908      	bls.n	8008902 <_free_r+0x42>
 80088f0:	6820      	ldr	r0, [r4, #0]
 80088f2:	1821      	adds	r1, r4, r0
 80088f4:	428b      	cmp	r3, r1
 80088f6:	bf01      	itttt	eq
 80088f8:	6819      	ldreq	r1, [r3, #0]
 80088fa:	685b      	ldreq	r3, [r3, #4]
 80088fc:	1809      	addeq	r1, r1, r0
 80088fe:	6021      	streq	r1, [r4, #0]
 8008900:	e7ed      	b.n	80088de <_free_r+0x1e>
 8008902:	461a      	mov	r2, r3
 8008904:	685b      	ldr	r3, [r3, #4]
 8008906:	b10b      	cbz	r3, 800890c <_free_r+0x4c>
 8008908:	42a3      	cmp	r3, r4
 800890a:	d9fa      	bls.n	8008902 <_free_r+0x42>
 800890c:	6811      	ldr	r1, [r2, #0]
 800890e:	1850      	adds	r0, r2, r1
 8008910:	42a0      	cmp	r0, r4
 8008912:	d10b      	bne.n	800892c <_free_r+0x6c>
 8008914:	6820      	ldr	r0, [r4, #0]
 8008916:	4401      	add	r1, r0
 8008918:	1850      	adds	r0, r2, r1
 800891a:	4283      	cmp	r3, r0
 800891c:	6011      	str	r1, [r2, #0]
 800891e:	d1e0      	bne.n	80088e2 <_free_r+0x22>
 8008920:	6818      	ldr	r0, [r3, #0]
 8008922:	685b      	ldr	r3, [r3, #4]
 8008924:	4408      	add	r0, r1
 8008926:	6010      	str	r0, [r2, #0]
 8008928:	6053      	str	r3, [r2, #4]
 800892a:	e7da      	b.n	80088e2 <_free_r+0x22>
 800892c:	d902      	bls.n	8008934 <_free_r+0x74>
 800892e:	230c      	movs	r3, #12
 8008930:	602b      	str	r3, [r5, #0]
 8008932:	e7d6      	b.n	80088e2 <_free_r+0x22>
 8008934:	6820      	ldr	r0, [r4, #0]
 8008936:	1821      	adds	r1, r4, r0
 8008938:	428b      	cmp	r3, r1
 800893a:	bf01      	itttt	eq
 800893c:	6819      	ldreq	r1, [r3, #0]
 800893e:	685b      	ldreq	r3, [r3, #4]
 8008940:	1809      	addeq	r1, r1, r0
 8008942:	6021      	streq	r1, [r4, #0]
 8008944:	6063      	str	r3, [r4, #4]
 8008946:	6054      	str	r4, [r2, #4]
 8008948:	e7cb      	b.n	80088e2 <_free_r+0x22>
 800894a:	bd38      	pop	{r3, r4, r5, pc}
 800894c:	20000728 	.word	0x20000728

08008950 <sbrk_aligned>:
 8008950:	b570      	push	{r4, r5, r6, lr}
 8008952:	4e0e      	ldr	r6, [pc, #56]	; (800898c <sbrk_aligned+0x3c>)
 8008954:	460c      	mov	r4, r1
 8008956:	6831      	ldr	r1, [r6, #0]
 8008958:	4605      	mov	r5, r0
 800895a:	b911      	cbnz	r1, 8008962 <sbrk_aligned+0x12>
 800895c:	f000 fbaa 	bl	80090b4 <_sbrk_r>
 8008960:	6030      	str	r0, [r6, #0]
 8008962:	4621      	mov	r1, r4
 8008964:	4628      	mov	r0, r5
 8008966:	f000 fba5 	bl	80090b4 <_sbrk_r>
 800896a:	1c43      	adds	r3, r0, #1
 800896c:	d00a      	beq.n	8008984 <sbrk_aligned+0x34>
 800896e:	1cc4      	adds	r4, r0, #3
 8008970:	f024 0403 	bic.w	r4, r4, #3
 8008974:	42a0      	cmp	r0, r4
 8008976:	d007      	beq.n	8008988 <sbrk_aligned+0x38>
 8008978:	1a21      	subs	r1, r4, r0
 800897a:	4628      	mov	r0, r5
 800897c:	f000 fb9a 	bl	80090b4 <_sbrk_r>
 8008980:	3001      	adds	r0, #1
 8008982:	d101      	bne.n	8008988 <sbrk_aligned+0x38>
 8008984:	f04f 34ff 	mov.w	r4, #4294967295
 8008988:	4620      	mov	r0, r4
 800898a:	bd70      	pop	{r4, r5, r6, pc}
 800898c:	2000072c 	.word	0x2000072c

08008990 <_malloc_r>:
 8008990:	e92d 43f8 	stmdb	sp!, {r3, r4, r5, r6, r7, r8, r9, lr}
 8008994:	1ccd      	adds	r5, r1, #3
 8008996:	f025 0503 	bic.w	r5, r5, #3
 800899a:	3508      	adds	r5, #8
 800899c:	2d0c      	cmp	r5, #12
 800899e:	bf38      	it	cc
 80089a0:	250c      	movcc	r5, #12
 80089a2:	2d00      	cmp	r5, #0
 80089a4:	4607      	mov	r7, r0
 80089a6:	db01      	blt.n	80089ac <_malloc_r+0x1c>
 80089a8:	42a9      	cmp	r1, r5
 80089aa:	d905      	bls.n	80089b8 <_malloc_r+0x28>
 80089ac:	230c      	movs	r3, #12
 80089ae:	2600      	movs	r6, #0
 80089b0:	603b      	str	r3, [r7, #0]
 80089b2:	4630      	mov	r0, r6
 80089b4:	e8bd 83f8 	ldmia.w	sp!, {r3, r4, r5, r6, r7, r8, r9, pc}
 80089b8:	f8df 80d0 	ldr.w	r8, [pc, #208]	; 8008a8c <_malloc_r+0xfc>
 80089bc:	f000 f868 	bl	8008a90 <__malloc_lock>
 80089c0:	f8d8 3000 	ldr.w	r3, [r8]
 80089c4:	461c      	mov	r4, r3
 80089c6:	bb5c      	cbnz	r4, 8008a20 <_malloc_r+0x90>
 80089c8:	4629      	mov	r1, r5
 80089ca:	4638      	mov	r0, r7
 80089cc:	f7ff ffc0 	bl	8008950 <sbrk_aligned>
 80089d0:	1c43      	adds	r3, r0, #1
 80089d2:	4604      	mov	r4, r0
 80089d4:	d155      	bne.n	8008a82 <_malloc_r+0xf2>
 80089d6:	f8d8 4000 	ldr.w	r4, [r8]
 80089da:	4626      	mov	r6, r4
 80089dc:	2e00      	cmp	r6, #0
 80089de:	d145      	bne.n	8008a6c <_malloc_r+0xdc>
 80089e0:	2c00      	cmp	r4, #0
 80089e2:	d048      	beq.n	8008a76 <_malloc_r+0xe6>
 80089e4:	6823      	ldr	r3, [r4, #0]
 80089e6:	4631      	mov	r1, r6
 80089e8:	4638      	mov	r0, r7
 80089ea:	eb04 0903 	add.w	r9, r4, r3
 80089ee:	f000 fb61 	bl	80090b4 <_sbrk_r>
 80089f2:	4581      	cmp	r9, r0
 80089f4:	d13f      	bne.n	8008a76 <_malloc_r+0xe6>
 80089f6:	6821      	ldr	r1, [r4, #0]
 80089f8:	4638      	mov	r0, r7
 80089fa:	1a6d      	subs	r5, r5, r1
 80089fc:	4629      	mov	r1, r5
 80089fe:	f7ff ffa7 	bl	8008950 <sbrk_aligned>
 8008a02:	3001      	adds	r0, #1
 8008a04:	d037      	beq.n	8008a76 <_malloc_r+0xe6>
 8008a06:	6823      	ldr	r3, [r4, #0]
 8008a08:	442b      	add	r3, r5
 8008a0a:	6023      	str	r3, [r4, #0]
 8008a0c:	f8d8 3000 	ldr.w	r3, [r8]
 8008a10:	2b00      	cmp	r3, #0
 8008a12:	d038      	beq.n	8008a86 <_malloc_r+0xf6>
 8008a14:	685a      	ldr	r2, [r3, #4]
 8008a16:	42a2      	cmp	r2, r4
 8008a18:	d12b      	bne.n	8008a72 <_malloc_r+0xe2>
 8008a1a:	2200      	movs	r2, #0
 8008a1c:	605a      	str	r2, [r3, #4]
 8008a1e:	e00f      	b.n	8008a40 <_malloc_r+0xb0>
 8008a20:	6822      	ldr	r2, [r4, #0]
 8008a22:	1b52      	subs	r2, r2, r5
 8008a24:	d41f      	bmi.n	8008a66 <_malloc_r+0xd6>
 8008a26:	2a0b      	cmp	r2, #11
 8008a28:	d917      	bls.n	8008a5a <_malloc_r+0xca>
 8008a2a:	1961      	adds	r1, r4, r5
 8008a2c:	42a3      	cmp	r3, r4
 8008a2e:	6025      	str	r5, [r4, #0]
 8008a30:	bf18      	it	ne
 8008a32:	6059      	strne	r1, [r3, #4]
 8008a34:	6863      	ldr	r3, [r4, #4]
 8008a36:	bf08      	it	eq
 8008a38:	f8c8 1000 	streq.w	r1, [r8]
 8008a3c:	5162      	str	r2, [r4, r5]
 8008a3e:	604b      	str	r3, [r1, #4]
 8008a40:	4638      	mov	r0, r7
 8008a42:	f104 060b 	add.w	r6, r4, #11
 8008a46:	f000 f829 	bl	8008a9c <__malloc_unlock>
 8008a4a:	f026 0607 	bic.w	r6, r6, #7
 8008a4e:	1d23      	adds	r3, r4, #4
 8008a50:	1af2      	subs	r2, r6, r3
 8008a52:	d0ae      	beq.n	80089b2 <_malloc_r+0x22>
 8008a54:	1b9b      	subs	r3, r3, r6
 8008a56:	50a3      	str	r3, [r4, r2]
 8008a58:	e7ab      	b.n	80089b2 <_malloc_r+0x22>
 8008a5a:	42a3      	cmp	r3, r4
 8008a5c:	6862      	ldr	r2, [r4, #4]
 8008a5e:	d1dd      	bne.n	8008a1c <_malloc_r+0x8c>
 8008a60:	f8c8 2000 	str.w	r2, [r8]
 8008a64:	e7ec      	b.n	8008a40 <_malloc_r+0xb0>
 8008a66:	4623      	mov	r3, r4
 8008a68:	6864      	ldr	r4, [r4, #4]
 8008a6a:	e7ac      	b.n	80089c6 <_malloc_r+0x36>
 8008a6c:	4634      	mov	r4, r6
 8008a6e:	6876      	ldr	r6, [r6, #4]
 8008a70:	e7b4      	b.n	80089dc <_malloc_r+0x4c>
 8008a72:	4613      	mov	r3, r2
 8008a74:	e7cc      	b.n	8008a10 <_malloc_r+0x80>
 8008a76:	230c      	movs	r3, #12
 8008a78:	4638      	mov	r0, r7
 8008a7a:	603b      	str	r3, [r7, #0]
 8008a7c:	f000 f80e 	bl	8008a9c <__malloc_unlock>
 8008a80:	e797      	b.n	80089b2 <_malloc_r+0x22>
 8008a82:	6025      	str	r5, [r4, #0]
 8008a84:	e7dc      	b.n	8008a40 <_malloc_r+0xb0>
 8008a86:	605b      	str	r3, [r3, #4]
 8008a88:	deff      	udf	#255	; 0xff
 8008a8a:	bf00      	nop
 8008a8c:	20000728 	.word	0x20000728

08008a90 <__malloc_lock>:
 8008a90:	4801      	ldr	r0, [pc, #4]	; (8008a98 <__malloc_lock+0x8>)
 8008a92:	f7ff bf13 	b.w	80088bc <__retarget_lock_acquire_recursive>
 8008a96:	bf00      	nop
 8008a98:	20000724 	.word	0x20000724

08008a9c <__malloc_unlock>:
 8008a9c:	4801      	ldr	r0, [pc, #4]	; (8008aa4 <__malloc_unlock+0x8>)
 8008a9e:	f7ff bf0e 	b.w	80088be <__retarget_lock_release_recursive>
 8008aa2:	bf00      	nop
 8008aa4:	20000724 	.word	0x20000724

08008aa8 <__ssputs_r>:
 8008aa8:	e92d 47f0 	stmdb	sp!, {r4, r5, r6, r7, r8, r9, sl, lr}
 8008aac:	461f      	mov	r7, r3
 8008aae:	688e      	ldr	r6, [r1, #8]
 8008ab0:	4682      	mov	sl, r0
 8008ab2:	42be      	cmp	r6, r7
 8008ab4:	460c      	mov	r4, r1
 8008ab6:	4690      	mov	r8, r2
 8008ab8:	680b      	ldr	r3, [r1, #0]
 8008aba:	d82c      	bhi.n	8008b16 <__ssputs_r+0x6e>
 8008abc:	898a      	ldrh	r2, [r1, #12]
 8008abe:	f412 6f90 	tst.w	r2, #1152	; 0x480
 8008ac2:	d026      	beq.n	8008b12 <__ssputs_r+0x6a>
 8008ac4:	6965      	ldr	r5, [r4, #20]
 8008ac6:	6909      	ldr	r1, [r1, #16]
 8008ac8:	eb05 0545 	add.w	r5, r5, r5, lsl #1
 8008acc:	eba3 0901 	sub.w	r9, r3, r1
 8008ad0:	eb05 75d5 	add.w	r5, r5, r5, lsr #31
 8008ad4:	1c7b      	adds	r3, r7, #1
 8008ad6:	444b      	add	r3, r9
 8008ad8:	106d      	asrs	r5, r5, #1
 8008ada:	429d      	cmp	r5, r3
 8008adc:	bf38      	it	cc
 8008ade:	461d      	movcc	r5, r3
 8008ae0:	0553      	lsls	r3, r2, #21
 8008ae2:	d527      	bpl.n	8008b34 <__ssputs_r+0x8c>
 8008ae4:	4629      	mov	r1, r5
 8008ae6:	f7ff ff53 	bl	8008990 <_malloc_r>
 8008aea:	4606      	mov	r6, r0
 8008aec:	b360      	cbz	r0, 8008b48 <__ssputs_r+0xa0>
 8008aee:	464a      	mov	r2, r9
 8008af0:	6921      	ldr	r1, [r4, #16]
 8008af2:	f000 fafd 	bl	80090f0 <memcpy>
 8008af6:	89a3      	ldrh	r3, [r4, #12]
 8008af8:	f423 6390 	bic.w	r3, r3, #1152	; 0x480
 8008afc:	f043 0380 	orr.w	r3, r3, #128	; 0x80
 8008b00:	81a3      	strh	r3, [r4, #12]
 8008b02:	6126      	str	r6, [r4, #16]
 8008b04:	444e      	add	r6, r9
 8008b06:	6026      	str	r6, [r4, #0]
 8008b08:	463e      	mov	r6, r7
 8008b0a:	6165      	str	r5, [r4, #20]
 8008b0c:	eba5 0509 	sub.w	r5, r5, r9
 8008b10:	60a5      	str	r5, [r4, #8]
 8008b12:	42be      	cmp	r6, r7
 8008b14:	d900      	bls.n	8008b18 <__ssputs_r+0x70>
 8008b16:	463e      	mov	r6, r7
 8008b18:	4632      	mov	r2, r6
 8008b1a:	4641      	mov	r1, r8
 8008b1c:	6820      	ldr	r0, [r4, #0]
 8008b1e:	f000 faaf 	bl	8009080 <memmove>
 8008b22:	2000      	movs	r0, #0
 8008b24:	68a3      	ldr	r3, [r4, #8]
 8008b26:	1b9b      	subs	r3, r3, r6
 8008b28:	60a3      	str	r3, [r4, #8]
 8008b2a:	6823      	ldr	r3, [r4, #0]
 8008b2c:	4433      	add	r3, r6
 8008b2e:	6023      	str	r3, [r4, #0]
 8008b30:	e8bd 87f0 	ldmia.w	sp!, {r4, r5, r6, r7, r8, r9, sl, pc}
 8008b34:	462a      	mov	r2, r5
 8008b36:	f000 fae9 	bl	800910c <_realloc_r>
 8008b3a:	4606      	mov	r6, r0
 8008b3c:	2800      	cmp	r0, #0
 8008b3e:	d1e0      	bne.n	8008b02 <__ssputs_r+0x5a>
 8008b40:	4650      	mov	r0, sl
 8008b42:	6921      	ldr	r1, [r4, #16]
 8008b44:	f7ff febc 	bl	80088c0 <_free_r>
 8008b48:	230c      	movs	r3, #12
 8008b4a:	f8ca 3000 	str.w	r3, [sl]
 8008b4e:	89a3      	ldrh	r3, [r4, #12]
 8008b50:	f04f 30ff 	mov.w	r0, #4294967295
 8008b54:	f043 0340 	orr.w	r3, r3, #64	; 0x40
 8008b58:	81a3      	strh	r3, [r4, #12]
 8008b5a:	e7e9      	b.n	8008b30 <__ssputs_r+0x88>

08008b5c <_svfiprintf_r>:
 8008b5c:	e92d 4ff0 	stmdb	sp!, {r4, r5, r6, r7, r8, r9, sl, fp, lr}
 8008b60:	4698      	mov	r8, r3
 8008b62:	898b      	ldrh	r3, [r1, #12]
 8008b64:	4607      	mov	r7, r0
 8008b66:	061b      	lsls	r3, r3, #24
 8008b68:	460d      	mov	r5, r1
 8008b6a:	4614      	mov	r4, r2
 8008b6c:	b09d      	sub	sp, #116	; 0x74
 8008b6e:	d50e      	bpl.n	8008b8e <_svfiprintf_r+0x32>
 8008b70:	690b      	ldr	r3, [r1, #16]
 8008b72:	b963      	cbnz	r3, 8008b8e <_svfiprintf_r+0x32>
 8008b74:	2140      	movs	r1, #64	; 0x40
 8008b76:	f7ff ff0b 	bl	8008990 <_malloc_r>
 8008b7a:	6028      	str	r0, [r5, #0]
 8008b7c:	6128      	str	r0, [r5, #16]
 8008b7e:	b920      	cbnz	r0, 8008b8a <_svfiprintf_r+0x2e>
 8008b80:	230c      	movs	r3, #12
 8008b82:	603b      	str	r3, [r7, #0]
 8008b84:	f04f 30ff 	mov.w	r0, #4294967295
 8008b88:	e0d0      	b.n	8008d2c <_svfiprintf_r+0x1d0>
 8008b8a:	2340      	movs	r3, #64	; 0x40
 8008b8c:	616b      	str	r3, [r5, #20]
 8008b8e:	2300      	movs	r3, #0
 8008b90:	9309      	str	r3, [sp, #36]	; 0x24
 8008b92:	2320      	movs	r3, #32
 8008b94:	f88d 3029 	strb.w	r3, [sp, #41]	; 0x29
 8008b98:	2330      	movs	r3, #48	; 0x30
 8008b9a:	f04f 0901 	mov.w	r9, #1
 8008b9e:	f8cd 800c 	str.w	r8, [sp, #12]
 8008ba2:	f8df 81a0 	ldr.w	r8, [pc, #416]	; 8008d44 <_svfiprintf_r+0x1e8>
 8008ba6:	f88d 302a 	strb.w	r3, [sp, #42]	; 0x2a
 8008baa:	4623      	mov	r3, r4
 8008bac:	469a      	mov	sl, r3
 8008bae:	f813 2b01 	ldrb.w	r2, [r3], #1
 8008bb2:	b10a      	cbz	r2, 8008bb8 <_svfiprintf_r+0x5c>
 8008bb4:	2a25      	cmp	r2, #37	; 0x25
 8008bb6:	d1f9      	bne.n	8008bac <_svfiprintf_r+0x50>
 8008bb8:	ebba 0b04 	subs.w	fp, sl, r4
 8008bbc:	d00b      	beq.n	8008bd6 <_svfiprintf_r+0x7a>
 8008bbe:	465b      	mov	r3, fp
 8008bc0:	4622      	mov	r2, r4
 8008bc2:	4629      	mov	r1, r5
 8008bc4:	4638      	mov	r0, r7
 8008bc6:	f7ff ff6f 	bl	8008aa8 <__ssputs_r>
 8008bca:	3001      	adds	r0, #1
 8008bcc:	f000 80a9 	beq.w	8008d22 <_svfiprintf_r+0x1c6>
 8008bd0:	9a09      	ldr	r2, [sp, #36]	; 0x24
 8008bd2:	445a      	add	r2, fp
 8008bd4:	9209      	str	r2, [sp, #36]	; 0x24
 8008bd6:	f89a 3000 	ldrb.w	r3, [sl]
 8008bda:	2b00      	cmp	r3, #0
 8008bdc:	f000 80a1 	beq.w	8008d22 <_svfiprintf_r+0x1c6>
 8008be0:	2300      	movs	r3, #0
 8008be2:	f04f 32ff 	mov.w	r2, #4294967295
 8008be6:	e9cd 2305 	strd	r2, r3, [sp, #20]
 8008bea:	f10a 0a01 	add.w	sl, sl, #1
 8008bee:	9304      	str	r3, [sp, #16]
 8008bf0:	9307      	str	r3, [sp, #28]
 8008bf2:	f88d 3053 	strb.w	r3, [sp, #83]	; 0x53
 8008bf6:	931a      	str	r3, [sp, #104]	; 0x68
 8008bf8:	4654      	mov	r4, sl
 8008bfa:	2205      	movs	r2, #5
 8008bfc:	f814 1b01 	ldrb.w	r1, [r4], #1
 8008c00:	4850      	ldr	r0, [pc, #320]	; (8008d44 <_svfiprintf_r+0x1e8>)
 8008c02:	f000 fa67 	bl	80090d4 <memchr>
 8008c06:	9a04      	ldr	r2, [sp, #16]
 8008c08:	b9d8      	cbnz	r0, 8008c42 <_svfiprintf_r+0xe6>
 8008c0a:	06d0      	lsls	r0, r2, #27
 8008c0c:	bf44      	itt	mi
 8008c0e:	2320      	movmi	r3, #32
 8008c10:	f88d 3053 	strbmi.w	r3, [sp, #83]	; 0x53
 8008c14:	0711      	lsls	r1, r2, #28
 8008c16:	bf44      	itt	mi
 8008c18:	232b      	movmi	r3, #43	; 0x2b
 8008c1a:	f88d 3053 	strbmi.w	r3, [sp, #83]	; 0x53
 8008c1e:	f89a 3000 	ldrb.w	r3, [sl]
 8008c22:	2b2a      	cmp	r3, #42	; 0x2a
 8008c24:	d015      	beq.n	8008c52 <_svfiprintf_r+0xf6>
 8008c26:	4654      	mov	r4, sl
 8008c28:	2000      	movs	r0, #0
 8008c2a:	f04f 0c0a 	mov.w	ip, #10
 8008c2e:	9a07      	ldr	r2, [sp, #28]
 8008c30:	4621      	mov	r1, r4
 8008c32:	f811 3b01 	ldrb.w	r3, [r1], #1
 8008c36:	3b30      	subs	r3, #48	; 0x30
 8008c38:	2b09      	cmp	r3, #9
 8008c3a:	d94d      	bls.n	8008cd8 <_svfiprintf_r+0x17c>
 8008c3c:	b1b0      	cbz	r0, 8008c6c <_svfiprintf_r+0x110>
 8008c3e:	9207      	str	r2, [sp, #28]
 8008c40:	e014      	b.n	8008c6c <_svfiprintf_r+0x110>
 8008c42:	eba0 0308 	sub.w	r3, r0, r8
 8008c46:	fa09 f303 	lsl.w	r3, r9, r3
 8008c4a:	4313      	orrs	r3, r2
 8008c4c:	46a2      	mov	sl, r4
 8008c4e:	9304      	str	r3, [sp, #16]
 8008c50:	e7d2      	b.n	8008bf8 <_svfiprintf_r+0x9c>
 8008c52:	9b03      	ldr	r3, [sp, #12]
 8008c54:	1d19      	adds	r1, r3, #4
 8008c56:	681b      	ldr	r3, [r3, #0]
 8008c58:	9103      	str	r1, [sp, #12]
 8008c5a:	2b00      	cmp	r3, #0
 8008c5c:	bfbb      	ittet	lt
 8008c5e:	425b      	neglt	r3, r3
 8008c60:	f042 0202 	orrlt.w	r2, r2, #2
 8008c64:	9307      	strge	r3, [sp, #28]
 8008c66:	9307      	strlt	r3, [sp, #28]
 8008c68:	bfb8      	it	lt
 8008c6a:	9204      	strlt	r2, [sp, #16]
 8008c6c:	7823      	ldrb	r3, [r4, #0]
 8008c6e:	2b2e      	cmp	r3, #46	; 0x2e
 8008c70:	d10c      	bne.n	8008c8c <_svfiprintf_r+0x130>
 8008c72:	7863      	ldrb	r3, [r4, #1]
 8008c74:	2b2a      	cmp	r3, #42	; 0x2a
 8008c76:	d134      	bne.n	8008ce2 <_svfiprintf_r+0x186>
 8008c78:	9b03      	ldr	r3, [sp, #12]
 8008c7a:	3402      	adds	r4, #2
 8008c7c:	1d1a      	adds	r2, r3, #4
 8008c7e:	681b      	ldr	r3, [r3, #0]
 8008c80:	9203      	str	r2, [sp, #12]
 8008c82:	2b00      	cmp	r3, #0
 8008c84:	bfb8      	it	lt
 8008c86:	f04f 33ff 	movlt.w	r3, #4294967295
 8008c8a:	9305      	str	r3, [sp, #20]
 8008c8c:	f8df a0b8 	ldr.w	sl, [pc, #184]	; 8008d48 <_svfiprintf_r+0x1ec>
 8008c90:	2203      	movs	r2, #3
 8008c92:	4650      	mov	r0, sl
 8008c94:	7821      	ldrb	r1, [r4, #0]
 8008c96:	f000 fa1d 	bl	80090d4 <memchr>
 8008c9a:	b138      	cbz	r0, 8008cac <_svfiprintf_r+0x150>
 8008c9c:	2240      	movs	r2, #64	; 0x40
 8008c9e:	9b04      	ldr	r3, [sp, #16]
 8008ca0:	eba0 000a 	sub.w	r0, r0, sl
 8008ca4:	4082      	lsls	r2, r0
 8008ca6:	4313      	orrs	r3, r2
 8008ca8:	3401      	adds	r4, #1
 8008caa:	9304      	str	r3, [sp, #16]
 8008cac:	f814 1b01 	ldrb.w	r1, [r4], #1
 8008cb0:	2206      	movs	r2, #6
 8008cb2:	4826      	ldr	r0, [pc, #152]	; (8008d4c <_svfiprintf_r+0x1f0>)
 8008cb4:	f88d 1028 	strb.w	r1, [sp, #40]	; 0x28
 8008cb8:	f000 fa0c 	bl	80090d4 <memchr>
 8008cbc:	2800      	cmp	r0, #0
 8008cbe:	d038      	beq.n	8008d32 <_svfiprintf_r+0x1d6>
 8008cc0:	4b23      	ldr	r3, [pc, #140]	; (8008d50 <_svfiprintf_r+0x1f4>)
 8008cc2:	bb1b      	cbnz	r3, 8008d0c <_svfiprintf_r+0x1b0>
 8008cc4:	9b03      	ldr	r3, [sp, #12]
 8008cc6:	3307      	adds	r3, #7
 8008cc8:	f023 0307 	bic.w	r3, r3, #7
 8008ccc:	3308      	adds	r3, #8
 8008cce:	9303      	str	r3, [sp, #12]
 8008cd0:	9b09      	ldr	r3, [sp, #36]	; 0x24
 8008cd2:	4433      	add	r3, r6
 8008cd4:	9309      	str	r3, [sp, #36]	; 0x24
 8008cd6:	e768      	b.n	8008baa <_svfiprintf_r+0x4e>
 8008cd8:	460c      	mov	r4, r1
 8008cda:	2001      	movs	r0, #1
 8008cdc:	fb0c 3202 	mla	r2, ip, r2, r3
 8008ce0:	e7a6      	b.n	8008c30 <_svfiprintf_r+0xd4>
 8008ce2:	2300      	movs	r3, #0
 8008ce4:	f04f 0c0a 	mov.w	ip, #10
 8008ce8:	4619      	mov	r1, r3
 8008cea:	3401      	adds	r4, #1
 8008cec:	9305      	str	r3, [sp, #20]
 8008cee:	4620      	mov	r0, r4
 8008cf0:	f810 2b01 	ldrb.w	r2, [r0], #1
 8008cf4:	3a30      	subs	r2, #48	; 0x30
 8008cf6:	2a09      	cmp	r2, #9
 8008cf8:	d903      	bls.n	8008d02 <_svfiprintf_r+0x1a6>
 8008cfa:	2b00      	cmp	r3, #0
 8008cfc:	d0c6      	beq.n	8008c8c <_svfiprintf_r+0x130>
 8008cfe:	9105      	str	r1, [sp, #20]
 8008d00:	e7c4      	b.n	8008c8c <_svfiprintf_r+0x130>
 8008d02:	4604      	mov	r4, r0
 8008d04:	2301      	movs	r3, #1
 8008d06:	fb0c 2101 	mla	r1, ip, r1, r2
 8008d0a:	e7f0      	b.n	8008cee <_svfiprintf_r+0x192>
 8008d0c:	ab03      	add	r3, sp, #12
 8008d0e:	9300      	str	r3, [sp, #0]
 8008d10:	462a      	mov	r2, r5
 8008d12:	4638      	mov	r0, r7
 8008d14:	4b0f      	ldr	r3, [pc, #60]	; (8008d54 <_svfiprintf_r+0x1f8>)
 8008d16:	a904      	add	r1, sp, #16
 8008d18:	f3af 8000 	nop.w
 8008d1c:	1c42      	adds	r2, r0, #1
 8008d1e:	4606      	mov	r6, r0
 8008d20:	d1d6      	bne.n	8008cd0 <_svfiprintf_r+0x174>
 8008d22:	89ab      	ldrh	r3, [r5, #12]
 8008d24:	065b      	lsls	r3, r3, #25
 8008d26:	f53f af2d 	bmi.w	8008b84 <_svfiprintf_r+0x28>
 8008d2a:	9809      	ldr	r0, [sp, #36]	; 0x24
 8008d2c:	b01d      	add	sp, #116	; 0x74
 8008d2e:	e8bd 8ff0 	ldmia.w	sp!, {r4, r5, r6, r7, r8, r9, sl, fp, pc}
 8008d32:	ab03      	add	r3, sp, #12
 8008d34:	9300      	str	r3, [sp, #0]
 8008d36:	462a      	mov	r2, r5
 8008d38:	4638      	mov	r0, r7
 8008d3a:	4b06      	ldr	r3, [pc, #24]	; (8008d54 <_svfiprintf_r+0x1f8>)
 8008d3c:	a904      	add	r1, sp, #16
 8008d3e:	f000 f87d 	bl	8008e3c <_printf_i>
 8008d42:	e7eb      	b.n	8008d1c <_svfiprintf_r+0x1c0>
 8008d44:	08009b5a 	.word	0x08009b5a
 8008d48:	08009b60 	.word	0x08009b60
 8008d4c:	08009b64 	.word	0x08009b64
 8008d50:	00000000 	.word	0x00000000
 8008d54:	08008aa9 	.word	0x08008aa9

08008d58 <_printf_common>:
 8008d58:	e92d 47f0 	stmdb	sp!, {r4, r5, r6, r7, r8, r9, sl, lr}
 8008d5c:	4616      	mov	r6, r2
 8008d5e:	4699      	mov	r9, r3
 8008d60:	688a      	ldr	r2, [r1, #8]
 8008d62:	690b      	ldr	r3, [r1, #16]
 8008d64:	4607      	mov	r7, r0
 8008d66:	4293      	cmp	r3, r2
 8008d68:	bfb8      	it	lt
 8008d6a:	4613      	movlt	r3, r2
 8008d6c:	6033      	str	r3, [r6, #0]
 8008d6e:	f891 2043 	ldrb.w	r2, [r1, #67]	; 0x43
 8008d72:	460c      	mov	r4, r1
 8008d74:	f8dd 8020 	ldr.w	r8, [sp, #32]
 8008d78:	b10a      	cbz	r2, 8008d7e <_printf_common+0x26>
 8008d7a:	3301      	adds	r3, #1
 8008d7c:	6033      	str	r3, [r6, #0]
 8008d7e:	6823      	ldr	r3, [r4, #0]
 8008d80:	0699      	lsls	r1, r3, #26
 8008d82:	bf42      	ittt	mi
 8008d84:	6833      	ldrmi	r3, [r6, #0]
 8008d86:	3302      	addmi	r3, #2
 8008d88:	6033      	strmi	r3, [r6, #0]
 8008d8a:	6825      	ldr	r5, [r4, #0]
 8008d8c:	f015 0506 	ands.w	r5, r5, #6
 8008d90:	d106      	bne.n	8008da0 <_printf_common+0x48>
 8008d92:	f104 0a19 	add.w	sl, r4, #25
 8008d96:	68e3      	ldr	r3, [r4, #12]
 8008d98:	6832      	ldr	r2, [r6, #0]
 8008d9a:	1a9b      	subs	r3, r3, r2
 8008d9c:	42ab      	cmp	r3, r5
 8008d9e:	dc2b      	bgt.n	8008df8 <_printf_common+0xa0>
 8008da0:	f894 2043 	ldrb.w	r2, [r4, #67]	; 0x43
 8008da4:	1e13      	subs	r3, r2, #0
 8008da6:	6822      	ldr	r2, [r4, #0]
 8008da8:	bf18      	it	ne
 8008daa:	2301      	movne	r3, #1
 8008dac:	0692      	lsls	r2, r2, #26
 8008dae:	d430      	bmi.n	8008e12 <_printf_common+0xba>
 8008db0:	4649      	mov	r1, r9
 8008db2:	4638      	mov	r0, r7
 8008db4:	f104 0243 	add.w	r2, r4, #67	; 0x43
 8008db8:	47c0      	blx	r8
 8008dba:	3001      	adds	r0, #1
 8008dbc:	d023      	beq.n	8008e06 <_printf_common+0xae>
 8008dbe:	6823      	ldr	r3, [r4, #0]
 8008dc0:	6922      	ldr	r2, [r4, #16]
 8008dc2:	f003 0306 	and.w	r3, r3, #6
 8008dc6:	2b04      	cmp	r3, #4
 8008dc8:	bf14      	ite	ne
 8008dca:	2500      	movne	r5, #0
 8008dcc:	6833      	ldreq	r3, [r6, #0]
 8008dce:	f04f 0600 	mov.w	r6, #0
 8008dd2:	bf08      	it	eq
 8008dd4:	68e5      	ldreq	r5, [r4, #12]
 8008dd6:	f104 041a 	add.w	r4, r4, #26
 8008dda:	bf08      	it	eq
 8008ddc:	1aed      	subeq	r5, r5, r3
 8008dde:	f854 3c12 	ldr.w	r3, [r4, #-18]
 8008de2:	bf08      	it	eq
 8008de4:	ea25 75e5 	biceq.w	r5, r5, r5, asr #31
 8008de8:	4293      	cmp	r3, r2
 8008dea:	bfc4      	itt	gt
 8008dec:	1a9b      	subgt	r3, r3, r2
 8008dee:	18ed      	addgt	r5, r5, r3
 8008df0:	42b5      	cmp	r5, r6
 8008df2:	d11a      	bne.n	8008e2a <_printf_common+0xd2>
 8008df4:	2000      	movs	r0, #0
 8008df6:	e008      	b.n	8008e0a <_printf_common+0xb2>
 8008df8:	2301      	movs	r3, #1
 8008dfa:	4652      	mov	r2, sl
 8008dfc:	4649      	mov	r1, r9
 8008dfe:	4638      	mov	r0, r7
 8008e00:	47c0      	blx	r8
 8008e02:	3001      	adds	r0, #1
 8008e04:	d103      	bne.n	8008e0e <_printf_common+0xb6>
 8008e06:	f04f 30ff 	mov.w	r0, #4294967295
 8008e0a:	e8bd 87f0 	ldmia.w	sp!, {r4, r5, r6, r7, r8, r9, sl, pc}
 8008e0e:	3501      	adds	r5, #1
 8008e10:	e7c1      	b.n	8008d96 <_printf_common+0x3e>
 8008e12:	2030      	movs	r0, #48	; 0x30
 8008e14:	18e1      	adds	r1, r4, r3
 8008e16:	f881 0043 	strb.w	r0, [r1, #67]	; 0x43
 8008e1a:	1c5a      	adds	r2, r3, #1
 8008e1c:	f894 1045 	ldrb.w	r1, [r4, #69]	; 0x45
 8008e20:	4422      	add	r2, r4
 8008e22:	3302      	adds	r3, #2
 8008e24:	f882 1043 	strb.w	r1, [r2, #67]	; 0x43
 8008e28:	e7c2      	b.n	8008db0 <_printf_common+0x58>
 8008e2a:	2301      	movs	r3, #1
 8008e2c:	4622      	mov	r2, r4
 8008e2e:	4649      	mov	r1, r9
 8008e30:	4638      	mov	r0, r7
 8008e32:	47c0      	blx	r8
 8008e34:	3001      	adds	r0, #1
 8008e36:	d0e6      	beq.n	8008e06 <_printf_common+0xae>
 8008e38:	3601      	adds	r6, #1
 8008e3a:	e7d9      	b.n	8008df0 <_printf_common+0x98>

08008e3c <_printf_i>:
 8008e3c:	e92d 47ff 	stmdb	sp!, {r0, r1, r2, r3, r4, r5, r6, r7, r8, r9, sl, lr}
 8008e40:	7e0f      	ldrb	r7, [r1, #24]
 8008e42:	4691      	mov	r9, r2
 8008e44:	2f78      	cmp	r7, #120	; 0x78
 8008e46:	4680      	mov	r8, r0
 8008e48:	460c      	mov	r4, r1
 8008e4a:	469a      	mov	sl, r3
 8008e4c:	9d0c      	ldr	r5, [sp, #48]	; 0x30
 8008e4e:	f101 0243 	add.w	r2, r1, #67	; 0x43
 8008e52:	d807      	bhi.n	8008e64 <_printf_i+0x28>
 8008e54:	2f62      	cmp	r7, #98	; 0x62
 8008e56:	d80a      	bhi.n	8008e6e <_printf_i+0x32>
 8008e58:	2f00      	cmp	r7, #0
 8008e5a:	f000 80d5 	beq.w	8009008 <_printf_i+0x1cc>
 8008e5e:	2f58      	cmp	r7, #88	; 0x58
 8008e60:	f000 80c1 	beq.w	8008fe6 <_printf_i+0x1aa>
 8008e64:	f104 0542 	add.w	r5, r4, #66	; 0x42
 8008e68:	f884 7042 	strb.w	r7, [r4, #66]	; 0x42
 8008e6c:	e03a      	b.n	8008ee4 <_printf_i+0xa8>
 8008e6e:	f1a7 0363 	sub.w	r3, r7, #99	; 0x63
 8008e72:	2b15      	cmp	r3, #21
 8008e74:	d8f6      	bhi.n	8008e64 <_printf_i+0x28>
 8008e76:	a101      	add	r1, pc, #4	; (adr r1, 8008e7c <_printf_i+0x40>)
 8008e78:	f851 f023 	ldr.w	pc, [r1, r3, lsl #2]
 8008e7c:	08008ed5 	.word	0x08008ed5
 8008e80:	08008ee9 	.word	0x08008ee9
 8008e84:	08008e65 	.word	0x08008e65
 8008e88:	08008e65 	.word	0x08008e65
 8008e8c:	08008e65 	.word	0x08008e65
 8008e90:	08008e65 	.word	0x08008e65
 8008e94:	08008ee9 	.word	0x08008ee9
 8008e98:	08008e65 	.word	0x08008e65
 8008e9c:	08008e65 	.word	0x08008e65
 8008ea0:	08008e65 	.word	0x08008e65
 8008ea4:	08008e65 	.word	0x08008e65
 8008ea8:	08008fef 	.word	0x08008fef
 8008eac:	08008f15 	.word	0x08008f15
 8008eb0:	08008fa9 	.word	0x08008fa9
 8008eb4:	08008e65 	.word	0x08008e65
 8008eb8:	08008e65 	.word	0x08008e65
 8008ebc:	08009011 	.word	0x08009011
 8008ec0:	08008e65 	.word	0x08008e65
 8008ec4:	08008f15 	.word	0x08008f15
 8008ec8:	08008e65 	.word	0x08008e65
 8008ecc:	08008e65 	.word	0x08008e65
 8008ed0:	08008fb1 	.word	0x08008fb1
 8008ed4:	682b      	ldr	r3, [r5, #0]
 8008ed6:	1d1a      	adds	r2, r3, #4
 8008ed8:	681b      	ldr	r3, [r3, #0]
 8008eda:	602a      	str	r2, [r5, #0]
 8008edc:	f104 0542 	add.w	r5, r4, #66	; 0x42
 8008ee0:	f884 3042 	strb.w	r3, [r4, #66]	; 0x42
 8008ee4:	2301      	movs	r3, #1
 8008ee6:	e0a0      	b.n	800902a <_printf_i+0x1ee>
 8008ee8:	6820      	ldr	r0, [r4, #0]
 8008eea:	682b      	ldr	r3, [r5, #0]
 8008eec:	0607      	lsls	r7, r0, #24
 8008eee:	f103 0104 	add.w	r1, r3, #4
 8008ef2:	6029      	str	r1, [r5, #0]
 8008ef4:	d501      	bpl.n	8008efa <_printf_i+0xbe>
 8008ef6:	681e      	ldr	r6, [r3, #0]
 8008ef8:	e003      	b.n	8008f02 <_printf_i+0xc6>
 8008efa:	0646      	lsls	r6, r0, #25
 8008efc:	d5fb      	bpl.n	8008ef6 <_printf_i+0xba>
 8008efe:	f9b3 6000 	ldrsh.w	r6, [r3]
 8008f02:	2e00      	cmp	r6, #0
 8008f04:	da03      	bge.n	8008f0e <_printf_i+0xd2>
 8008f06:	232d      	movs	r3, #45	; 0x2d
 8008f08:	4276      	negs	r6, r6
 8008f0a:	f884 3043 	strb.w	r3, [r4, #67]	; 0x43
 8008f0e:	230a      	movs	r3, #10
 8008f10:	4859      	ldr	r0, [pc, #356]	; (8009078 <_printf_i+0x23c>)
 8008f12:	e012      	b.n	8008f3a <_printf_i+0xfe>
 8008f14:	682b      	ldr	r3, [r5, #0]
 8008f16:	6820      	ldr	r0, [r4, #0]
 8008f18:	1d19      	adds	r1, r3, #4
 8008f1a:	6029      	str	r1, [r5, #0]
 8008f1c:	0605      	lsls	r5, r0, #24
 8008f1e:	d501      	bpl.n	8008f24 <_printf_i+0xe8>
 8008f20:	681e      	ldr	r6, [r3, #0]
 8008f22:	e002      	b.n	8008f2a <_printf_i+0xee>
 8008f24:	0641      	lsls	r1, r0, #25
 8008f26:	d5fb      	bpl.n	8008f20 <_printf_i+0xe4>
 8008f28:	881e      	ldrh	r6, [r3, #0]
 8008f2a:	2f6f      	cmp	r7, #111	; 0x6f
 8008f2c:	bf0c      	ite	eq
 8008f2e:	2308      	moveq	r3, #8
 8008f30:	230a      	movne	r3, #10
 8008f32:	4851      	ldr	r0, [pc, #324]	; (8009078 <_printf_i+0x23c>)
 8008f34:	2100      	movs	r1, #0
 8008f36:	f884 1043 	strb.w	r1, [r4, #67]	; 0x43
 8008f3a:	6865      	ldr	r5, [r4, #4]
 8008f3c:	2d00      	cmp	r5, #0
 8008f3e:	bfa8      	it	ge
 8008f40:	6821      	ldrge	r1, [r4, #0]
 8008f42:	60a5      	str	r5, [r4, #8]
 8008f44:	bfa4      	itt	ge
 8008f46:	f021 0104 	bicge.w	r1, r1, #4
 8008f4a:	6021      	strge	r1, [r4, #0]
 8008f4c:	b90e      	cbnz	r6, 8008f52 <_printf_i+0x116>
 8008f4e:	2d00      	cmp	r5, #0
 8008f50:	d04b      	beq.n	8008fea <_printf_i+0x1ae>
 8008f52:	4615      	mov	r5, r2
 8008f54:	fbb6 f1f3 	udiv	r1, r6, r3
 8008f58:	fb03 6711 	mls	r7, r3, r1, r6
 8008f5c:	5dc7      	ldrb	r7, [r0, r7]
 8008f5e:	f805 7d01 	strb.w	r7, [r5, #-1]!
 8008f62:	4637      	mov	r7, r6
 8008f64:	42bb      	cmp	r3, r7
 8008f66:	460e      	mov	r6, r1
 8008f68:	d9f4      	bls.n	8008f54 <_printf_i+0x118>
 8008f6a:	2b08      	cmp	r3, #8
 8008f6c:	d10b      	bne.n	8008f86 <_printf_i+0x14a>
 8008f6e:	6823      	ldr	r3, [r4, #0]
 8008f70:	07de      	lsls	r6, r3, #31
 8008f72:	d508      	bpl.n	8008f86 <_printf_i+0x14a>
 8008f74:	6923      	ldr	r3, [r4, #16]
 8008f76:	6861      	ldr	r1, [r4, #4]
 8008f78:	4299      	cmp	r1, r3
 8008f7a:	bfde      	ittt	le
 8008f7c:	2330      	movle	r3, #48	; 0x30
 8008f7e:	f805 3c01 	strble.w	r3, [r5, #-1]
 8008f82:	f105 35ff 	addle.w	r5, r5, #4294967295
 8008f86:	1b52      	subs	r2, r2, r5
 8008f88:	6122      	str	r2, [r4, #16]
 8008f8a:	464b      	mov	r3, r9
 8008f8c:	4621      	mov	r1, r4
 8008f8e:	4640      	mov	r0, r8
 8008f90:	f8cd a000 	str.w	sl, [sp]
 8008f94:	aa03      	add	r2, sp, #12
 8008f96:	f7ff fedf 	bl	8008d58 <_printf_common>
 8008f9a:	3001      	adds	r0, #1
 8008f9c:	d14a      	bne.n	8009034 <_printf_i+0x1f8>
 8008f9e:	f04f 30ff 	mov.w	r0, #4294967295
 8008fa2:	b004      	add	sp, #16
 8008fa4:	e8bd 87f0 	ldmia.w	sp!, {r4, r5, r6, r7, r8, r9, sl, pc}
 8008fa8:	6823      	ldr	r3, [r4, #0]
 8008faa:	f043 0320 	orr.w	r3, r3, #32
 8008fae:	6023      	str	r3, [r4, #0]
 8008fb0:	2778      	movs	r7, #120	; 0x78
 8008fb2:	4832      	ldr	r0, [pc, #200]	; (800907c <_printf_i+0x240>)
 8008fb4:	f884 7045 	strb.w	r7, [r4, #69]	; 0x45
 8008fb8:	6823      	ldr	r3, [r4, #0]
 8008fba:	6829      	ldr	r1, [r5, #0]
 8008fbc:	061f      	lsls	r7, r3, #24
 8008fbe:	f851 6b04 	ldr.w	r6, [r1], #4
 8008fc2:	d402      	bmi.n	8008fca <_printf_i+0x18e>
 8008fc4:	065f      	lsls	r7, r3, #25
 8008fc6:	bf48      	it	mi
 8008fc8:	b2b6      	uxthmi	r6, r6
 8008fca:	07df      	lsls	r7, r3, #31
 8008fcc:	bf48      	it	mi
 8008fce:	f043 0320 	orrmi.w	r3, r3, #32
 8008fd2:	6029      	str	r1, [r5, #0]
 8008fd4:	bf48      	it	mi
 8008fd6:	6023      	strmi	r3, [r4, #0]
 8008fd8:	b91e      	cbnz	r6, 8008fe2 <_printf_i+0x1a6>
 8008fda:	6823      	ldr	r3, [r4, #0]
 8008fdc:	f023 0320 	bic.w	r3, r3, #32
 8008fe0:	6023      	str	r3, [r4, #0]
 8008fe2:	2310      	movs	r3, #16
 8008fe4:	e7a6      	b.n	8008f34 <_printf_i+0xf8>
 8008fe6:	4824      	ldr	r0, [pc, #144]	; (8009078 <_printf_i+0x23c>)
 8008fe8:	e7e4      	b.n	8008fb4 <_printf_i+0x178>
 8008fea:	4615      	mov	r5, r2
 8008fec:	e7bd      	b.n	8008f6a <_printf_i+0x12e>
 8008fee:	682b      	ldr	r3, [r5, #0]
 8008ff0:	6826      	ldr	r6, [r4, #0]
 8008ff2:	1d18      	adds	r0, r3, #4
 8008ff4:	6961      	ldr	r1, [r4, #20]
 8008ff6:	6028      	str	r0, [r5, #0]
 8008ff8:	0635      	lsls	r5, r6, #24
 8008ffa:	681b      	ldr	r3, [r3, #0]
 8008ffc:	d501      	bpl.n	8009002 <_printf_i+0x1c6>
 8008ffe:	6019      	str	r1, [r3, #0]
 8009000:	e002      	b.n	8009008 <_printf_i+0x1cc>
 8009002:	0670      	lsls	r0, r6, #25
 8009004:	d5fb      	bpl.n	8008ffe <_printf_i+0x1c2>
 8009006:	8019      	strh	r1, [r3, #0]
 8009008:	2300      	movs	r3, #0
 800900a:	4615      	mov	r5, r2
 800900c:	6123      	str	r3, [r4, #16]
 800900e:	e7bc      	b.n	8008f8a <_printf_i+0x14e>
 8009010:	682b      	ldr	r3, [r5, #0]
 8009012:	2100      	movs	r1, #0
 8009014:	1d1a      	adds	r2, r3, #4
 8009016:	602a      	str	r2, [r5, #0]
 8009018:	681d      	ldr	r5, [r3, #0]
 800901a:	6862      	ldr	r2, [r4, #4]
 800901c:	4628      	mov	r0, r5
 800901e:	f000 f859 	bl	80090d4 <memchr>
 8009022:	b108      	cbz	r0, 8009028 <_printf_i+0x1ec>
 8009024:	1b40      	subs	r0, r0, r5
 8009026:	6060      	str	r0, [r4, #4]
 8009028:	6863      	ldr	r3, [r4, #4]
 800902a:	6123      	str	r3, [r4, #16]
 800902c:	2300      	movs	r3, #0
 800902e:	f884 3043 	strb.w	r3, [r4, #67]	; 0x43
 8009032:	e7aa      	b.n	8008f8a <_printf_i+0x14e>
 8009034:	462a      	mov	r2, r5
 8009036:	4649      	mov	r1, r9
 8009038:	4640      	mov	r0, r8
 800903a:	6923      	ldr	r3, [r4, #16]
 800903c:	47d0      	blx	sl
 800903e:	3001      	adds	r0, #1
 8009040:	d0ad      	beq.n	8008f9e <_printf_i+0x162>
 8009042:	6823      	ldr	r3, [r4, #0]
 8009044:	079b      	lsls	r3, r3, #30
 8009046:	d413      	bmi.n	8009070 <_printf_i+0x234>
 8009048:	68e0      	ldr	r0, [r4, #12]
 800904a:	9b03      	ldr	r3, [sp, #12]
 800904c:	4298      	cmp	r0, r3
 800904e:	bfb8      	it	lt
 8009050:	4618      	movlt	r0, r3
 8009052:	e7a6      	b.n	8008fa2 <_printf_i+0x166>
 8009054:	2301      	movs	r3, #1
 8009056:	4632      	mov	r2, r6
 8009058:	4649      	mov	r1, r9
 800905a:	4640      	mov	r0, r8
 800905c:	47d0      	blx	sl
 800905e:	3001      	adds	r0, #1
 8009060:	d09d      	beq.n	8008f9e <_printf_i+0x162>
 8009062:	3501      	adds	r5, #1
 8009064:	68e3      	ldr	r3, [r4, #12]
 8009066:	9903      	ldr	r1, [sp, #12]
 8009068:	1a5b      	subs	r3, r3, r1
 800906a:	42ab      	cmp	r3, r5
 800906c:	dcf2      	bgt.n	8009054 <_printf_i+0x218>
 800906e:	e7eb      	b.n	8009048 <_printf_i+0x20c>
 8009070:	2500      	movs	r5, #0
 8009072:	f104 0619 	add.w	r6, r4, #25
 8009076:	e7f5      	b.n	8009064 <_printf_i+0x228>
 8009078:	08009b6b 	.word	0x08009b6b
 800907c:	08009b7c 	.word	0x08009b7c

08009080 <memmove>:
 8009080:	4288      	cmp	r0, r1
 8009082:	b510      	push	{r4, lr}
 8009084:	eb01 0402 	add.w	r4, r1, r2
 8009088:	d902      	bls.n	8009090 <memmove+0x10>
 800908a:	4284      	cmp	r4, r0
 800908c:	4623      	mov	r3, r4
 800908e:	d807      	bhi.n	80090a0 <memmove+0x20>
 8009090:	1e43      	subs	r3, r0, #1
 8009092:	42a1      	cmp	r1, r4
 8009094:	d008      	beq.n	80090a8 <memmove+0x28>
 8009096:	f811 2b01 	ldrb.w	r2, [r1], #1
 800909a:	f803 2f01 	strb.w	r2, [r3, #1]!
 800909e:	e7f8      	b.n	8009092 <memmove+0x12>
 80090a0:	4601      	mov	r1, r0
 80090a2:	4402      	add	r2, r0
 80090a4:	428a      	cmp	r2, r1
 80090a6:	d100      	bne.n	80090aa <memmove+0x2a>
 80090a8:	bd10      	pop	{r4, pc}
 80090aa:	f813 4d01 	ldrb.w	r4, [r3, #-1]!
 80090ae:	f802 4d01 	strb.w	r4, [r2, #-1]!
 80090b2:	e7f7      	b.n	80090a4 <memmove+0x24>

080090b4 <_sbrk_r>:
 80090b4:	b538      	push	{r3, r4, r5, lr}
 80090b6:	2300      	movs	r3, #0
 80090b8:	4d05      	ldr	r5, [pc, #20]	; (80090d0 <_sbrk_r+0x1c>)
 80090ba:	4604      	mov	r4, r0
 80090bc:	4608      	mov	r0, r1
 80090be:	602b      	str	r3, [r5, #0]
 80090c0:	f7fb fd9e 	bl	8004c00 <_sbrk>
 80090c4:	1c43      	adds	r3, r0, #1
 80090c6:	d102      	bne.n	80090ce <_sbrk_r+0x1a>
 80090c8:	682b      	ldr	r3, [r5, #0]
 80090ca:	b103      	cbz	r3, 80090ce <_sbrk_r+0x1a>
 80090cc:	6023      	str	r3, [r4, #0]
 80090ce:	bd38      	pop	{r3, r4, r5, pc}
 80090d0:	20000720 	.word	0x20000720

080090d4 <memchr>:
 80090d4:	4603      	mov	r3, r0
 80090d6:	b510      	push	{r4, lr}
 80090d8:	b2c9      	uxtb	r1, r1
 80090da:	4402      	add	r2, r0
 80090dc:	4293      	cmp	r3, r2
 80090de:	4618      	mov	r0, r3
 80090e0:	d101      	bne.n	80090e6 <memchr+0x12>
 80090e2:	2000      	movs	r0, #0
 80090e4:	e003      	b.n	80090ee <memchr+0x1a>
 80090e6:	7804      	ldrb	r4, [r0, #0]
 80090e8:	3301      	adds	r3, #1
 80090ea:	428c      	cmp	r4, r1
 80090ec:	d1f6      	bne.n	80090dc <memchr+0x8>
 80090ee:	bd10      	pop	{r4, pc}

080090f0 <memcpy>:
 80090f0:	440a      	add	r2, r1
 80090f2:	4291      	cmp	r1, r2
 80090f4:	f100 33ff 	add.w	r3, r0, #4294967295
 80090f8:	d100      	bne.n	80090fc <memcpy+0xc>
 80090fa:	4770      	bx	lr
 80090fc:	b510      	push	{r4, lr}
 80090fe:	f811 4b01 	ldrb.w	r4, [r1], #1
 8009102:	4291      	cmp	r1, r2
 8009104:	f803 4f01 	strb.w	r4, [r3, #1]!
 8009108:	d1f9      	bne.n	80090fe <memcpy+0xe>
 800910a:	bd10      	pop	{r4, pc}

0800910c <_realloc_r>:
 800910c:	e92d 41f0 	stmdb	sp!, {r4, r5, r6, r7, r8, lr}
 8009110:	4680      	mov	r8, r0
 8009112:	4614      	mov	r4, r2
 8009114:	460e      	mov	r6, r1
 8009116:	b921      	cbnz	r1, 8009122 <_realloc_r+0x16>
 8009118:	4611      	mov	r1, r2
 800911a:	e8bd 41f0 	ldmia.w	sp!, {r4, r5, r6, r7, r8, lr}
 800911e:	f7ff bc37 	b.w	8008990 <_malloc_r>
 8009122:	b92a      	cbnz	r2, 8009130 <_realloc_r+0x24>
 8009124:	f7ff fbcc 	bl	80088c0 <_free_r>
 8009128:	4625      	mov	r5, r4
 800912a:	4628      	mov	r0, r5
 800912c:	e8bd 81f0 	ldmia.w	sp!, {r4, r5, r6, r7, r8, pc}
 8009130:	f000 f81b 	bl	800916a <_malloc_usable_size_r>
 8009134:	4284      	cmp	r4, r0
 8009136:	4607      	mov	r7, r0
 8009138:	d802      	bhi.n	8009140 <_realloc_r+0x34>
 800913a:	ebb4 0f50 	cmp.w	r4, r0, lsr #1
 800913e:	d812      	bhi.n	8009166 <_realloc_r+0x5a>
 8009140:	4621      	mov	r1, r4
 8009142:	4640      	mov	r0, r8
 8009144:	f7ff fc24 	bl	8008990 <_malloc_r>
 8009148:	4605      	mov	r5, r0
 800914a:	2800      	cmp	r0, #0
 800914c:	d0ed      	beq.n	800912a <_realloc_r+0x1e>
 800914e:	42bc      	cmp	r4, r7
 8009150:	4622      	mov	r2, r4
 8009152:	4631      	mov	r1, r6
 8009154:	bf28      	it	cs
 8009156:	463a      	movcs	r2, r7
 8009158:	f7ff ffca 	bl	80090f0 <memcpy>
 800915c:	4631      	mov	r1, r6
 800915e:	4640      	mov	r0, r8
 8009160:	f7ff fbae 	bl	80088c0 <_free_r>
 8009164:	e7e1      	b.n	800912a <_realloc_r+0x1e>
 8009166:	4635      	mov	r5, r6
 8009168:	e7df      	b.n	800912a <_realloc_r+0x1e>

0800916a <_malloc_usable_size_r>:
 800916a:	f851 3c04 	ldr.w	r3, [r1, #-4]
 800916e:	1f18      	subs	r0, r3, #4
 8009170:	2b00      	cmp	r3, #0
 8009172:	bfbc      	itt	lt
 8009174:	580b      	ldrlt	r3, [r1, r0]
 8009176:	18c0      	addlt	r0, r0, r3
 8009178:	4770      	bx	lr

0800917a <atan2>:
 800917a:	f000 ba8d 	b.w	8009698 <__ieee754_atan2>

0800917e <sqrt>:
 800917e:	b5f8      	push	{r3, r4, r5, r6, r7, lr}
 8009180:	4606      	mov	r6, r0
 8009182:	460f      	mov	r7, r1
 8009184:	f000 f9ae 	bl	80094e4 <__ieee754_sqrt>
 8009188:	4632      	mov	r2, r6
 800918a:	4604      	mov	r4, r0
 800918c:	460d      	mov	r5, r1
 800918e:	463b      	mov	r3, r7
 8009190:	4630      	mov	r0, r6
 8009192:	4639      	mov	r1, r7
 8009194:	f7f7 fc3a 	bl	8000a0c <__aeabi_dcmpun>
 8009198:	b990      	cbnz	r0, 80091c0 <sqrt+0x42>
 800919a:	2200      	movs	r2, #0
 800919c:	2300      	movs	r3, #0
 800919e:	4630      	mov	r0, r6
 80091a0:	4639      	mov	r1, r7
 80091a2:	f7f7 fc0b 	bl	80009bc <__aeabi_dcmplt>
 80091a6:	b158      	cbz	r0, 80091c0 <sqrt+0x42>
 80091a8:	f7ff fb5e 	bl	8008868 <__errno>
 80091ac:	2321      	movs	r3, #33	; 0x21
 80091ae:	2200      	movs	r2, #0
 80091b0:	6003      	str	r3, [r0, #0]
 80091b2:	2300      	movs	r3, #0
 80091b4:	4610      	mov	r0, r2
 80091b6:	4619      	mov	r1, r3
 80091b8:	f7f7 fab8 	bl	800072c <__aeabi_ddiv>
 80091bc:	4604      	mov	r4, r0
 80091be:	460d      	mov	r5, r1
 80091c0:	4620      	mov	r0, r4
 80091c2:	4629      	mov	r1, r5
 80091c4:	bdf8      	pop	{r3, r4, r5, r6, r7, pc}
	...

080091c8 <atan>:
 80091c8:	e92d 4ff8 	stmdb	sp!, {r3, r4, r5, r6, r7, r8, r9, sl, fp, lr}
 80091cc:	4bb6      	ldr	r3, [pc, #728]	; (80094a8 <atan+0x2e0>)
 80091ce:	f021 4600 	bic.w	r6, r1, #2147483648	; 0x80000000
 80091d2:	429e      	cmp	r6, r3
 80091d4:	4604      	mov	r4, r0
 80091d6:	460d      	mov	r5, r1
 80091d8:	468b      	mov	fp, r1
 80091da:	dd17      	ble.n	800920c <atan+0x44>
 80091dc:	4bb3      	ldr	r3, [pc, #716]	; (80094ac <atan+0x2e4>)
 80091de:	429e      	cmp	r6, r3
 80091e0:	dc01      	bgt.n	80091e6 <atan+0x1e>
 80091e2:	d109      	bne.n	80091f8 <atan+0x30>
 80091e4:	b140      	cbz	r0, 80091f8 <atan+0x30>
 80091e6:	4622      	mov	r2, r4
 80091e8:	462b      	mov	r3, r5
 80091ea:	4620      	mov	r0, r4
 80091ec:	4629      	mov	r1, r5
 80091ee:	f7f6 ffbd 	bl	800016c <__adddf3>
 80091f2:	4604      	mov	r4, r0
 80091f4:	460d      	mov	r5, r1
 80091f6:	e005      	b.n	8009204 <atan+0x3c>
 80091f8:	f1bb 0f00 	cmp.w	fp, #0
 80091fc:	4cac      	ldr	r4, [pc, #688]	; (80094b0 <atan+0x2e8>)
 80091fe:	f300 8121 	bgt.w	8009444 <atan+0x27c>
 8009202:	4dac      	ldr	r5, [pc, #688]	; (80094b4 <atan+0x2ec>)
 8009204:	4620      	mov	r0, r4
 8009206:	4629      	mov	r1, r5
 8009208:	e8bd 8ff8 	ldmia.w	sp!, {r3, r4, r5, r6, r7, r8, r9, sl, fp, pc}
 800920c:	4baa      	ldr	r3, [pc, #680]	; (80094b8 <atan+0x2f0>)
 800920e:	429e      	cmp	r6, r3
 8009210:	dc11      	bgt.n	8009236 <atan+0x6e>
 8009212:	f1a3 73de 	sub.w	r3, r3, #29097984	; 0x1bc0000
 8009216:	429e      	cmp	r6, r3
 8009218:	dc0a      	bgt.n	8009230 <atan+0x68>
 800921a:	a38b      	add	r3, pc, #556	; (adr r3, 8009448 <atan+0x280>)
 800921c:	e9d3 2300 	ldrd	r2, r3, [r3]
 8009220:	f7f6 ffa4 	bl	800016c <__adddf3>
 8009224:	2200      	movs	r2, #0
 8009226:	4ba5      	ldr	r3, [pc, #660]	; (80094bc <atan+0x2f4>)
 8009228:	f7f7 fbe6 	bl	80009f8 <__aeabi_dcmpgt>
 800922c:	2800      	cmp	r0, #0
 800922e:	d1e9      	bne.n	8009204 <atan+0x3c>
 8009230:	f04f 3aff 	mov.w	sl, #4294967295
 8009234:	e027      	b.n	8009286 <atan+0xbe>
 8009236:	f000 f951 	bl	80094dc <fabs>
 800923a:	4ba1      	ldr	r3, [pc, #644]	; (80094c0 <atan+0x2f8>)
 800923c:	4604      	mov	r4, r0
 800923e:	429e      	cmp	r6, r3
 8009240:	460d      	mov	r5, r1
 8009242:	f300 80b8 	bgt.w	80093b6 <atan+0x1ee>
 8009246:	f5a3 2350 	sub.w	r3, r3, #851968	; 0xd0000
 800924a:	429e      	cmp	r6, r3
 800924c:	f300 809c 	bgt.w	8009388 <atan+0x1c0>
 8009250:	4602      	mov	r2, r0
 8009252:	460b      	mov	r3, r1
 8009254:	f7f6 ff8a 	bl	800016c <__adddf3>
 8009258:	2200      	movs	r2, #0
 800925a:	4b98      	ldr	r3, [pc, #608]	; (80094bc <atan+0x2f4>)
 800925c:	f7f6 ff84 	bl	8000168 <__aeabi_dsub>
 8009260:	2200      	movs	r2, #0
 8009262:	4606      	mov	r6, r0
 8009264:	460f      	mov	r7, r1
 8009266:	f04f 4380 	mov.w	r3, #1073741824	; 0x40000000
 800926a:	4620      	mov	r0, r4
 800926c:	4629      	mov	r1, r5
 800926e:	f7f6 ff7d 	bl	800016c <__adddf3>
 8009272:	4602      	mov	r2, r0
 8009274:	460b      	mov	r3, r1
 8009276:	4630      	mov	r0, r6
 8009278:	4639      	mov	r1, r7
 800927a:	f7f7 fa57 	bl	800072c <__aeabi_ddiv>
 800927e:	f04f 0a00 	mov.w	sl, #0
 8009282:	4604      	mov	r4, r0
 8009284:	460d      	mov	r5, r1
 8009286:	4622      	mov	r2, r4
 8009288:	462b      	mov	r3, r5
 800928a:	4620      	mov	r0, r4
 800928c:	4629      	mov	r1, r5
 800928e:	f7f7 f923 	bl	80004d8 <__aeabi_dmul>
 8009292:	4602      	mov	r2, r0
 8009294:	460b      	mov	r3, r1
 8009296:	4680      	mov	r8, r0
 8009298:	4689      	mov	r9, r1
 800929a:	f7f7 f91d 	bl	80004d8 <__aeabi_dmul>
 800929e:	a36c      	add	r3, pc, #432	; (adr r3, 8009450 <atan+0x288>)
 80092a0:	e9d3 2300 	ldrd	r2, r3, [r3]
 80092a4:	4606      	mov	r6, r0
 80092a6:	460f      	mov	r7, r1
 80092a8:	f7f7 f916 	bl	80004d8 <__aeabi_dmul>
 80092ac:	a36a      	add	r3, pc, #424	; (adr r3, 8009458 <atan+0x290>)
 80092ae:	e9d3 2300 	ldrd	r2, r3, [r3]
 80092b2:	f7f6 ff5b 	bl	800016c <__adddf3>
 80092b6:	4632      	mov	r2, r6
 80092b8:	463b      	mov	r3, r7
 80092ba:	f7f7 f90d 	bl	80004d8 <__aeabi_dmul>
 80092be:	a368      	add	r3, pc, #416	; (adr r3, 8009460 <atan+0x298>)
 80092c0:	e9d3 2300 	ldrd	r2, r3, [r3]
 80092c4:	f7f6 ff52 	bl	800016c <__adddf3>
 80092c8:	4632      	mov	r2, r6
 80092ca:	463b      	mov	r3, r7
 80092cc:	f7f7 f904 	bl	80004d8 <__aeabi_dmul>
 80092d0:	a365      	add	r3, pc, #404	; (adr r3, 8009468 <atan+0x2a0>)
 80092d2:	e9d3 2300 	ldrd	r2, r3, [r3]
 80092d6:	f7f6 ff49 	bl	800016c <__adddf3>
 80092da:	4632      	mov	r2, r6
 80092dc:	463b      	mov	r3, r7
 80092de:	f7f7 f8fb 	bl	80004d8 <__aeabi_dmul>
 80092e2:	a363      	add	r3, pc, #396	; (adr r3, 8009470 <atan+0x2a8>)
 80092e4:	e9d3 2300 	ldrd	r2, r3, [r3]
 80092e8:	f7f6 ff40 	bl	800016c <__adddf3>
 80092ec:	4632      	mov	r2, r6
 80092ee:	463b      	mov	r3, r7
 80092f0:	f7f7 f8f2 	bl	80004d8 <__aeabi_dmul>
 80092f4:	a360      	add	r3, pc, #384	; (adr r3, 8009478 <atan+0x2b0>)
 80092f6:	e9d3 2300 	ldrd	r2, r3, [r3]
 80092fa:	f7f6 ff37 	bl	800016c <__adddf3>
 80092fe:	4642      	mov	r2, r8
 8009300:	464b      	mov	r3, r9
 8009302:	f7f7 f8e9 	bl	80004d8 <__aeabi_dmul>
 8009306:	a35e      	add	r3, pc, #376	; (adr r3, 8009480 <atan+0x2b8>)
 8009308:	e9d3 2300 	ldrd	r2, r3, [r3]
 800930c:	4680      	mov	r8, r0
 800930e:	4689      	mov	r9, r1
 8009310:	4630      	mov	r0, r6
 8009312:	4639      	mov	r1, r7
 8009314:	f7f7 f8e0 	bl	80004d8 <__aeabi_dmul>
 8009318:	a35b      	add	r3, pc, #364	; (adr r3, 8009488 <atan+0x2c0>)
 800931a:	e9d3 2300 	ldrd	r2, r3, [r3]
 800931e:	f7f6 ff23 	bl	8000168 <__aeabi_dsub>
 8009322:	4632      	mov	r2, r6
 8009324:	463b      	mov	r3, r7
 8009326:	f7f7 f8d7 	bl	80004d8 <__aeabi_dmul>
 800932a:	a359      	add	r3, pc, #356	; (adr r3, 8009490 <atan+0x2c8>)
 800932c:	e9d3 2300 	ldrd	r2, r3, [r3]
 8009330:	f7f6 ff1a 	bl	8000168 <__aeabi_dsub>
 8009334:	4632      	mov	r2, r6
 8009336:	463b      	mov	r3, r7
 8009338:	f7f7 f8ce 	bl	80004d8 <__aeabi_dmul>
 800933c:	a356      	add	r3, pc, #344	; (adr r3, 8009498 <atan+0x2d0>)
 800933e:	e9d3 2300 	ldrd	r2, r3, [r3]
 8009342:	f7f6 ff11 	bl	8000168 <__aeabi_dsub>
 8009346:	4632      	mov	r2, r6
 8009348:	463b      	mov	r3, r7
 800934a:	f7f7 f8c5 	bl	80004d8 <__aeabi_dmul>
 800934e:	a354      	add	r3, pc, #336	; (adr r3, 80094a0 <atan+0x2d8>)
 8009350:	e9d3 2300 	ldrd	r2, r3, [r3]
 8009354:	f7f6 ff08 	bl	8000168 <__aeabi_dsub>
 8009358:	4632      	mov	r2, r6
 800935a:	463b      	mov	r3, r7
 800935c:	f7f7 f8bc 	bl	80004d8 <__aeabi_dmul>
 8009360:	4602      	mov	r2, r0
 8009362:	460b      	mov	r3, r1
 8009364:	4640      	mov	r0, r8
 8009366:	4649      	mov	r1, r9
 8009368:	f7f6 ff00 	bl	800016c <__adddf3>
 800936c:	4622      	mov	r2, r4
 800936e:	462b      	mov	r3, r5
 8009370:	f7f7 f8b2 	bl	80004d8 <__aeabi_dmul>
 8009374:	f1ba 3fff 	cmp.w	sl, #4294967295
 8009378:	4602      	mov	r2, r0
 800937a:	460b      	mov	r3, r1
 800937c:	d144      	bne.n	8009408 <atan+0x240>
 800937e:	4620      	mov	r0, r4
 8009380:	4629      	mov	r1, r5
 8009382:	f7f6 fef1 	bl	8000168 <__aeabi_dsub>
 8009386:	e734      	b.n	80091f2 <atan+0x2a>
 8009388:	2200      	movs	r2, #0
 800938a:	4b4c      	ldr	r3, [pc, #304]	; (80094bc <atan+0x2f4>)
 800938c:	f7f6 feec 	bl	8000168 <__aeabi_dsub>
 8009390:	2200      	movs	r2, #0
 8009392:	4606      	mov	r6, r0
 8009394:	460f      	mov	r7, r1
 8009396:	4620      	mov	r0, r4
 8009398:	4629      	mov	r1, r5
 800939a:	4b48      	ldr	r3, [pc, #288]	; (80094bc <atan+0x2f4>)
 800939c:	f7f6 fee6 	bl	800016c <__adddf3>
 80093a0:	4602      	mov	r2, r0
 80093a2:	460b      	mov	r3, r1
 80093a4:	4630      	mov	r0, r6
 80093a6:	4639      	mov	r1, r7
 80093a8:	f7f7 f9c0 	bl	800072c <__aeabi_ddiv>
 80093ac:	f04f 0a01 	mov.w	sl, #1
 80093b0:	4604      	mov	r4, r0
 80093b2:	460d      	mov	r5, r1
 80093b4:	e767      	b.n	8009286 <atan+0xbe>
 80093b6:	4b43      	ldr	r3, [pc, #268]	; (80094c4 <atan+0x2fc>)
 80093b8:	429e      	cmp	r6, r3
 80093ba:	da1a      	bge.n	80093f2 <atan+0x22a>
 80093bc:	2200      	movs	r2, #0
 80093be:	4b42      	ldr	r3, [pc, #264]	; (80094c8 <atan+0x300>)
 80093c0:	f7f6 fed2 	bl	8000168 <__aeabi_dsub>
 80093c4:	2200      	movs	r2, #0
 80093c6:	4606      	mov	r6, r0
 80093c8:	460f      	mov	r7, r1
 80093ca:	4620      	mov	r0, r4
 80093cc:	4629      	mov	r1, r5
 80093ce:	4b3e      	ldr	r3, [pc, #248]	; (80094c8 <atan+0x300>)
 80093d0:	f7f7 f882 	bl	80004d8 <__aeabi_dmul>
 80093d4:	2200      	movs	r2, #0
 80093d6:	4b39      	ldr	r3, [pc, #228]	; (80094bc <atan+0x2f4>)
 80093d8:	f7f6 fec8 	bl	800016c <__adddf3>
 80093dc:	4602      	mov	r2, r0
 80093de:	460b      	mov	r3, r1
 80093e0:	4630      	mov	r0, r6
 80093e2:	4639      	mov	r1, r7
 80093e4:	f7f7 f9a2 	bl	800072c <__aeabi_ddiv>
 80093e8:	f04f 0a02 	mov.w	sl, #2
 80093ec:	4604      	mov	r4, r0
 80093ee:	460d      	mov	r5, r1
 80093f0:	e749      	b.n	8009286 <atan+0xbe>
 80093f2:	4602      	mov	r2, r0
 80093f4:	460b      	mov	r3, r1
 80093f6:	2000      	movs	r0, #0
 80093f8:	4934      	ldr	r1, [pc, #208]	; (80094cc <atan+0x304>)
 80093fa:	f7f7 f997 	bl	800072c <__aeabi_ddiv>
 80093fe:	f04f 0a03 	mov.w	sl, #3
 8009402:	4604      	mov	r4, r0
 8009404:	460d      	mov	r5, r1
 8009406:	e73e      	b.n	8009286 <atan+0xbe>
 8009408:	4b31      	ldr	r3, [pc, #196]	; (80094d0 <atan+0x308>)
 800940a:	4e32      	ldr	r6, [pc, #200]	; (80094d4 <atan+0x30c>)
 800940c:	eb03 03ca 	add.w	r3, r3, sl, lsl #3
 8009410:	e9d3 2300 	ldrd	r2, r3, [r3]
 8009414:	f7f6 fea8 	bl	8000168 <__aeabi_dsub>
 8009418:	4622      	mov	r2, r4
 800941a:	462b      	mov	r3, r5
 800941c:	f7f6 fea4 	bl	8000168 <__aeabi_dsub>
 8009420:	eb06 06ca 	add.w	r6, r6, sl, lsl #3
 8009424:	4602      	mov	r2, r0
 8009426:	460b      	mov	r3, r1
 8009428:	e9d6 0100 	ldrd	r0, r1, [r6]
 800942c:	f7f6 fe9c 	bl	8000168 <__aeabi_dsub>
 8009430:	f1bb 0f00 	cmp.w	fp, #0
 8009434:	4604      	mov	r4, r0
 8009436:	460d      	mov	r5, r1
 8009438:	f6bf aee4 	bge.w	8009204 <atan+0x3c>
 800943c:	f101 4300 	add.w	r3, r1, #2147483648	; 0x80000000
 8009440:	461d      	mov	r5, r3
 8009442:	e6df      	b.n	8009204 <atan+0x3c>
 8009444:	4d24      	ldr	r5, [pc, #144]	; (80094d8 <atan+0x310>)
 8009446:	e6dd      	b.n	8009204 <atan+0x3c>
 8009448:	8800759c 	.word	0x8800759c
 800944c:	7e37e43c 	.word	0x7e37e43c
 8009450:	e322da11 	.word	0xe322da11
 8009454:	3f90ad3a 	.word	0x3f90ad3a
 8009458:	24760deb 	.word	0x24760deb
 800945c:	3fa97b4b 	.word	0x3fa97b4b
 8009460:	a0d03d51 	.word	0xa0d03d51
 8009464:	3fb10d66 	.word	0x3fb10d66
 8009468:	c54c206e 	.word	0xc54c206e
 800946c:	3fb745cd 	.word	0x3fb745cd
 8009470:	920083ff 	.word	0x920083ff
 8009474:	3fc24924 	.word	0x3fc24924
 8009478:	5555550d 	.word	0x5555550d
 800947c:	3fd55555 	.word	0x3fd55555
 8009480:	2c6a6c2f 	.word	0x2c6a6c2f
 8009484:	bfa2b444 	.word	0xbfa2b444
 8009488:	52defd9a 	.word	0x52defd9a
 800948c:	3fadde2d 	.word	0x3fadde2d
 8009490:	af749a6d 	.word	0xaf749a6d
 8009494:	3fb3b0f2 	.word	0x3fb3b0f2
 8009498:	fe231671 	.word	0xfe231671
 800949c:	3fbc71c6 	.word	0x3fbc71c6
 80094a0:	9998ebc4 	.word	0x9998ebc4
 80094a4:	3fc99999 	.word	0x3fc99999
 80094a8:	440fffff 	.word	0x440fffff
 80094ac:	7ff00000 	.word	0x7ff00000
 80094b0:	54442d18 	.word	0x54442d18
 80094b4:	bff921fb 	.word	0xbff921fb
 80094b8:	3fdbffff 	.word	0x3fdbffff
 80094bc:	3ff00000 	.word	0x3ff00000
 80094c0:	3ff2ffff 	.word	0x3ff2ffff
 80094c4:	40038000 	.word	0x40038000
 80094c8:	3ff80000 	.word	0x3ff80000
 80094cc:	bff00000 	.word	0xbff00000
 80094d0:	08009bb0 	.word	0x08009bb0
 80094d4:	08009b90 	.word	0x08009b90
 80094d8:	3ff921fb 	.word	0x3ff921fb

080094dc <fabs>:
 80094dc:	f021 4300 	bic.w	r3, r1, #2147483648	; 0x80000000
 80094e0:	4619      	mov	r1, r3
 80094e2:	4770      	bx	lr

080094e4 <__ieee754_sqrt>:
 80094e4:	f8df c1a0 	ldr.w	ip, [pc, #416]	; 8009688 <__ieee754_sqrt+0x1a4>
 80094e8:	e92d 4ff8 	stmdb	sp!, {r3, r4, r5, r6, r7, r8, r9, sl, fp, lr}
 80094ec:	ea3c 0c01 	bics.w	ip, ip, r1
 80094f0:	460b      	mov	r3, r1
 80094f2:	4606      	mov	r6, r0
 80094f4:	460d      	mov	r5, r1
 80094f6:	460a      	mov	r2, r1
 80094f8:	4604      	mov	r4, r0
 80094fa:	d10e      	bne.n	800951a <__ieee754_sqrt+0x36>
 80094fc:	4602      	mov	r2, r0
 80094fe:	f7f6 ffeb 	bl	80004d8 <__aeabi_dmul>
 8009502:	4602      	mov	r2, r0
 8009504:	460b      	mov	r3, r1
 8009506:	4630      	mov	r0, r6
 8009508:	4629      	mov	r1, r5
 800950a:	f7f6 fe2f 	bl	800016c <__adddf3>
 800950e:	4606      	mov	r6, r0
 8009510:	460d      	mov	r5, r1
 8009512:	4630      	mov	r0, r6
 8009514:	4629      	mov	r1, r5
 8009516:	e8bd 8ff8 	ldmia.w	sp!, {r3, r4, r5, r6, r7, r8, r9, sl, fp, pc}
 800951a:	2900      	cmp	r1, #0
 800951c:	dc0d      	bgt.n	800953a <__ieee754_sqrt+0x56>
 800951e:	f021 4c00 	bic.w	ip, r1, #2147483648	; 0x80000000
 8009522:	ea5c 0c00 	orrs.w	ip, ip, r0
 8009526:	d0f4      	beq.n	8009512 <__ieee754_sqrt+0x2e>
 8009528:	b139      	cbz	r1, 800953a <__ieee754_sqrt+0x56>
 800952a:	4602      	mov	r2, r0
 800952c:	f7f6 fe1c 	bl	8000168 <__aeabi_dsub>
 8009530:	4602      	mov	r2, r0
 8009532:	460b      	mov	r3, r1
 8009534:	f7f7 f8fa 	bl	800072c <__aeabi_ddiv>
 8009538:	e7e9      	b.n	800950e <__ieee754_sqrt+0x2a>
 800953a:	1512      	asrs	r2, r2, #20
 800953c:	f000 8089 	beq.w	8009652 <__ieee754_sqrt+0x16e>
 8009540:	2500      	movs	r5, #0
 8009542:	f3c3 0313 	ubfx	r3, r3, #0, #20
 8009546:	f2a2 36ff 	subw	r6, r2, #1023	; 0x3ff
 800954a:	f443 1380 	orr.w	r3, r3, #1048576	; 0x100000
 800954e:	07d2      	lsls	r2, r2, #31
 8009550:	bf5c      	itt	pl
 8009552:	005b      	lslpl	r3, r3, #1
 8009554:	eb03 73d4 	addpl.w	r3, r3, r4, lsr #31
 8009558:	ea4f 0343 	mov.w	r3, r3, lsl #1
 800955c:	bf58      	it	pl
 800955e:	0064      	lslpl	r4, r4, #1
 8009560:	eb03 73d4 	add.w	r3, r3, r4, lsr #31
 8009564:	0062      	lsls	r2, r4, #1
 8009566:	2016      	movs	r0, #22
 8009568:	4629      	mov	r1, r5
 800956a:	f44f 1400 	mov.w	r4, #2097152	; 0x200000
 800956e:	1076      	asrs	r6, r6, #1
 8009570:	190f      	adds	r7, r1, r4
 8009572:	429f      	cmp	r7, r3
 8009574:	bfde      	ittt	le
 8009576:	1bdb      	suble	r3, r3, r7
 8009578:	1939      	addle	r1, r7, r4
 800957a:	192d      	addle	r5, r5, r4
 800957c:	005b      	lsls	r3, r3, #1
 800957e:	3801      	subs	r0, #1
 8009580:	eb03 73d2 	add.w	r3, r3, r2, lsr #31
 8009584:	ea4f 0454 	mov.w	r4, r4, lsr #1
 8009588:	ea4f 0242 	mov.w	r2, r2, lsl #1
 800958c:	d1f0      	bne.n	8009570 <__ieee754_sqrt+0x8c>
 800958e:	4604      	mov	r4, r0
 8009590:	2720      	movs	r7, #32
 8009592:	f04f 4c00 	mov.w	ip, #2147483648	; 0x80000000
 8009596:	428b      	cmp	r3, r1
 8009598:	eb0c 0e00 	add.w	lr, ip, r0
 800959c:	dc02      	bgt.n	80095a4 <__ieee754_sqrt+0xc0>
 800959e:	d113      	bne.n	80095c8 <__ieee754_sqrt+0xe4>
 80095a0:	4596      	cmp	lr, r2
 80095a2:	d811      	bhi.n	80095c8 <__ieee754_sqrt+0xe4>
 80095a4:	f1be 0f00 	cmp.w	lr, #0
 80095a8:	eb0e 000c 	add.w	r0, lr, ip
 80095ac:	da56      	bge.n	800965c <__ieee754_sqrt+0x178>
 80095ae:	2800      	cmp	r0, #0
 80095b0:	db54      	blt.n	800965c <__ieee754_sqrt+0x178>
 80095b2:	f101 0801 	add.w	r8, r1, #1
 80095b6:	1a5b      	subs	r3, r3, r1
 80095b8:	4641      	mov	r1, r8
 80095ba:	4596      	cmp	lr, r2
 80095bc:	bf88      	it	hi
 80095be:	f103 33ff 	addhi.w	r3, r3, #4294967295
 80095c2:	eba2 020e 	sub.w	r2, r2, lr
 80095c6:	4464      	add	r4, ip
 80095c8:	005b      	lsls	r3, r3, #1
 80095ca:	3f01      	subs	r7, #1
 80095cc:	eb03 73d2 	add.w	r3, r3, r2, lsr #31
 80095d0:	ea4f 0c5c 	mov.w	ip, ip, lsr #1
 80095d4:	ea4f 0242 	mov.w	r2, r2, lsl #1
 80095d8:	d1dd      	bne.n	8009596 <__ieee754_sqrt+0xb2>
 80095da:	4313      	orrs	r3, r2
 80095dc:	d01b      	beq.n	8009616 <__ieee754_sqrt+0x132>
 80095de:	f8df a0ac 	ldr.w	sl, [pc, #172]	; 800968c <__ieee754_sqrt+0x1a8>
 80095e2:	f8df b0ac 	ldr.w	fp, [pc, #172]	; 8009690 <__ieee754_sqrt+0x1ac>
 80095e6:	e9da 0100 	ldrd	r0, r1, [sl]
 80095ea:	e9db 2300 	ldrd	r2, r3, [fp]
 80095ee:	f7f6 fdbb 	bl	8000168 <__aeabi_dsub>
 80095f2:	e9da 8900 	ldrd	r8, r9, [sl]
 80095f6:	4602      	mov	r2, r0
 80095f8:	460b      	mov	r3, r1
 80095fa:	4640      	mov	r0, r8
 80095fc:	4649      	mov	r1, r9
 80095fe:	f7f7 f9e7 	bl	80009d0 <__aeabi_dcmple>
 8009602:	b140      	cbz	r0, 8009616 <__ieee754_sqrt+0x132>
 8009604:	e9da 0100 	ldrd	r0, r1, [sl]
 8009608:	e9db 2300 	ldrd	r2, r3, [fp]
 800960c:	f1b4 3fff 	cmp.w	r4, #4294967295
 8009610:	d126      	bne.n	8009660 <__ieee754_sqrt+0x17c>
 8009612:	463c      	mov	r4, r7
 8009614:	3501      	adds	r5, #1
 8009616:	106b      	asrs	r3, r5, #1
 8009618:	0864      	lsrs	r4, r4, #1
 800961a:	f103 537f 	add.w	r3, r3, #1069547520	; 0x3fc00000
 800961e:	07ea      	lsls	r2, r5, #31
 8009620:	f503 1300 	add.w	r3, r3, #2097152	; 0x200000
 8009624:	bf48      	it	mi
 8009626:	f044 4400 	orrmi.w	r4, r4, #2147483648	; 0x80000000
 800962a:	4620      	mov	r0, r4
 800962c:	eb03 5106 	add.w	r1, r3, r6, lsl #20
 8009630:	e76d      	b.n	800950e <__ieee754_sqrt+0x2a>
 8009632:	0ae3      	lsrs	r3, r4, #11
 8009634:	3915      	subs	r1, #21
 8009636:	0564      	lsls	r4, r4, #21
 8009638:	2b00      	cmp	r3, #0
 800963a:	d0fa      	beq.n	8009632 <__ieee754_sqrt+0x14e>
 800963c:	02d8      	lsls	r0, r3, #11
 800963e:	d50a      	bpl.n	8009656 <__ieee754_sqrt+0x172>
 8009640:	f1c2 0020 	rsb	r0, r2, #32
 8009644:	fa24 f000 	lsr.w	r0, r4, r0
 8009648:	1e55      	subs	r5, r2, #1
 800964a:	4094      	lsls	r4, r2
 800964c:	4303      	orrs	r3, r0
 800964e:	1b4a      	subs	r2, r1, r5
 8009650:	e776      	b.n	8009540 <__ieee754_sqrt+0x5c>
 8009652:	4611      	mov	r1, r2
 8009654:	e7f0      	b.n	8009638 <__ieee754_sqrt+0x154>
 8009656:	005b      	lsls	r3, r3, #1
 8009658:	3201      	adds	r2, #1
 800965a:	e7ef      	b.n	800963c <__ieee754_sqrt+0x158>
 800965c:	4688      	mov	r8, r1
 800965e:	e7aa      	b.n	80095b6 <__ieee754_sqrt+0xd2>
 8009660:	f7f6 fd84 	bl	800016c <__adddf3>
 8009664:	e9da 8900 	ldrd	r8, r9, [sl]
 8009668:	4602      	mov	r2, r0
 800966a:	460b      	mov	r3, r1
 800966c:	4640      	mov	r0, r8
 800966e:	4649      	mov	r1, r9
 8009670:	f7f7 f9a4 	bl	80009bc <__aeabi_dcmplt>
 8009674:	b120      	cbz	r0, 8009680 <__ieee754_sqrt+0x19c>
 8009676:	1ca1      	adds	r1, r4, #2
 8009678:	bf08      	it	eq
 800967a:	3501      	addeq	r5, #1
 800967c:	3402      	adds	r4, #2
 800967e:	e7ca      	b.n	8009616 <__ieee754_sqrt+0x132>
 8009680:	3401      	adds	r4, #1
 8009682:	f024 0401 	bic.w	r4, r4, #1
 8009686:	e7c6      	b.n	8009616 <__ieee754_sqrt+0x132>
 8009688:	7ff00000 	.word	0x7ff00000
 800968c:	20000108 	.word	0x20000108
 8009690:	20000110 	.word	0x20000110
 8009694:	00000000 	.word	0x00000000

08009698 <__ieee754_atan2>:
 8009698:	e92d 4ff8 	stmdb	sp!, {r3, r4, r5, r6, r7, r8, r9, sl, fp, lr}
 800969c:	4617      	mov	r7, r2
 800969e:	4692      	mov	sl, r2
 80096a0:	4699      	mov	r9, r3
 80096a2:	f023 4200 	bic.w	r2, r3, #2147483648	; 0x80000000
 80096a6:	427b      	negs	r3, r7
 80096a8:	f8df 817c 	ldr.w	r8, [pc, #380]	; 8009828 <__ieee754_atan2+0x190>
 80096ac:	433b      	orrs	r3, r7
 80096ae:	ea42 73d3 	orr.w	r3, r2, r3, lsr #31
 80096b2:	4543      	cmp	r3, r8
 80096b4:	4604      	mov	r4, r0
 80096b6:	460d      	mov	r5, r1
 80096b8:	d809      	bhi.n	80096ce <__ieee754_atan2+0x36>
 80096ba:	4246      	negs	r6, r0
 80096bc:	f021 4300 	bic.w	r3, r1, #2147483648	; 0x80000000
 80096c0:	4306      	orrs	r6, r0
 80096c2:	ea43 76d6 	orr.w	r6, r3, r6, lsr #31
 80096c6:	4546      	cmp	r6, r8
 80096c8:	468e      	mov	lr, r1
 80096ca:	4683      	mov	fp, r0
 80096cc:	d908      	bls.n	80096e0 <__ieee754_atan2+0x48>
 80096ce:	4652      	mov	r2, sl
 80096d0:	464b      	mov	r3, r9
 80096d2:	4620      	mov	r0, r4
 80096d4:	4629      	mov	r1, r5
 80096d6:	f7f6 fd49 	bl	800016c <__adddf3>
 80096da:	4604      	mov	r4, r0
 80096dc:	460d      	mov	r5, r1
 80096de:	e019      	b.n	8009714 <__ieee754_atan2+0x7c>
 80096e0:	f109 4640 	add.w	r6, r9, #3221225472	; 0xc0000000
 80096e4:	f506 1680 	add.w	r6, r6, #1048576	; 0x100000
 80096e8:	433e      	orrs	r6, r7
 80096ea:	d103      	bne.n	80096f4 <__ieee754_atan2+0x5c>
 80096ec:	e8bd 4ff8 	ldmia.w	sp!, {r3, r4, r5, r6, r7, r8, r9, sl, fp, lr}
 80096f0:	f7ff bd6a 	b.w	80091c8 <atan>
 80096f4:	ea4f 76a9 	mov.w	r6, r9, asr #30
 80096f8:	f006 0602 	and.w	r6, r6, #2
 80096fc:	ea53 0b0b 	orrs.w	fp, r3, fp
 8009700:	ea46 76d1 	orr.w	r6, r6, r1, lsr #31
 8009704:	d10a      	bne.n	800971c <__ieee754_atan2+0x84>
 8009706:	2e02      	cmp	r6, #2
 8009708:	d067      	beq.n	80097da <__ieee754_atan2+0x142>
 800970a:	2e03      	cmp	r6, #3
 800970c:	d102      	bne.n	8009714 <__ieee754_atan2+0x7c>
 800970e:	a53a      	add	r5, pc, #232	; (adr r5, 80097f8 <__ieee754_atan2+0x160>)
 8009710:	e9d5 4500 	ldrd	r4, r5, [r5]
 8009714:	4620      	mov	r0, r4
 8009716:	4629      	mov	r1, r5
 8009718:	e8bd 8ff8 	ldmia.w	sp!, {r3, r4, r5, r6, r7, r8, r9, sl, fp, pc}
 800971c:	4317      	orrs	r7, r2
 800971e:	d106      	bne.n	800972e <__ieee754_atan2+0x96>
 8009720:	f1be 0f00 	cmp.w	lr, #0
 8009724:	da64      	bge.n	80097f0 <__ieee754_atan2+0x158>
 8009726:	a536      	add	r5, pc, #216	; (adr r5, 8009800 <__ieee754_atan2+0x168>)
 8009728:	e9d5 4500 	ldrd	r4, r5, [r5]
 800972c:	e7f2      	b.n	8009714 <__ieee754_atan2+0x7c>
 800972e:	4542      	cmp	r2, r8
 8009730:	d10f      	bne.n	8009752 <__ieee754_atan2+0xba>
 8009732:	4293      	cmp	r3, r2
 8009734:	f106 36ff 	add.w	r6, r6, #4294967295
 8009738:	d107      	bne.n	800974a <__ieee754_atan2+0xb2>
 800973a:	2e02      	cmp	r6, #2
 800973c:	d851      	bhi.n	80097e2 <__ieee754_atan2+0x14a>
 800973e:	4b3b      	ldr	r3, [pc, #236]	; (800982c <__ieee754_atan2+0x194>)
 8009740:	eb03 03c6 	add.w	r3, r3, r6, lsl #3
 8009744:	e9d3 4500 	ldrd	r4, r5, [r3]
 8009748:	e7e4      	b.n	8009714 <__ieee754_atan2+0x7c>
 800974a:	2e02      	cmp	r6, #2
 800974c:	d84d      	bhi.n	80097ea <__ieee754_atan2+0x152>
 800974e:	4b38      	ldr	r3, [pc, #224]	; (8009830 <__ieee754_atan2+0x198>)
 8009750:	e7f6      	b.n	8009740 <__ieee754_atan2+0xa8>
 8009752:	4543      	cmp	r3, r8
 8009754:	d0e4      	beq.n	8009720 <__ieee754_atan2+0x88>
 8009756:	1a9b      	subs	r3, r3, r2
 8009758:	f1b3 7f74 	cmp.w	r3, #63963136	; 0x3d00000
 800975c:	ea4f 5223 	mov.w	r2, r3, asr #20
 8009760:	da21      	bge.n	80097a6 <__ieee754_atan2+0x10e>
 8009762:	f1b9 0f00 	cmp.w	r9, #0
 8009766:	da01      	bge.n	800976c <__ieee754_atan2+0xd4>
 8009768:	323c      	adds	r2, #60	; 0x3c
 800976a:	db20      	blt.n	80097ae <__ieee754_atan2+0x116>
 800976c:	4652      	mov	r2, sl
 800976e:	464b      	mov	r3, r9
 8009770:	4620      	mov	r0, r4
 8009772:	4629      	mov	r1, r5
 8009774:	f7f6 ffda 	bl	800072c <__aeabi_ddiv>
 8009778:	f7ff feb0 	bl	80094dc <fabs>
 800977c:	f7ff fd24 	bl	80091c8 <atan>
 8009780:	4604      	mov	r4, r0
 8009782:	460d      	mov	r5, r1
 8009784:	2e01      	cmp	r6, #1
 8009786:	d015      	beq.n	80097b4 <__ieee754_atan2+0x11c>
 8009788:	2e02      	cmp	r6, #2
 800978a:	d017      	beq.n	80097bc <__ieee754_atan2+0x124>
 800978c:	2e00      	cmp	r6, #0
 800978e:	d0c1      	beq.n	8009714 <__ieee754_atan2+0x7c>
 8009790:	a31d      	add	r3, pc, #116	; (adr r3, 8009808 <__ieee754_atan2+0x170>)
 8009792:	e9d3 2300 	ldrd	r2, r3, [r3]
 8009796:	4620      	mov	r0, r4
 8009798:	4629      	mov	r1, r5
 800979a:	f7f6 fce5 	bl	8000168 <__aeabi_dsub>
 800979e:	a31c      	add	r3, pc, #112	; (adr r3, 8009810 <__ieee754_atan2+0x178>)
 80097a0:	e9d3 2300 	ldrd	r2, r3, [r3]
 80097a4:	e016      	b.n	80097d4 <__ieee754_atan2+0x13c>
 80097a6:	a51c      	add	r5, pc, #112	; (adr r5, 8009818 <__ieee754_atan2+0x180>)
 80097a8:	e9d5 4500 	ldrd	r4, r5, [r5]
 80097ac:	e7ea      	b.n	8009784 <__ieee754_atan2+0xec>
 80097ae:	2400      	movs	r4, #0
 80097b0:	2500      	movs	r5, #0
 80097b2:	e7e7      	b.n	8009784 <__ieee754_atan2+0xec>
 80097b4:	f105 4300 	add.w	r3, r5, #2147483648	; 0x80000000
 80097b8:	461d      	mov	r5, r3
 80097ba:	e7ab      	b.n	8009714 <__ieee754_atan2+0x7c>
 80097bc:	a312      	add	r3, pc, #72	; (adr r3, 8009808 <__ieee754_atan2+0x170>)
 80097be:	e9d3 2300 	ldrd	r2, r3, [r3]
 80097c2:	4620      	mov	r0, r4
 80097c4:	4629      	mov	r1, r5
 80097c6:	f7f6 fccf 	bl	8000168 <__aeabi_dsub>
 80097ca:	4602      	mov	r2, r0
 80097cc:	460b      	mov	r3, r1
 80097ce:	a110      	add	r1, pc, #64	; (adr r1, 8009810 <__ieee754_atan2+0x178>)
 80097d0:	e9d1 0100 	ldrd	r0, r1, [r1]
 80097d4:	f7f6 fcc8 	bl	8000168 <__aeabi_dsub>
 80097d8:	e77f      	b.n	80096da <__ieee754_atan2+0x42>
 80097da:	a50d      	add	r5, pc, #52	; (adr r5, 8009810 <__ieee754_atan2+0x178>)
 80097dc:	e9d5 4500 	ldrd	r4, r5, [r5]
 80097e0:	e798      	b.n	8009714 <__ieee754_atan2+0x7c>
 80097e2:	a50f      	add	r5, pc, #60	; (adr r5, 8009820 <__ieee754_atan2+0x188>)
 80097e4:	e9d5 4500 	ldrd	r4, r5, [r5]
 80097e8:	e794      	b.n	8009714 <__ieee754_atan2+0x7c>
 80097ea:	2400      	movs	r4, #0
 80097ec:	2500      	movs	r5, #0
 80097ee:	e791      	b.n	8009714 <__ieee754_atan2+0x7c>
 80097f0:	a509      	add	r5, pc, #36	; (adr r5, 8009818 <__ieee754_atan2+0x180>)
 80097f2:	e9d5 4500 	ldrd	r4, r5, [r5]
 80097f6:	e78d      	b.n	8009714 <__ieee754_atan2+0x7c>
 80097f8:	54442d18 	.word	0x54442d18
 80097fc:	c00921fb 	.word	0xc00921fb
 8009800:	54442d18 	.word	0x54442d18
 8009804:	bff921fb 	.word	0xbff921fb
 8009808:	33145c07 	.word	0x33145c07
 800980c:	3ca1a626 	.word	0x3ca1a626
 8009810:	54442d18 	.word	0x54442d18
 8009814:	400921fb 	.word	0x400921fb
 8009818:	54442d18 	.word	0x54442d18
 800981c:	3ff921fb 	.word	0x3ff921fb
 8009820:	54442d18 	.word	0x54442d18
 8009824:	3fe921fb 	.word	0x3fe921fb
 8009828:	7ff00000 	.word	0x7ff00000
 800982c:	08009bd0 	.word	0x08009bd0
 8009830:	08009be8 	.word	0x08009be8

08009834 <_init>:
 8009834:	b5f8      	push	{r3, r4, r5, r6, r7, lr}
 8009836:	bf00      	nop
 8009838:	bcf8      	pop	{r3, r4, r5, r6, r7}
 800983a:	bc08      	pop	{r3}
 800983c:	469e      	mov	lr, r3
 800983e:	4770      	bx	lr

08009840 <_fini>:
 8009840:	b5f8      	push	{r3, r4, r5, r6, r7, lr}
 8009842:	bf00      	nop
 8009844:	bcf8      	pop	{r3, r4, r5, r6, r7}
 8009846:	bc08      	pop	{r3}
 8009848:	469e      	mov	lr, r3
 800984a:	4770      	bx	lr
