
Self_balancing_robot.elf:     file format elf32-littlearm

Sections:
Idx Name          Size      VMA       LMA       File off  Algn
  0 .isr_vector   0000010c  08000000  08000000  00010000  2**0
                  CONTENTS, ALLOC, LOAD, READONLY, DATA
  1 .text         0000975c  08000110  08000110  00010110  2**3
                  CONTENTS, ALLOC, LOAD, READONLY, CODE
  2 .rodata       000003b0  08009870  08009870  00019870  2**3
                  CONTENTS, ALLOC, LOAD, READONLY, DATA
  3 .ARM.extab    00000000  08009c20  08009c20  00020118  2**0
                  CONTENTS
  4 .ARM          00000000  08009c20  08009c20  00020118  2**0
                  CONTENTS
  5 .preinit_array 00000000  08009c20  08009c20  00020118  2**0
                  CONTENTS, ALLOC, LOAD, DATA
  6 .init_array   00000004  08009c20  08009c20  00019c20  2**2
                  CONTENTS, ALLOC, LOAD, DATA
  7 .fini_array   00000004  08009c24  08009c24  00019c24  2**2
                  CONTENTS, ALLOC, LOAD, DATA
  8 .data         00000118  20000000  08009c28  00020000  2**3
                  CONTENTS, ALLOC, LOAD, DATA
  9 .bss          00000624  20000118  08009d40  00020118  2**3
                  ALLOC
 10 ._user_heap_stack 00000604  2000073c  08009d40  0002073c  2**0
                  ALLOC
 11 .ARM.attributes 00000029  00000000  00000000  00020118  2**0
                  CONTENTS, READONLY
 12 .comment      00000043  00000000  00000000  00020141  2**0
                  CONTENTS, READONLY
 13 .debug_info   0001376d  00000000  00000000  00020184  2**0
                  CONTENTS, READONLY, DEBUGGING, OCTETS
 14 .debug_abbrev 000029b5  00000000  00000000  000338f1  2**0
                  CONTENTS, READONLY, DEBUGGING, OCTETS
 15 .debug_aranges 00001388  00000000  00000000  000362a8  2**3
                  CONTENTS, READONLY, DEBUGGING, OCTETS
 16 .debug_rnglists 00000f69  00000000  00000000  00037630  2**0
                  CONTENTS, READONLY, DEBUGGING, OCTETS
 17 .debug_macro  00019533  00000000  00000000  00038599  2**0
                  CONTENTS, READONLY, DEBUGGING, OCTETS
 18 .debug_line   000165f1  00000000  00000000  00051acc  2**0
                  CONTENTS, READONLY, DEBUGGING, OCTETS
 19 .debug_str    0008f550  00000000  00000000  000680bd  2**0
                  CONTENTS, READONLY, DEBUGGING, OCTETS
 20 .debug_frame  00005d8c  00000000  00000000  000f7610  2**2
                  CONTENTS, READONLY, DEBUGGING, OCTETS
 21 .debug_line_str 0000009b  00000000  00000000  000fd39c  2**0
                  CONTENTS, READONLY, DEBUGGING, OCTETS

Disassembly of section .text:

08000110 <__do_global_dtors_aux>:
 8000110:	b510      	push	{r4, lr}
 8000112:	4c05      	ldr	r4, [pc, #20]	; (8000128 <__do_global_dtors_aux+0x18>)
 8000114:	7823      	ldrb	r3, [r4, #0]
 8000116:	b933      	cbnz	r3, 8000126 <__do_global_dtors_aux+0x16>
 8000118:	4b04      	ldr	r3, [pc, #16]	; (800012c <__do_global_dtors_aux+0x1c>)
 800011a:	b113      	cbz	r3, 8000122 <__do_global_dtors_aux+0x12>
 800011c:	4804      	ldr	r0, [pc, #16]	; (8000130 <__do_global_dtors_aux+0x20>)
 800011e:	f3af 8000 	nop.w
 8000122:	2301      	movs	r3, #1
 8000124:	7023      	strb	r3, [r4, #0]
 8000126:	bd10      	pop	{r4, pc}
 8000128:	20000118 	.word	0x20000118
 800012c:	00000000 	.word	0x00000000
 8000130:	08009854 	.word	0x08009854

08000134 <frame_dummy>:
 8000134:	b508      	push	{r3, lr}
 8000136:	4b03      	ldr	r3, [pc, #12]	; (8000144 <frame_dummy+0x10>)
 8000138:	b11b      	cbz	r3, 8000142 <frame_dummy+0xe>
 800013a:	4903      	ldr	r1, [pc, #12]	; (8000148 <frame_dummy+0x14>)
 800013c:	4803      	ldr	r0, [pc, #12]	; (800014c <frame_dummy+0x18>)
 800013e:	f3af 8000 	nop.w
 8000142:	bd08      	pop	{r3, pc}
 8000144:	00000000 	.word	0x00000000
 8000148:	2000011c 	.word	0x2000011c
 800014c:	08009854 	.word	0x08009854

08000150 <strlen>:
 8000150:	4603      	mov	r3, r0
 8000152:	f813 2b01 	ldrb.w	r2, [r3], #1
 8000156:	2a00      	cmp	r2, #0
 8000158:	d1fb      	bne.n	8000152 <strlen+0x2>
 800015a:	1a18      	subs	r0, r3, r0
 800015c:	3801      	subs	r0, #1
 800015e:	4770      	bx	lr

08000160 <__aeabi_drsub>:
 8000160:	f081 4100 	eor.w	r1, r1, #2147483648	; 0x80000000
 8000164:	e002      	b.n	800016c <__adddf3>
 8000166:	bf00      	nop

08000168 <__aeabi_dsub>:
 8000168:	f083 4300 	eor.w	r3, r3, #2147483648	; 0x80000000

0800016c <__adddf3>:
 800016c:	b530      	push	{r4, r5, lr}
 800016e:	ea4f 0441 	mov.w	r4, r1, lsl #1
 8000172:	ea4f 0543 	mov.w	r5, r3, lsl #1
 8000176:	ea94 0f05 	teq	r4, r5
 800017a:	bf08      	it	eq
 800017c:	ea90 0f02 	teqeq	r0, r2
 8000180:	bf1f      	itttt	ne
 8000182:	ea54 0c00 	orrsne.w	ip, r4, r0
 8000186:	ea55 0c02 	orrsne.w	ip, r5, r2
 800018a:	ea7f 5c64 	mvnsne.w	ip, r4, asr #21
 800018e:	ea7f 5c65 	mvnsne.w	ip, r5, asr #21
 8000192:	f000 80e2 	beq.w	800035a <__adddf3+0x1ee>
 8000196:	ea4f 5454 	mov.w	r4, r4, lsr #21
 800019a:	ebd4 5555 	rsbs	r5, r4, r5, lsr #21
 800019e:	bfb8      	it	lt
 80001a0:	426d      	neglt	r5, r5
 80001a2:	dd0c      	ble.n	80001be <__adddf3+0x52>
 80001a4:	442c      	add	r4, r5
 80001a6:	ea80 0202 	eor.w	r2, r0, r2
 80001aa:	ea81 0303 	eor.w	r3, r1, r3
 80001ae:	ea82 0000 	eor.w	r0, r2, r0
 80001b2:	ea83 0101 	eor.w	r1, r3, r1
 80001b6:	ea80 0202 	eor.w	r2, r0, r2
 80001ba:	ea81 0303 	eor.w	r3, r1, r3
 80001be:	2d36      	cmp	r5, #54	; 0x36
 80001c0:	bf88      	it	hi
 80001c2:	bd30      	pophi	{r4, r5, pc}
 80001c4:	f011 4f00 	tst.w	r1, #2147483648	; 0x80000000
 80001c8:	ea4f 3101 	mov.w	r1, r1, lsl #12
 80001cc:	f44f 1c80 	mov.w	ip, #1048576	; 0x100000
 80001d0:	ea4c 3111 	orr.w	r1, ip, r1, lsr #12
 80001d4:	d002      	beq.n	80001dc <__adddf3+0x70>
 80001d6:	4240      	negs	r0, r0
 80001d8:	eb61 0141 	sbc.w	r1, r1, r1, lsl #1
 80001dc:	f013 4f00 	tst.w	r3, #2147483648	; 0x80000000
 80001e0:	ea4f 3303 	mov.w	r3, r3, lsl #12
 80001e4:	ea4c 3313 	orr.w	r3, ip, r3, lsr #12
 80001e8:	d002      	beq.n	80001f0 <__adddf3+0x84>
 80001ea:	4252      	negs	r2, r2
 80001ec:	eb63 0343 	sbc.w	r3, r3, r3, lsl #1
 80001f0:	ea94 0f05 	teq	r4, r5
 80001f4:	f000 80a7 	beq.w	8000346 <__adddf3+0x1da>
 80001f8:	f1a4 0401 	sub.w	r4, r4, #1
 80001fc:	f1d5 0e20 	rsbs	lr, r5, #32
 8000200:	db0d      	blt.n	800021e <__adddf3+0xb2>
 8000202:	fa02 fc0e 	lsl.w	ip, r2, lr
 8000206:	fa22 f205 	lsr.w	r2, r2, r5
 800020a:	1880      	adds	r0, r0, r2
 800020c:	f141 0100 	adc.w	r1, r1, #0
 8000210:	fa03 f20e 	lsl.w	r2, r3, lr
 8000214:	1880      	adds	r0, r0, r2
 8000216:	fa43 f305 	asr.w	r3, r3, r5
 800021a:	4159      	adcs	r1, r3
 800021c:	e00e      	b.n	800023c <__adddf3+0xd0>
 800021e:	f1a5 0520 	sub.w	r5, r5, #32
 8000222:	f10e 0e20 	add.w	lr, lr, #32
 8000226:	2a01      	cmp	r2, #1
 8000228:	fa03 fc0e 	lsl.w	ip, r3, lr
 800022c:	bf28      	it	cs
 800022e:	f04c 0c02 	orrcs.w	ip, ip, #2
 8000232:	fa43 f305 	asr.w	r3, r3, r5
 8000236:	18c0      	adds	r0, r0, r3
 8000238:	eb51 71e3 	adcs.w	r1, r1, r3, asr #31
 800023c:	f001 4500 	and.w	r5, r1, #2147483648	; 0x80000000
 8000240:	d507      	bpl.n	8000252 <__adddf3+0xe6>
 8000242:	f04f 0e00 	mov.w	lr, #0
 8000246:	f1dc 0c00 	rsbs	ip, ip, #0
 800024a:	eb7e 0000 	sbcs.w	r0, lr, r0
 800024e:	eb6e 0101 	sbc.w	r1, lr, r1
 8000252:	f5b1 1f80 	cmp.w	r1, #1048576	; 0x100000
 8000256:	d31b      	bcc.n	8000290 <__adddf3+0x124>
 8000258:	f5b1 1f00 	cmp.w	r1, #2097152	; 0x200000
 800025c:	d30c      	bcc.n	8000278 <__adddf3+0x10c>
 800025e:	0849      	lsrs	r1, r1, #1
 8000260:	ea5f 0030 	movs.w	r0, r0, rrx
 8000264:	ea4f 0c3c 	mov.w	ip, ip, rrx
 8000268:	f104 0401 	add.w	r4, r4, #1
 800026c:	ea4f 5244 	mov.w	r2, r4, lsl #21
 8000270:	f512 0f80 	cmn.w	r2, #4194304	; 0x400000
 8000274:	f080 809a 	bcs.w	80003ac <__adddf3+0x240>
 8000278:	f1bc 4f00 	cmp.w	ip, #2147483648	; 0x80000000
 800027c:	bf08      	it	eq
 800027e:	ea5f 0c50 	movseq.w	ip, r0, lsr #1
 8000282:	f150 0000 	adcs.w	r0, r0, #0
 8000286:	eb41 5104 	adc.w	r1, r1, r4, lsl #20
 800028a:	ea41 0105 	orr.w	r1, r1, r5
 800028e:	bd30      	pop	{r4, r5, pc}
 8000290:	ea5f 0c4c 	movs.w	ip, ip, lsl #1
 8000294:	4140      	adcs	r0, r0
 8000296:	eb41 0101 	adc.w	r1, r1, r1
 800029a:	3c01      	subs	r4, #1
 800029c:	bf28      	it	cs
 800029e:	f5b1 1f80 	cmpcs.w	r1, #1048576	; 0x100000
 80002a2:	d2e9      	bcs.n	8000278 <__adddf3+0x10c>
 80002a4:	f091 0f00 	teq	r1, #0
 80002a8:	bf04      	itt	eq
 80002aa:	4601      	moveq	r1, r0
 80002ac:	2000      	moveq	r0, #0
 80002ae:	fab1 f381 	clz	r3, r1
 80002b2:	bf08      	it	eq
 80002b4:	3320      	addeq	r3, #32
 80002b6:	f1a3 030b 	sub.w	r3, r3, #11
 80002ba:	f1b3 0220 	subs.w	r2, r3, #32
 80002be:	da0c      	bge.n	80002da <__adddf3+0x16e>
 80002c0:	320c      	adds	r2, #12
 80002c2:	dd08      	ble.n	80002d6 <__adddf3+0x16a>
 80002c4:	f102 0c14 	add.w	ip, r2, #20
 80002c8:	f1c2 020c 	rsb	r2, r2, #12
 80002cc:	fa01 f00c 	lsl.w	r0, r1, ip
 80002d0:	fa21 f102 	lsr.w	r1, r1, r2
 80002d4:	e00c      	b.n	80002f0 <__adddf3+0x184>
 80002d6:	f102 0214 	add.w	r2, r2, #20
 80002da:	bfd8      	it	le
 80002dc:	f1c2 0c20 	rsble	ip, r2, #32
 80002e0:	fa01 f102 	lsl.w	r1, r1, r2
 80002e4:	fa20 fc0c 	lsr.w	ip, r0, ip
 80002e8:	bfdc      	itt	le
 80002ea:	ea41 010c 	orrle.w	r1, r1, ip
 80002ee:	4090      	lslle	r0, r2
 80002f0:	1ae4      	subs	r4, r4, r3
 80002f2:	bfa2      	ittt	ge
 80002f4:	eb01 5104 	addge.w	r1, r1, r4, lsl #20
 80002f8:	4329      	orrge	r1, r5
 80002fa:	bd30      	popge	{r4, r5, pc}
 80002fc:	ea6f 0404 	mvn.w	r4, r4
 8000300:	3c1f      	subs	r4, #31
 8000302:	da1c      	bge.n	800033e <__adddf3+0x1d2>
 8000304:	340c      	adds	r4, #12
 8000306:	dc0e      	bgt.n	8000326 <__adddf3+0x1ba>
 8000308:	f104 0414 	add.w	r4, r4, #20
 800030c:	f1c4 0220 	rsb	r2, r4, #32
 8000310:	fa20 f004 	lsr.w	r0, r0, r4
 8000314:	fa01 f302 	lsl.w	r3, r1, r2
 8000318:	ea40 0003 	orr.w	r0, r0, r3
 800031c:	fa21 f304 	lsr.w	r3, r1, r4
 8000320:	ea45 0103 	orr.w	r1, r5, r3
 8000324:	bd30      	pop	{r4, r5, pc}
 8000326:	f1c4 040c 	rsb	r4, r4, #12
 800032a:	f1c4 0220 	rsb	r2, r4, #32
 800032e:	fa20 f002 	lsr.w	r0, r0, r2
 8000332:	fa01 f304 	lsl.w	r3, r1, r4
 8000336:	ea40 0003 	orr.w	r0, r0, r3
 800033a:	4629      	mov	r1, r5
 800033c:	bd30      	pop	{r4, r5, pc}
 800033e:	fa21 f004 	lsr.w	r0, r1, r4
 8000342:	4629      	mov	r1, r5
 8000344:	bd30      	pop	{r4, r5, pc}
 8000346:	f094 0f00 	teq	r4, #0
 800034a:	f483 1380 	eor.w	r3, r3, #1048576	; 0x100000
 800034e:	bf06      	itte	eq
 8000350:	f481 1180 	eoreq.w	r1, r1, #1048576	; 0x100000
 8000354:	3401      	addeq	r4, #1
 8000356:	3d01      	subne	r5, #1
 8000358:	e74e      	b.n	80001f8 <__adddf3+0x8c>
 800035a:	ea7f 5c64 	mvns.w	ip, r4, asr #21
 800035e:	bf18      	it	ne
 8000360:	ea7f 5c65 	mvnsne.w	ip, r5, asr #21
 8000364:	d029      	beq.n	80003ba <__adddf3+0x24e>
 8000366:	ea94 0f05 	teq	r4, r5
 800036a:	bf08      	it	eq
 800036c:	ea90 0f02 	teqeq	r0, r2
 8000370:	d005      	beq.n	800037e <__adddf3+0x212>
 8000372:	ea54 0c00 	orrs.w	ip, r4, r0
 8000376:	bf04      	itt	eq
 8000378:	4619      	moveq	r1, r3
 800037a:	4610      	moveq	r0, r2
 800037c:	bd30      	pop	{r4, r5, pc}
 800037e:	ea91 0f03 	teq	r1, r3
 8000382:	bf1e      	ittt	ne
 8000384:	2100      	movne	r1, #0
 8000386:	2000      	movne	r0, #0
 8000388:	bd30      	popne	{r4, r5, pc}
 800038a:	ea5f 5c54 	movs.w	ip, r4, lsr #21
 800038e:	d105      	bne.n	800039c <__adddf3+0x230>
 8000390:	0040      	lsls	r0, r0, #1
 8000392:	4149      	adcs	r1, r1
 8000394:	bf28      	it	cs
 8000396:	f041 4100 	orrcs.w	r1, r1, #2147483648	; 0x80000000
 800039a:	bd30      	pop	{r4, r5, pc}
 800039c:	f514 0480 	adds.w	r4, r4, #4194304	; 0x400000
 80003a0:	bf3c      	itt	cc
 80003a2:	f501 1180 	addcc.w	r1, r1, #1048576	; 0x100000
 80003a6:	bd30      	popcc	{r4, r5, pc}
 80003a8:	f001 4500 	and.w	r5, r1, #2147483648	; 0x80000000
 80003ac:	f045 41fe 	orr.w	r1, r5, #2130706432	; 0x7f000000
 80003b0:	f441 0170 	orr.w	r1, r1, #15728640	; 0xf00000
 80003b4:	f04f 0000 	mov.w	r0, #0
 80003b8:	bd30      	pop	{r4, r5, pc}
 80003ba:	ea7f 5c64 	mvns.w	ip, r4, asr #21
 80003be:	bf1a      	itte	ne
 80003c0:	4619      	movne	r1, r3
 80003c2:	4610      	movne	r0, r2
 80003c4:	ea7f 5c65 	mvnseq.w	ip, r5, asr #21
 80003c8:	bf1c      	itt	ne
 80003ca:	460b      	movne	r3, r1
 80003cc:	4602      	movne	r2, r0
 80003ce:	ea50 3401 	orrs.w	r4, r0, r1, lsl #12
 80003d2:	bf06      	itte	eq
 80003d4:	ea52 3503 	orrseq.w	r5, r2, r3, lsl #12
 80003d8:	ea91 0f03 	teqeq	r1, r3
 80003dc:	f441 2100 	orrne.w	r1, r1, #524288	; 0x80000
 80003e0:	bd30      	pop	{r4, r5, pc}
 80003e2:	bf00      	nop

080003e4 <__aeabi_ui2d>:
 80003e4:	f090 0f00 	teq	r0, #0
 80003e8:	bf04      	itt	eq
 80003ea:	2100      	moveq	r1, #0
 80003ec:	4770      	bxeq	lr
 80003ee:	b530      	push	{r4, r5, lr}
 80003f0:	f44f 6480 	mov.w	r4, #1024	; 0x400
 80003f4:	f104 0432 	add.w	r4, r4, #50	; 0x32
 80003f8:	f04f 0500 	mov.w	r5, #0
 80003fc:	f04f 0100 	mov.w	r1, #0
 8000400:	e750      	b.n	80002a4 <__adddf3+0x138>
 8000402:	bf00      	nop

08000404 <__aeabi_i2d>:
 8000404:	f090 0f00 	teq	r0, #0
 8000408:	bf04      	itt	eq
 800040a:	2100      	moveq	r1, #0
 800040c:	4770      	bxeq	lr
 800040e:	b530      	push	{r4, r5, lr}
 8000410:	f44f 6480 	mov.w	r4, #1024	; 0x400
 8000414:	f104 0432 	add.w	r4, r4, #50	; 0x32
 8000418:	f010 4500 	ands.w	r5, r0, #2147483648	; 0x80000000
 800041c:	bf48      	it	mi
 800041e:	4240      	negmi	r0, r0
 8000420:	f04f 0100 	mov.w	r1, #0
 8000424:	e73e      	b.n	80002a4 <__adddf3+0x138>
 8000426:	bf00      	nop

08000428 <__aeabi_f2d>:
 8000428:	0042      	lsls	r2, r0, #1
 800042a:	ea4f 01e2 	mov.w	r1, r2, asr #3
 800042e:	ea4f 0131 	mov.w	r1, r1, rrx
 8000432:	ea4f 7002 	mov.w	r0, r2, lsl #28
 8000436:	bf1f      	itttt	ne
 8000438:	f012 437f 	andsne.w	r3, r2, #4278190080	; 0xff000000
 800043c:	f093 4f7f 	teqne	r3, #4278190080	; 0xff000000
 8000440:	f081 5160 	eorne.w	r1, r1, #939524096	; 0x38000000
 8000444:	4770      	bxne	lr
 8000446:	f032 427f 	bics.w	r2, r2, #4278190080	; 0xff000000
 800044a:	bf08      	it	eq
 800044c:	4770      	bxeq	lr
 800044e:	f093 4f7f 	teq	r3, #4278190080	; 0xff000000
 8000452:	bf04      	itt	eq
 8000454:	f441 2100 	orreq.w	r1, r1, #524288	; 0x80000
 8000458:	4770      	bxeq	lr
 800045a:	b530      	push	{r4, r5, lr}
 800045c:	f44f 7460 	mov.w	r4, #896	; 0x380
 8000460:	f001 4500 	and.w	r5, r1, #2147483648	; 0x80000000
 8000464:	f021 4100 	bic.w	r1, r1, #2147483648	; 0x80000000
 8000468:	e71c      	b.n	80002a4 <__adddf3+0x138>
 800046a:	bf00      	nop

0800046c <__aeabi_ul2d>:
 800046c:	ea50 0201 	orrs.w	r2, r0, r1
 8000470:	bf08      	it	eq
 8000472:	4770      	bxeq	lr
 8000474:	b530      	push	{r4, r5, lr}
 8000476:	f04f 0500 	mov.w	r5, #0
 800047a:	e00a      	b.n	8000492 <__aeabi_l2d+0x16>

0800047c <__aeabi_l2d>:
 800047c:	ea50 0201 	orrs.w	r2, r0, r1
 8000480:	bf08      	it	eq
 8000482:	4770      	bxeq	lr
 8000484:	b530      	push	{r4, r5, lr}
 8000486:	f011 4500 	ands.w	r5, r1, #2147483648	; 0x80000000
 800048a:	d502      	bpl.n	8000492 <__aeabi_l2d+0x16>
 800048c:	4240      	negs	r0, r0
 800048e:	eb61 0141 	sbc.w	r1, r1, r1, lsl #1
 8000492:	f44f 6480 	mov.w	r4, #1024	; 0x400
 8000496:	f104 0432 	add.w	r4, r4, #50	; 0x32
 800049a:	ea5f 5c91 	movs.w	ip, r1, lsr #22
 800049e:	f43f aed8 	beq.w	8000252 <__adddf3+0xe6>
 80004a2:	f04f 0203 	mov.w	r2, #3
 80004a6:	ea5f 0cdc 	movs.w	ip, ip, lsr #3
 80004aa:	bf18      	it	ne
 80004ac:	3203      	addne	r2, #3
 80004ae:	ea5f 0cdc 	movs.w	ip, ip, lsr #3
 80004b2:	bf18      	it	ne
 80004b4:	3203      	addne	r2, #3
 80004b6:	eb02 02dc 	add.w	r2, r2, ip, lsr #3
 80004ba:	f1c2 0320 	rsb	r3, r2, #32
 80004be:	fa00 fc03 	lsl.w	ip, r0, r3
 80004c2:	fa20 f002 	lsr.w	r0, r0, r2
 80004c6:	fa01 fe03 	lsl.w	lr, r1, r3
 80004ca:	ea40 000e 	orr.w	r0, r0, lr
 80004ce:	fa21 f102 	lsr.w	r1, r1, r2
 80004d2:	4414      	add	r4, r2
 80004d4:	e6bd      	b.n	8000252 <__adddf3+0xe6>
 80004d6:	bf00      	nop

080004d8 <__aeabi_dmul>:
 80004d8:	b570      	push	{r4, r5, r6, lr}
 80004da:	f04f 0cff 	mov.w	ip, #255	; 0xff
 80004de:	f44c 6ce0 	orr.w	ip, ip, #1792	; 0x700
 80004e2:	ea1c 5411 	ands.w	r4, ip, r1, lsr #20
 80004e6:	bf1d      	ittte	ne
 80004e8:	ea1c 5513 	andsne.w	r5, ip, r3, lsr #20
 80004ec:	ea94 0f0c 	teqne	r4, ip
 80004f0:	ea95 0f0c 	teqne	r5, ip
 80004f4:	f000 f8de 	bleq	80006b4 <__aeabi_dmul+0x1dc>
 80004f8:	442c      	add	r4, r5
 80004fa:	ea81 0603 	eor.w	r6, r1, r3
 80004fe:	ea21 514c 	bic.w	r1, r1, ip, lsl #21
 8000502:	ea23 534c 	bic.w	r3, r3, ip, lsl #21
 8000506:	ea50 3501 	orrs.w	r5, r0, r1, lsl #12
 800050a:	bf18      	it	ne
 800050c:	ea52 3503 	orrsne.w	r5, r2, r3, lsl #12
 8000510:	f441 1180 	orr.w	r1, r1, #1048576	; 0x100000
 8000514:	f443 1380 	orr.w	r3, r3, #1048576	; 0x100000
 8000518:	d038      	beq.n	800058c <__aeabi_dmul+0xb4>
 800051a:	fba0 ce02 	umull	ip, lr, r0, r2
 800051e:	f04f 0500 	mov.w	r5, #0
 8000522:	fbe1 e502 	umlal	lr, r5, r1, r2
 8000526:	f006 4200 	and.w	r2, r6, #2147483648	; 0x80000000
 800052a:	fbe0 e503 	umlal	lr, r5, r0, r3
 800052e:	f04f 0600 	mov.w	r6, #0
 8000532:	fbe1 5603 	umlal	r5, r6, r1, r3
 8000536:	f09c 0f00 	teq	ip, #0
 800053a:	bf18      	it	ne
 800053c:	f04e 0e01 	orrne.w	lr, lr, #1
 8000540:	f1a4 04ff 	sub.w	r4, r4, #255	; 0xff
 8000544:	f5b6 7f00 	cmp.w	r6, #512	; 0x200
 8000548:	f564 7440 	sbc.w	r4, r4, #768	; 0x300
 800054c:	d204      	bcs.n	8000558 <__aeabi_dmul+0x80>
 800054e:	ea5f 0e4e 	movs.w	lr, lr, lsl #1
 8000552:	416d      	adcs	r5, r5
 8000554:	eb46 0606 	adc.w	r6, r6, r6
 8000558:	ea42 21c6 	orr.w	r1, r2, r6, lsl #11
 800055c:	ea41 5155 	orr.w	r1, r1, r5, lsr #21
 8000560:	ea4f 20c5 	mov.w	r0, r5, lsl #11
 8000564:	ea40 505e 	orr.w	r0, r0, lr, lsr #21
 8000568:	ea4f 2ece 	mov.w	lr, lr, lsl #11
 800056c:	f1b4 0cfd 	subs.w	ip, r4, #253	; 0xfd
 8000570:	bf88      	it	hi
 8000572:	f5bc 6fe0 	cmphi.w	ip, #1792	; 0x700
 8000576:	d81e      	bhi.n	80005b6 <__aeabi_dmul+0xde>
 8000578:	f1be 4f00 	cmp.w	lr, #2147483648	; 0x80000000
 800057c:	bf08      	it	eq
 800057e:	ea5f 0e50 	movseq.w	lr, r0, lsr #1
 8000582:	f150 0000 	adcs.w	r0, r0, #0
 8000586:	eb41 5104 	adc.w	r1, r1, r4, lsl #20
 800058a:	bd70      	pop	{r4, r5, r6, pc}
 800058c:	f006 4600 	and.w	r6, r6, #2147483648	; 0x80000000
 8000590:	ea46 0101 	orr.w	r1, r6, r1
 8000594:	ea40 0002 	orr.w	r0, r0, r2
 8000598:	ea81 0103 	eor.w	r1, r1, r3
 800059c:	ebb4 045c 	subs.w	r4, r4, ip, lsr #1
 80005a0:	bfc2      	ittt	gt
 80005a2:	ebd4 050c 	rsbsgt	r5, r4, ip
 80005a6:	ea41 5104 	orrgt.w	r1, r1, r4, lsl #20
 80005aa:	bd70      	popgt	{r4, r5, r6, pc}
 80005ac:	f441 1180 	orr.w	r1, r1, #1048576	; 0x100000
 80005b0:	f04f 0e00 	mov.w	lr, #0
 80005b4:	3c01      	subs	r4, #1
 80005b6:	f300 80ab 	bgt.w	8000710 <__aeabi_dmul+0x238>
 80005ba:	f114 0f36 	cmn.w	r4, #54	; 0x36
 80005be:	bfde      	ittt	le
 80005c0:	2000      	movle	r0, #0
 80005c2:	f001 4100 	andle.w	r1, r1, #2147483648	; 0x80000000
 80005c6:	bd70      	pople	{r4, r5, r6, pc}
 80005c8:	f1c4 0400 	rsb	r4, r4, #0
 80005cc:	3c20      	subs	r4, #32
 80005ce:	da35      	bge.n	800063c <__aeabi_dmul+0x164>
 80005d0:	340c      	adds	r4, #12
 80005d2:	dc1b      	bgt.n	800060c <__aeabi_dmul+0x134>
 80005d4:	f104 0414 	add.w	r4, r4, #20
 80005d8:	f1c4 0520 	rsb	r5, r4, #32
 80005dc:	fa00 f305 	lsl.w	r3, r0, r5
 80005e0:	fa20 f004 	lsr.w	r0, r0, r4
 80005e4:	fa01 f205 	lsl.w	r2, r1, r5
 80005e8:	ea40 0002 	orr.w	r0, r0, r2
 80005ec:	f001 4200 	and.w	r2, r1, #2147483648	; 0x80000000
 80005f0:	f021 4100 	bic.w	r1, r1, #2147483648	; 0x80000000
 80005f4:	eb10 70d3 	adds.w	r0, r0, r3, lsr #31
 80005f8:	fa21 f604 	lsr.w	r6, r1, r4
 80005fc:	eb42 0106 	adc.w	r1, r2, r6
 8000600:	ea5e 0e43 	orrs.w	lr, lr, r3, lsl #1
 8000604:	bf08      	it	eq
 8000606:	ea20 70d3 	biceq.w	r0, r0, r3, lsr #31
 800060a:	bd70      	pop	{r4, r5, r6, pc}
 800060c:	f1c4 040c 	rsb	r4, r4, #12
 8000610:	f1c4 0520 	rsb	r5, r4, #32
 8000614:	fa00 f304 	lsl.w	r3, r0, r4
 8000618:	fa20 f005 	lsr.w	r0, r0, r5
 800061c:	fa01 f204 	lsl.w	r2, r1, r4
 8000620:	ea40 0002 	orr.w	r0, r0, r2
 8000624:	f001 4100 	and.w	r1, r1, #2147483648	; 0x80000000
 8000628:	eb10 70d3 	adds.w	r0, r0, r3, lsr #31
 800062c:	f141 0100 	adc.w	r1, r1, #0
 8000630:	ea5e 0e43 	orrs.w	lr, lr, r3, lsl #1
 8000634:	bf08      	it	eq
 8000636:	ea20 70d3 	biceq.w	r0, r0, r3, lsr #31
 800063a:	bd70      	pop	{r4, r5, r6, pc}
 800063c:	f1c4 0520 	rsb	r5, r4, #32
 8000640:	fa00 f205 	lsl.w	r2, r0, r5
 8000644:	ea4e 0e02 	orr.w	lr, lr, r2
 8000648:	fa20 f304 	lsr.w	r3, r0, r4
 800064c:	fa01 f205 	lsl.w	r2, r1, r5
 8000650:	ea43 0302 	orr.w	r3, r3, r2
 8000654:	fa21 f004 	lsr.w	r0, r1, r4
 8000658:	f001 4100 	and.w	r1, r1, #2147483648	; 0x80000000
 800065c:	fa21 f204 	lsr.w	r2, r1, r4
 8000660:	ea20 0002 	bic.w	r0, r0, r2
 8000664:	eb00 70d3 	add.w	r0, r0, r3, lsr #31
 8000668:	ea5e 0e43 	orrs.w	lr, lr, r3, lsl #1
 800066c:	bf08      	it	eq
 800066e:	ea20 70d3 	biceq.w	r0, r0, r3, lsr #31
 8000672:	bd70      	pop	{r4, r5, r6, pc}
 8000674:	f094 0f00 	teq	r4, #0
 8000678:	d10f      	bne.n	800069a <__aeabi_dmul+0x1c2>
 800067a:	f001 4600 	and.w	r6, r1, #2147483648	; 0x80000000
 800067e:	0040      	lsls	r0, r0, #1
 8000680:	eb41 0101 	adc.w	r1, r1, r1
 8000684:	f411 1f80 	tst.w	r1, #1048576	; 0x100000
 8000688:	bf08      	it	eq
 800068a:	3c01      	subeq	r4, #1
 800068c:	d0f7      	beq.n	800067e <__aeabi_dmul+0x1a6>
 800068e:	ea41 0106 	orr.w	r1, r1, r6
 8000692:	f095 0f00 	teq	r5, #0
 8000696:	bf18      	it	ne
 8000698:	4770      	bxne	lr
 800069a:	f003 4600 	and.w	r6, r3, #2147483648	; 0x80000000
 800069e:	0052      	lsls	r2, r2, #1
 80006a0:	eb43 0303 	adc.w	r3, r3, r3
 80006a4:	f413 1f80 	tst.w	r3, #1048576	; 0x100000
 80006a8:	bf08      	it	eq
 80006aa:	3d01      	subeq	r5, #1
 80006ac:	d0f7      	beq.n	800069e <__aeabi_dmul+0x1c6>
 80006ae:	ea43 0306 	orr.w	r3, r3, r6
 80006b2:	4770      	bx	lr
 80006b4:	ea94 0f0c 	teq	r4, ip
 80006b8:	ea0c 5513 	and.w	r5, ip, r3, lsr #20
 80006bc:	bf18      	it	ne
 80006be:	ea95 0f0c 	teqne	r5, ip
 80006c2:	d00c      	beq.n	80006de <__aeabi_dmul+0x206>
 80006c4:	ea50 0641 	orrs.w	r6, r0, r1, lsl #1
 80006c8:	bf18      	it	ne
 80006ca:	ea52 0643 	orrsne.w	r6, r2, r3, lsl #1
 80006ce:	d1d1      	bne.n	8000674 <__aeabi_dmul+0x19c>
 80006d0:	ea81 0103 	eor.w	r1, r1, r3
 80006d4:	f001 4100 	and.w	r1, r1, #2147483648	; 0x80000000
 80006d8:	f04f 0000 	mov.w	r0, #0
 80006dc:	bd70      	pop	{r4, r5, r6, pc}
 80006de:	ea50 0641 	orrs.w	r6, r0, r1, lsl #1
 80006e2:	bf06      	itte	eq
 80006e4:	4610      	moveq	r0, r2
 80006e6:	4619      	moveq	r1, r3
 80006e8:	ea52 0643 	orrsne.w	r6, r2, r3, lsl #1
 80006ec:	d019      	beq.n	8000722 <__aeabi_dmul+0x24a>
 80006ee:	ea94 0f0c 	teq	r4, ip
 80006f2:	d102      	bne.n	80006fa <__aeabi_dmul+0x222>
 80006f4:	ea50 3601 	orrs.w	r6, r0, r1, lsl #12
 80006f8:	d113      	bne.n	8000722 <__aeabi_dmul+0x24a>
 80006fa:	ea95 0f0c 	teq	r5, ip
 80006fe:	d105      	bne.n	800070c <__aeabi_dmul+0x234>
 8000700:	ea52 3603 	orrs.w	r6, r2, r3, lsl #12
 8000704:	bf1c      	itt	ne
 8000706:	4610      	movne	r0, r2
 8000708:	4619      	movne	r1, r3
 800070a:	d10a      	bne.n	8000722 <__aeabi_dmul+0x24a>
 800070c:	ea81 0103 	eor.w	r1, r1, r3
 8000710:	f001 4100 	and.w	r1, r1, #2147483648	; 0x80000000
 8000714:	f041 41fe 	orr.w	r1, r1, #2130706432	; 0x7f000000
 8000718:	f441 0170 	orr.w	r1, r1, #15728640	; 0xf00000
 800071c:	f04f 0000 	mov.w	r0, #0
 8000720:	bd70      	pop	{r4, r5, r6, pc}
 8000722:	f041 41fe 	orr.w	r1, r1, #2130706432	; 0x7f000000
 8000726:	f441 0178 	orr.w	r1, r1, #16252928	; 0xf80000
 800072a:	bd70      	pop	{r4, r5, r6, pc}

0800072c <__aeabi_ddiv>:
 800072c:	b570      	push	{r4, r5, r6, lr}
 800072e:	f04f 0cff 	mov.w	ip, #255	; 0xff
 8000732:	f44c 6ce0 	orr.w	ip, ip, #1792	; 0x700
 8000736:	ea1c 5411 	ands.w	r4, ip, r1, lsr #20
 800073a:	bf1d      	ittte	ne
 800073c:	ea1c 5513 	andsne.w	r5, ip, r3, lsr #20
 8000740:	ea94 0f0c 	teqne	r4, ip
 8000744:	ea95 0f0c 	teqne	r5, ip
 8000748:	f000 f8a7 	bleq	800089a <__aeabi_ddiv+0x16e>
 800074c:	eba4 0405 	sub.w	r4, r4, r5
 8000750:	ea81 0e03 	eor.w	lr, r1, r3
 8000754:	ea52 3503 	orrs.w	r5, r2, r3, lsl #12
 8000758:	ea4f 3101 	mov.w	r1, r1, lsl #12
 800075c:	f000 8088 	beq.w	8000870 <__aeabi_ddiv+0x144>
 8000760:	ea4f 3303 	mov.w	r3, r3, lsl #12
 8000764:	f04f 5580 	mov.w	r5, #268435456	; 0x10000000
 8000768:	ea45 1313 	orr.w	r3, r5, r3, lsr #4
 800076c:	ea43 6312 	orr.w	r3, r3, r2, lsr #24
 8000770:	ea4f 2202 	mov.w	r2, r2, lsl #8
 8000774:	ea45 1511 	orr.w	r5, r5, r1, lsr #4
 8000778:	ea45 6510 	orr.w	r5, r5, r0, lsr #24
 800077c:	ea4f 2600 	mov.w	r6, r0, lsl #8
 8000780:	f00e 4100 	and.w	r1, lr, #2147483648	; 0x80000000
 8000784:	429d      	cmp	r5, r3
 8000786:	bf08      	it	eq
 8000788:	4296      	cmpeq	r6, r2
 800078a:	f144 04fd 	adc.w	r4, r4, #253	; 0xfd
 800078e:	f504 7440 	add.w	r4, r4, #768	; 0x300
 8000792:	d202      	bcs.n	800079a <__aeabi_ddiv+0x6e>
 8000794:	085b      	lsrs	r3, r3, #1
 8000796:	ea4f 0232 	mov.w	r2, r2, rrx
 800079a:	1ab6      	subs	r6, r6, r2
 800079c:	eb65 0503 	sbc.w	r5, r5, r3
 80007a0:	085b      	lsrs	r3, r3, #1
 80007a2:	ea4f 0232 	mov.w	r2, r2, rrx
 80007a6:	f44f 1080 	mov.w	r0, #1048576	; 0x100000
 80007aa:	f44f 2c00 	mov.w	ip, #524288	; 0x80000
 80007ae:	ebb6 0e02 	subs.w	lr, r6, r2
 80007b2:	eb75 0e03 	sbcs.w	lr, r5, r3
 80007b6:	bf22      	ittt	cs
 80007b8:	1ab6      	subcs	r6, r6, r2
 80007ba:	4675      	movcs	r5, lr
 80007bc:	ea40 000c 	orrcs.w	r0, r0, ip
 80007c0:	085b      	lsrs	r3, r3, #1
 80007c2:	ea4f 0232 	mov.w	r2, r2, rrx
 80007c6:	ebb6 0e02 	subs.w	lr, r6, r2
 80007ca:	eb75 0e03 	sbcs.w	lr, r5, r3
 80007ce:	bf22      	ittt	cs
 80007d0:	1ab6      	subcs	r6, r6, r2
 80007d2:	4675      	movcs	r5, lr
 80007d4:	ea40 005c 	orrcs.w	r0, r0, ip, lsr #1
 80007d8:	085b      	lsrs	r3, r3, #1
 80007da:	ea4f 0232 	mov.w	r2, r2, rrx
 80007de:	ebb6 0e02 	subs.w	lr, r6, r2
 80007e2:	eb75 0e03 	sbcs.w	lr, r5, r3
 80007e6:	bf22      	ittt	cs
 80007e8:	1ab6      	subcs	r6, r6, r2
 80007ea:	4675      	movcs	r5, lr
 80007ec:	ea40 009c 	orrcs.w	r0, r0, ip, lsr #2
 80007f0:	085b      	lsrs	r3, r3, #1
 80007f2:	ea4f 0232 	mov.w	r2, r2, rrx
 80007f6:	ebb6 0e02 	subs.w	lr, r6, r2
 80007fa:	eb75 0e03 	sbcs.w	lr, r5, r3
 80007fe:	bf22      	ittt	cs
 8000800:	1ab6      	subcs	r6, r6, r2
 8000802:	4675      	movcs	r5, lr
 8000804:	ea40 00dc 	orrcs.w	r0, r0, ip, lsr #3
 8000808:	ea55 0e06 	orrs.w	lr, r5, r6
 800080c:	d018      	beq.n	8000840 <__aeabi_ddiv+0x114>
 800080e:	ea4f 1505 	mov.w	r5, r5, lsl #4
 8000812:	ea45 7516 	orr.w	r5, r5, r6, lsr #28
 8000816:	ea4f 1606 	mov.w	r6, r6, lsl #4
 800081a:	ea4f 03c3 	mov.w	r3, r3, lsl #3
 800081e:	ea43 7352 	orr.w	r3, r3, r2, lsr #29
 8000822:	ea4f 02c2 	mov.w	r2, r2, lsl #3
 8000826:	ea5f 1c1c 	movs.w	ip, ip, lsr #4
 800082a:	d1c0      	bne.n	80007ae <__aeabi_ddiv+0x82>
 800082c:	f411 1f80 	tst.w	r1, #1048576	; 0x100000
 8000830:	d10b      	bne.n	800084a <__aeabi_ddiv+0x11e>
 8000832:	ea41 0100 	orr.w	r1, r1, r0
 8000836:	f04f 0000 	mov.w	r0, #0
 800083a:	f04f 4c00 	mov.w	ip, #2147483648	; 0x80000000
 800083e:	e7b6      	b.n	80007ae <__aeabi_ddiv+0x82>
 8000840:	f411 1f80 	tst.w	r1, #1048576	; 0x100000
 8000844:	bf04      	itt	eq
 8000846:	4301      	orreq	r1, r0
 8000848:	2000      	moveq	r0, #0
 800084a:	f1b4 0cfd 	subs.w	ip, r4, #253	; 0xfd
 800084e:	bf88      	it	hi
 8000850:	f5bc 6fe0 	cmphi.w	ip, #1792	; 0x700
 8000854:	f63f aeaf 	bhi.w	80005b6 <__aeabi_dmul+0xde>
 8000858:	ebb5 0c03 	subs.w	ip, r5, r3
 800085c:	bf04      	itt	eq
 800085e:	ebb6 0c02 	subseq.w	ip, r6, r2
 8000862:	ea5f 0c50 	movseq.w	ip, r0, lsr #1
 8000866:	f150 0000 	adcs.w	r0, r0, #0
 800086a:	eb41 5104 	adc.w	r1, r1, r4, lsl #20
 800086e:	bd70      	pop	{r4, r5, r6, pc}
 8000870:	f00e 4e00 	and.w	lr, lr, #2147483648	; 0x80000000
 8000874:	ea4e 3111 	orr.w	r1, lr, r1, lsr #12
 8000878:	eb14 045c 	adds.w	r4, r4, ip, lsr #1
 800087c:	bfc2      	ittt	gt
 800087e:	ebd4 050c 	rsbsgt	r5, r4, ip
 8000882:	ea41 5104 	orrgt.w	r1, r1, r4, lsl #20
 8000886:	bd70      	popgt	{r4, r5, r6, pc}
 8000888:	f441 1180 	orr.w	r1, r1, #1048576	; 0x100000
 800088c:	f04f 0e00 	mov.w	lr, #0
 8000890:	3c01      	subs	r4, #1
 8000892:	e690      	b.n	80005b6 <__aeabi_dmul+0xde>
 8000894:	ea45 0e06 	orr.w	lr, r5, r6
 8000898:	e68d      	b.n	80005b6 <__aeabi_dmul+0xde>
 800089a:	ea0c 5513 	and.w	r5, ip, r3, lsr #20
 800089e:	ea94 0f0c 	teq	r4, ip
 80008a2:	bf08      	it	eq
 80008a4:	ea95 0f0c 	teqeq	r5, ip
 80008a8:	f43f af3b 	beq.w	8000722 <__aeabi_dmul+0x24a>
 80008ac:	ea94 0f0c 	teq	r4, ip
 80008b0:	d10a      	bne.n	80008c8 <__aeabi_ddiv+0x19c>
 80008b2:	ea50 3401 	orrs.w	r4, r0, r1, lsl #12
 80008b6:	f47f af34 	bne.w	8000722 <__aeabi_dmul+0x24a>
 80008ba:	ea95 0f0c 	teq	r5, ip
 80008be:	f47f af25 	bne.w	800070c <__aeabi_dmul+0x234>
 80008c2:	4610      	mov	r0, r2
 80008c4:	4619      	mov	r1, r3
 80008c6:	e72c      	b.n	8000722 <__aeabi_dmul+0x24a>
 80008c8:	ea95 0f0c 	teq	r5, ip
 80008cc:	d106      	bne.n	80008dc <__aeabi_ddiv+0x1b0>
 80008ce:	ea52 3503 	orrs.w	r5, r2, r3, lsl #12
 80008d2:	f43f aefd 	beq.w	80006d0 <__aeabi_dmul+0x1f8>
 80008d6:	4610      	mov	r0, r2
 80008d8:	4619      	mov	r1, r3
 80008da:	e722      	b.n	8000722 <__aeabi_dmul+0x24a>
 80008dc:	ea50 0641 	orrs.w	r6, r0, r1, lsl #1
 80008e0:	bf18      	it	ne
 80008e2:	ea52 0643 	orrsne.w	r6, r2, r3, lsl #1
 80008e6:	f47f aec5 	bne.w	8000674 <__aeabi_dmul+0x19c>
 80008ea:	ea50 0441 	orrs.w	r4, r0, r1, lsl #1
 80008ee:	f47f af0d 	bne.w	800070c <__aeabi_dmul+0x234>
 80008f2:	ea52 0543 	orrs.w	r5, r2, r3, lsl #1
 80008f6:	f47f aeeb 	bne.w	80006d0 <__aeabi_dmul+0x1f8>
 80008fa:	e712      	b.n	8000722 <__aeabi_dmul+0x24a>

080008fc <__gedf2>:
 80008fc:	f04f 3cff 	mov.w	ip, #4294967295
 8000900:	e006      	b.n	8000910 <__cmpdf2+0x4>
 8000902:	bf00      	nop

08000904 <__ledf2>:
 8000904:	f04f 0c01 	mov.w	ip, #1
 8000908:	e002      	b.n	8000910 <__cmpdf2+0x4>
 800090a:	bf00      	nop

0800090c <__cmpdf2>:
 800090c:	f04f 0c01 	mov.w	ip, #1
 8000910:	f84d cd04 	str.w	ip, [sp, #-4]!
 8000914:	ea4f 0c41 	mov.w	ip, r1, lsl #1
 8000918:	ea7f 5c6c 	mvns.w	ip, ip, asr #21
 800091c:	ea4f 0c43 	mov.w	ip, r3, lsl #1
 8000920:	bf18      	it	ne
 8000922:	ea7f 5c6c 	mvnsne.w	ip, ip, asr #21
 8000926:	d01b      	beq.n	8000960 <__cmpdf2+0x54>
 8000928:	b001      	add	sp, #4
 800092a:	ea50 0c41 	orrs.w	ip, r0, r1, lsl #1
 800092e:	bf0c      	ite	eq
 8000930:	ea52 0c43 	orrseq.w	ip, r2, r3, lsl #1
 8000934:	ea91 0f03 	teqne	r1, r3
 8000938:	bf02      	ittt	eq
 800093a:	ea90 0f02 	teqeq	r0, r2
 800093e:	2000      	moveq	r0, #0
 8000940:	4770      	bxeq	lr
 8000942:	f110 0f00 	cmn.w	r0, #0
 8000946:	ea91 0f03 	teq	r1, r3
 800094a:	bf58      	it	pl
 800094c:	4299      	cmppl	r1, r3
 800094e:	bf08      	it	eq
 8000950:	4290      	cmpeq	r0, r2
 8000952:	bf2c      	ite	cs
 8000954:	17d8      	asrcs	r0, r3, #31
 8000956:	ea6f 70e3 	mvncc.w	r0, r3, asr #31
 800095a:	f040 0001 	orr.w	r0, r0, #1
 800095e:	4770      	bx	lr
 8000960:	ea4f 0c41 	mov.w	ip, r1, lsl #1
 8000964:	ea7f 5c6c 	mvns.w	ip, ip, asr #21
 8000968:	d102      	bne.n	8000970 <__cmpdf2+0x64>
 800096a:	ea50 3c01 	orrs.w	ip, r0, r1, lsl #12
 800096e:	d107      	bne.n	8000980 <__cmpdf2+0x74>
 8000970:	ea4f 0c43 	mov.w	ip, r3, lsl #1
 8000974:	ea7f 5c6c 	mvns.w	ip, ip, asr #21
 8000978:	d1d6      	bne.n	8000928 <__cmpdf2+0x1c>
 800097a:	ea52 3c03 	orrs.w	ip, r2, r3, lsl #12
 800097e:	d0d3      	beq.n	8000928 <__cmpdf2+0x1c>
 8000980:	f85d 0b04 	ldr.w	r0, [sp], #4
 8000984:	4770      	bx	lr
 8000986:	bf00      	nop

08000988 <__aeabi_cdrcmple>:
 8000988:	4684      	mov	ip, r0
 800098a:	4610      	mov	r0, r2
 800098c:	4662      	mov	r2, ip
 800098e:	468c      	mov	ip, r1
 8000990:	4619      	mov	r1, r3
 8000992:	4663      	mov	r3, ip
 8000994:	e000      	b.n	8000998 <__aeabi_cdcmpeq>
 8000996:	bf00      	nop

08000998 <__aeabi_cdcmpeq>:
 8000998:	b501      	push	{r0, lr}
 800099a:	f7ff ffb7 	bl	800090c <__cmpdf2>
 800099e:	2800      	cmp	r0, #0
 80009a0:	bf48      	it	mi
 80009a2:	f110 0f00 	cmnmi.w	r0, #0
 80009a6:	bd01      	pop	{r0, pc}

080009a8 <__aeabi_dcmpeq>:
 80009a8:	f84d ed08 	str.w	lr, [sp, #-8]!
 80009ac:	f7ff fff4 	bl	8000998 <__aeabi_cdcmpeq>
 80009b0:	bf0c      	ite	eq
 80009b2:	2001      	moveq	r0, #1
 80009b4:	2000      	movne	r0, #0
 80009b6:	f85d fb08 	ldr.w	pc, [sp], #8
 80009ba:	bf00      	nop

080009bc <__aeabi_dcmplt>:
 80009bc:	f84d ed08 	str.w	lr, [sp, #-8]!
 80009c0:	f7ff ffea 	bl	8000998 <__aeabi_cdcmpeq>
 80009c4:	bf34      	ite	cc
 80009c6:	2001      	movcc	r0, #1
 80009c8:	2000      	movcs	r0, #0
 80009ca:	f85d fb08 	ldr.w	pc, [sp], #8
 80009ce:	bf00      	nop

080009d0 <__aeabi_dcmple>:
 80009d0:	f84d ed08 	str.w	lr, [sp, #-8]!
 80009d4:	f7ff ffe0 	bl	8000998 <__aeabi_cdcmpeq>
 80009d8:	bf94      	ite	ls
 80009da:	2001      	movls	r0, #1
 80009dc:	2000      	movhi	r0, #0
 80009de:	f85d fb08 	ldr.w	pc, [sp], #8
 80009e2:	bf00      	nop

080009e4 <__aeabi_dcmpge>:
 80009e4:	f84d ed08 	str.w	lr, [sp, #-8]!
 80009e8:	f7ff ffce 	bl	8000988 <__aeabi_cdrcmple>
 80009ec:	bf94      	ite	ls
 80009ee:	2001      	movls	r0, #1
 80009f0:	2000      	movhi	r0, #0
 80009f2:	f85d fb08 	ldr.w	pc, [sp], #8
 80009f6:	bf00      	nop

080009f8 <__aeabi_dcmpgt>:
 80009f8:	f84d ed08 	str.w	lr, [sp, #-8]!
 80009fc:	f7ff ffc4 	bl	8000988 <__aeabi_cdrcmple>
 8000a00:	bf34      	ite	cc
 8000a02:	2001      	movcc	r0, #1
 8000a04:	2000      	movcs	r0, #0
 8000a06:	f85d fb08 	ldr.w	pc, [sp], #8
 8000a0a:	bf00      	nop

08000a0c <__aeabi_dcmpun>:
 8000a0c:	ea4f 0c41 	mov.w	ip, r1, lsl #1
 8000a10:	ea7f 5c6c 	mvns.w	ip, ip, asr #21
 8000a14:	d102      	bne.n	8000a1c <__aeabi_dcmpun+0x10>
 8000a16:	ea50 3c01 	orrs.w	ip, r0, r1, lsl #12
 8000a1a:	d10a      	bne.n	8000a32 <__aeabi_dcmpun+0x26>
 8000a1c:	ea4f 0c43 	mov.w	ip, r3, lsl #1
 8000a20:	ea7f 5c6c 	mvns.w	ip, ip, asr #21
 8000a24:	d102      	bne.n	8000a2c <__aeabi_dcmpun+0x20>
 8000a26:	ea52 3c03 	orrs.w	ip, r2, r3, lsl #12
 8000a2a:	d102      	bne.n	8000a32 <__aeabi_dcmpun+0x26>
 8000a2c:	f04f 0000 	mov.w	r0, #0
 8000a30:	4770      	bx	lr
 8000a32:	f04f 0001 	mov.w	r0, #1
 8000a36:	4770      	bx	lr

08000a38 <__aeabi_d2iz>:
 8000a38:	ea4f 0241 	mov.w	r2, r1, lsl #1
 8000a3c:	f512 1200 	adds.w	r2, r2, #2097152	; 0x200000
 8000a40:	d215      	bcs.n	8000a6e <__aeabi_d2iz+0x36>
 8000a42:	d511      	bpl.n	8000a68 <__aeabi_d2iz+0x30>
 8000a44:	f46f 7378 	mvn.w	r3, #992	; 0x3e0
 8000a48:	ebb3 5262 	subs.w	r2, r3, r2, asr #21
 8000a4c:	d912      	bls.n	8000a74 <__aeabi_d2iz+0x3c>
 8000a4e:	ea4f 23c1 	mov.w	r3, r1, lsl #11
 8000a52:	f043 4300 	orr.w	r3, r3, #2147483648	; 0x80000000
 8000a56:	ea43 5350 	orr.w	r3, r3, r0, lsr #21
 8000a5a:	f011 4f00 	tst.w	r1, #2147483648	; 0x80000000
 8000a5e:	fa23 f002 	lsr.w	r0, r3, r2
 8000a62:	bf18      	it	ne
 8000a64:	4240      	negne	r0, r0
 8000a66:	4770      	bx	lr
 8000a68:	f04f 0000 	mov.w	r0, #0
 8000a6c:	4770      	bx	lr
 8000a6e:	ea50 3001 	orrs.w	r0, r0, r1, lsl #12
 8000a72:	d105      	bne.n	8000a80 <__aeabi_d2iz+0x48>
 8000a74:	f011 4000 	ands.w	r0, r1, #2147483648	; 0x80000000
 8000a78:	bf08      	it	eq
 8000a7a:	f06f 4000 	mvneq.w	r0, #2147483648	; 0x80000000
 8000a7e:	4770      	bx	lr
 8000a80:	f04f 0000 	mov.w	r0, #0
 8000a84:	4770      	bx	lr
 8000a86:	bf00      	nop

08000a88 <__aeabi_d2f>:
 8000a88:	ea4f 0241 	mov.w	r2, r1, lsl #1
 8000a8c:	f1b2 43e0 	subs.w	r3, r2, #1879048192	; 0x70000000
 8000a90:	bf24      	itt	cs
 8000a92:	f5b3 1c00 	subscs.w	ip, r3, #2097152	; 0x200000
 8000a96:	f1dc 5cfe 	rsbscs	ip, ip, #532676608	; 0x1fc00000
 8000a9a:	d90d      	bls.n	8000ab8 <__aeabi_d2f+0x30>
 8000a9c:	f001 4c00 	and.w	ip, r1, #2147483648	; 0x80000000
 8000aa0:	ea4f 02c0 	mov.w	r2, r0, lsl #3
 8000aa4:	ea4c 7050 	orr.w	r0, ip, r0, lsr #29
 8000aa8:	f1b2 4f00 	cmp.w	r2, #2147483648	; 0x80000000
 8000aac:	eb40 0083 	adc.w	r0, r0, r3, lsl #2
 8000ab0:	bf08      	it	eq
 8000ab2:	f020 0001 	biceq.w	r0, r0, #1
 8000ab6:	4770      	bx	lr
 8000ab8:	f011 4f80 	tst.w	r1, #1073741824	; 0x40000000
 8000abc:	d121      	bne.n	8000b02 <__aeabi_d2f+0x7a>
 8000abe:	f113 7238 	adds.w	r2, r3, #48234496	; 0x2e00000
 8000ac2:	bfbc      	itt	lt
 8000ac4:	f001 4000 	andlt.w	r0, r1, #2147483648	; 0x80000000
 8000ac8:	4770      	bxlt	lr
 8000aca:	f441 1180 	orr.w	r1, r1, #1048576	; 0x100000
 8000ace:	ea4f 5252 	mov.w	r2, r2, lsr #21
 8000ad2:	f1c2 0218 	rsb	r2, r2, #24
 8000ad6:	f1c2 0c20 	rsb	ip, r2, #32
 8000ada:	fa10 f30c 	lsls.w	r3, r0, ip
 8000ade:	fa20 f002 	lsr.w	r0, r0, r2
 8000ae2:	bf18      	it	ne
 8000ae4:	f040 0001 	orrne.w	r0, r0, #1
 8000ae8:	ea4f 23c1 	mov.w	r3, r1, lsl #11
 8000aec:	ea4f 23d3 	mov.w	r3, r3, lsr #11
 8000af0:	fa03 fc0c 	lsl.w	ip, r3, ip
 8000af4:	ea40 000c 	orr.w	r0, r0, ip
 8000af8:	fa23 f302 	lsr.w	r3, r3, r2
 8000afc:	ea4f 0343 	mov.w	r3, r3, lsl #1
 8000b00:	e7cc      	b.n	8000a9c <__aeabi_d2f+0x14>
 8000b02:	ea7f 5362 	mvns.w	r3, r2, asr #21
 8000b06:	d107      	bne.n	8000b18 <__aeabi_d2f+0x90>
 8000b08:	ea50 3301 	orrs.w	r3, r0, r1, lsl #12
 8000b0c:	bf1e      	ittt	ne
 8000b0e:	f04f 40fe 	movne.w	r0, #2130706432	; 0x7f000000
 8000b12:	f440 0040 	orrne.w	r0, r0, #12582912	; 0xc00000
 8000b16:	4770      	bxne	lr
 8000b18:	f001 4000 	and.w	r0, r1, #2147483648	; 0x80000000
 8000b1c:	f040 40fe 	orr.w	r0, r0, #2130706432	; 0x7f000000
 8000b20:	f440 0000 	orr.w	r0, r0, #8388608	; 0x800000
 8000b24:	4770      	bx	lr
 8000b26:	bf00      	nop

08000b28 <__aeabi_frsub>:
 8000b28:	f080 4000 	eor.w	r0, r0, #2147483648	; 0x80000000
 8000b2c:	e002      	b.n	8000b34 <__addsf3>
 8000b2e:	bf00      	nop

08000b30 <__aeabi_fsub>:
 8000b30:	f081 4100 	eor.w	r1, r1, #2147483648	; 0x80000000

08000b34 <__addsf3>:
 8000b34:	0042      	lsls	r2, r0, #1
 8000b36:	bf1f      	itttt	ne
 8000b38:	ea5f 0341 	movsne.w	r3, r1, lsl #1
 8000b3c:	ea92 0f03 	teqne	r2, r3
 8000b40:	ea7f 6c22 	mvnsne.w	ip, r2, asr #24
 8000b44:	ea7f 6c23 	mvnsne.w	ip, r3, asr #24
 8000b48:	d06a      	beq.n	8000c20 <__addsf3+0xec>
 8000b4a:	ea4f 6212 	mov.w	r2, r2, lsr #24
 8000b4e:	ebd2 6313 	rsbs	r3, r2, r3, lsr #24
 8000b52:	bfc1      	itttt	gt
 8000b54:	18d2      	addgt	r2, r2, r3
 8000b56:	4041      	eorgt	r1, r0
 8000b58:	4048      	eorgt	r0, r1
 8000b5a:	4041      	eorgt	r1, r0
 8000b5c:	bfb8      	it	lt
 8000b5e:	425b      	neglt	r3, r3
 8000b60:	2b19      	cmp	r3, #25
 8000b62:	bf88      	it	hi
 8000b64:	4770      	bxhi	lr
 8000b66:	f010 4f00 	tst.w	r0, #2147483648	; 0x80000000
 8000b6a:	f440 0000 	orr.w	r0, r0, #8388608	; 0x800000
 8000b6e:	f020 407f 	bic.w	r0, r0, #4278190080	; 0xff000000
 8000b72:	bf18      	it	ne
 8000b74:	4240      	negne	r0, r0
 8000b76:	f011 4f00 	tst.w	r1, #2147483648	; 0x80000000
 8000b7a:	f441 0100 	orr.w	r1, r1, #8388608	; 0x800000
 8000b7e:	f021 417f 	bic.w	r1, r1, #4278190080	; 0xff000000
 8000b82:	bf18      	it	ne
 8000b84:	4249      	negne	r1, r1
 8000b86:	ea92 0f03 	teq	r2, r3
 8000b8a:	d03f      	beq.n	8000c0c <__addsf3+0xd8>
 8000b8c:	f1a2 0201 	sub.w	r2, r2, #1
 8000b90:	fa41 fc03 	asr.w	ip, r1, r3
 8000b94:	eb10 000c 	adds.w	r0, r0, ip
 8000b98:	f1c3 0320 	rsb	r3, r3, #32
 8000b9c:	fa01 f103 	lsl.w	r1, r1, r3
 8000ba0:	f000 4300 	and.w	r3, r0, #2147483648	; 0x80000000
 8000ba4:	d502      	bpl.n	8000bac <__addsf3+0x78>
 8000ba6:	4249      	negs	r1, r1
 8000ba8:	eb60 0040 	sbc.w	r0, r0, r0, lsl #1
 8000bac:	f5b0 0f00 	cmp.w	r0, #8388608	; 0x800000
 8000bb0:	d313      	bcc.n	8000bda <__addsf3+0xa6>
 8000bb2:	f1b0 7f80 	cmp.w	r0, #16777216	; 0x1000000
 8000bb6:	d306      	bcc.n	8000bc6 <__addsf3+0x92>
 8000bb8:	0840      	lsrs	r0, r0, #1
 8000bba:	ea4f 0131 	mov.w	r1, r1, rrx
 8000bbe:	f102 0201 	add.w	r2, r2, #1
 8000bc2:	2afe      	cmp	r2, #254	; 0xfe
 8000bc4:	d251      	bcs.n	8000c6a <__addsf3+0x136>
 8000bc6:	f1b1 4f00 	cmp.w	r1, #2147483648	; 0x80000000
 8000bca:	eb40 50c2 	adc.w	r0, r0, r2, lsl #23
 8000bce:	bf08      	it	eq
 8000bd0:	f020 0001 	biceq.w	r0, r0, #1
 8000bd4:	ea40 0003 	orr.w	r0, r0, r3
 8000bd8:	4770      	bx	lr
 8000bda:	0049      	lsls	r1, r1, #1
 8000bdc:	eb40 0000 	adc.w	r0, r0, r0
 8000be0:	3a01      	subs	r2, #1
 8000be2:	bf28      	it	cs
 8000be4:	f5b0 0f00 	cmpcs.w	r0, #8388608	; 0x800000
 8000be8:	d2ed      	bcs.n	8000bc6 <__addsf3+0x92>
 8000bea:	fab0 fc80 	clz	ip, r0
 8000bee:	f1ac 0c08 	sub.w	ip, ip, #8
 8000bf2:	ebb2 020c 	subs.w	r2, r2, ip
 8000bf6:	fa00 f00c 	lsl.w	r0, r0, ip
 8000bfa:	bfaa      	itet	ge
 8000bfc:	eb00 50c2 	addge.w	r0, r0, r2, lsl #23
 8000c00:	4252      	neglt	r2, r2
 8000c02:	4318      	orrge	r0, r3
 8000c04:	bfbc      	itt	lt
 8000c06:	40d0      	lsrlt	r0, r2
 8000c08:	4318      	orrlt	r0, r3
 8000c0a:	4770      	bx	lr
 8000c0c:	f092 0f00 	teq	r2, #0
 8000c10:	f481 0100 	eor.w	r1, r1, #8388608	; 0x800000
 8000c14:	bf06      	itte	eq
 8000c16:	f480 0000 	eoreq.w	r0, r0, #8388608	; 0x800000
 8000c1a:	3201      	addeq	r2, #1
 8000c1c:	3b01      	subne	r3, #1
 8000c1e:	e7b5      	b.n	8000b8c <__addsf3+0x58>
 8000c20:	ea4f 0341 	mov.w	r3, r1, lsl #1
 8000c24:	ea7f 6c22 	mvns.w	ip, r2, asr #24
 8000c28:	bf18      	it	ne
 8000c2a:	ea7f 6c23 	mvnsne.w	ip, r3, asr #24
 8000c2e:	d021      	beq.n	8000c74 <__addsf3+0x140>
 8000c30:	ea92 0f03 	teq	r2, r3
 8000c34:	d004      	beq.n	8000c40 <__addsf3+0x10c>
 8000c36:	f092 0f00 	teq	r2, #0
 8000c3a:	bf08      	it	eq
 8000c3c:	4608      	moveq	r0, r1
 8000c3e:	4770      	bx	lr
 8000c40:	ea90 0f01 	teq	r0, r1
 8000c44:	bf1c      	itt	ne
 8000c46:	2000      	movne	r0, #0
 8000c48:	4770      	bxne	lr
 8000c4a:	f012 4f7f 	tst.w	r2, #4278190080	; 0xff000000
 8000c4e:	d104      	bne.n	8000c5a <__addsf3+0x126>
 8000c50:	0040      	lsls	r0, r0, #1
 8000c52:	bf28      	it	cs
 8000c54:	f040 4000 	orrcs.w	r0, r0, #2147483648	; 0x80000000
 8000c58:	4770      	bx	lr
 8000c5a:	f112 7200 	adds.w	r2, r2, #33554432	; 0x2000000
 8000c5e:	bf3c      	itt	cc
 8000c60:	f500 0000 	addcc.w	r0, r0, #8388608	; 0x800000
 8000c64:	4770      	bxcc	lr
 8000c66:	f000 4300 	and.w	r3, r0, #2147483648	; 0x80000000
 8000c6a:	f043 40fe 	orr.w	r0, r3, #2130706432	; 0x7f000000
 8000c6e:	f440 0000 	orr.w	r0, r0, #8388608	; 0x800000
 8000c72:	4770      	bx	lr
 8000c74:	ea7f 6222 	mvns.w	r2, r2, asr #24
 8000c78:	bf16      	itet	ne
 8000c7a:	4608      	movne	r0, r1
 8000c7c:	ea7f 6323 	mvnseq.w	r3, r3, asr #24
 8000c80:	4601      	movne	r1, r0
 8000c82:	0242      	lsls	r2, r0, #9
 8000c84:	bf06      	itte	eq
 8000c86:	ea5f 2341 	movseq.w	r3, r1, lsl #9
 8000c8a:	ea90 0f01 	teqeq	r0, r1
 8000c8e:	f440 0080 	orrne.w	r0, r0, #4194304	; 0x400000
 8000c92:	4770      	bx	lr

08000c94 <__aeabi_ui2f>:
 8000c94:	f04f 0300 	mov.w	r3, #0
 8000c98:	e004      	b.n	8000ca4 <__aeabi_i2f+0x8>
 8000c9a:	bf00      	nop

08000c9c <__aeabi_i2f>:
 8000c9c:	f010 4300 	ands.w	r3, r0, #2147483648	; 0x80000000
 8000ca0:	bf48      	it	mi
 8000ca2:	4240      	negmi	r0, r0
 8000ca4:	ea5f 0c00 	movs.w	ip, r0
 8000ca8:	bf08      	it	eq
 8000caa:	4770      	bxeq	lr
 8000cac:	f043 4396 	orr.w	r3, r3, #1258291200	; 0x4b000000
 8000cb0:	4601      	mov	r1, r0
 8000cb2:	f04f 0000 	mov.w	r0, #0
 8000cb6:	e01c      	b.n	8000cf2 <__aeabi_l2f+0x2a>

08000cb8 <__aeabi_ul2f>:
 8000cb8:	ea50 0201 	orrs.w	r2, r0, r1
 8000cbc:	bf08      	it	eq
 8000cbe:	4770      	bxeq	lr
 8000cc0:	f04f 0300 	mov.w	r3, #0
 8000cc4:	e00a      	b.n	8000cdc <__aeabi_l2f+0x14>
 8000cc6:	bf00      	nop

08000cc8 <__aeabi_l2f>:
 8000cc8:	ea50 0201 	orrs.w	r2, r0, r1
 8000ccc:	bf08      	it	eq
 8000cce:	4770      	bxeq	lr
 8000cd0:	f011 4300 	ands.w	r3, r1, #2147483648	; 0x80000000
 8000cd4:	d502      	bpl.n	8000cdc <__aeabi_l2f+0x14>
 8000cd6:	4240      	negs	r0, r0
 8000cd8:	eb61 0141 	sbc.w	r1, r1, r1, lsl #1
 8000cdc:	ea5f 0c01 	movs.w	ip, r1
 8000ce0:	bf02      	ittt	eq
 8000ce2:	4684      	moveq	ip, r0
 8000ce4:	4601      	moveq	r1, r0
 8000ce6:	2000      	moveq	r0, #0
 8000ce8:	f043 43b6 	orr.w	r3, r3, #1526726656	; 0x5b000000
 8000cec:	bf08      	it	eq
 8000cee:	f1a3 5380 	subeq.w	r3, r3, #268435456	; 0x10000000
 8000cf2:	f5a3 0300 	sub.w	r3, r3, #8388608	; 0x800000
 8000cf6:	fabc f28c 	clz	r2, ip
 8000cfa:	3a08      	subs	r2, #8
 8000cfc:	eba3 53c2 	sub.w	r3, r3, r2, lsl #23
 8000d00:	db10      	blt.n	8000d24 <__aeabi_l2f+0x5c>
 8000d02:	fa01 fc02 	lsl.w	ip, r1, r2
 8000d06:	4463      	add	r3, ip
 8000d08:	fa00 fc02 	lsl.w	ip, r0, r2
 8000d0c:	f1c2 0220 	rsb	r2, r2, #32
 8000d10:	f1bc 4f00 	cmp.w	ip, #2147483648	; 0x80000000
 8000d14:	fa20 f202 	lsr.w	r2, r0, r2
 8000d18:	eb43 0002 	adc.w	r0, r3, r2
 8000d1c:	bf08      	it	eq
 8000d1e:	f020 0001 	biceq.w	r0, r0, #1
 8000d22:	4770      	bx	lr
 8000d24:	f102 0220 	add.w	r2, r2, #32
 8000d28:	fa01 fc02 	lsl.w	ip, r1, r2
 8000d2c:	f1c2 0220 	rsb	r2, r2, #32
 8000d30:	ea50 004c 	orrs.w	r0, r0, ip, lsl #1
 8000d34:	fa21 f202 	lsr.w	r2, r1, r2
 8000d38:	eb43 0002 	adc.w	r0, r3, r2
 8000d3c:	bf08      	it	eq
 8000d3e:	ea20 70dc 	biceq.w	r0, r0, ip, lsr #31
 8000d42:	4770      	bx	lr

08000d44 <__aeabi_fmul>:
 8000d44:	f04f 0cff 	mov.w	ip, #255	; 0xff
 8000d48:	ea1c 52d0 	ands.w	r2, ip, r0, lsr #23
 8000d4c:	bf1e      	ittt	ne
 8000d4e:	ea1c 53d1 	andsne.w	r3, ip, r1, lsr #23
 8000d52:	ea92 0f0c 	teqne	r2, ip
 8000d56:	ea93 0f0c 	teqne	r3, ip
 8000d5a:	d06f      	beq.n	8000e3c <__aeabi_fmul+0xf8>
 8000d5c:	441a      	add	r2, r3
 8000d5e:	ea80 0c01 	eor.w	ip, r0, r1
 8000d62:	0240      	lsls	r0, r0, #9
 8000d64:	bf18      	it	ne
 8000d66:	ea5f 2141 	movsne.w	r1, r1, lsl #9
 8000d6a:	d01e      	beq.n	8000daa <__aeabi_fmul+0x66>
 8000d6c:	f04f 6300 	mov.w	r3, #134217728	; 0x8000000
 8000d70:	ea43 1050 	orr.w	r0, r3, r0, lsr #5
 8000d74:	ea43 1151 	orr.w	r1, r3, r1, lsr #5
 8000d78:	fba0 3101 	umull	r3, r1, r0, r1
 8000d7c:	f00c 4000 	and.w	r0, ip, #2147483648	; 0x80000000
 8000d80:	f5b1 0f00 	cmp.w	r1, #8388608	; 0x800000
 8000d84:	bf3e      	ittt	cc
 8000d86:	0049      	lslcc	r1, r1, #1
 8000d88:	ea41 71d3 	orrcc.w	r1, r1, r3, lsr #31
 8000d8c:	005b      	lslcc	r3, r3, #1
 8000d8e:	ea40 0001 	orr.w	r0, r0, r1
 8000d92:	f162 027f 	sbc.w	r2, r2, #127	; 0x7f
 8000d96:	2afd      	cmp	r2, #253	; 0xfd
 8000d98:	d81d      	bhi.n	8000dd6 <__aeabi_fmul+0x92>
 8000d9a:	f1b3 4f00 	cmp.w	r3, #2147483648	; 0x80000000
 8000d9e:	eb40 50c2 	adc.w	r0, r0, r2, lsl #23
 8000da2:	bf08      	it	eq
 8000da4:	f020 0001 	biceq.w	r0, r0, #1
 8000da8:	4770      	bx	lr
 8000daa:	f090 0f00 	teq	r0, #0
 8000dae:	f00c 4c00 	and.w	ip, ip, #2147483648	; 0x80000000
 8000db2:	bf08      	it	eq
 8000db4:	0249      	lsleq	r1, r1, #9
 8000db6:	ea4c 2050 	orr.w	r0, ip, r0, lsr #9
 8000dba:	ea40 2051 	orr.w	r0, r0, r1, lsr #9
 8000dbe:	3a7f      	subs	r2, #127	; 0x7f
 8000dc0:	bfc2      	ittt	gt
 8000dc2:	f1d2 03ff 	rsbsgt	r3, r2, #255	; 0xff
 8000dc6:	ea40 50c2 	orrgt.w	r0, r0, r2, lsl #23
 8000dca:	4770      	bxgt	lr
 8000dcc:	f440 0000 	orr.w	r0, r0, #8388608	; 0x800000
 8000dd0:	f04f 0300 	mov.w	r3, #0
 8000dd4:	3a01      	subs	r2, #1
 8000dd6:	dc5d      	bgt.n	8000e94 <__aeabi_fmul+0x150>
 8000dd8:	f112 0f19 	cmn.w	r2, #25
 8000ddc:	bfdc      	itt	le
 8000dde:	f000 4000 	andle.w	r0, r0, #2147483648	; 0x80000000
 8000de2:	4770      	bxle	lr
 8000de4:	f1c2 0200 	rsb	r2, r2, #0
 8000de8:	0041      	lsls	r1, r0, #1
 8000dea:	fa21 f102 	lsr.w	r1, r1, r2
 8000dee:	f1c2 0220 	rsb	r2, r2, #32
 8000df2:	fa00 fc02 	lsl.w	ip, r0, r2
 8000df6:	ea5f 0031 	movs.w	r0, r1, rrx
 8000dfa:	f140 0000 	adc.w	r0, r0, #0
 8000dfe:	ea53 034c 	orrs.w	r3, r3, ip, lsl #1
 8000e02:	bf08      	it	eq
 8000e04:	ea20 70dc 	biceq.w	r0, r0, ip, lsr #31
 8000e08:	4770      	bx	lr
 8000e0a:	f092 0f00 	teq	r2, #0
 8000e0e:	f000 4c00 	and.w	ip, r0, #2147483648	; 0x80000000
 8000e12:	bf02      	ittt	eq
 8000e14:	0040      	lsleq	r0, r0, #1
 8000e16:	f410 0f00 	tsteq.w	r0, #8388608	; 0x800000
 8000e1a:	3a01      	subeq	r2, #1
 8000e1c:	d0f9      	beq.n	8000e12 <__aeabi_fmul+0xce>
 8000e1e:	ea40 000c 	orr.w	r0, r0, ip
 8000e22:	f093 0f00 	teq	r3, #0
 8000e26:	f001 4c00 	and.w	ip, r1, #2147483648	; 0x80000000
 8000e2a:	bf02      	ittt	eq
 8000e2c:	0049      	lsleq	r1, r1, #1
 8000e2e:	f411 0f00 	tsteq.w	r1, #8388608	; 0x800000
 8000e32:	3b01      	subeq	r3, #1
 8000e34:	d0f9      	beq.n	8000e2a <__aeabi_fmul+0xe6>
 8000e36:	ea41 010c 	orr.w	r1, r1, ip
 8000e3a:	e78f      	b.n	8000d5c <__aeabi_fmul+0x18>
 8000e3c:	ea0c 53d1 	and.w	r3, ip, r1, lsr #23
 8000e40:	ea92 0f0c 	teq	r2, ip
 8000e44:	bf18      	it	ne
 8000e46:	ea93 0f0c 	teqne	r3, ip
 8000e4a:	d00a      	beq.n	8000e62 <__aeabi_fmul+0x11e>
 8000e4c:	f030 4c00 	bics.w	ip, r0, #2147483648	; 0x80000000
 8000e50:	bf18      	it	ne
 8000e52:	f031 4c00 	bicsne.w	ip, r1, #2147483648	; 0x80000000
 8000e56:	d1d8      	bne.n	8000e0a <__aeabi_fmul+0xc6>
 8000e58:	ea80 0001 	eor.w	r0, r0, r1
 8000e5c:	f000 4000 	and.w	r0, r0, #2147483648	; 0x80000000
 8000e60:	4770      	bx	lr
 8000e62:	f090 0f00 	teq	r0, #0
 8000e66:	bf17      	itett	ne
 8000e68:	f090 4f00 	teqne	r0, #2147483648	; 0x80000000
 8000e6c:	4608      	moveq	r0, r1
 8000e6e:	f091 0f00 	teqne	r1, #0
 8000e72:	f091 4f00 	teqne	r1, #2147483648	; 0x80000000
 8000e76:	d014      	beq.n	8000ea2 <__aeabi_fmul+0x15e>
 8000e78:	ea92 0f0c 	teq	r2, ip
 8000e7c:	d101      	bne.n	8000e82 <__aeabi_fmul+0x13e>
 8000e7e:	0242      	lsls	r2, r0, #9
 8000e80:	d10f      	bne.n	8000ea2 <__aeabi_fmul+0x15e>
 8000e82:	ea93 0f0c 	teq	r3, ip
 8000e86:	d103      	bne.n	8000e90 <__aeabi_fmul+0x14c>
 8000e88:	024b      	lsls	r3, r1, #9
 8000e8a:	bf18      	it	ne
 8000e8c:	4608      	movne	r0, r1
 8000e8e:	d108      	bne.n	8000ea2 <__aeabi_fmul+0x15e>
 8000e90:	ea80 0001 	eor.w	r0, r0, r1
 8000e94:	f000 4000 	and.w	r0, r0, #2147483648	; 0x80000000
 8000e98:	f040 40fe 	orr.w	r0, r0, #2130706432	; 0x7f000000
 8000e9c:	f440 0000 	orr.w	r0, r0, #8388608	; 0x800000
 8000ea0:	4770      	bx	lr
 8000ea2:	f040 40fe 	orr.w	r0, r0, #2130706432	; 0x7f000000
 8000ea6:	f440 0040 	orr.w	r0, r0, #12582912	; 0xc00000
 8000eaa:	4770      	bx	lr

08000eac <__aeabi_fdiv>:
 8000eac:	f04f 0cff 	mov.w	ip, #255	; 0xff
 8000eb0:	ea1c 52d0 	ands.w	r2, ip, r0, lsr #23
 8000eb4:	bf1e      	ittt	ne
 8000eb6:	ea1c 53d1 	andsne.w	r3, ip, r1, lsr #23
 8000eba:	ea92 0f0c 	teqne	r2, ip
 8000ebe:	ea93 0f0c 	teqne	r3, ip
 8000ec2:	d069      	beq.n	8000f98 <__aeabi_fdiv+0xec>
 8000ec4:	eba2 0203 	sub.w	r2, r2, r3
 8000ec8:	ea80 0c01 	eor.w	ip, r0, r1
 8000ecc:	0249      	lsls	r1, r1, #9
 8000ece:	ea4f 2040 	mov.w	r0, r0, lsl #9
 8000ed2:	d037      	beq.n	8000f44 <__aeabi_fdiv+0x98>
 8000ed4:	f04f 5380 	mov.w	r3, #268435456	; 0x10000000
 8000ed8:	ea43 1111 	orr.w	r1, r3, r1, lsr #4
 8000edc:	ea43 1310 	orr.w	r3, r3, r0, lsr #4
 8000ee0:	f00c 4000 	and.w	r0, ip, #2147483648	; 0x80000000
 8000ee4:	428b      	cmp	r3, r1
 8000ee6:	bf38      	it	cc
 8000ee8:	005b      	lslcc	r3, r3, #1
 8000eea:	f142 027d 	adc.w	r2, r2, #125	; 0x7d
 8000eee:	f44f 0c00 	mov.w	ip, #8388608	; 0x800000
 8000ef2:	428b      	cmp	r3, r1
 8000ef4:	bf24      	itt	cs
 8000ef6:	1a5b      	subcs	r3, r3, r1
 8000ef8:	ea40 000c 	orrcs.w	r0, r0, ip
 8000efc:	ebb3 0f51 	cmp.w	r3, r1, lsr #1
 8000f00:	bf24      	itt	cs
 8000f02:	eba3 0351 	subcs.w	r3, r3, r1, lsr #1
 8000f06:	ea40 005c 	orrcs.w	r0, r0, ip, lsr #1
 8000f0a:	ebb3 0f91 	cmp.w	r3, r1, lsr #2
 8000f0e:	bf24      	itt	cs
 8000f10:	eba3 0391 	subcs.w	r3, r3, r1, lsr #2
 8000f14:	ea40 009c 	orrcs.w	r0, r0, ip, lsr #2
 8000f18:	ebb3 0fd1 	cmp.w	r3, r1, lsr #3
 8000f1c:	bf24      	itt	cs
 8000f1e:	eba3 03d1 	subcs.w	r3, r3, r1, lsr #3
 8000f22:	ea40 00dc 	orrcs.w	r0, r0, ip, lsr #3
 8000f26:	011b      	lsls	r3, r3, #4
 8000f28:	bf18      	it	ne
 8000f2a:	ea5f 1c1c 	movsne.w	ip, ip, lsr #4
 8000f2e:	d1e0      	bne.n	8000ef2 <__aeabi_fdiv+0x46>
 8000f30:	2afd      	cmp	r2, #253	; 0xfd
 8000f32:	f63f af50 	bhi.w	8000dd6 <__aeabi_fmul+0x92>
 8000f36:	428b      	cmp	r3, r1
 8000f38:	eb40 50c2 	adc.w	r0, r0, r2, lsl #23
 8000f3c:	bf08      	it	eq
 8000f3e:	f020 0001 	biceq.w	r0, r0, #1
 8000f42:	4770      	bx	lr
 8000f44:	f00c 4c00 	and.w	ip, ip, #2147483648	; 0x80000000
 8000f48:	ea4c 2050 	orr.w	r0, ip, r0, lsr #9
 8000f4c:	327f      	adds	r2, #127	; 0x7f
 8000f4e:	bfc2      	ittt	gt
 8000f50:	f1d2 03ff 	rsbsgt	r3, r2, #255	; 0xff
 8000f54:	ea40 50c2 	orrgt.w	r0, r0, r2, lsl #23
 8000f58:	4770      	bxgt	lr
 8000f5a:	f440 0000 	orr.w	r0, r0, #8388608	; 0x800000
 8000f5e:	f04f 0300 	mov.w	r3, #0
 8000f62:	3a01      	subs	r2, #1
 8000f64:	e737      	b.n	8000dd6 <__aeabi_fmul+0x92>
 8000f66:	f092 0f00 	teq	r2, #0
 8000f6a:	f000 4c00 	and.w	ip, r0, #2147483648	; 0x80000000
 8000f6e:	bf02      	ittt	eq
 8000f70:	0040      	lsleq	r0, r0, #1
 8000f72:	f410 0f00 	tsteq.w	r0, #8388608	; 0x800000
 8000f76:	3a01      	subeq	r2, #1
 8000f78:	d0f9      	beq.n	8000f6e <__aeabi_fdiv+0xc2>
 8000f7a:	ea40 000c 	orr.w	r0, r0, ip
 8000f7e:	f093 0f00 	teq	r3, #0
 8000f82:	f001 4c00 	and.w	ip, r1, #2147483648	; 0x80000000
 8000f86:	bf02      	ittt	eq
 8000f88:	0049      	lsleq	r1, r1, #1
 8000f8a:	f411 0f00 	tsteq.w	r1, #8388608	; 0x800000
 8000f8e:	3b01      	subeq	r3, #1
 8000f90:	d0f9      	beq.n	8000f86 <__aeabi_fdiv+0xda>
 8000f92:	ea41 010c 	orr.w	r1, r1, ip
 8000f96:	e795      	b.n	8000ec4 <__aeabi_fdiv+0x18>
 8000f98:	ea0c 53d1 	and.w	r3, ip, r1, lsr #23
 8000f9c:	ea92 0f0c 	teq	r2, ip
 8000fa0:	d108      	bne.n	8000fb4 <__aeabi_fdiv+0x108>
 8000fa2:	0242      	lsls	r2, r0, #9
 8000fa4:	f47f af7d 	bne.w	8000ea2 <__aeabi_fmul+0x15e>
 8000fa8:	ea93 0f0c 	teq	r3, ip
 8000fac:	f47f af70 	bne.w	8000e90 <__aeabi_fmul+0x14c>
 8000fb0:	4608      	mov	r0, r1
 8000fb2:	e776      	b.n	8000ea2 <__aeabi_fmul+0x15e>
 8000fb4:	ea93 0f0c 	teq	r3, ip
 8000fb8:	d104      	bne.n	8000fc4 <__aeabi_fdiv+0x118>
 8000fba:	024b      	lsls	r3, r1, #9
 8000fbc:	f43f af4c 	beq.w	8000e58 <__aeabi_fmul+0x114>
 8000fc0:	4608      	mov	r0, r1
 8000fc2:	e76e      	b.n	8000ea2 <__aeabi_fmul+0x15e>
 8000fc4:	f030 4c00 	bics.w	ip, r0, #2147483648	; 0x80000000
 8000fc8:	bf18      	it	ne
 8000fca:	f031 4c00 	bicsne.w	ip, r1, #2147483648	; 0x80000000
 8000fce:	d1ca      	bne.n	8000f66 <__aeabi_fdiv+0xba>
 8000fd0:	f030 4200 	bics.w	r2, r0, #2147483648	; 0x80000000
 8000fd4:	f47f af5c 	bne.w	8000e90 <__aeabi_fmul+0x14c>
 8000fd8:	f031 4300 	bics.w	r3, r1, #2147483648	; 0x80000000
 8000fdc:	f47f af3c 	bne.w	8000e58 <__aeabi_fmul+0x114>
 8000fe0:	e75f      	b.n	8000ea2 <__aeabi_fmul+0x15e>
 8000fe2:	bf00      	nop

08000fe4 <__gesf2>:
 8000fe4:	f04f 3cff 	mov.w	ip, #4294967295
 8000fe8:	e006      	b.n	8000ff8 <__cmpsf2+0x4>
 8000fea:	bf00      	nop

08000fec <__lesf2>:
 8000fec:	f04f 0c01 	mov.w	ip, #1
 8000ff0:	e002      	b.n	8000ff8 <__cmpsf2+0x4>
 8000ff2:	bf00      	nop

08000ff4 <__cmpsf2>:
 8000ff4:	f04f 0c01 	mov.w	ip, #1
 8000ff8:	f84d cd04 	str.w	ip, [sp, #-4]!
 8000ffc:	ea4f 0240 	mov.w	r2, r0, lsl #1
 8001000:	ea4f 0341 	mov.w	r3, r1, lsl #1
 8001004:	ea7f 6c22 	mvns.w	ip, r2, asr #24
 8001008:	bf18      	it	ne
 800100a:	ea7f 6c23 	mvnsne.w	ip, r3, asr #24
 800100e:	d011      	beq.n	8001034 <__cmpsf2+0x40>
 8001010:	b001      	add	sp, #4
 8001012:	ea52 0c53 	orrs.w	ip, r2, r3, lsr #1
 8001016:	bf18      	it	ne
 8001018:	ea90 0f01 	teqne	r0, r1
 800101c:	bf58      	it	pl
 800101e:	ebb2 0003 	subspl.w	r0, r2, r3
 8001022:	bf88      	it	hi
 8001024:	17c8      	asrhi	r0, r1, #31
 8001026:	bf38      	it	cc
 8001028:	ea6f 70e1 	mvncc.w	r0, r1, asr #31
 800102c:	bf18      	it	ne
 800102e:	f040 0001 	orrne.w	r0, r0, #1
 8001032:	4770      	bx	lr
 8001034:	ea7f 6c22 	mvns.w	ip, r2, asr #24
 8001038:	d102      	bne.n	8001040 <__cmpsf2+0x4c>
 800103a:	ea5f 2c40 	movs.w	ip, r0, lsl #9
 800103e:	d105      	bne.n	800104c <__cmpsf2+0x58>
 8001040:	ea7f 6c23 	mvns.w	ip, r3, asr #24
 8001044:	d1e4      	bne.n	8001010 <__cmpsf2+0x1c>
 8001046:	ea5f 2c41 	movs.w	ip, r1, lsl #9
 800104a:	d0e1      	beq.n	8001010 <__cmpsf2+0x1c>
 800104c:	f85d 0b04 	ldr.w	r0, [sp], #4
 8001050:	4770      	bx	lr
 8001052:	bf00      	nop

08001054 <__aeabi_cfrcmple>:
 8001054:	4684      	mov	ip, r0
 8001056:	4608      	mov	r0, r1
 8001058:	4661      	mov	r1, ip
 800105a:	e7ff      	b.n	800105c <__aeabi_cfcmpeq>

0800105c <__aeabi_cfcmpeq>:
 800105c:	b50f      	push	{r0, r1, r2, r3, lr}
 800105e:	f7ff ffc9 	bl	8000ff4 <__cmpsf2>
 8001062:	2800      	cmp	r0, #0
 8001064:	bf48      	it	mi
 8001066:	f110 0f00 	cmnmi.w	r0, #0
 800106a:	bd0f      	pop	{r0, r1, r2, r3, pc}

0800106c <__aeabi_fcmpeq>:
 800106c:	f84d ed08 	str.w	lr, [sp, #-8]!
 8001070:	f7ff fff4 	bl	800105c <__aeabi_cfcmpeq>
 8001074:	bf0c      	ite	eq
 8001076:	2001      	moveq	r0, #1
 8001078:	2000      	movne	r0, #0
 800107a:	f85d fb08 	ldr.w	pc, [sp], #8
 800107e:	bf00      	nop

08001080 <__aeabi_fcmplt>:
 8001080:	f84d ed08 	str.w	lr, [sp, #-8]!
 8001084:	f7ff ffea 	bl	800105c <__aeabi_cfcmpeq>
 8001088:	bf34      	ite	cc
 800108a:	2001      	movcc	r0, #1
 800108c:	2000      	movcs	r0, #0
 800108e:	f85d fb08 	ldr.w	pc, [sp], #8
 8001092:	bf00      	nop

08001094 <__aeabi_fcmple>:
 8001094:	f84d ed08 	str.w	lr, [sp, #-8]!
 8001098:	f7ff ffe0 	bl	800105c <__aeabi_cfcmpeq>
 800109c:	bf94      	ite	ls
 800109e:	2001      	movls	r0, #1
 80010a0:	2000      	movhi	r0, #0
 80010a2:	f85d fb08 	ldr.w	pc, [sp], #8
 80010a6:	bf00      	nop

080010a8 <__aeabi_fcmpge>:
 80010a8:	f84d ed08 	str.w	lr, [sp, #-8]!
 80010ac:	f7ff ffd2 	bl	8001054 <__aeabi_cfrcmple>
 80010b0:	bf94      	ite	ls
 80010b2:	2001      	movls	r0, #1
 80010b4:	2000      	movhi	r0, #0
 80010b6:	f85d fb08 	ldr.w	pc, [sp], #8
 80010ba:	bf00      	nop

080010bc <__aeabi_fcmpgt>:
 80010bc:	f84d ed08 	str.w	lr, [sp, #-8]!
 80010c0:	f7ff ffc8 	bl	8001054 <__aeabi_cfrcmple>
 80010c4:	bf34      	ite	cc
 80010c6:	2001      	movcc	r0, #1
 80010c8:	2000      	movcs	r0, #0
 80010ca:	f85d fb08 	ldr.w	pc, [sp], #8
 80010ce:	bf00      	nop

080010d0 <__aeabi_f2iz>:
 80010d0:	ea4f 0240 	mov.w	r2, r0, lsl #1
 80010d4:	f1b2 4ffe 	cmp.w	r2, #2130706432	; 0x7f000000
 80010d8:	d30f      	bcc.n	80010fa <__aeabi_f2iz+0x2a>
 80010da:	f04f 039e 	mov.w	r3, #158	; 0x9e
 80010de:	ebb3 6212 	subs.w	r2, r3, r2, lsr #24
 80010e2:	d90d      	bls.n	8001100 <__aeabi_f2iz+0x30>
 80010e4:	ea4f 2300 	mov.w	r3, r0, lsl #8
 80010e8:	f043 4300 	orr.w	r3, r3, #2147483648	; 0x80000000
 80010ec:	f010 4f00 	tst.w	r0, #2147483648	; 0x80000000
 80010f0:	fa23 f002 	lsr.w	r0, r3, r2
 80010f4:	bf18      	it	ne
 80010f6:	4240      	negne	r0, r0
 80010f8:	4770      	bx	lr
 80010fa:	f04f 0000 	mov.w	r0, #0
 80010fe:	4770      	bx	lr
 8001100:	f112 0f61 	cmn.w	r2, #97	; 0x61
 8001104:	d101      	bne.n	800110a <__aeabi_f2iz+0x3a>
 8001106:	0242      	lsls	r2, r0, #9
 8001108:	d105      	bne.n	8001116 <__aeabi_f2iz+0x46>
 800110a:	f010 4000 	ands.w	r0, r0, #2147483648	; 0x80000000
 800110e:	bf08      	it	eq
 8001110:	f06f 4000 	mvneq.w	r0, #2147483648	; 0x80000000
 8001114:	4770      	bx	lr
 8001116:	f04f 0000 	mov.w	r0, #0
 800111a:	4770      	bx	lr

0800111c <__aeabi_f2uiz>:
 800111c:	0042      	lsls	r2, r0, #1
 800111e:	d20e      	bcs.n	800113e <__aeabi_f2uiz+0x22>
 8001120:	f1b2 4ffe 	cmp.w	r2, #2130706432	; 0x7f000000
 8001124:	d30b      	bcc.n	800113e <__aeabi_f2uiz+0x22>
 8001126:	f04f 039e 	mov.w	r3, #158	; 0x9e
 800112a:	ebb3 6212 	subs.w	r2, r3, r2, lsr #24
 800112e:	d409      	bmi.n	8001144 <__aeabi_f2uiz+0x28>
 8001130:	ea4f 2300 	mov.w	r3, r0, lsl #8
 8001134:	f043 4300 	orr.w	r3, r3, #2147483648	; 0x80000000
 8001138:	fa23 f002 	lsr.w	r0, r3, r2
 800113c:	4770      	bx	lr
 800113e:	f04f 0000 	mov.w	r0, #0
 8001142:	4770      	bx	lr
 8001144:	f112 0f61 	cmn.w	r2, #97	; 0x61
 8001148:	d101      	bne.n	800114e <__aeabi_f2uiz+0x32>
 800114a:	0242      	lsls	r2, r0, #9
 800114c:	d102      	bne.n	8001154 <__aeabi_f2uiz+0x38>
 800114e:	f04f 30ff 	mov.w	r0, #4294967295
 8001152:	4770      	bx	lr
 8001154:	f04f 0000 	mov.w	r0, #0
 8001158:	4770      	bx	lr
 800115a:	bf00      	nop

0800115c <SBR1_init>:
static const float u_PS_p[] = { 0.2500f };
static const float u_PM_p[] = { 0.400f };//0.6670
static const float u_PB_p[] = { 0.61900f };


void SBR1_init( void ){
 800115c:	b580      	push	{r7, lr}
 800115e:	b08a      	sub	sp, #40	; 0x28
 8001160:	af0a      	add	r7, sp, #40	; 0x28
    /* Set inputs */
    qFIS_InputSetup( SBR1_inputs, theta, -1.0000f, 1.0000f );
 8001162:	f04f 537e 	mov.w	r3, #1065353216	; 0x3f800000
 8001166:	4a8d      	ldr	r2, [pc, #564]	; (800139c <SBR1_init+0x240>)
 8001168:	2100      	movs	r1, #0
 800116a:	488d      	ldr	r0, [pc, #564]	; (80013a0 <SBR1_init+0x244>)
 800116c:	f001 fcea 	bl	8002b44 <qFIS_InputSetup>
    qFIS_InputSetup( SBR1_inputs, thetadot, -1.0000f, 1.0000f );
 8001170:	f04f 537e 	mov.w	r3, #1065353216	; 0x3f800000
 8001174:	4a89      	ldr	r2, [pc, #548]	; (800139c <SBR1_init+0x240>)
 8001176:	2101      	movs	r1, #1
 8001178:	4889      	ldr	r0, [pc, #548]	; (80013a0 <SBR1_init+0x244>)
 800117a:	f001 fce3 	bl	8002b44 <qFIS_InputSetup>
    /* Set outputs */
    qFIS_OutputSetup( SBR1_outputs, u, -1.0000f, 1.0000f );
 800117e:	f04f 537e 	mov.w	r3, #1065353216	; 0x3f800000
 8001182:	4a86      	ldr	r2, [pc, #536]	; (800139c <SBR1_init+0x240>)
 8001184:	2100      	movs	r1, #0
 8001186:	4887      	ldr	r0, [pc, #540]	; (80013a4 <SBR1_init+0x248>)
 8001188:	f001 fd07 	bl	8002b9a <qFIS_OutputSetup>
    /* Set membership functions for the inputs */
    qFIS_SetMF( MFin, theta, theta_NB, trapmf, NULL, theta_NB_p, 1.0f );
 800118c:	f04f 537e 	mov.w	r3, #1065353216	; 0x3f800000
 8001190:	9302      	str	r3, [sp, #8]
 8001192:	4b85      	ldr	r3, [pc, #532]	; (80013a8 <SBR1_init+0x24c>)
 8001194:	9301      	str	r3, [sp, #4]
 8001196:	2300      	movs	r3, #0
 8001198:	9300      	str	r3, [sp, #0]
 800119a:	2302      	movs	r3, #2
 800119c:	2200      	movs	r2, #0
 800119e:	2100      	movs	r1, #0
 80011a0:	4882      	ldr	r0, [pc, #520]	; (80013ac <SBR1_init+0x250>)
 80011a2:	f001 fda3 	bl	8002cec <qFIS_SetMF>
    qFIS_SetMF( MFin, theta, theta_NS, trapmf, NULL, theta_NS_p, 1.0f );
 80011a6:	f04f 537e 	mov.w	r3, #1065353216	; 0x3f800000
 80011aa:	9302      	str	r3, [sp, #8]
 80011ac:	4b80      	ldr	r3, [pc, #512]	; (80013b0 <SBR1_init+0x254>)
 80011ae:	9301      	str	r3, [sp, #4]
 80011b0:	2300      	movs	r3, #0
 80011b2:	9300      	str	r3, [sp, #0]
 80011b4:	2302      	movs	r3, #2
 80011b6:	2201      	movs	r2, #1
 80011b8:	2100      	movs	r1, #0
 80011ba:	487c      	ldr	r0, [pc, #496]	; (80013ac <SBR1_init+0x250>)
 80011bc:	f001 fd96 	bl	8002cec <qFIS_SetMF>
    qFIS_SetMF( MFin, theta, theta_ZE, trimf, NULL, theta_ZE_p, 1.0f );
 80011c0:	f04f 537e 	mov.w	r3, #1065353216	; 0x3f800000
 80011c4:	9302      	str	r3, [sp, #8]
 80011c6:	4b7b      	ldr	r3, [pc, #492]	; (80013b4 <SBR1_init+0x258>)
 80011c8:	9301      	str	r3, [sp, #4]
 80011ca:	2300      	movs	r3, #0
 80011cc:	9300      	str	r3, [sp, #0]
 80011ce:	2301      	movs	r3, #1
 80011d0:	2202      	movs	r2, #2
 80011d2:	2100      	movs	r1, #0
 80011d4:	4875      	ldr	r0, [pc, #468]	; (80013ac <SBR1_init+0x250>)
 80011d6:	f001 fd89 	bl	8002cec <qFIS_SetMF>
    qFIS_SetMF( MFin, theta, theta_PS, trapmf, NULL, theta_PS_p, 1.0f );
 80011da:	f04f 537e 	mov.w	r3, #1065353216	; 0x3f800000
 80011de:	9302      	str	r3, [sp, #8]
 80011e0:	4b75      	ldr	r3, [pc, #468]	; (80013b8 <SBR1_init+0x25c>)
 80011e2:	9301      	str	r3, [sp, #4]
 80011e4:	2300      	movs	r3, #0
 80011e6:	9300      	str	r3, [sp, #0]
 80011e8:	2302      	movs	r3, #2
 80011ea:	2203      	movs	r2, #3
 80011ec:	2100      	movs	r1, #0
 80011ee:	486f      	ldr	r0, [pc, #444]	; (80013ac <SBR1_init+0x250>)
 80011f0:	f001 fd7c 	bl	8002cec <qFIS_SetMF>
    qFIS_SetMF( MFin, theta, theta_PB, trapmf, NULL, theta_PB_p, 1.0f );
 80011f4:	f04f 537e 	mov.w	r3, #1065353216	; 0x3f800000
 80011f8:	9302      	str	r3, [sp, #8]
 80011fa:	4b70      	ldr	r3, [pc, #448]	; (80013bc <SBR1_init+0x260>)
 80011fc:	9301      	str	r3, [sp, #4]
 80011fe:	2300      	movs	r3, #0
 8001200:	9300      	str	r3, [sp, #0]
 8001202:	2302      	movs	r3, #2
 8001204:	2204      	movs	r2, #4
 8001206:	2100      	movs	r1, #0
 8001208:	4868      	ldr	r0, [pc, #416]	; (80013ac <SBR1_init+0x250>)
 800120a:	f001 fd6f 	bl	8002cec <qFIS_SetMF>
    qFIS_SetMF( MFin, thetadot, thetadot_NB, trimf, NULL, thetadot_NB_p, 1.0f );
 800120e:	f04f 537e 	mov.w	r3, #1065353216	; 0x3f800000
 8001212:	9302      	str	r3, [sp, #8]
 8001214:	4b6a      	ldr	r3, [pc, #424]	; (80013c0 <SBR1_init+0x264>)
 8001216:	9301      	str	r3, [sp, #4]
 8001218:	2300      	movs	r3, #0
 800121a:	9300      	str	r3, [sp, #0]
 800121c:	2301      	movs	r3, #1
 800121e:	2205      	movs	r2, #5
 8001220:	2101      	movs	r1, #1
 8001222:	4862      	ldr	r0, [pc, #392]	; (80013ac <SBR1_init+0x250>)
 8001224:	f001 fd62 	bl	8002cec <qFIS_SetMF>
    qFIS_SetMF( MFin, thetadot, thetadot_NS, trimf, NULL, thetadot_NS_p, 1.0f );
 8001228:	f04f 537e 	mov.w	r3, #1065353216	; 0x3f800000
 800122c:	9302      	str	r3, [sp, #8]
 800122e:	4b65      	ldr	r3, [pc, #404]	; (80013c4 <SBR1_init+0x268>)
 8001230:	9301      	str	r3, [sp, #4]
 8001232:	2300      	movs	r3, #0
 8001234:	9300      	str	r3, [sp, #0]
 8001236:	2301      	movs	r3, #1
 8001238:	2206      	movs	r2, #6
 800123a:	2101      	movs	r1, #1
 800123c:	485b      	ldr	r0, [pc, #364]	; (80013ac <SBR1_init+0x250>)
 800123e:	f001 fd55 	bl	8002cec <qFIS_SetMF>
    qFIS_SetMF( MFin, thetadot, thetadot_ZE, trimf, NULL, thetadot_ZE_p, 1.0f );
 8001242:	f04f 537e 	mov.w	r3, #1065353216	; 0x3f800000
 8001246:	9302      	str	r3, [sp, #8]
 8001248:	4b5f      	ldr	r3, [pc, #380]	; (80013c8 <SBR1_init+0x26c>)
 800124a:	9301      	str	r3, [sp, #4]
 800124c:	2300      	movs	r3, #0
 800124e:	9300      	str	r3, [sp, #0]
 8001250:	2301      	movs	r3, #1
 8001252:	2207      	movs	r2, #7
 8001254:	2101      	movs	r1, #1
 8001256:	4855      	ldr	r0, [pc, #340]	; (80013ac <SBR1_init+0x250>)
 8001258:	f001 fd48 	bl	8002cec <qFIS_SetMF>
    qFIS_SetMF( MFin, thetadot, thetadot_PS, trimf, NULL, thetadot_PS_p, 1.0f );
 800125c:	f04f 537e 	mov.w	r3, #1065353216	; 0x3f800000
 8001260:	9302      	str	r3, [sp, #8]
 8001262:	4b5a      	ldr	r3, [pc, #360]	; (80013cc <SBR1_init+0x270>)
 8001264:	9301      	str	r3, [sp, #4]
 8001266:	2300      	movs	r3, #0
 8001268:	9300      	str	r3, [sp, #0]
 800126a:	2301      	movs	r3, #1
 800126c:	2208      	movs	r2, #8
 800126e:	2101      	movs	r1, #1
 8001270:	484e      	ldr	r0, [pc, #312]	; (80013ac <SBR1_init+0x250>)
 8001272:	f001 fd3b 	bl	8002cec <qFIS_SetMF>
    qFIS_SetMF( MFin, thetadot, thetadot_PB, trimf, NULL, thetadot_PB_p, 1.0f );
 8001276:	f04f 537e 	mov.w	r3, #1065353216	; 0x3f800000
 800127a:	9302      	str	r3, [sp, #8]
 800127c:	4b54      	ldr	r3, [pc, #336]	; (80013d0 <SBR1_init+0x274>)
 800127e:	9301      	str	r3, [sp, #4]
 8001280:	2300      	movs	r3, #0
 8001282:	9300      	str	r3, [sp, #0]
 8001284:	2301      	movs	r3, #1
 8001286:	2209      	movs	r2, #9
 8001288:	2101      	movs	r1, #1
 800128a:	4848      	ldr	r0, [pc, #288]	; (80013ac <SBR1_init+0x250>)
 800128c:	f001 fd2e 	bl	8002cec <qFIS_SetMF>
    /* Set membership functions for the outputs */
    qFIS_SetMF( MFout, u, u_NB, constantmf, NULL, u_NB_p, 1.0f );
 8001290:	f04f 537e 	mov.w	r3, #1065353216	; 0x3f800000
 8001294:	9302      	str	r3, [sp, #8]
 8001296:	4b4f      	ldr	r3, [pc, #316]	; (80013d4 <SBR1_init+0x278>)
 8001298:	9301      	str	r3, [sp, #4]
 800129a:	2300      	movs	r3, #0
 800129c:	9300      	str	r3, [sp, #0]
 800129e:	2313      	movs	r3, #19
 80012a0:	2200      	movs	r2, #0
 80012a2:	2100      	movs	r1, #0
 80012a4:	484c      	ldr	r0, [pc, #304]	; (80013d8 <SBR1_init+0x27c>)
 80012a6:	f001 fd21 	bl	8002cec <qFIS_SetMF>
    qFIS_SetMF( MFout, u, u_NM, constantmf, NULL, u_NM_p, 1.0f );
 80012aa:	f04f 537e 	mov.w	r3, #1065353216	; 0x3f800000
 80012ae:	9302      	str	r3, [sp, #8]
 80012b0:	4b4a      	ldr	r3, [pc, #296]	; (80013dc <SBR1_init+0x280>)
 80012b2:	9301      	str	r3, [sp, #4]
 80012b4:	2300      	movs	r3, #0
 80012b6:	9300      	str	r3, [sp, #0]
 80012b8:	2313      	movs	r3, #19
 80012ba:	2201      	movs	r2, #1
 80012bc:	2100      	movs	r1, #0
 80012be:	4846      	ldr	r0, [pc, #280]	; (80013d8 <SBR1_init+0x27c>)
 80012c0:	f001 fd14 	bl	8002cec <qFIS_SetMF>
    qFIS_SetMF( MFout, u, u_NS, constantmf, NULL, u_NS_p, 1.0f );
 80012c4:	f04f 537e 	mov.w	r3, #1065353216	; 0x3f800000
 80012c8:	9302      	str	r3, [sp, #8]
 80012ca:	4b45      	ldr	r3, [pc, #276]	; (80013e0 <SBR1_init+0x284>)
 80012cc:	9301      	str	r3, [sp, #4]
 80012ce:	2300      	movs	r3, #0
 80012d0:	9300      	str	r3, [sp, #0]
 80012d2:	2313      	movs	r3, #19
 80012d4:	2202      	movs	r2, #2
 80012d6:	2100      	movs	r1, #0
 80012d8:	483f      	ldr	r0, [pc, #252]	; (80013d8 <SBR1_init+0x27c>)
 80012da:	f001 fd07 	bl	8002cec <qFIS_SetMF>
    qFIS_SetMF( MFout, u, u_ZE, constantmf, NULL, u_ZE_p, 1.0f );
 80012de:	f04f 537e 	mov.w	r3, #1065353216	; 0x3f800000
 80012e2:	9302      	str	r3, [sp, #8]
 80012e4:	4b3f      	ldr	r3, [pc, #252]	; (80013e4 <SBR1_init+0x288>)
 80012e6:	9301      	str	r3, [sp, #4]
 80012e8:	2300      	movs	r3, #0
 80012ea:	9300      	str	r3, [sp, #0]
 80012ec:	2313      	movs	r3, #19
 80012ee:	2203      	movs	r2, #3
 80012f0:	2100      	movs	r1, #0
 80012f2:	4839      	ldr	r0, [pc, #228]	; (80013d8 <SBR1_init+0x27c>)
 80012f4:	f001 fcfa 	bl	8002cec <qFIS_SetMF>
    qFIS_SetMF( MFout, u, u_PS, constantmf, NULL, u_PS_p, 1.0f );
 80012f8:	f04f 537e 	mov.w	r3, #1065353216	; 0x3f800000
 80012fc:	9302      	str	r3, [sp, #8]
 80012fe:	4b3a      	ldr	r3, [pc, #232]	; (80013e8 <SBR1_init+0x28c>)
 8001300:	9301      	str	r3, [sp, #4]
 8001302:	2300      	movs	r3, #0
 8001304:	9300      	str	r3, [sp, #0]
 8001306:	2313      	movs	r3, #19
 8001308:	2204      	movs	r2, #4
 800130a:	2100      	movs	r1, #0
 800130c:	4832      	ldr	r0, [pc, #200]	; (80013d8 <SBR1_init+0x27c>)
 800130e:	f001 fced 	bl	8002cec <qFIS_SetMF>
    qFIS_SetMF( MFout, u, u_PM, constantmf, NULL, u_PM_p, 1.0f );
 8001312:	f04f 537e 	mov.w	r3, #1065353216	; 0x3f800000
 8001316:	9302      	str	r3, [sp, #8]
 8001318:	4b34      	ldr	r3, [pc, #208]	; (80013ec <SBR1_init+0x290>)
 800131a:	9301      	str	r3, [sp, #4]
 800131c:	2300      	movs	r3, #0
 800131e:	9300      	str	r3, [sp, #0]
 8001320:	2313      	movs	r3, #19
 8001322:	2205      	movs	r2, #5
 8001324:	2100      	movs	r1, #0
 8001326:	482c      	ldr	r0, [pc, #176]	; (80013d8 <SBR1_init+0x27c>)
 8001328:	f001 fce0 	bl	8002cec <qFIS_SetMF>
    qFIS_SetMF( MFout, u, u_PB, constantmf, NULL, u_PB_p, 1.0f );
 800132c:	f04f 537e 	mov.w	r3, #1065353216	; 0x3f800000
 8001330:	9302      	str	r3, [sp, #8]
 8001332:	4b2f      	ldr	r3, [pc, #188]	; (80013f0 <SBR1_init+0x294>)
 8001334:	9301      	str	r3, [sp, #4]
 8001336:	2300      	movs	r3, #0
 8001338:	9300      	str	r3, [sp, #0]
 800133a:	2313      	movs	r3, #19
 800133c:	2206      	movs	r2, #6
 800133e:	2100      	movs	r1, #0
 8001340:	4825      	ldr	r0, [pc, #148]	; (80013d8 <SBR1_init+0x27c>)
 8001342:	f001 fcd3 	bl	8002cec <qFIS_SetMF>

    /* Configure the Inference System */
    qFIS_Setup( &SBR1, Sugeno,
 8001346:	2319      	movs	r3, #25
 8001348:	9308      	str	r3, [sp, #32]
 800134a:	4b2a      	ldr	r3, [pc, #168]	; (80013f4 <SBR1_init+0x298>)
 800134c:	9307      	str	r3, [sp, #28]
 800134e:	4b2a      	ldr	r3, [pc, #168]	; (80013f8 <SBR1_init+0x29c>)
 8001350:	9306      	str	r3, [sp, #24]
 8001352:	238c      	movs	r3, #140	; 0x8c
 8001354:	9305      	str	r3, [sp, #20]
 8001356:	4b20      	ldr	r3, [pc, #128]	; (80013d8 <SBR1_init+0x27c>)
 8001358:	9304      	str	r3, [sp, #16]
 800135a:	23c8      	movs	r3, #200	; 0xc8
 800135c:	9303      	str	r3, [sp, #12]
 800135e:	4b13      	ldr	r3, [pc, #76]	; (80013ac <SBR1_init+0x250>)
 8001360:	9302      	str	r3, [sp, #8]
 8001362:	2334      	movs	r3, #52	; 0x34
 8001364:	9301      	str	r3, [sp, #4]
 8001366:	4b0f      	ldr	r3, [pc, #60]	; (80013a4 <SBR1_init+0x248>)
 8001368:	9300      	str	r3, [sp, #0]
 800136a:	2318      	movs	r3, #24
 800136c:	4a0c      	ldr	r2, [pc, #48]	; (80013a0 <SBR1_init+0x244>)
 800136e:	2101      	movs	r1, #1
 8001370:	4822      	ldr	r0, [pc, #136]	; (80013fc <SBR1_init+0x2a0>)
 8001372:	f001 fb0f 	bl	8002994 <qFIS_Setup>
                SBR1_inputs, sizeof(SBR1_inputs),
                SBR1_outputs, sizeof(SBR1_outputs),
                MFin, sizeof(MFin), MFout, sizeof(MFout),
                rules, rStrength, 25u );
    qFIS_SetParameter( &SBR1, qFIS_AND, qFIS_PROD );
 8001376:	2201      	movs	r2, #1
 8001378:	2102      	movs	r1, #2
 800137a:	4820      	ldr	r0, [pc, #128]	; (80013fc <SBR1_init+0x2a0>)
 800137c:	f001 fa9a 	bl	80028b4 <qFIS_SetParameter>
    qFIS_SetParameter( &SBR1, qFIS_Implication, qFIS_PROD );
 8001380:	2201      	movs	r2, #1
 8001382:	2100      	movs	r1, #0
 8001384:	481d      	ldr	r0, [pc, #116]	; (80013fc <SBR1_init+0x2a0>)
 8001386:	f001 fa95 	bl	80028b4 <qFIS_SetParameter>
    qFIS_SetParameter( &SBR1, qFIS_Aggregation, qFIS_SUM );
 800138a:	2204      	movs	r2, #4
 800138c:	2101      	movs	r1, #1
 800138e:	481b      	ldr	r0, [pc, #108]	; (80013fc <SBR1_init+0x2a0>)
 8001390:	f001 fa90 	bl	80028b4 <qFIS_SetParameter>
}
 8001394:	bf00      	nop
 8001396:	46bd      	mov	sp, r7
 8001398:	bd80      	pop	{r7, pc}
 800139a:	bf00      	nop
 800139c:	bf800000 	.word	0xbf800000
 80013a0:	20000194 	.word	0x20000194
 80013a4:	200001ac 	.word	0x200001ac
 80013a8:	08009a24 	.word	0x08009a24
 80013ac:	200001e0 	.word	0x200001e0
 80013b0:	08009a34 	.word	0x08009a34
 80013b4:	08009a44 	.word	0x08009a44
 80013b8:	08009a50 	.word	0x08009a50
 80013bc:	08009a60 	.word	0x08009a60
 80013c0:	08009a70 	.word	0x08009a70
 80013c4:	08009a7c 	.word	0x08009a7c
 80013c8:	08009a88 	.word	0x08009a88
 80013cc:	08009a94 	.word	0x08009a94
 80013d0:	08009aa0 	.word	0x08009aa0
 80013d4:	08009aac 	.word	0x08009aac
 80013d8:	200002a8 	.word	0x200002a8
 80013dc:	08009ab0 	.word	0x08009ab0
 80013e0:	08009ab4 	.word	0x08009ab4
 80013e4:	08009ab8 	.word	0x08009ab8
 80013e8:	08009abc 	.word	0x08009abc
 80013ec:	08009ac0 	.word	0x08009ac0
 80013f0:	08009ac4 	.word	0x08009ac4
 80013f4:	20000334 	.word	0x20000334
 80013f8:	08009890 	.word	0x08009890
 80013fc:	20000134 	.word	0x20000134

08001400 <SBR1_run>:

void SBR1_run( float *inputs, float *outputs ) {
 8001400:	b580      	push	{r7, lr}
 8001402:	b082      	sub	sp, #8
 8001404:	af00      	add	r7, sp, #0
 8001406:	6078      	str	r0, [r7, #4]
 8001408:	6039      	str	r1, [r7, #0]
    /* Set the crips inputs */
    qFIS_SetInput( SBR1_inputs, theta, inputs[ theta ] );
 800140a:	687b      	ldr	r3, [r7, #4]
 800140c:	681b      	ldr	r3, [r3, #0]
 800140e:	461a      	mov	r2, r3
 8001410:	2100      	movs	r1, #0
 8001412:	4811      	ldr	r0, [pc, #68]	; (8001458 <SBR1_run+0x58>)
 8001414:	f001 fc2e 	bl	8002c74 <qFIS_SetInput>
    qFIS_SetInput( SBR1_inputs, thetadot, inputs[ thetadot ] );
 8001418:	687b      	ldr	r3, [r7, #4]
 800141a:	3304      	adds	r3, #4
 800141c:	681b      	ldr	r3, [r3, #0]
 800141e:	461a      	mov	r2, r3
 8001420:	2101      	movs	r1, #1
 8001422:	480d      	ldr	r0, [pc, #52]	; (8001458 <SBR1_run+0x58>)
 8001424:	f001 fc26 	bl	8002c74 <qFIS_SetInput>

    qFIS_Fuzzify( &SBR1 );
 8001428:	480c      	ldr	r0, [pc, #48]	; (800145c <SBR1_run+0x5c>)
 800142a:	f001 fd3e 	bl	8002eaa <qFIS_Fuzzify>
    if ( qFIS_Inference( &SBR1 ) > 0 ) {
 800142e:	480b      	ldr	r0, [pc, #44]	; (800145c <SBR1_run+0x5c>)
 8001430:	f002 f96a 	bl	8003708 <qFIS_Inference>
 8001434:	4603      	mov	r3, r0
 8001436:	2b00      	cmp	r3, #0
 8001438:	dd02      	ble.n	8001440 <SBR1_run+0x40>
        qFIS_DeFuzzify( &SBR1 );
 800143a:	4808      	ldr	r0, [pc, #32]	; (800145c <SBR1_run+0x5c>)
 800143c:	f002 f821 	bl	8003482 <qFIS_DeFuzzify>
    else {
        /* Error! */
    }

    /* Get the crips outputs */
    outputs[ u ] = qFIS_GetOutput( SBR1_outputs, u );
 8001440:	2100      	movs	r1, #0
 8001442:	4807      	ldr	r0, [pc, #28]	; (8001460 <SBR1_run+0x60>)
 8001444:	f001 fc36 	bl	8002cb4 <qFIS_GetOutput>
 8001448:	4602      	mov	r2, r0
 800144a:	683b      	ldr	r3, [r7, #0]
 800144c:	601a      	str	r2, [r3, #0]
}
 800144e:	bf00      	nop
 8001450:	3708      	adds	r7, #8
 8001452:	46bd      	mov	sp, r7
 8001454:	bd80      	pop	{r7, pc}
 8001456:	bf00      	nop
 8001458:	20000194 	.word	0x20000194
 800145c:	20000134 	.word	0x20000134
 8001460:	200001ac 	.word	0x200001ac

08001464 <HAL_TIM_PeriodElapsedCallback>:
/* USER CODE END PFP */

/* Private user code ---------------------------------------------------------*/
/* USER CODE BEGIN 0 */
void HAL_TIM_PeriodElapsedCallback(TIM_HandleTypeDef *htim) // timer1 interrupted 10 ms
{
 8001464:	b480      	push	{r7}
 8001466:	b083      	sub	sp, #12
 8001468:	af00      	add	r7, sp, #0
 800146a:	6078      	str	r0, [r7, #4]
	if(htim->Instance==TIM1)
 800146c:	687b      	ldr	r3, [r7, #4]
 800146e:	681b      	ldr	r3, [r3, #0]
 8001470:	4a05      	ldr	r2, [pc, #20]	; (8001488 <HAL_TIM_PeriodElapsedCallback+0x24>)
 8001472:	4293      	cmp	r3, r2
 8001474:	d102      	bne.n	800147c <HAL_TIM_PeriodElapsedCallback+0x18>
	{
		u8_flag_10ms = 1;
 8001476:	4b05      	ldr	r3, [pc, #20]	; (800148c <HAL_TIM_PeriodElapsedCallback+0x28>)
 8001478:	2201      	movs	r2, #1
 800147a:	701a      	strb	r2, [r3, #0]
	}
}
 800147c:	bf00      	nop
 800147e:	370c      	adds	r7, #12
 8001480:	46bd      	mov	sp, r7
 8001482:	bc80      	pop	{r7}
 8001484:	4770      	bx	lr
 8001486:	bf00      	nop
 8001488:	40012c00 	.word	0x40012c00
 800148c:	20000568 	.word	0x20000568

08001490 <main>:
/**
  * @brief  The application entry point.
  * @retval int
  */
int main(void)
{
 8001490:	b5b0      	push	{r4, r5, r7, lr}
 8001492:	b088      	sub	sp, #32
 8001494:	af04      	add	r7, sp, #16
  /* USER CODE END 1 */

  /* MCU Configuration--------------------------------------------------------*/

  /* Reset of all peripherals, Initializes the Flash interface and the Systick. */
  HAL_Init();
 8001496:	f003 fc25 	bl	8004ce4 <HAL_Init>

  /* USER CODE BEGIN Init */
	 SBR1_init();
 800149a:	f7ff fe5f 	bl	800115c <SBR1_init>
  /* USER CODE END Init */

  /* Configure the system clock */
  SystemClock_Config();
 800149e:	f000 f8c5 	bl	800162c <SystemClock_Config>
  /* USER CODE BEGIN SysInit */

  /* USER CODE END SysInit */

  /* Initialize all configured peripherals */
  MX_GPIO_Init();
 80014a2:	f000 fa6f 	bl	8001984 <MX_GPIO_Init>
  MX_I2C1_Init();
 80014a6:	f000 f8fd 	bl	80016a4 <MX_I2C1_Init>
  MX_TIM1_Init();
 80014aa:	f000 f929 	bl	8001700 <MX_TIM1_Init>
  MX_TIM3_Init();
 80014ae:	f000 f977 	bl	80017a0 <MX_TIM3_Init>
  MX_TIM4_Init();
 80014b2:	f000 f9d9 	bl	8001868 <MX_TIM4_Init>
  MX_USART1_UART_Init();
 80014b6:	f000 fa3b 	bl	8001930 <MX_USART1_UART_Init>
  /* USER CODE BEGIN 2 */
  HAL_TIM_Base_Start_IT(&htim1);
 80014ba:	484f      	ldr	r0, [pc, #316]	; (80015f8 <main+0x168>)
 80014bc:	f005 fc8a 	bl	8006dd4 <HAL_TIM_Base_Start_IT>
  Init_tim_pwm();
 80014c0:	f000 fb30 	bl	8001b24 <Init_tim_pwm>

  while (MPU6050_Init(&hi2c1) == 1); // if mpu6050 identified, mcu will escape while loop
 80014c4:	bf00      	nop
 80014c6:	484d      	ldr	r0, [pc, #308]	; (80015fc <main+0x16c>)
 80014c8:	f000 fc42 	bl	8001d50 <MPU6050_Init>
 80014cc:	4603      	mov	r3, r0
 80014ce:	2b01      	cmp	r3, #1
 80014d0:	d0f9      	beq.n	80014c6 <main+0x36>
//		  int theta_dot = t_MPU6050.Gy* RAD_TO_DEG*1000.0;
//		  int uk = t_fuzzy.f_out_fuzzy;
//		  sprintf(data,FRAME,SIGN(theta),ABS(theta),SIGN(theta_dot),ABS(theta_dot),SIGN(uk),ABS(uk));
//		  HAL_UART_Transmit(&huart1,(uint8_t*)data, strlen(data), 5);
//	  }
	  if (u8_flag_10ms)
 80014d2:	4b4b      	ldr	r3, [pc, #300]	; (8001600 <main+0x170>)
 80014d4:	781b      	ldrb	r3, [r3, #0]
 80014d6:	2b00      	cmp	r3, #0
 80014d8:	d0fb      	beq.n	80014d2 <main+0x42>
	  {
		  u8_flag_10ms = 0;
 80014da:	4b49      	ldr	r3, [pc, #292]	; (8001600 <main+0x170>)
 80014dc:	2200      	movs	r2, #0
 80014de:	701a      	strb	r2, [r3, #0]
		  //parameters after Kalman filter
		  MPU6050_Read_All(&hi2c1,&t_MPU6050);
 80014e0:	4948      	ldr	r1, [pc, #288]	; (8001604 <main+0x174>)
 80014e2:	4846      	ldr	r0, [pc, #280]	; (80015fc <main+0x16c>)
 80014e4:	f000 fc8c 	bl	8001e00 <MPU6050_Read_All>
		  // variable_view is used to see value in debug process
		  variable_view_theta = t_MPU6050.KalmanAngleY;
 80014e8:	4b46      	ldr	r3, [pc, #280]	; (8001604 <main+0x174>)
 80014ea:	e9d3 2314 	ldrd	r2, r3, [r3, #80]	; 0x50
 80014ee:	4946      	ldr	r1, [pc, #280]	; (8001608 <main+0x178>)
 80014f0:	e9c1 2300 	strd	r2, r3, [r1]
		  variable_view_theta_dot =  t_MPU6050.Gy;
 80014f4:	4b43      	ldr	r3, [pc, #268]	; (8001604 <main+0x174>)
 80014f6:	e9d3 230c 	ldrd	r2, r3, [r3, #48]	; 0x30
 80014fa:	4944      	ldr	r1, [pc, #272]	; (800160c <main+0x17c>)
 80014fc:	e9c1 2300 	strd	r2, r3, [r1]
		  Controller (t_MPU6050.KalmanAngleY, t_MPU6050.Gy* RAD_TO_DEG, &t_fuzzy);
 8001500:	4b40      	ldr	r3, [pc, #256]	; (8001604 <main+0x174>)
 8001502:	e9d3 4514 	ldrd	r4, r5, [r3, #80]	; 0x50
 8001506:	4b3f      	ldr	r3, [pc, #252]	; (8001604 <main+0x174>)
 8001508:	e9d3 010c 	ldrd	r0, r1, [r3, #48]	; 0x30
 800150c:	a338      	add	r3, pc, #224	; (adr r3, 80015f0 <main+0x160>)
 800150e:	e9d3 2300 	ldrd	r2, r3, [r3]
 8001512:	f7fe ffe1 	bl	80004d8 <__aeabi_dmul>
 8001516:	4602      	mov	r2, r0
 8001518:	460b      	mov	r3, r1
 800151a:	493d      	ldr	r1, [pc, #244]	; (8001610 <main+0x180>)
 800151c:	9100      	str	r1, [sp, #0]
 800151e:	4620      	mov	r0, r4
 8001520:	4629      	mov	r1, r5
 8001522:	f000 fb7d 	bl	8001c20 <Controller>
		  int theta = t_MPU6050.KalmanAngleY*1000.0;
 8001526:	4b37      	ldr	r3, [pc, #220]	; (8001604 <main+0x174>)
 8001528:	e9d3 0114 	ldrd	r0, r1, [r3, #80]	; 0x50
 800152c:	f04f 0200 	mov.w	r2, #0
 8001530:	4b38      	ldr	r3, [pc, #224]	; (8001614 <main+0x184>)
 8001532:	f7fe ffd1 	bl	80004d8 <__aeabi_dmul>
 8001536:	4602      	mov	r2, r0
 8001538:	460b      	mov	r3, r1
 800153a:	4610      	mov	r0, r2
 800153c:	4619      	mov	r1, r3
 800153e:	f7ff fa7b 	bl	8000a38 <__aeabi_d2iz>
 8001542:	4603      	mov	r3, r0
 8001544:	60fb      	str	r3, [r7, #12]
		  int theta_dot = t_MPU6050.Gy* RAD_TO_DEG*1000.0;
 8001546:	4b2f      	ldr	r3, [pc, #188]	; (8001604 <main+0x174>)
 8001548:	e9d3 010c 	ldrd	r0, r1, [r3, #48]	; 0x30
 800154c:	a328      	add	r3, pc, #160	; (adr r3, 80015f0 <main+0x160>)
 800154e:	e9d3 2300 	ldrd	r2, r3, [r3]
 8001552:	f7fe ffc1 	bl	80004d8 <__aeabi_dmul>
 8001556:	4602      	mov	r2, r0
 8001558:	460b      	mov	r3, r1
 800155a:	4610      	mov	r0, r2
 800155c:	4619      	mov	r1, r3
 800155e:	f04f 0200 	mov.w	r2, #0
 8001562:	4b2c      	ldr	r3, [pc, #176]	; (8001614 <main+0x184>)
 8001564:	f7fe ffb8 	bl	80004d8 <__aeabi_dmul>
 8001568:	4602      	mov	r2, r0
 800156a:	460b      	mov	r3, r1
 800156c:	4610      	mov	r0, r2
 800156e:	4619      	mov	r1, r3
 8001570:	f7ff fa62 	bl	8000a38 <__aeabi_d2iz>
 8001574:	4603      	mov	r3, r0
 8001576:	60bb      	str	r3, [r7, #8]
		  int uk = t_fuzzy.f_out_fuzzy;
 8001578:	4b25      	ldr	r3, [pc, #148]	; (8001610 <main+0x180>)
 800157a:	689b      	ldr	r3, [r3, #8]
 800157c:	4618      	mov	r0, r3
 800157e:	f7ff fda7 	bl	80010d0 <__aeabi_f2iz>
 8001582:	4603      	mov	r3, r0
 8001584:	607b      	str	r3, [r7, #4]
		  sprintf(data,FRAME,SIGN(theta),ABS(theta),SIGN(theta_dot),ABS(theta_dot),SIGN(uk),ABS(uk));
 8001586:	68fb      	ldr	r3, [r7, #12]
 8001588:	2b00      	cmp	r3, #0
 800158a:	db01      	blt.n	8001590 <main+0x100>
 800158c:	4c22      	ldr	r4, [pc, #136]	; (8001618 <main+0x188>)
 800158e:	e000      	b.n	8001592 <main+0x102>
 8001590:	4c22      	ldr	r4, [pc, #136]	; (800161c <main+0x18c>)
 8001592:	68fb      	ldr	r3, [r7, #12]
 8001594:	ea83 75e3 	eor.w	r5, r3, r3, asr #31
 8001598:	eba5 75e3 	sub.w	r5, r5, r3, asr #31
 800159c:	68bb      	ldr	r3, [r7, #8]
 800159e:	2b00      	cmp	r3, #0
 80015a0:	db01      	blt.n	80015a6 <main+0x116>
 80015a2:	4b1d      	ldr	r3, [pc, #116]	; (8001618 <main+0x188>)
 80015a4:	e000      	b.n	80015a8 <main+0x118>
 80015a6:	4b1d      	ldr	r3, [pc, #116]	; (800161c <main+0x18c>)
 80015a8:	68ba      	ldr	r2, [r7, #8]
 80015aa:	2a00      	cmp	r2, #0
 80015ac:	bfb8      	it	lt
 80015ae:	4252      	neglt	r2, r2
 80015b0:	6879      	ldr	r1, [r7, #4]
 80015b2:	2900      	cmp	r1, #0
 80015b4:	db01      	blt.n	80015ba <main+0x12a>
 80015b6:	4918      	ldr	r1, [pc, #96]	; (8001618 <main+0x188>)
 80015b8:	e000      	b.n	80015bc <main+0x12c>
 80015ba:	4918      	ldr	r1, [pc, #96]	; (800161c <main+0x18c>)
 80015bc:	6878      	ldr	r0, [r7, #4]
 80015be:	2800      	cmp	r0, #0
 80015c0:	bfb8      	it	lt
 80015c2:	4240      	neglt	r0, r0
 80015c4:	9003      	str	r0, [sp, #12]
 80015c6:	9102      	str	r1, [sp, #8]
 80015c8:	9201      	str	r2, [sp, #4]
 80015ca:	9300      	str	r3, [sp, #0]
 80015cc:	462b      	mov	r3, r5
 80015ce:	4622      	mov	r2, r4
 80015d0:	4913      	ldr	r1, [pc, #76]	; (8001620 <main+0x190>)
 80015d2:	4814      	ldr	r0, [pc, #80]	; (8001624 <main+0x194>)
 80015d4:	f007 f930 	bl	8008838 <siprintf>
		  HAL_UART_Transmit(&huart1,(uint8_t*)data, strlen(data), 5);
 80015d8:	4812      	ldr	r0, [pc, #72]	; (8001624 <main+0x194>)
 80015da:	f7fe fdb9 	bl	8000150 <strlen>
 80015de:	4603      	mov	r3, r0
 80015e0:	b29a      	uxth	r2, r3
 80015e2:	2305      	movs	r3, #5
 80015e4:	490f      	ldr	r1, [pc, #60]	; (8001624 <main+0x194>)
 80015e6:	4810      	ldr	r0, [pc, #64]	; (8001628 <main+0x198>)
 80015e8:	f006 fb52 	bl	8007c90 <HAL_UART_Transmit>
	  if (u8_flag_10ms)
 80015ec:	e771      	b.n	80014d2 <main+0x42>
 80015ee:	bf00      	nop
 80015f0:	1a63c1f8 	.word	0x1a63c1f8
 80015f4:	404ca5dc 	.word	0x404ca5dc
 80015f8:	200003ec 	.word	0x200003ec
 80015fc:	20000398 	.word	0x20000398
 8001600:	20000568 	.word	0x20000568
 8001604:	20000510 	.word	0x20000510
 8001608:	200005d0 	.word	0x200005d0
 800160c:	200005d8 	.word	0x200005d8
 8001610:	20000000 	.word	0x20000000
 8001614:	408f4000 	.word	0x408f4000
 8001618:	08009870 	.word	0x08009870
 800161c:	08009874 	.word	0x08009874
 8001620:	08009878 	.word	0x08009878
 8001624:	2000056c 	.word	0x2000056c
 8001628:	200004c4 	.word	0x200004c4

0800162c <SystemClock_Config>:
/**
  * @brief System Clock Configuration
  * @retval None
  */
void SystemClock_Config(void)
{
 800162c:	b580      	push	{r7, lr}
 800162e:	b090      	sub	sp, #64	; 0x40
 8001630:	af00      	add	r7, sp, #0
  RCC_OscInitTypeDef RCC_OscInitStruct = {0};
 8001632:	f107 0318 	add.w	r3, r7, #24
 8001636:	2228      	movs	r2, #40	; 0x28
 8001638:	2100      	movs	r1, #0
 800163a:	4618      	mov	r0, r3
 800163c:	f007 f91c 	bl	8008878 <memset>
  RCC_ClkInitTypeDef RCC_ClkInitStruct = {0};
 8001640:	1d3b      	adds	r3, r7, #4
 8001642:	2200      	movs	r2, #0
 8001644:	601a      	str	r2, [r3, #0]
 8001646:	605a      	str	r2, [r3, #4]
 8001648:	609a      	str	r2, [r3, #8]
 800164a:	60da      	str	r2, [r3, #12]
 800164c:	611a      	str	r2, [r3, #16]

  /** Initializes the RCC Oscillators according to the specified parameters
  * in the RCC_OscInitTypeDef structure.
  */
  RCC_OscInitStruct.OscillatorType = RCC_OSCILLATORTYPE_HSI;
 800164e:	2302      	movs	r3, #2
 8001650:	61bb      	str	r3, [r7, #24]
  RCC_OscInitStruct.HSIState = RCC_HSI_ON;
 8001652:	2301      	movs	r3, #1
 8001654:	62bb      	str	r3, [r7, #40]	; 0x28
  RCC_OscInitStruct.HSICalibrationValue = RCC_HSICALIBRATION_DEFAULT;
 8001656:	2310      	movs	r3, #16
 8001658:	62fb      	str	r3, [r7, #44]	; 0x2c
  RCC_OscInitStruct.PLL.PLLState = RCC_PLL_NONE;
 800165a:	2300      	movs	r3, #0
 800165c:	637b      	str	r3, [r7, #52]	; 0x34
  if (HAL_RCC_OscConfig(&RCC_OscInitStruct) != HAL_OK)
 800165e:	f107 0318 	add.w	r3, r7, #24
 8001662:	4618      	mov	r0, r3
 8001664:	f004 ff56 	bl	8006514 <HAL_RCC_OscConfig>
 8001668:	4603      	mov	r3, r0
 800166a:	2b00      	cmp	r3, #0
 800166c:	d001      	beq.n	8001672 <SystemClock_Config+0x46>
  {
    Error_Handler();
 800166e:	f000 f9f5 	bl	8001a5c <Error_Handler>
  }

  /** Initializes the CPU, AHB and APB buses clocks
  */
  RCC_ClkInitStruct.ClockType = RCC_CLOCKTYPE_HCLK|RCC_CLOCKTYPE_SYSCLK
 8001672:	230f      	movs	r3, #15
 8001674:	607b      	str	r3, [r7, #4]
                              |RCC_CLOCKTYPE_PCLK1|RCC_CLOCKTYPE_PCLK2;
  RCC_ClkInitStruct.SYSCLKSource = RCC_SYSCLKSOURCE_HSI;
 8001676:	2300      	movs	r3, #0
 8001678:	60bb      	str	r3, [r7, #8]
  RCC_ClkInitStruct.AHBCLKDivider = RCC_SYSCLK_DIV1;
 800167a:	2300      	movs	r3, #0
 800167c:	60fb      	str	r3, [r7, #12]
  RCC_ClkInitStruct.APB1CLKDivider = RCC_HCLK_DIV1;
 800167e:	2300      	movs	r3, #0
 8001680:	613b      	str	r3, [r7, #16]
  RCC_ClkInitStruct.APB2CLKDivider = RCC_HCLK_DIV1;
 8001682:	2300      	movs	r3, #0
 8001684:	617b      	str	r3, [r7, #20]

  if (HAL_RCC_ClockConfig(&RCC_ClkInitStruct, FLASH_LATENCY_0) != HAL_OK)
 8001686:	1d3b      	adds	r3, r7, #4
 8001688:	2100      	movs	r1, #0
 800168a:	4618      	mov	r0, r3
 800168c:	f005 f9c4 	bl	8006a18 <HAL_RCC_ClockConfig>
 8001690:	4603      	mov	r3, r0
 8001692:	2b00      	cmp	r3, #0
 8001694:	d001      	beq.n	800169a <SystemClock_Config+0x6e>
  {
    Error_Handler();
 8001696:	f000 f9e1 	bl	8001a5c <Error_Handler>
  }
}
 800169a:	bf00      	nop
 800169c:	3740      	adds	r7, #64	; 0x40
 800169e:	46bd      	mov	sp, r7
 80016a0:	bd80      	pop	{r7, pc}
	...

080016a4 <MX_I2C1_Init>:
  * @brief I2C1 Initialization Function
  * @param None
  * @retval None
  */
static void MX_I2C1_Init(void)
{
 80016a4:	b580      	push	{r7, lr}
 80016a6:	af00      	add	r7, sp, #0
  /* USER CODE END I2C1_Init 0 */

  /* USER CODE BEGIN I2C1_Init 1 */

  /* USER CODE END I2C1_Init 1 */
  hi2c1.Instance = I2C1;
 80016a8:	4b12      	ldr	r3, [pc, #72]	; (80016f4 <MX_I2C1_Init+0x50>)
 80016aa:	4a13      	ldr	r2, [pc, #76]	; (80016f8 <MX_I2C1_Init+0x54>)
 80016ac:	601a      	str	r2, [r3, #0]
  hi2c1.Init.ClockSpeed = 100000;
 80016ae:	4b11      	ldr	r3, [pc, #68]	; (80016f4 <MX_I2C1_Init+0x50>)
 80016b0:	4a12      	ldr	r2, [pc, #72]	; (80016fc <MX_I2C1_Init+0x58>)
 80016b2:	605a      	str	r2, [r3, #4]
  hi2c1.Init.DutyCycle = I2C_DUTYCYCLE_2;
 80016b4:	4b0f      	ldr	r3, [pc, #60]	; (80016f4 <MX_I2C1_Init+0x50>)
 80016b6:	2200      	movs	r2, #0
 80016b8:	609a      	str	r2, [r3, #8]
  hi2c1.Init.OwnAddress1 = 0;
 80016ba:	4b0e      	ldr	r3, [pc, #56]	; (80016f4 <MX_I2C1_Init+0x50>)
 80016bc:	2200      	movs	r2, #0
 80016be:	60da      	str	r2, [r3, #12]
  hi2c1.Init.AddressingMode = I2C_ADDRESSINGMODE_7BIT;
 80016c0:	4b0c      	ldr	r3, [pc, #48]	; (80016f4 <MX_I2C1_Init+0x50>)
 80016c2:	f44f 4280 	mov.w	r2, #16384	; 0x4000
 80016c6:	611a      	str	r2, [r3, #16]
  hi2c1.Init.DualAddressMode = I2C_DUALADDRESS_DISABLE;
 80016c8:	4b0a      	ldr	r3, [pc, #40]	; (80016f4 <MX_I2C1_Init+0x50>)
 80016ca:	2200      	movs	r2, #0
 80016cc:	615a      	str	r2, [r3, #20]
  hi2c1.Init.OwnAddress2 = 0;
 80016ce:	4b09      	ldr	r3, [pc, #36]	; (80016f4 <MX_I2C1_Init+0x50>)
 80016d0:	2200      	movs	r2, #0
 80016d2:	619a      	str	r2, [r3, #24]
  hi2c1.Init.GeneralCallMode = I2C_GENERALCALL_DISABLE;
 80016d4:	4b07      	ldr	r3, [pc, #28]	; (80016f4 <MX_I2C1_Init+0x50>)
 80016d6:	2200      	movs	r2, #0
 80016d8:	61da      	str	r2, [r3, #28]
  hi2c1.Init.NoStretchMode = I2C_NOSTRETCH_DISABLE;
 80016da:	4b06      	ldr	r3, [pc, #24]	; (80016f4 <MX_I2C1_Init+0x50>)
 80016dc:	2200      	movs	r2, #0
 80016de:	621a      	str	r2, [r3, #32]
  if (HAL_I2C_Init(&hi2c1) != HAL_OK)
 80016e0:	4804      	ldr	r0, [pc, #16]	; (80016f4 <MX_I2C1_Init+0x50>)
 80016e2:	f003 febd 	bl	8005460 <HAL_I2C_Init>
 80016e6:	4603      	mov	r3, r0
 80016e8:	2b00      	cmp	r3, #0
 80016ea:	d001      	beq.n	80016f0 <MX_I2C1_Init+0x4c>
  {
    Error_Handler();
 80016ec:	f000 f9b6 	bl	8001a5c <Error_Handler>
  }
  /* USER CODE BEGIN I2C1_Init 2 */

  /* USER CODE END I2C1_Init 2 */

}
 80016f0:	bf00      	nop
 80016f2:	bd80      	pop	{r7, pc}
 80016f4:	20000398 	.word	0x20000398
 80016f8:	40005400 	.word	0x40005400
 80016fc:	000186a0 	.word	0x000186a0

08001700 <MX_TIM1_Init>:
  * @brief TIM1 Initialization Function
  * @param None
  * @retval None
  */
static void MX_TIM1_Init(void)
{
 8001700:	b580      	push	{r7, lr}
 8001702:	b086      	sub	sp, #24
 8001704:	af00      	add	r7, sp, #0

  /* USER CODE BEGIN TIM1_Init 0 */

  /* USER CODE END TIM1_Init 0 */

  TIM_ClockConfigTypeDef sClockSourceConfig = {0};
 8001706:	f107 0308 	add.w	r3, r7, #8
 800170a:	2200      	movs	r2, #0
 800170c:	601a      	str	r2, [r3, #0]
 800170e:	605a      	str	r2, [r3, #4]
 8001710:	609a      	str	r2, [r3, #8]
 8001712:	60da      	str	r2, [r3, #12]
  TIM_MasterConfigTypeDef sMasterConfig = {0};
 8001714:	463b      	mov	r3, r7
 8001716:	2200      	movs	r2, #0
 8001718:	601a      	str	r2, [r3, #0]
 800171a:	605a      	str	r2, [r3, #4]

  /* USER CODE BEGIN TIM1_Init 1 */

  /* USER CODE END TIM1_Init 1 */
  htim1.Instance = TIM1;
 800171c:	4b1e      	ldr	r3, [pc, #120]	; (8001798 <MX_TIM1_Init+0x98>)
 800171e:	4a1f      	ldr	r2, [pc, #124]	; (800179c <MX_TIM1_Init+0x9c>)
 8001720:	601a      	str	r2, [r3, #0]
  htim1.Init.Prescaler = 799;
 8001722:	4b1d      	ldr	r3, [pc, #116]	; (8001798 <MX_TIM1_Init+0x98>)
 8001724:	f240 321f 	movw	r2, #799	; 0x31f
 8001728:	605a      	str	r2, [r3, #4]
  htim1.Init.CounterMode = TIM_COUNTERMODE_UP;
 800172a:	4b1b      	ldr	r3, [pc, #108]	; (8001798 <MX_TIM1_Init+0x98>)
 800172c:	2200      	movs	r2, #0
 800172e:	609a      	str	r2, [r3, #8]
  htim1.Init.Period = 99;
 8001730:	4b19      	ldr	r3, [pc, #100]	; (8001798 <MX_TIM1_Init+0x98>)
 8001732:	2263      	movs	r2, #99	; 0x63
 8001734:	60da      	str	r2, [r3, #12]
  htim1.Init.ClockDivision = TIM_CLOCKDIVISION_DIV1;
 8001736:	4b18      	ldr	r3, [pc, #96]	; (8001798 <MX_TIM1_Init+0x98>)
 8001738:	2200      	movs	r2, #0
 800173a:	611a      	str	r2, [r3, #16]
  htim1.Init.RepetitionCounter = 0;
 800173c:	4b16      	ldr	r3, [pc, #88]	; (8001798 <MX_TIM1_Init+0x98>)
 800173e:	2200      	movs	r2, #0
 8001740:	615a      	str	r2, [r3, #20]
  htim1.Init.AutoReloadPreload = TIM_AUTORELOAD_PRELOAD_DISABLE;
 8001742:	4b15      	ldr	r3, [pc, #84]	; (8001798 <MX_TIM1_Init+0x98>)
 8001744:	2200      	movs	r2, #0
 8001746:	619a      	str	r2, [r3, #24]
  if (HAL_TIM_Base_Init(&htim1) != HAL_OK)
 8001748:	4813      	ldr	r0, [pc, #76]	; (8001798 <MX_TIM1_Init+0x98>)
 800174a:	f005 faf3 	bl	8006d34 <HAL_TIM_Base_Init>
 800174e:	4603      	mov	r3, r0
 8001750:	2b00      	cmp	r3, #0
 8001752:	d001      	beq.n	8001758 <MX_TIM1_Init+0x58>
  {
    Error_Handler();
 8001754:	f000 f982 	bl	8001a5c <Error_Handler>
  }
  sClockSourceConfig.ClockSource = TIM_CLOCKSOURCE_INTERNAL;
 8001758:	f44f 5380 	mov.w	r3, #4096	; 0x1000
 800175c:	60bb      	str	r3, [r7, #8]
  if (HAL_TIM_ConfigClockSource(&htim1, &sClockSourceConfig) != HAL_OK)
 800175e:	f107 0308 	add.w	r3, r7, #8
 8001762:	4619      	mov	r1, r3
 8001764:	480c      	ldr	r0, [pc, #48]	; (8001798 <MX_TIM1_Init+0x98>)
 8001766:	f005 fe43 	bl	80073f0 <HAL_TIM_ConfigClockSource>
 800176a:	4603      	mov	r3, r0
 800176c:	2b00      	cmp	r3, #0
 800176e:	d001      	beq.n	8001774 <MX_TIM1_Init+0x74>
  {
    Error_Handler();
 8001770:	f000 f974 	bl	8001a5c <Error_Handler>
  }
  sMasterConfig.MasterOutputTrigger = TIM_TRGO_RESET;
 8001774:	2300      	movs	r3, #0
 8001776:	603b      	str	r3, [r7, #0]
  sMasterConfig.MasterSlaveMode = TIM_MASTERSLAVEMODE_DISABLE;
 8001778:	2300      	movs	r3, #0
 800177a:	607b      	str	r3, [r7, #4]
  if (HAL_TIMEx_MasterConfigSynchronization(&htim1, &sMasterConfig) != HAL_OK)
 800177c:	463b      	mov	r3, r7
 800177e:	4619      	mov	r1, r3
 8001780:	4805      	ldr	r0, [pc, #20]	; (8001798 <MX_TIM1_Init+0x98>)
 8001782:	f006 f9c5 	bl	8007b10 <HAL_TIMEx_MasterConfigSynchronization>
 8001786:	4603      	mov	r3, r0
 8001788:	2b00      	cmp	r3, #0
 800178a:	d001      	beq.n	8001790 <MX_TIM1_Init+0x90>
  {
    Error_Handler();
 800178c:	f000 f966 	bl	8001a5c <Error_Handler>
  }
  /* USER CODE BEGIN TIM1_Init 2 */

  /* USER CODE END TIM1_Init 2 */

}
 8001790:	bf00      	nop
 8001792:	3718      	adds	r7, #24
 8001794:	46bd      	mov	sp, r7
 8001796:	bd80      	pop	{r7, pc}
 8001798:	200003ec 	.word	0x200003ec
 800179c:	40012c00 	.word	0x40012c00

080017a0 <MX_TIM3_Init>:
  * @brief TIM3 Initialization Function
  * @param None
  * @retval None
  */
static void MX_TIM3_Init(void)
{
 80017a0:	b580      	push	{r7, lr}
 80017a2:	b08a      	sub	sp, #40	; 0x28
 80017a4:	af00      	add	r7, sp, #0

  /* USER CODE BEGIN TIM3_Init 0 */

  /* USER CODE END TIM3_Init 0 */

  TIM_MasterConfigTypeDef sMasterConfig = {0};
 80017a6:	f107 0320 	add.w	r3, r7, #32
 80017aa:	2200      	movs	r2, #0
 80017ac:	601a      	str	r2, [r3, #0]
 80017ae:	605a      	str	r2, [r3, #4]
  TIM_OC_InitTypeDef sConfigOC = {0};
 80017b0:	1d3b      	adds	r3, r7, #4
 80017b2:	2200      	movs	r2, #0
 80017b4:	601a      	str	r2, [r3, #0]
 80017b6:	605a      	str	r2, [r3, #4]
 80017b8:	609a      	str	r2, [r3, #8]
 80017ba:	60da      	str	r2, [r3, #12]
 80017bc:	611a      	str	r2, [r3, #16]
 80017be:	615a      	str	r2, [r3, #20]
 80017c0:	619a      	str	r2, [r3, #24]

  /* USER CODE BEGIN TIM3_Init 1 */

  /* USER CODE END TIM3_Init 1 */
  htim3.Instance = TIM3;
 80017c2:	4b27      	ldr	r3, [pc, #156]	; (8001860 <MX_TIM3_Init+0xc0>)
 80017c4:	4a27      	ldr	r2, [pc, #156]	; (8001864 <MX_TIM3_Init+0xc4>)
 80017c6:	601a      	str	r2, [r3, #0]
  htim3.Init.Prescaler = 79;
 80017c8:	4b25      	ldr	r3, [pc, #148]	; (8001860 <MX_TIM3_Init+0xc0>)
 80017ca:	224f      	movs	r2, #79	; 0x4f
 80017cc:	605a      	str	r2, [r3, #4]
  htim3.Init.CounterMode = TIM_COUNTERMODE_UP;
 80017ce:	4b24      	ldr	r3, [pc, #144]	; (8001860 <MX_TIM3_Init+0xc0>)
 80017d0:	2200      	movs	r2, #0
 80017d2:	609a      	str	r2, [r3, #8]
  htim3.Init.Period = 1999;
 80017d4:	4b22      	ldr	r3, [pc, #136]	; (8001860 <MX_TIM3_Init+0xc0>)
 80017d6:	f240 72cf 	movw	r2, #1999	; 0x7cf
 80017da:	60da      	str	r2, [r3, #12]
  htim3.Init.ClockDivision = TIM_CLOCKDIVISION_DIV1;
 80017dc:	4b20      	ldr	r3, [pc, #128]	; (8001860 <MX_TIM3_Init+0xc0>)
 80017de:	2200      	movs	r2, #0
 80017e0:	611a      	str	r2, [r3, #16]
  htim3.Init.AutoReloadPreload = TIM_AUTORELOAD_PRELOAD_DISABLE;
 80017e2:	4b1f      	ldr	r3, [pc, #124]	; (8001860 <MX_TIM3_Init+0xc0>)
 80017e4:	2200      	movs	r2, #0
 80017e6:	619a      	str	r2, [r3, #24]
  if (HAL_TIM_PWM_Init(&htim3) != HAL_OK)
 80017e8:	481d      	ldr	r0, [pc, #116]	; (8001860 <MX_TIM3_Init+0xc0>)
 80017ea:	f005 fb45 	bl	8006e78 <HAL_TIM_PWM_Init>
 80017ee:	4603      	mov	r3, r0
 80017f0:	2b00      	cmp	r3, #0
 80017f2:	d001      	beq.n	80017f8 <MX_TIM3_Init+0x58>
  {
    Error_Handler();
 80017f4:	f000 f932 	bl	8001a5c <Error_Handler>
  }
  sMasterConfig.MasterOutputTrigger = TIM_TRGO_RESET;
 80017f8:	2300      	movs	r3, #0
 80017fa:	623b      	str	r3, [r7, #32]
  sMasterConfig.MasterSlaveMode = TIM_MASTERSLAVEMODE_DISABLE;
 80017fc:	2300      	movs	r3, #0
 80017fe:	627b      	str	r3, [r7, #36]	; 0x24
  if (HAL_TIMEx_MasterConfigSynchronization(&htim3, &sMasterConfig) != HAL_OK)
 8001800:	f107 0320 	add.w	r3, r7, #32
 8001804:	4619      	mov	r1, r3
 8001806:	4816      	ldr	r0, [pc, #88]	; (8001860 <MX_TIM3_Init+0xc0>)
 8001808:	f006 f982 	bl	8007b10 <HAL_TIMEx_MasterConfigSynchronization>
 800180c:	4603      	mov	r3, r0
 800180e:	2b00      	cmp	r3, #0
 8001810:	d001      	beq.n	8001816 <MX_TIM3_Init+0x76>
  {
    Error_Handler();
 8001812:	f000 f923 	bl	8001a5c <Error_Handler>
  }
  sConfigOC.OCMode = TIM_OCMODE_PWM1;
 8001816:	2360      	movs	r3, #96	; 0x60
 8001818:	607b      	str	r3, [r7, #4]
  sConfigOC.Pulse = 0;
 800181a:	2300      	movs	r3, #0
 800181c:	60bb      	str	r3, [r7, #8]
  sConfigOC.OCPolarity = TIM_OCPOLARITY_HIGH;
 800181e:	2300      	movs	r3, #0
 8001820:	60fb      	str	r3, [r7, #12]
  sConfigOC.OCFastMode = TIM_OCFAST_DISABLE;
 8001822:	2300      	movs	r3, #0
 8001824:	617b      	str	r3, [r7, #20]
  if (HAL_TIM_PWM_ConfigChannel(&htim3, &sConfigOC, TIM_CHANNEL_1) != HAL_OK)
 8001826:	1d3b      	adds	r3, r7, #4
 8001828:	2200      	movs	r2, #0
 800182a:	4619      	mov	r1, r3
 800182c:	480c      	ldr	r0, [pc, #48]	; (8001860 <MX_TIM3_Init+0xc0>)
 800182e:	f005 fd1d 	bl	800726c <HAL_TIM_PWM_ConfigChannel>
 8001832:	4603      	mov	r3, r0
 8001834:	2b00      	cmp	r3, #0
 8001836:	d001      	beq.n	800183c <MX_TIM3_Init+0x9c>
  {
    Error_Handler();
 8001838:	f000 f910 	bl	8001a5c <Error_Handler>
  }
  if (HAL_TIM_PWM_ConfigChannel(&htim3, &sConfigOC, TIM_CHANNEL_2) != HAL_OK)
 800183c:	1d3b      	adds	r3, r7, #4
 800183e:	2204      	movs	r2, #4
 8001840:	4619      	mov	r1, r3
 8001842:	4807      	ldr	r0, [pc, #28]	; (8001860 <MX_TIM3_Init+0xc0>)
 8001844:	f005 fd12 	bl	800726c <HAL_TIM_PWM_ConfigChannel>
 8001848:	4603      	mov	r3, r0
 800184a:	2b00      	cmp	r3, #0
 800184c:	d001      	beq.n	8001852 <MX_TIM3_Init+0xb2>
  {
    Error_Handler();
 800184e:	f000 f905 	bl	8001a5c <Error_Handler>
  }
  /* USER CODE BEGIN TIM3_Init 2 */

  /* USER CODE END TIM3_Init 2 */
  HAL_TIM_MspPostInit(&htim3);
 8001852:	4803      	ldr	r0, [pc, #12]	; (8001860 <MX_TIM3_Init+0xc0>)
 8001854:	f003 f8ee 	bl	8004a34 <HAL_TIM_MspPostInit>

}
 8001858:	bf00      	nop
 800185a:	3728      	adds	r7, #40	; 0x28
 800185c:	46bd      	mov	sp, r7
 800185e:	bd80      	pop	{r7, pc}
 8001860:	20000434 	.word	0x20000434
 8001864:	40000400 	.word	0x40000400

08001868 <MX_TIM4_Init>:
  * @brief TIM4 Initialization Function
  * @param None
  * @retval None
  */
static void MX_TIM4_Init(void)
{
 8001868:	b580      	push	{r7, lr}
 800186a:	b08a      	sub	sp, #40	; 0x28
 800186c:	af00      	add	r7, sp, #0

  /* USER CODE BEGIN TIM4_Init 0 */

  /* USER CODE END TIM4_Init 0 */

  TIM_MasterConfigTypeDef sMasterConfig = {0};
 800186e:	f107 0320 	add.w	r3, r7, #32
 8001872:	2200      	movs	r2, #0
 8001874:	601a      	str	r2, [r3, #0]
 8001876:	605a      	str	r2, [r3, #4]
  TIM_OC_InitTypeDef sConfigOC = {0};
 8001878:	1d3b      	adds	r3, r7, #4
 800187a:	2200      	movs	r2, #0
 800187c:	601a      	str	r2, [r3, #0]
 800187e:	605a      	str	r2, [r3, #4]
 8001880:	609a      	str	r2, [r3, #8]
 8001882:	60da      	str	r2, [r3, #12]
 8001884:	611a      	str	r2, [r3, #16]
 8001886:	615a      	str	r2, [r3, #20]
 8001888:	619a      	str	r2, [r3, #24]

  /* USER CODE BEGIN TIM4_Init 1 */

  /* USER CODE END TIM4_Init 1 */
  htim4.Instance = TIM4;
 800188a:	4b27      	ldr	r3, [pc, #156]	; (8001928 <MX_TIM4_Init+0xc0>)
 800188c:	4a27      	ldr	r2, [pc, #156]	; (800192c <MX_TIM4_Init+0xc4>)
 800188e:	601a      	str	r2, [r3, #0]
  htim4.Init.Prescaler = 79;
 8001890:	4b25      	ldr	r3, [pc, #148]	; (8001928 <MX_TIM4_Init+0xc0>)
 8001892:	224f      	movs	r2, #79	; 0x4f
 8001894:	605a      	str	r2, [r3, #4]
  htim4.Init.CounterMode = TIM_COUNTERMODE_UP;
 8001896:	4b24      	ldr	r3, [pc, #144]	; (8001928 <MX_TIM4_Init+0xc0>)
 8001898:	2200      	movs	r2, #0
 800189a:	609a      	str	r2, [r3, #8]
  htim4.Init.Period = 1999;
 800189c:	4b22      	ldr	r3, [pc, #136]	; (8001928 <MX_TIM4_Init+0xc0>)
 800189e:	f240 72cf 	movw	r2, #1999	; 0x7cf
 80018a2:	60da      	str	r2, [r3, #12]
  htim4.Init.ClockDivision = TIM_CLOCKDIVISION_DIV1;
 80018a4:	4b20      	ldr	r3, [pc, #128]	; (8001928 <MX_TIM4_Init+0xc0>)
 80018a6:	2200      	movs	r2, #0
 80018a8:	611a      	str	r2, [r3, #16]
  htim4.Init.AutoReloadPreload = TIM_AUTORELOAD_PRELOAD_DISABLE;
 80018aa:	4b1f      	ldr	r3, [pc, #124]	; (8001928 <MX_TIM4_Init+0xc0>)
 80018ac:	2200      	movs	r2, #0
 80018ae:	619a      	str	r2, [r3, #24]
  if (HAL_TIM_PWM_Init(&htim4) != HAL_OK)
 80018b0:	481d      	ldr	r0, [pc, #116]	; (8001928 <MX_TIM4_Init+0xc0>)
 80018b2:	f005 fae1 	bl	8006e78 <HAL_TIM_PWM_Init>
 80018b6:	4603      	mov	r3, r0
 80018b8:	2b00      	cmp	r3, #0
 80018ba:	d001      	beq.n	80018c0 <MX_TIM4_Init+0x58>
  {
    Error_Handler();
 80018bc:	f000 f8ce 	bl	8001a5c <Error_Handler>
  }
  sMasterConfig.MasterOutputTrigger = TIM_TRGO_RESET;
 80018c0:	2300      	movs	r3, #0
 80018c2:	623b      	str	r3, [r7, #32]
  sMasterConfig.MasterSlaveMode = TIM_MASTERSLAVEMODE_DISABLE;
 80018c4:	2300      	movs	r3, #0
 80018c6:	627b      	str	r3, [r7, #36]	; 0x24
  if (HAL_TIMEx_MasterConfigSynchronization(&htim4, &sMasterConfig) != HAL_OK)
 80018c8:	f107 0320 	add.w	r3, r7, #32
 80018cc:	4619      	mov	r1, r3
 80018ce:	4816      	ldr	r0, [pc, #88]	; (8001928 <MX_TIM4_Init+0xc0>)
 80018d0:	f006 f91e 	bl	8007b10 <HAL_TIMEx_MasterConfigSynchronization>
 80018d4:	4603      	mov	r3, r0
 80018d6:	2b00      	cmp	r3, #0
 80018d8:	d001      	beq.n	80018de <MX_TIM4_Init+0x76>
  {
    Error_Handler();
 80018da:	f000 f8bf 	bl	8001a5c <Error_Handler>
  }
  sConfigOC.OCMode = TIM_OCMODE_PWM1;
 80018de:	2360      	movs	r3, #96	; 0x60
 80018e0:	607b      	str	r3, [r7, #4]
  sConfigOC.Pulse = 0;
 80018e2:	2300      	movs	r3, #0
 80018e4:	60bb      	str	r3, [r7, #8]
  sConfigOC.OCPolarity = TIM_OCPOLARITY_HIGH;
 80018e6:	2300      	movs	r3, #0
 80018e8:	60fb      	str	r3, [r7, #12]
  sConfigOC.OCFastMode = TIM_OCFAST_DISABLE;
 80018ea:	2300      	movs	r3, #0
 80018ec:	617b      	str	r3, [r7, #20]
  if (HAL_TIM_PWM_ConfigChannel(&htim4, &sConfigOC, TIM_CHANNEL_1) != HAL_OK)
 80018ee:	1d3b      	adds	r3, r7, #4
 80018f0:	2200      	movs	r2, #0
 80018f2:	4619      	mov	r1, r3
 80018f4:	480c      	ldr	r0, [pc, #48]	; (8001928 <MX_TIM4_Init+0xc0>)
 80018f6:	f005 fcb9 	bl	800726c <HAL_TIM_PWM_ConfigChannel>
 80018fa:	4603      	mov	r3, r0
 80018fc:	2b00      	cmp	r3, #0
 80018fe:	d001      	beq.n	8001904 <MX_TIM4_Init+0x9c>
  {
    Error_Handler();
 8001900:	f000 f8ac 	bl	8001a5c <Error_Handler>
  }
  if (HAL_TIM_PWM_ConfigChannel(&htim4, &sConfigOC, TIM_CHANNEL_2) != HAL_OK)
 8001904:	1d3b      	adds	r3, r7, #4
 8001906:	2204      	movs	r2, #4
 8001908:	4619      	mov	r1, r3
 800190a:	4807      	ldr	r0, [pc, #28]	; (8001928 <MX_TIM4_Init+0xc0>)
 800190c:	f005 fcae 	bl	800726c <HAL_TIM_PWM_ConfigChannel>
 8001910:	4603      	mov	r3, r0
 8001912:	2b00      	cmp	r3, #0
 8001914:	d001      	beq.n	800191a <MX_TIM4_Init+0xb2>
  {
    Error_Handler();
 8001916:	f000 f8a1 	bl	8001a5c <Error_Handler>
  }
  /* USER CODE BEGIN TIM4_Init 2 */

  /* USER CODE END TIM4_Init 2 */
  HAL_TIM_MspPostInit(&htim4);
 800191a:	4803      	ldr	r0, [pc, #12]	; (8001928 <MX_TIM4_Init+0xc0>)
 800191c:	f003 f88a 	bl	8004a34 <HAL_TIM_MspPostInit>

}
 8001920:	bf00      	nop
 8001922:	3728      	adds	r7, #40	; 0x28
 8001924:	46bd      	mov	sp, r7
 8001926:	bd80      	pop	{r7, pc}
 8001928:	2000047c 	.word	0x2000047c
 800192c:	40000800 	.word	0x40000800

08001930 <MX_USART1_UART_Init>:
  * @brief USART1 Initialization Function
  * @param None
  * @retval None
  */
static void MX_USART1_UART_Init(void)
{
 8001930:	b580      	push	{r7, lr}
 8001932:	af00      	add	r7, sp, #0
  /* USER CODE END USART1_Init 0 */

  /* USER CODE BEGIN USART1_Init 1 */

  /* USER CODE END USART1_Init 1 */
  huart1.Instance = USART1;
 8001934:	4b11      	ldr	r3, [pc, #68]	; (800197c <MX_USART1_UART_Init+0x4c>)
 8001936:	4a12      	ldr	r2, [pc, #72]	; (8001980 <MX_USART1_UART_Init+0x50>)
 8001938:	601a      	str	r2, [r3, #0]
  huart1.Init.BaudRate = 9600;
 800193a:	4b10      	ldr	r3, [pc, #64]	; (800197c <MX_USART1_UART_Init+0x4c>)
 800193c:	f44f 5216 	mov.w	r2, #9600	; 0x2580
 8001940:	605a      	str	r2, [r3, #4]
  huart1.Init.WordLength = UART_WORDLENGTH_8B;
 8001942:	4b0e      	ldr	r3, [pc, #56]	; (800197c <MX_USART1_UART_Init+0x4c>)
 8001944:	2200      	movs	r2, #0
 8001946:	609a      	str	r2, [r3, #8]
  huart1.Init.StopBits = UART_STOPBITS_1;
 8001948:	4b0c      	ldr	r3, [pc, #48]	; (800197c <MX_USART1_UART_Init+0x4c>)
 800194a:	2200      	movs	r2, #0
 800194c:	60da      	str	r2, [r3, #12]
  huart1.Init.Parity = UART_PARITY_NONE;
 800194e:	4b0b      	ldr	r3, [pc, #44]	; (800197c <MX_USART1_UART_Init+0x4c>)
 8001950:	2200      	movs	r2, #0
 8001952:	611a      	str	r2, [r3, #16]
  huart1.Init.Mode = UART_MODE_TX_RX;
 8001954:	4b09      	ldr	r3, [pc, #36]	; (800197c <MX_USART1_UART_Init+0x4c>)
 8001956:	220c      	movs	r2, #12
 8001958:	615a      	str	r2, [r3, #20]
  huart1.Init.HwFlowCtl = UART_HWCONTROL_NONE;
 800195a:	4b08      	ldr	r3, [pc, #32]	; (800197c <MX_USART1_UART_Init+0x4c>)
 800195c:	2200      	movs	r2, #0
 800195e:	619a      	str	r2, [r3, #24]
  huart1.Init.OverSampling = UART_OVERSAMPLING_16;
 8001960:	4b06      	ldr	r3, [pc, #24]	; (800197c <MX_USART1_UART_Init+0x4c>)
 8001962:	2200      	movs	r2, #0
 8001964:	61da      	str	r2, [r3, #28]
  if (HAL_UART_Init(&huart1) != HAL_OK)
 8001966:	4805      	ldr	r0, [pc, #20]	; (800197c <MX_USART1_UART_Init+0x4c>)
 8001968:	f006 f942 	bl	8007bf0 <HAL_UART_Init>
 800196c:	4603      	mov	r3, r0
 800196e:	2b00      	cmp	r3, #0
 8001970:	d001      	beq.n	8001976 <MX_USART1_UART_Init+0x46>
  {
    Error_Handler();
 8001972:	f000 f873 	bl	8001a5c <Error_Handler>
  }
  /* USER CODE BEGIN USART1_Init 2 */

  /* USER CODE END USART1_Init 2 */

}
 8001976:	bf00      	nop
 8001978:	bd80      	pop	{r7, pc}
 800197a:	bf00      	nop
 800197c:	200004c4 	.word	0x200004c4
 8001980:	40013800 	.word	0x40013800

08001984 <MX_GPIO_Init>:
  * @brief GPIO Initialization Function
  * @param None
  * @retval None
  */
static void MX_GPIO_Init(void)
{
 8001984:	b580      	push	{r7, lr}
 8001986:	b088      	sub	sp, #32
 8001988:	af00      	add	r7, sp, #0
  GPIO_InitTypeDef GPIO_InitStruct = {0};
 800198a:	f107 0310 	add.w	r3, r7, #16
 800198e:	2200      	movs	r2, #0
 8001990:	601a      	str	r2, [r3, #0]
 8001992:	605a      	str	r2, [r3, #4]
 8001994:	609a      	str	r2, [r3, #8]
 8001996:	60da      	str	r2, [r3, #12]
/* USER CODE BEGIN MX_GPIO_Init_1 */
/* USER CODE END MX_GPIO_Init_1 */

  /* GPIO Ports Clock Enable */
  __HAL_RCC_GPIOC_CLK_ENABLE();
 8001998:	4b2d      	ldr	r3, [pc, #180]	; (8001a50 <MX_GPIO_Init+0xcc>)
 800199a:	699b      	ldr	r3, [r3, #24]
 800199c:	4a2c      	ldr	r2, [pc, #176]	; (8001a50 <MX_GPIO_Init+0xcc>)
 800199e:	f043 0310 	orr.w	r3, r3, #16
 80019a2:	6193      	str	r3, [r2, #24]
 80019a4:	4b2a      	ldr	r3, [pc, #168]	; (8001a50 <MX_GPIO_Init+0xcc>)
 80019a6:	699b      	ldr	r3, [r3, #24]
 80019a8:	f003 0310 	and.w	r3, r3, #16
 80019ac:	60fb      	str	r3, [r7, #12]
 80019ae:	68fb      	ldr	r3, [r7, #12]
  __HAL_RCC_GPIOD_CLK_ENABLE();
 80019b0:	4b27      	ldr	r3, [pc, #156]	; (8001a50 <MX_GPIO_Init+0xcc>)
 80019b2:	699b      	ldr	r3, [r3, #24]
 80019b4:	4a26      	ldr	r2, [pc, #152]	; (8001a50 <MX_GPIO_Init+0xcc>)
 80019b6:	f043 0320 	orr.w	r3, r3, #32
 80019ba:	6193      	str	r3, [r2, #24]
 80019bc:	4b24      	ldr	r3, [pc, #144]	; (8001a50 <MX_GPIO_Init+0xcc>)
 80019be:	699b      	ldr	r3, [r3, #24]
 80019c0:	f003 0320 	and.w	r3, r3, #32
 80019c4:	60bb      	str	r3, [r7, #8]
 80019c6:	68bb      	ldr	r3, [r7, #8]
  __HAL_RCC_GPIOA_CLK_ENABLE();
 80019c8:	4b21      	ldr	r3, [pc, #132]	; (8001a50 <MX_GPIO_Init+0xcc>)
 80019ca:	699b      	ldr	r3, [r3, #24]
 80019cc:	4a20      	ldr	r2, [pc, #128]	; (8001a50 <MX_GPIO_Init+0xcc>)
 80019ce:	f043 0304 	orr.w	r3, r3, #4
 80019d2:	6193      	str	r3, [r2, #24]
 80019d4:	4b1e      	ldr	r3, [pc, #120]	; (8001a50 <MX_GPIO_Init+0xcc>)
 80019d6:	699b      	ldr	r3, [r3, #24]
 80019d8:	f003 0304 	and.w	r3, r3, #4
 80019dc:	607b      	str	r3, [r7, #4]
 80019de:	687b      	ldr	r3, [r7, #4]
  __HAL_RCC_GPIOB_CLK_ENABLE();
 80019e0:	4b1b      	ldr	r3, [pc, #108]	; (8001a50 <MX_GPIO_Init+0xcc>)
 80019e2:	699b      	ldr	r3, [r3, #24]
 80019e4:	4a1a      	ldr	r2, [pc, #104]	; (8001a50 <MX_GPIO_Init+0xcc>)
 80019e6:	f043 0308 	orr.w	r3, r3, #8
 80019ea:	6193      	str	r3, [r2, #24]
 80019ec:	4b18      	ldr	r3, [pc, #96]	; (8001a50 <MX_GPIO_Init+0xcc>)
 80019ee:	699b      	ldr	r3, [r3, #24]
 80019f0:	f003 0308 	and.w	r3, r3, #8
 80019f4:	603b      	str	r3, [r7, #0]
 80019f6:	683b      	ldr	r3, [r7, #0]

  /*Configure GPIO pin Output Level */
  HAL_GPIO_WritePin(GPIOC, GPIO_PIN_13, GPIO_PIN_RESET);
 80019f8:	2200      	movs	r2, #0
 80019fa:	f44f 5100 	mov.w	r1, #8192	; 0x2000
 80019fe:	4815      	ldr	r0, [pc, #84]	; (8001a54 <MX_GPIO_Init+0xd0>)
 8001a00:	f003 fd16 	bl	8005430 <HAL_GPIO_WritePin>

  /*Configure GPIO pin Output Level */
  HAL_GPIO_WritePin(GPIOA, GPIO_PIN_3|GPIO_PIN_5, GPIO_PIN_RESET);
 8001a04:	2200      	movs	r2, #0
 8001a06:	2128      	movs	r1, #40	; 0x28
 8001a08:	4813      	ldr	r0, [pc, #76]	; (8001a58 <MX_GPIO_Init+0xd4>)
 8001a0a:	f003 fd11 	bl	8005430 <HAL_GPIO_WritePin>

  /*Configure GPIO pin : PC13 */
  GPIO_InitStruct.Pin = GPIO_PIN_13;
 8001a0e:	f44f 5300 	mov.w	r3, #8192	; 0x2000
 8001a12:	613b      	str	r3, [r7, #16]
  GPIO_InitStruct.Mode = GPIO_MODE_OUTPUT_PP;
 8001a14:	2301      	movs	r3, #1
 8001a16:	617b      	str	r3, [r7, #20]
  GPIO_InitStruct.Pull = GPIO_NOPULL;
 8001a18:	2300      	movs	r3, #0
 8001a1a:	61bb      	str	r3, [r7, #24]
  GPIO_InitStruct.Speed = GPIO_SPEED_FREQ_LOW;
 8001a1c:	2302      	movs	r3, #2
 8001a1e:	61fb      	str	r3, [r7, #28]
  HAL_GPIO_Init(GPIOC, &GPIO_InitStruct);
 8001a20:	f107 0310 	add.w	r3, r7, #16
 8001a24:	4619      	mov	r1, r3
 8001a26:	480b      	ldr	r0, [pc, #44]	; (8001a54 <MX_GPIO_Init+0xd0>)
 8001a28:	f003 fb7e 	bl	8005128 <HAL_GPIO_Init>

  /*Configure GPIO pins : PA3 PA5 */
  GPIO_InitStruct.Pin = GPIO_PIN_3|GPIO_PIN_5;
 8001a2c:	2328      	movs	r3, #40	; 0x28
 8001a2e:	613b      	str	r3, [r7, #16]
  GPIO_InitStruct.Mode = GPIO_MODE_OUTPUT_PP;
 8001a30:	2301      	movs	r3, #1
 8001a32:	617b      	str	r3, [r7, #20]
  GPIO_InitStruct.Pull = GPIO_NOPULL;
 8001a34:	2300      	movs	r3, #0
 8001a36:	61bb      	str	r3, [r7, #24]
  GPIO_InitStruct.Speed = GPIO_SPEED_FREQ_LOW;
 8001a38:	2302      	movs	r3, #2
 8001a3a:	61fb      	str	r3, [r7, #28]
  HAL_GPIO_Init(GPIOA, &GPIO_InitStruct);
 8001a3c:	f107 0310 	add.w	r3, r7, #16
 8001a40:	4619      	mov	r1, r3
 8001a42:	4805      	ldr	r0, [pc, #20]	; (8001a58 <MX_GPIO_Init+0xd4>)
 8001a44:	f003 fb70 	bl	8005128 <HAL_GPIO_Init>

/* USER CODE BEGIN MX_GPIO_Init_2 */
/* USER CODE END MX_GPIO_Init_2 */
}
 8001a48:	bf00      	nop
 8001a4a:	3720      	adds	r7, #32
 8001a4c:	46bd      	mov	sp, r7
 8001a4e:	bd80      	pop	{r7, pc}
 8001a50:	40021000 	.word	0x40021000
 8001a54:	40011000 	.word	0x40011000
 8001a58:	40010800 	.word	0x40010800

08001a5c <Error_Handler>:
/**
  * @brief  This function is executed in case of error occurrence.
  * @retval None
  */
void Error_Handler(void)
{
 8001a5c:	b480      	push	{r7}
 8001a5e:	af00      	add	r7, sp, #0
  \details Disables IRQ interrupts by setting the I-bit in the CPSR.
           Can only be executed in Privileged modes.
 */
__STATIC_FORCEINLINE void __disable_irq(void)
{
  __ASM volatile ("cpsid i" : : : "memory");
 8001a60:	b672      	cpsid	i
}
 8001a62:	bf00      	nop
  /* USER CODE BEGIN Error_Handler_Debug */
  /* User can add his own implementation to report the HAL error return state */
  __disable_irq();
  while (1)
 8001a64:	e7fe      	b.n	8001a64 <Error_Handler+0x8>
	...

08001a68 <Limit_val>:
 *      Author: NGOC HOAN && Hien Nguyen
 */

#include "motor.h"

static void Limit_val(float *value){
 8001a68:	b580      	push	{r7, lr}
 8001a6a:	b082      	sub	sp, #8
 8001a6c:	af00      	add	r7, sp, #0
 8001a6e:	6078      	str	r0, [r7, #4]
	if(*value> VAL_MAX)  *value = VAL_MAX;
 8001a70:	687b      	ldr	r3, [r7, #4]
 8001a72:	681b      	ldr	r3, [r3, #0]
 8001a74:	f04f 517e 	mov.w	r1, #1065353216	; 0x3f800000
 8001a78:	4618      	mov	r0, r3
 8001a7a:	f7ff fb1f 	bl	80010bc <__aeabi_fcmpgt>
 8001a7e:	4603      	mov	r3, r0
 8001a80:	2b00      	cmp	r3, #0
 8001a82:	d003      	beq.n	8001a8c <Limit_val+0x24>
 8001a84:	687b      	ldr	r3, [r7, #4]
 8001a86:	f04f 527e 	mov.w	r2, #1065353216	; 0x3f800000
 8001a8a:	601a      	str	r2, [r3, #0]
	if(*value<-VAL_MAX) *value = -VAL_MAX;
 8001a8c:	687b      	ldr	r3, [r7, #4]
 8001a8e:	681b      	ldr	r3, [r3, #0]
 8001a90:	4907      	ldr	r1, [pc, #28]	; (8001ab0 <Limit_val+0x48>)
 8001a92:	4618      	mov	r0, r3
 8001a94:	f7ff faf4 	bl	8001080 <__aeabi_fcmplt>
 8001a98:	4603      	mov	r3, r0
 8001a9a:	2b00      	cmp	r3, #0
 8001a9c:	d100      	bne.n	8001aa0 <Limit_val+0x38>
}
 8001a9e:	e002      	b.n	8001aa6 <Limit_val+0x3e>
	if(*value<-VAL_MAX) *value = -VAL_MAX;
 8001aa0:	687b      	ldr	r3, [r7, #4]
 8001aa2:	4a03      	ldr	r2, [pc, #12]	; (8001ab0 <Limit_val+0x48>)
 8001aa4:	601a      	str	r2, [r3, #0]
}
 8001aa6:	bf00      	nop
 8001aa8:	3708      	adds	r7, #8
 8001aaa:	46bd      	mov	sp, r7
 8001aac:	bd80      	pop	{r7, pc}
 8001aae:	bf00      	nop
 8001ab0:	bf800000 	.word	0xbf800000

08001ab4 <Set_duty>:

static void Set_duty(float duty, TIM_HandleTypeDef *htim, int channel){
 8001ab4:	b590      	push	{r4, r7, lr}
 8001ab6:	b085      	sub	sp, #20
 8001ab8:	af00      	add	r7, sp, #0
 8001aba:	60f8      	str	r0, [r7, #12]
 8001abc:	60b9      	str	r1, [r7, #8]
 8001abe:	607a      	str	r2, [r7, #4]
	if (channel == 1){
 8001ac0:	687b      	ldr	r3, [r7, #4]
 8001ac2:	2b01      	cmp	r3, #1
 8001ac4:	d111      	bne.n	8001aea <Set_duty+0x36>
		htim->Instance->CCR1 =  (duty*MAX_CNT) + MIN_CNT;
 8001ac6:	4915      	ldr	r1, [pc, #84]	; (8001b1c <Set_duty+0x68>)
 8001ac8:	68f8      	ldr	r0, [r7, #12]
 8001aca:	f7ff f93b 	bl	8000d44 <__aeabi_fmul>
 8001ace:	4603      	mov	r3, r0
 8001ad0:	4913      	ldr	r1, [pc, #76]	; (8001b20 <Set_duty+0x6c>)
 8001ad2:	4618      	mov	r0, r3
 8001ad4:	f7ff f82e 	bl	8000b34 <__addsf3>
 8001ad8:	4603      	mov	r3, r0
 8001ada:	461a      	mov	r2, r3
 8001adc:	68bb      	ldr	r3, [r7, #8]
 8001ade:	681c      	ldr	r4, [r3, #0]
 8001ae0:	4610      	mov	r0, r2
 8001ae2:	f7ff fb1b 	bl	800111c <__aeabi_f2uiz>
 8001ae6:	4603      	mov	r3, r0
 8001ae8:	6363      	str	r3, [r4, #52]	; 0x34
	}
	if (channel == 2){
 8001aea:	687b      	ldr	r3, [r7, #4]
 8001aec:	2b02      	cmp	r3, #2
 8001aee:	d111      	bne.n	8001b14 <Set_duty+0x60>
		htim->Instance->CCR2 =  (duty*MAX_CNT) + MIN_CNT;
 8001af0:	490a      	ldr	r1, [pc, #40]	; (8001b1c <Set_duty+0x68>)
 8001af2:	68f8      	ldr	r0, [r7, #12]
 8001af4:	f7ff f926 	bl	8000d44 <__aeabi_fmul>
 8001af8:	4603      	mov	r3, r0
 8001afa:	4909      	ldr	r1, [pc, #36]	; (8001b20 <Set_duty+0x6c>)
 8001afc:	4618      	mov	r0, r3
 8001afe:	f7ff f819 	bl	8000b34 <__addsf3>
 8001b02:	4603      	mov	r3, r0
 8001b04:	461a      	mov	r2, r3
 8001b06:	68bb      	ldr	r3, [r7, #8]
 8001b08:	681c      	ldr	r4, [r3, #0]
 8001b0a:	4610      	mov	r0, r2
 8001b0c:	f7ff fb06 	bl	800111c <__aeabi_f2uiz>
 8001b10:	4603      	mov	r3, r0
 8001b12:	63a3      	str	r3, [r4, #56]	; 0x38
	}
}
 8001b14:	bf00      	nop
 8001b16:	3714      	adds	r7, #20
 8001b18:	46bd      	mov	sp, r7
 8001b1a:	bd90      	pop	{r4, r7, pc}
 8001b1c:	44ed6000 	.word	0x44ed6000
 8001b20:	42c80000 	.word	0x42c80000

08001b24 <Init_tim_pwm>:

void Init_tim_pwm(){
 8001b24:	b580      	push	{r7, lr}
 8001b26:	af00      	add	r7, sp, #0
	HAL_TIM_PWM_Start(&htim3, TIM_CHANNEL_1);
 8001b28:	2100      	movs	r1, #0
 8001b2a:	4808      	ldr	r0, [pc, #32]	; (8001b4c <Init_tim_pwm+0x28>)
 8001b2c:	f005 f9f4 	bl	8006f18 <HAL_TIM_PWM_Start>
	HAL_TIM_PWM_Start(&htim3, TIM_CHANNEL_2);
 8001b30:	2104      	movs	r1, #4
 8001b32:	4806      	ldr	r0, [pc, #24]	; (8001b4c <Init_tim_pwm+0x28>)
 8001b34:	f005 f9f0 	bl	8006f18 <HAL_TIM_PWM_Start>
	HAL_TIM_PWM_Start(&htim4, TIM_CHANNEL_1);
 8001b38:	2100      	movs	r1, #0
 8001b3a:	4805      	ldr	r0, [pc, #20]	; (8001b50 <Init_tim_pwm+0x2c>)
 8001b3c:	f005 f9ec 	bl	8006f18 <HAL_TIM_PWM_Start>
	HAL_TIM_PWM_Start(&htim4, TIM_CHANNEL_2);
 8001b40:	2104      	movs	r1, #4
 8001b42:	4803      	ldr	r0, [pc, #12]	; (8001b50 <Init_tim_pwm+0x2c>)
 8001b44:	f005 f9e8 	bl	8006f18 <HAL_TIM_PWM_Start>
}
 8001b48:	bf00      	nop
 8001b4a:	bd80      	pop	{r7, pc}
 8001b4c:	20000434 	.word	0x20000434
 8001b50:	2000047c 	.word	0x2000047c

08001b54 <Stop_motor>:

static void Stop_motor(){
 8001b54:	b580      	push	{r7, lr}
 8001b56:	af00      	add	r7, sp, #0
	Set_duty(0, &htim3, 1);
 8001b58:	2201      	movs	r2, #1
 8001b5a:	490c      	ldr	r1, [pc, #48]	; (8001b8c <Stop_motor+0x38>)
 8001b5c:	f04f 0000 	mov.w	r0, #0
 8001b60:	f7ff ffa8 	bl	8001ab4 <Set_duty>
	Set_duty(0, &htim3, 2);
 8001b64:	2202      	movs	r2, #2
 8001b66:	4909      	ldr	r1, [pc, #36]	; (8001b8c <Stop_motor+0x38>)
 8001b68:	f04f 0000 	mov.w	r0, #0
 8001b6c:	f7ff ffa2 	bl	8001ab4 <Set_duty>
	Set_duty(0, &htim4, 1);
 8001b70:	2201      	movs	r2, #1
 8001b72:	4907      	ldr	r1, [pc, #28]	; (8001b90 <Stop_motor+0x3c>)
 8001b74:	f04f 0000 	mov.w	r0, #0
 8001b78:	f7ff ff9c 	bl	8001ab4 <Set_duty>
	Set_duty(0, &htim4, 2);
 8001b7c:	2202      	movs	r2, #2
 8001b7e:	4904      	ldr	r1, [pc, #16]	; (8001b90 <Stop_motor+0x3c>)
 8001b80:	f04f 0000 	mov.w	r0, #0
 8001b84:	f7ff ff96 	bl	8001ab4 <Set_duty>
}
 8001b88:	bf00      	nop
 8001b8a:	bd80      	pop	{r7, pc}
 8001b8c:	20000434 	.word	0x20000434
 8001b90:	2000047c 	.word	0x2000047c

08001b94 <Forward>:

void Forward (float duty){
 8001b94:	b580      	push	{r7, lr}
 8001b96:	b082      	sub	sp, #8
 8001b98:	af00      	add	r7, sp, #0
 8001b9a:	6078      	str	r0, [r7, #4]
	Set_duty(0, &htim3, 1);
 8001b9c:	2201      	movs	r2, #1
 8001b9e:	490c      	ldr	r1, [pc, #48]	; (8001bd0 <Forward+0x3c>)
 8001ba0:	f04f 0000 	mov.w	r0, #0
 8001ba4:	f7ff ff86 	bl	8001ab4 <Set_duty>
	Set_duty(duty, &htim3, 2);
 8001ba8:	2202      	movs	r2, #2
 8001baa:	4909      	ldr	r1, [pc, #36]	; (8001bd0 <Forward+0x3c>)
 8001bac:	6878      	ldr	r0, [r7, #4]
 8001bae:	f7ff ff81 	bl	8001ab4 <Set_duty>
	Set_duty(0, &htim4, 1);
 8001bb2:	2201      	movs	r2, #1
 8001bb4:	4907      	ldr	r1, [pc, #28]	; (8001bd4 <Forward+0x40>)
 8001bb6:	f04f 0000 	mov.w	r0, #0
 8001bba:	f7ff ff7b 	bl	8001ab4 <Set_duty>
	Set_duty(duty, &htim4, 2);
 8001bbe:	2202      	movs	r2, #2
 8001bc0:	4904      	ldr	r1, [pc, #16]	; (8001bd4 <Forward+0x40>)
 8001bc2:	6878      	ldr	r0, [r7, #4]
 8001bc4:	f7ff ff76 	bl	8001ab4 <Set_duty>
}
 8001bc8:	bf00      	nop
 8001bca:	3708      	adds	r7, #8
 8001bcc:	46bd      	mov	sp, r7
 8001bce:	bd80      	pop	{r7, pc}
 8001bd0:	20000434 	.word	0x20000434
 8001bd4:	2000047c 	.word	0x2000047c

08001bd8 <Reverse>:

void Reverse (float duty){
 8001bd8:	b580      	push	{r7, lr}
 8001bda:	b082      	sub	sp, #8
 8001bdc:	af00      	add	r7, sp, #0
 8001bde:	6078      	str	r0, [r7, #4]
	Set_duty(duty, &htim3, 1);
 8001be0:	2201      	movs	r2, #1
 8001be2:	490c      	ldr	r1, [pc, #48]	; (8001c14 <Reverse+0x3c>)
 8001be4:	6878      	ldr	r0, [r7, #4]
 8001be6:	f7ff ff65 	bl	8001ab4 <Set_duty>
	Set_duty(0, &htim3, 2);
 8001bea:	2202      	movs	r2, #2
 8001bec:	4909      	ldr	r1, [pc, #36]	; (8001c14 <Reverse+0x3c>)
 8001bee:	f04f 0000 	mov.w	r0, #0
 8001bf2:	f7ff ff5f 	bl	8001ab4 <Set_duty>
	Set_duty(duty, &htim4, 1);
 8001bf6:	2201      	movs	r2, #1
 8001bf8:	4907      	ldr	r1, [pc, #28]	; (8001c18 <Reverse+0x40>)
 8001bfa:	6878      	ldr	r0, [r7, #4]
 8001bfc:	f7ff ff5a 	bl	8001ab4 <Set_duty>
	Set_duty(0, &htim4, 2);
 8001c00:	2202      	movs	r2, #2
 8001c02:	4905      	ldr	r1, [pc, #20]	; (8001c18 <Reverse+0x40>)
 8001c04:	f04f 0000 	mov.w	r0, #0
 8001c08:	f7ff ff54 	bl	8001ab4 <Set_duty>
}
 8001c0c:	bf00      	nop
 8001c0e:	3708      	adds	r7, #8
 8001c10:	46bd      	mov	sp, r7
 8001c12:	bd80      	pop	{r7, pc}
 8001c14:	20000434 	.word	0x20000434
 8001c18:	2000047c 	.word	0x2000047c
 8001c1c:	00000000 	.word	0x00000000

08001c20 <Controller>:

void Controller (double new_angle, double vec_angle, Fuzzy_t *fuzzy){
 8001c20:	b5b0      	push	{r4, r5, r7, lr}
 8001c22:	b084      	sub	sp, #16
 8001c24:	af00      	add	r7, sp, #0
 8001c26:	e9c7 0102 	strd	r0, r1, [r7, #8]
 8001c2a:	e9c7 2300 	strd	r2, r3, [r7]
	if((new_angle>ANGLE_THRESHOLD)|(new_angle<(-1)*ANGLE_THRESHOLD)){
 8001c2e:	2301      	movs	r3, #1
 8001c30:	461c      	mov	r4, r3
 8001c32:	f04f 0200 	mov.w	r2, #0
 8001c36:	4b44      	ldr	r3, [pc, #272]	; (8001d48 <Controller+0x128>)
 8001c38:	e9d7 0102 	ldrd	r0, r1, [r7, #8]
 8001c3c:	f7fe fedc 	bl	80009f8 <__aeabi_dcmpgt>
 8001c40:	4603      	mov	r3, r0
 8001c42:	2b00      	cmp	r3, #0
 8001c44:	d101      	bne.n	8001c4a <Controller+0x2a>
 8001c46:	2300      	movs	r3, #0
 8001c48:	461c      	mov	r4, r3
 8001c4a:	b2e4      	uxtb	r4, r4
 8001c4c:	2301      	movs	r3, #1
 8001c4e:	461d      	mov	r5, r3
 8001c50:	f04f 0200 	mov.w	r2, #0
 8001c54:	4b3d      	ldr	r3, [pc, #244]	; (8001d4c <Controller+0x12c>)
 8001c56:	e9d7 0102 	ldrd	r0, r1, [r7, #8]
 8001c5a:	f7fe feaf 	bl	80009bc <__aeabi_dcmplt>
 8001c5e:	4603      	mov	r3, r0
 8001c60:	2b00      	cmp	r3, #0
 8001c62:	d101      	bne.n	8001c68 <Controller+0x48>
 8001c64:	2300      	movs	r3, #0
 8001c66:	461d      	mov	r5, r3
 8001c68:	b2eb      	uxtb	r3, r5
 8001c6a:	4323      	orrs	r3, r4
 8001c6c:	b2db      	uxtb	r3, r3
 8001c6e:	2b00      	cmp	r3, #0
 8001c70:	d002      	beq.n	8001c78 <Controller+0x58>
			Stop_motor();
 8001c72:	f7ff ff6f 	bl	8001b54 <Stop_motor>
			return;
 8001c76:	e05f      	b.n	8001d38 <Controller+0x118>
		}

	fuzzy->f_inp_fuzzy[0] = (new_angle- OFFSET)/fuzzy->f_K_theta; //normalize value
 8001c78:	a331      	add	r3, pc, #196	; (adr r3, 8001d40 <Controller+0x120>)
 8001c7a:	e9d3 2300 	ldrd	r2, r3, [r3]
 8001c7e:	e9d7 0102 	ldrd	r0, r1, [r7, #8]
 8001c82:	f7fe fa73 	bl	800016c <__adddf3>
 8001c86:	4602      	mov	r2, r0
 8001c88:	460b      	mov	r3, r1
 8001c8a:	4614      	mov	r4, r2
 8001c8c:	461d      	mov	r5, r3
 8001c8e:	6a3b      	ldr	r3, [r7, #32]
 8001c90:	68db      	ldr	r3, [r3, #12]
 8001c92:	4618      	mov	r0, r3
 8001c94:	f7fe fbc8 	bl	8000428 <__aeabi_f2d>
 8001c98:	4602      	mov	r2, r0
 8001c9a:	460b      	mov	r3, r1
 8001c9c:	4620      	mov	r0, r4
 8001c9e:	4629      	mov	r1, r5
 8001ca0:	f7fe fd44 	bl	800072c <__aeabi_ddiv>
 8001ca4:	4602      	mov	r2, r0
 8001ca6:	460b      	mov	r3, r1
 8001ca8:	4610      	mov	r0, r2
 8001caa:	4619      	mov	r1, r3
 8001cac:	f7fe feec 	bl	8000a88 <__aeabi_d2f>
 8001cb0:	4602      	mov	r2, r0
 8001cb2:	6a3b      	ldr	r3, [r7, #32]
 8001cb4:	601a      	str	r2, [r3, #0]
	Limit_val(&fuzzy->f_inp_fuzzy[0]);
 8001cb6:	6a3b      	ldr	r3, [r7, #32]
 8001cb8:	4618      	mov	r0, r3
 8001cba:	f7ff fed5 	bl	8001a68 <Limit_val>
	fuzzy->f_inp_fuzzy[1] = vec_angle/fuzzy->f_K_theta_dot;  //normalize value
 8001cbe:	6a3b      	ldr	r3, [r7, #32]
 8001cc0:	691b      	ldr	r3, [r3, #16]
 8001cc2:	4618      	mov	r0, r3
 8001cc4:	f7fe fbb0 	bl	8000428 <__aeabi_f2d>
 8001cc8:	4602      	mov	r2, r0
 8001cca:	460b      	mov	r3, r1
 8001ccc:	e9d7 0100 	ldrd	r0, r1, [r7]
 8001cd0:	f7fe fd2c 	bl	800072c <__aeabi_ddiv>
 8001cd4:	4602      	mov	r2, r0
 8001cd6:	460b      	mov	r3, r1
 8001cd8:	4610      	mov	r0, r2
 8001cda:	4619      	mov	r1, r3
 8001cdc:	f7fe fed4 	bl	8000a88 <__aeabi_d2f>
 8001ce0:	4602      	mov	r2, r0
 8001ce2:	6a3b      	ldr	r3, [r7, #32]
 8001ce4:	605a      	str	r2, [r3, #4]
	Limit_val(&fuzzy->f_inp_fuzzy[1]);
 8001ce6:	6a3b      	ldr	r3, [r7, #32]
 8001ce8:	3304      	adds	r3, #4
 8001cea:	4618      	mov	r0, r3
 8001cec:	f7ff febc 	bl	8001a68 <Limit_val>
	SBR1_run(&fuzzy->f_inp_fuzzy, &fuzzy->f_out_fuzzy);
 8001cf0:	6a3a      	ldr	r2, [r7, #32]
 8001cf2:	6a3b      	ldr	r3, [r7, #32]
 8001cf4:	3308      	adds	r3, #8
 8001cf6:	4619      	mov	r1, r3
 8001cf8:	4610      	mov	r0, r2
 8001cfa:	f7ff fb81 	bl	8001400 <SBR1_run>
	Limit_val(&fuzzy->f_out_fuzzy);
 8001cfe:	6a3b      	ldr	r3, [r7, #32]
 8001d00:	3308      	adds	r3, #8
 8001d02:	4618      	mov	r0, r3
 8001d04:	f7ff feb0 	bl	8001a68 <Limit_val>

	if (fuzzy->f_out_fuzzy > 0){
 8001d08:	6a3b      	ldr	r3, [r7, #32]
 8001d0a:	689b      	ldr	r3, [r3, #8]
 8001d0c:	f04f 0100 	mov.w	r1, #0
 8001d10:	4618      	mov	r0, r3
 8001d12:	f7ff f9d3 	bl	80010bc <__aeabi_fcmpgt>
 8001d16:	4603      	mov	r3, r0
 8001d18:	2b00      	cmp	r3, #0
 8001d1a:	d005      	beq.n	8001d28 <Controller+0x108>
		Reverse (fuzzy->f_out_fuzzy);
 8001d1c:	6a3b      	ldr	r3, [r7, #32]
 8001d1e:	689b      	ldr	r3, [r3, #8]
 8001d20:	4618      	mov	r0, r3
 8001d22:	f7ff ff59 	bl	8001bd8 <Reverse>
		// Reverse of forward belongs to you hardware structure
		return;
 8001d26:	e007      	b.n	8001d38 <Controller+0x118>
	} else {
		Forward ((-1)*fuzzy->f_out_fuzzy);
 8001d28:	6a3b      	ldr	r3, [r7, #32]
 8001d2a:	689b      	ldr	r3, [r3, #8]
 8001d2c:	f083 4300 	eor.w	r3, r3, #2147483648	; 0x80000000
 8001d30:	4618      	mov	r0, r3
 8001d32:	f7ff ff2f 	bl	8001b94 <Forward>
		return;
 8001d36:	bf00      	nop
	}

}
 8001d38:	3710      	adds	r7, #16
 8001d3a:	46bd      	mov	sp, r7
 8001d3c:	bdb0      	pop	{r4, r5, r7, pc}
 8001d3e:	bf00      	nop
 8001d40:	ae147ae1 	.word	0xae147ae1
 8001d44:	4005e147 	.word	0x4005e147
 8001d48:	404e0000 	.word	0x404e0000
 8001d4c:	c04e0000 	.word	0xc04e0000

08001d50 <MPU6050_Init>:
    .Q_bias = 0.003f,
    .R_measure = 0.03f,
};

uint8_t MPU6050_Init(I2C_HandleTypeDef *I2Cx)
{
 8001d50:	b580      	push	{r7, lr}
 8001d52:	b088      	sub	sp, #32
 8001d54:	af04      	add	r7, sp, #16
 8001d56:	6078      	str	r0, [r7, #4]
    uint8_t check;
    uint8_t Data;

    // check device ID WHO_AM_I

    HAL_I2C_Mem_Read(I2Cx, MPU6050_ADDR, WHO_AM_I_REG, 1, &check, 1, i2c_timeout);
 8001d58:	2364      	movs	r3, #100	; 0x64
 8001d5a:	9302      	str	r3, [sp, #8]
 8001d5c:	2301      	movs	r3, #1
 8001d5e:	9301      	str	r3, [sp, #4]
 8001d60:	f107 030f 	add.w	r3, r7, #15
 8001d64:	9300      	str	r3, [sp, #0]
 8001d66:	2301      	movs	r3, #1
 8001d68:	2275      	movs	r2, #117	; 0x75
 8001d6a:	21d0      	movs	r1, #208	; 0xd0
 8001d6c:	6878      	ldr	r0, [r7, #4]
 8001d6e:	f003 fdb5 	bl	80058dc <HAL_I2C_Mem_Read>

    if (check == 104) // 0x68 will be returned by the sensor if everything goes well
 8001d72:	7bfb      	ldrb	r3, [r7, #15]
 8001d74:	2b68      	cmp	r3, #104	; 0x68
 8001d76:	d13d      	bne.n	8001df4 <MPU6050_Init+0xa4>
    {
        // power management register 0X6B we should write all 0's to wake the sensor up
        Data = 0;
 8001d78:	2300      	movs	r3, #0
 8001d7a:	73bb      	strb	r3, [r7, #14]
        HAL_I2C_Mem_Write(I2Cx, MPU6050_ADDR, PWR_MGMT_1_REG, 1, &Data, 1, i2c_timeout);
 8001d7c:	2364      	movs	r3, #100	; 0x64
 8001d7e:	9302      	str	r3, [sp, #8]
 8001d80:	2301      	movs	r3, #1
 8001d82:	9301      	str	r3, [sp, #4]
 8001d84:	f107 030e 	add.w	r3, r7, #14
 8001d88:	9300      	str	r3, [sp, #0]
 8001d8a:	2301      	movs	r3, #1
 8001d8c:	226b      	movs	r2, #107	; 0x6b
 8001d8e:	21d0      	movs	r1, #208	; 0xd0
 8001d90:	6878      	ldr	r0, [r7, #4]
 8001d92:	f003 fca9 	bl	80056e8 <HAL_I2C_Mem_Write>

        // Set DATA RATE of 1KHz by writing SMPLRT_DIV register
        Data = 0x07;
 8001d96:	2307      	movs	r3, #7
 8001d98:	73bb      	strb	r3, [r7, #14]
        HAL_I2C_Mem_Write(I2Cx, MPU6050_ADDR, SMPLRT_DIV_REG, 1, &Data, 1, i2c_timeout);
 8001d9a:	2364      	movs	r3, #100	; 0x64
 8001d9c:	9302      	str	r3, [sp, #8]
 8001d9e:	2301      	movs	r3, #1
 8001da0:	9301      	str	r3, [sp, #4]
 8001da2:	f107 030e 	add.w	r3, r7, #14
 8001da6:	9300      	str	r3, [sp, #0]
 8001da8:	2301      	movs	r3, #1
 8001daa:	2219      	movs	r2, #25
 8001dac:	21d0      	movs	r1, #208	; 0xd0
 8001dae:	6878      	ldr	r0, [r7, #4]
 8001db0:	f003 fc9a 	bl	80056e8 <HAL_I2C_Mem_Write>

        // Set accelerometer configuration in ACCEL_CONFIG Register
        // XA_ST=0,YA_ST=0,ZA_ST=0, FS_SEL=0 ->  2g
        Data = 0x00;
 8001db4:	2300      	movs	r3, #0
 8001db6:	73bb      	strb	r3, [r7, #14]
        HAL_I2C_Mem_Write(I2Cx, MPU6050_ADDR, ACCEL_CONFIG_REG, 1, &Data, 1, i2c_timeout);
 8001db8:	2364      	movs	r3, #100	; 0x64
 8001dba:	9302      	str	r3, [sp, #8]
 8001dbc:	2301      	movs	r3, #1
 8001dbe:	9301      	str	r3, [sp, #4]
 8001dc0:	f107 030e 	add.w	r3, r7, #14
 8001dc4:	9300      	str	r3, [sp, #0]
 8001dc6:	2301      	movs	r3, #1
 8001dc8:	221c      	movs	r2, #28
 8001dca:	21d0      	movs	r1, #208	; 0xd0
 8001dcc:	6878      	ldr	r0, [r7, #4]
 8001dce:	f003 fc8b 	bl	80056e8 <HAL_I2C_Mem_Write>

        // Set Gyroscopic configuration in GYRO_CONFIG Register
        // XG_ST=0,YG_ST=0,ZG_ST=0, FS_SEL=0 ->  250 /s
        Data = 0x00;
 8001dd2:	2300      	movs	r3, #0
 8001dd4:	73bb      	strb	r3, [r7, #14]
        HAL_I2C_Mem_Write(I2Cx, MPU6050_ADDR, GYRO_CONFIG_REG, 1, &Data, 1, i2c_timeout);
 8001dd6:	2364      	movs	r3, #100	; 0x64
 8001dd8:	9302      	str	r3, [sp, #8]
 8001dda:	2301      	movs	r3, #1
 8001ddc:	9301      	str	r3, [sp, #4]
 8001dde:	f107 030e 	add.w	r3, r7, #14
 8001de2:	9300      	str	r3, [sp, #0]
 8001de4:	2301      	movs	r3, #1
 8001de6:	221b      	movs	r2, #27
 8001de8:	21d0      	movs	r1, #208	; 0xd0
 8001dea:	6878      	ldr	r0, [r7, #4]
 8001dec:	f003 fc7c 	bl	80056e8 <HAL_I2C_Mem_Write>
        return 0;
 8001df0:	2300      	movs	r3, #0
 8001df2:	e000      	b.n	8001df6 <MPU6050_Init+0xa6>
    }
    return 1;
 8001df4:	2301      	movs	r3, #1
}
 8001df6:	4618      	mov	r0, r3
 8001df8:	3710      	adds	r7, #16
 8001dfa:	46bd      	mov	sp, r7
 8001dfc:	bd80      	pop	{r7, pc}
	...

08001e00 <MPU6050_Read_All>:
    temp = (int16_t)(Rec_Data[0] << 8 | Rec_Data[1]);
    DataStruct->Temperature = (float)((int16_t)temp / (float)340.0 + (float)36.53);
}

void MPU6050_Read_All(I2C_HandleTypeDef *I2Cx, MPU6050_t *DataStruct)
{
 8001e00:	e92d 4fb0 	stmdb	sp!, {r4, r5, r7, r8, r9, sl, fp, lr}
 8001e04:	b094      	sub	sp, #80	; 0x50
 8001e06:	af04      	add	r7, sp, #16
 8001e08:	6078      	str	r0, [r7, #4]
 8001e0a:	6039      	str	r1, [r7, #0]
    uint8_t Rec_Data[14];
    int16_t temp;

    // Read 14 BYTES of data starting from ACCEL_XOUT_H register

    HAL_I2C_Mem_Read(I2Cx, MPU6050_ADDR, ACCEL_XOUT_H_REG, 1, Rec_Data, 14, i2c_timeout);
 8001e0c:	2364      	movs	r3, #100	; 0x64
 8001e0e:	9302      	str	r3, [sp, #8]
 8001e10:	230e      	movs	r3, #14
 8001e12:	9301      	str	r3, [sp, #4]
 8001e14:	f107 0308 	add.w	r3, r7, #8
 8001e18:	9300      	str	r3, [sp, #0]
 8001e1a:	2301      	movs	r3, #1
 8001e1c:	223b      	movs	r2, #59	; 0x3b
 8001e1e:	21d0      	movs	r1, #208	; 0xd0
 8001e20:	6878      	ldr	r0, [r7, #4]
 8001e22:	f003 fd5b 	bl	80058dc <HAL_I2C_Mem_Read>

    DataStruct->Accel_X_RAW = (int16_t)(Rec_Data[0] << 8 | Rec_Data[1]);
 8001e26:	7a3b      	ldrb	r3, [r7, #8]
 8001e28:	021b      	lsls	r3, r3, #8
 8001e2a:	b21a      	sxth	r2, r3
 8001e2c:	7a7b      	ldrb	r3, [r7, #9]
 8001e2e:	b21b      	sxth	r3, r3
 8001e30:	4313      	orrs	r3, r2
 8001e32:	b21a      	sxth	r2, r3
 8001e34:	683b      	ldr	r3, [r7, #0]
 8001e36:	801a      	strh	r2, [r3, #0]
    DataStruct->Accel_Y_RAW = (int16_t)(Rec_Data[2] << 8 | Rec_Data[3]);
 8001e38:	7abb      	ldrb	r3, [r7, #10]
 8001e3a:	021b      	lsls	r3, r3, #8
 8001e3c:	b21a      	sxth	r2, r3
 8001e3e:	7afb      	ldrb	r3, [r7, #11]
 8001e40:	b21b      	sxth	r3, r3
 8001e42:	4313      	orrs	r3, r2
 8001e44:	b21a      	sxth	r2, r3
 8001e46:	683b      	ldr	r3, [r7, #0]
 8001e48:	805a      	strh	r2, [r3, #2]
    DataStruct->Accel_Z_RAW = (int16_t)(Rec_Data[4] << 8 | Rec_Data[5]);
 8001e4a:	7b3b      	ldrb	r3, [r7, #12]
 8001e4c:	021b      	lsls	r3, r3, #8
 8001e4e:	b21a      	sxth	r2, r3
 8001e50:	7b7b      	ldrb	r3, [r7, #13]
 8001e52:	b21b      	sxth	r3, r3
 8001e54:	4313      	orrs	r3, r2
 8001e56:	b21a      	sxth	r2, r3
 8001e58:	683b      	ldr	r3, [r7, #0]
 8001e5a:	809a      	strh	r2, [r3, #4]
    temp = (int16_t)(Rec_Data[6] << 8 | Rec_Data[7]);
 8001e5c:	7bbb      	ldrb	r3, [r7, #14]
 8001e5e:	021b      	lsls	r3, r3, #8
 8001e60:	b21a      	sxth	r2, r3
 8001e62:	7bfb      	ldrb	r3, [r7, #15]
 8001e64:	b21b      	sxth	r3, r3
 8001e66:	4313      	orrs	r3, r2
 8001e68:	86fb      	strh	r3, [r7, #54]	; 0x36
    DataStruct->Gyro_X_RAW = (int16_t)(Rec_Data[8] << 8 | Rec_Data[9]);
 8001e6a:	7c3b      	ldrb	r3, [r7, #16]
 8001e6c:	021b      	lsls	r3, r3, #8
 8001e6e:	b21a      	sxth	r2, r3
 8001e70:	7c7b      	ldrb	r3, [r7, #17]
 8001e72:	b21b      	sxth	r3, r3
 8001e74:	4313      	orrs	r3, r2
 8001e76:	b21a      	sxth	r2, r3
 8001e78:	683b      	ldr	r3, [r7, #0]
 8001e7a:	841a      	strh	r2, [r3, #32]
    DataStruct->Gyro_Y_RAW = (int16_t)(Rec_Data[10] << 8 | Rec_Data[11]);
 8001e7c:	7cbb      	ldrb	r3, [r7, #18]
 8001e7e:	021b      	lsls	r3, r3, #8
 8001e80:	b21a      	sxth	r2, r3
 8001e82:	7cfb      	ldrb	r3, [r7, #19]
 8001e84:	b21b      	sxth	r3, r3
 8001e86:	4313      	orrs	r3, r2
 8001e88:	b21a      	sxth	r2, r3
 8001e8a:	683b      	ldr	r3, [r7, #0]
 8001e8c:	845a      	strh	r2, [r3, #34]	; 0x22
    DataStruct->Gyro_Z_RAW = (int16_t)(Rec_Data[12] << 8 | Rec_Data[13]);
 8001e8e:	7d3b      	ldrb	r3, [r7, #20]
 8001e90:	021b      	lsls	r3, r3, #8
 8001e92:	b21a      	sxth	r2, r3
 8001e94:	7d7b      	ldrb	r3, [r7, #21]
 8001e96:	b21b      	sxth	r3, r3
 8001e98:	4313      	orrs	r3, r2
 8001e9a:	b21a      	sxth	r2, r3
 8001e9c:	683b      	ldr	r3, [r7, #0]
 8001e9e:	849a      	strh	r2, [r3, #36]	; 0x24

    DataStruct->Ax = DataStruct->Accel_X_RAW / 16384.0;
 8001ea0:	683b      	ldr	r3, [r7, #0]
 8001ea2:	f9b3 3000 	ldrsh.w	r3, [r3]
 8001ea6:	4618      	mov	r0, r3
 8001ea8:	f7fe faac 	bl	8000404 <__aeabi_i2d>
 8001eac:	f04f 0200 	mov.w	r2, #0
 8001eb0:	4b95      	ldr	r3, [pc, #596]	; (8002108 <MPU6050_Read_All+0x308>)
 8001eb2:	f7fe fc3b 	bl	800072c <__aeabi_ddiv>
 8001eb6:	4602      	mov	r2, r0
 8001eb8:	460b      	mov	r3, r1
 8001eba:	6839      	ldr	r1, [r7, #0]
 8001ebc:	e9c1 2302 	strd	r2, r3, [r1, #8]
    DataStruct->Ay = DataStruct->Accel_Y_RAW / 16384.0;
 8001ec0:	683b      	ldr	r3, [r7, #0]
 8001ec2:	f9b3 3002 	ldrsh.w	r3, [r3, #2]
 8001ec6:	4618      	mov	r0, r3
 8001ec8:	f7fe fa9c 	bl	8000404 <__aeabi_i2d>
 8001ecc:	f04f 0200 	mov.w	r2, #0
 8001ed0:	4b8d      	ldr	r3, [pc, #564]	; (8002108 <MPU6050_Read_All+0x308>)
 8001ed2:	f7fe fc2b 	bl	800072c <__aeabi_ddiv>
 8001ed6:	4602      	mov	r2, r0
 8001ed8:	460b      	mov	r3, r1
 8001eda:	6839      	ldr	r1, [r7, #0]
 8001edc:	e9c1 2304 	strd	r2, r3, [r1, #16]
    DataStruct->Az = DataStruct->Accel_Z_RAW / Accel_Z_corrector;
 8001ee0:	683b      	ldr	r3, [r7, #0]
 8001ee2:	f9b3 3004 	ldrsh.w	r3, [r3, #4]
 8001ee6:	4618      	mov	r0, r3
 8001ee8:	f7fe fa8c 	bl	8000404 <__aeabi_i2d>
 8001eec:	a380      	add	r3, pc, #512	; (adr r3, 80020f0 <MPU6050_Read_All+0x2f0>)
 8001eee:	e9d3 2300 	ldrd	r2, r3, [r3]
 8001ef2:	f7fe fc1b 	bl	800072c <__aeabi_ddiv>
 8001ef6:	4602      	mov	r2, r0
 8001ef8:	460b      	mov	r3, r1
 8001efa:	6839      	ldr	r1, [r7, #0]
 8001efc:	e9c1 2306 	strd	r2, r3, [r1, #24]
    DataStruct->Temperature = (float)((int16_t)temp / (float)340.0 + (float)36.53);
 8001f00:	f9b7 3036 	ldrsh.w	r3, [r7, #54]	; 0x36
 8001f04:	4618      	mov	r0, r3
 8001f06:	f7fe fec9 	bl	8000c9c <__aeabi_i2f>
 8001f0a:	4603      	mov	r3, r0
 8001f0c:	497f      	ldr	r1, [pc, #508]	; (800210c <MPU6050_Read_All+0x30c>)
 8001f0e:	4618      	mov	r0, r3
 8001f10:	f7fe ffcc 	bl	8000eac <__aeabi_fdiv>
 8001f14:	4603      	mov	r3, r0
 8001f16:	497e      	ldr	r1, [pc, #504]	; (8002110 <MPU6050_Read_All+0x310>)
 8001f18:	4618      	mov	r0, r3
 8001f1a:	f7fe fe0b 	bl	8000b34 <__addsf3>
 8001f1e:	4603      	mov	r3, r0
 8001f20:	461a      	mov	r2, r3
 8001f22:	683b      	ldr	r3, [r7, #0]
 8001f24:	641a      	str	r2, [r3, #64]	; 0x40
    DataStruct->Gx = DataStruct->Gyro_X_RAW / 131.0;
 8001f26:	683b      	ldr	r3, [r7, #0]
 8001f28:	f9b3 3020 	ldrsh.w	r3, [r3, #32]
 8001f2c:	4618      	mov	r0, r3
 8001f2e:	f7fe fa69 	bl	8000404 <__aeabi_i2d>
 8001f32:	a371      	add	r3, pc, #452	; (adr r3, 80020f8 <MPU6050_Read_All+0x2f8>)
 8001f34:	e9d3 2300 	ldrd	r2, r3, [r3]
 8001f38:	f7fe fbf8 	bl	800072c <__aeabi_ddiv>
 8001f3c:	4602      	mov	r2, r0
 8001f3e:	460b      	mov	r3, r1
 8001f40:	6839      	ldr	r1, [r7, #0]
 8001f42:	e9c1 230a 	strd	r2, r3, [r1, #40]	; 0x28
    DataStruct->Gy = DataStruct->Gyro_Y_RAW / 131.0;
 8001f46:	683b      	ldr	r3, [r7, #0]
 8001f48:	f9b3 3022 	ldrsh.w	r3, [r3, #34]	; 0x22
 8001f4c:	4618      	mov	r0, r3
 8001f4e:	f7fe fa59 	bl	8000404 <__aeabi_i2d>
 8001f52:	a369      	add	r3, pc, #420	; (adr r3, 80020f8 <MPU6050_Read_All+0x2f8>)
 8001f54:	e9d3 2300 	ldrd	r2, r3, [r3]
 8001f58:	f7fe fbe8 	bl	800072c <__aeabi_ddiv>
 8001f5c:	4602      	mov	r2, r0
 8001f5e:	460b      	mov	r3, r1
 8001f60:	6839      	ldr	r1, [r7, #0]
 8001f62:	e9c1 230c 	strd	r2, r3, [r1, #48]	; 0x30
    DataStruct->Gz = DataStruct->Gyro_Z_RAW / 131.0;
 8001f66:	683b      	ldr	r3, [r7, #0]
 8001f68:	f9b3 3024 	ldrsh.w	r3, [r3, #36]	; 0x24
 8001f6c:	4618      	mov	r0, r3
 8001f6e:	f7fe fa49 	bl	8000404 <__aeabi_i2d>
 8001f72:	a361      	add	r3, pc, #388	; (adr r3, 80020f8 <MPU6050_Read_All+0x2f8>)
 8001f74:	e9d3 2300 	ldrd	r2, r3, [r3]
 8001f78:	f7fe fbd8 	bl	800072c <__aeabi_ddiv>
 8001f7c:	4602      	mov	r2, r0
 8001f7e:	460b      	mov	r3, r1
 8001f80:	6839      	ldr	r1, [r7, #0]
 8001f82:	e9c1 230e 	strd	r2, r3, [r1, #56]	; 0x38

    // Kalman angle solve
    double dt = (double)(HAL_GetTick() - timer) / 1000;
 8001f86:	f002 ff05 	bl	8004d94 <HAL_GetTick>
 8001f8a:	4602      	mov	r2, r0
 8001f8c:	4b61      	ldr	r3, [pc, #388]	; (8002114 <MPU6050_Read_All+0x314>)
 8001f8e:	681b      	ldr	r3, [r3, #0]
 8001f90:	1ad3      	subs	r3, r2, r3
 8001f92:	4618      	mov	r0, r3
 8001f94:	f7fe fa26 	bl	80003e4 <__aeabi_ui2d>
 8001f98:	f04f 0200 	mov.w	r2, #0
 8001f9c:	4b5e      	ldr	r3, [pc, #376]	; (8002118 <MPU6050_Read_All+0x318>)
 8001f9e:	f7fe fbc5 	bl	800072c <__aeabi_ddiv>
 8001fa2:	4602      	mov	r2, r0
 8001fa4:	460b      	mov	r3, r1
 8001fa6:	e9c7 230a 	strd	r2, r3, [r7, #40]	; 0x28
    timer = HAL_GetTick();
 8001faa:	f002 fef3 	bl	8004d94 <HAL_GetTick>
 8001fae:	4603      	mov	r3, r0
 8001fb0:	4a58      	ldr	r2, [pc, #352]	; (8002114 <MPU6050_Read_All+0x314>)
 8001fb2:	6013      	str	r3, [r2, #0]
    double roll;
    double roll_sqrt = sqrt(
        DataStruct->Accel_X_RAW * DataStruct->Accel_X_RAW + DataStruct->Accel_Z_RAW * DataStruct->Accel_Z_RAW);
 8001fb4:	683b      	ldr	r3, [r7, #0]
 8001fb6:	f9b3 3000 	ldrsh.w	r3, [r3]
 8001fba:	461a      	mov	r2, r3
 8001fbc:	683b      	ldr	r3, [r7, #0]
 8001fbe:	f9b3 3000 	ldrsh.w	r3, [r3]
 8001fc2:	fb03 f202 	mul.w	r2, r3, r2
 8001fc6:	683b      	ldr	r3, [r7, #0]
 8001fc8:	f9b3 3004 	ldrsh.w	r3, [r3, #4]
 8001fcc:	4619      	mov	r1, r3
 8001fce:	683b      	ldr	r3, [r7, #0]
 8001fd0:	f9b3 3004 	ldrsh.w	r3, [r3, #4]
 8001fd4:	fb01 f303 	mul.w	r3, r1, r3
 8001fd8:	4413      	add	r3, r2
    double roll_sqrt = sqrt(
 8001fda:	4618      	mov	r0, r3
 8001fdc:	f7fe fa12 	bl	8000404 <__aeabi_i2d>
 8001fe0:	4602      	mov	r2, r0
 8001fe2:	460b      	mov	r3, r1
 8001fe4:	4610      	mov	r0, r2
 8001fe6:	4619      	mov	r1, r3
 8001fe8:	f007 f8d9 	bl	800919e <sqrt>
 8001fec:	e9c7 0108 	strd	r0, r1, [r7, #32]
    if (roll_sqrt != 0.0)
 8001ff0:	f04f 0200 	mov.w	r2, #0
 8001ff4:	f04f 0300 	mov.w	r3, #0
 8001ff8:	e9d7 0108 	ldrd	r0, r1, [r7, #32]
 8001ffc:	f7fe fcd4 	bl	80009a8 <__aeabi_dcmpeq>
 8002000:	4603      	mov	r3, r0
 8002002:	2b00      	cmp	r3, #0
 8002004:	d119      	bne.n	800203a <MPU6050_Read_All+0x23a>
    {
        roll = atan(DataStruct->Accel_Y_RAW / roll_sqrt) * RAD_TO_DEG;
 8002006:	683b      	ldr	r3, [r7, #0]
 8002008:	f9b3 3002 	ldrsh.w	r3, [r3, #2]
 800200c:	4618      	mov	r0, r3
 800200e:	f7fe f9f9 	bl	8000404 <__aeabi_i2d>
 8002012:	e9d7 2308 	ldrd	r2, r3, [r7, #32]
 8002016:	f7fe fb89 	bl	800072c <__aeabi_ddiv>
 800201a:	4602      	mov	r2, r0
 800201c:	460b      	mov	r3, r1
 800201e:	4610      	mov	r0, r2
 8002020:	4619      	mov	r1, r3
 8002022:	f007 f8e1 	bl	80091e8 <atan>
 8002026:	a336      	add	r3, pc, #216	; (adr r3, 8002100 <MPU6050_Read_All+0x300>)
 8002028:	e9d3 2300 	ldrd	r2, r3, [r3]
 800202c:	f7fe fa54 	bl	80004d8 <__aeabi_dmul>
 8002030:	4602      	mov	r2, r0
 8002032:	460b      	mov	r3, r1
 8002034:	e9c7 230e 	strd	r2, r3, [r7, #56]	; 0x38
 8002038:	e005      	b.n	8002046 <MPU6050_Read_All+0x246>
    }
    else
    {
        roll = 0.0;
 800203a:	f04f 0200 	mov.w	r2, #0
 800203e:	f04f 0300 	mov.w	r3, #0
 8002042:	e9c7 230e 	strd	r2, r3, [r7, #56]	; 0x38
    }
    double pitch = atan2(-DataStruct->Accel_X_RAW, DataStruct->Accel_Z_RAW) * RAD_TO_DEG;
 8002046:	683b      	ldr	r3, [r7, #0]
 8002048:	f9b3 3000 	ldrsh.w	r3, [r3]
 800204c:	425b      	negs	r3, r3
 800204e:	4618      	mov	r0, r3
 8002050:	f7fe f9d8 	bl	8000404 <__aeabi_i2d>
 8002054:	4682      	mov	sl, r0
 8002056:	468b      	mov	fp, r1
 8002058:	683b      	ldr	r3, [r7, #0]
 800205a:	f9b3 3004 	ldrsh.w	r3, [r3, #4]
 800205e:	4618      	mov	r0, r3
 8002060:	f7fe f9d0 	bl	8000404 <__aeabi_i2d>
 8002064:	4602      	mov	r2, r0
 8002066:	460b      	mov	r3, r1
 8002068:	4650      	mov	r0, sl
 800206a:	4659      	mov	r1, fp
 800206c:	f007 f895 	bl	800919a <atan2>
 8002070:	a323      	add	r3, pc, #140	; (adr r3, 8002100 <MPU6050_Read_All+0x300>)
 8002072:	e9d3 2300 	ldrd	r2, r3, [r3]
 8002076:	f7fe fa2f 	bl	80004d8 <__aeabi_dmul>
 800207a:	4602      	mov	r2, r0
 800207c:	460b      	mov	r3, r1
 800207e:	e9c7 2306 	strd	r2, r3, [r7, #24]
    if ((pitch < -90 && DataStruct->KalmanAngleY > 90) || (pitch > 90 && DataStruct->KalmanAngleY < -90))
 8002082:	f04f 0200 	mov.w	r2, #0
 8002086:	4b25      	ldr	r3, [pc, #148]	; (800211c <MPU6050_Read_All+0x31c>)
 8002088:	e9d7 0106 	ldrd	r0, r1, [r7, #24]
 800208c:	f7fe fc96 	bl	80009bc <__aeabi_dcmplt>
 8002090:	4603      	mov	r3, r0
 8002092:	2b00      	cmp	r3, #0
 8002094:	d00a      	beq.n	80020ac <MPU6050_Read_All+0x2ac>
 8002096:	683b      	ldr	r3, [r7, #0]
 8002098:	e9d3 0114 	ldrd	r0, r1, [r3, #80]	; 0x50
 800209c:	f04f 0200 	mov.w	r2, #0
 80020a0:	4b1f      	ldr	r3, [pc, #124]	; (8002120 <MPU6050_Read_All+0x320>)
 80020a2:	f7fe fca9 	bl	80009f8 <__aeabi_dcmpgt>
 80020a6:	4603      	mov	r3, r0
 80020a8:	2b00      	cmp	r3, #0
 80020aa:	d114      	bne.n	80020d6 <MPU6050_Read_All+0x2d6>
 80020ac:	f04f 0200 	mov.w	r2, #0
 80020b0:	4b1b      	ldr	r3, [pc, #108]	; (8002120 <MPU6050_Read_All+0x320>)
 80020b2:	e9d7 0106 	ldrd	r0, r1, [r7, #24]
 80020b6:	f7fe fc9f 	bl	80009f8 <__aeabi_dcmpgt>
 80020ba:	4603      	mov	r3, r0
 80020bc:	2b00      	cmp	r3, #0
 80020be:	d033      	beq.n	8002128 <MPU6050_Read_All+0x328>
 80020c0:	683b      	ldr	r3, [r7, #0]
 80020c2:	e9d3 0114 	ldrd	r0, r1, [r3, #80]	; 0x50
 80020c6:	f04f 0200 	mov.w	r2, #0
 80020ca:	4b14      	ldr	r3, [pc, #80]	; (800211c <MPU6050_Read_All+0x31c>)
 80020cc:	f7fe fc76 	bl	80009bc <__aeabi_dcmplt>
 80020d0:	4603      	mov	r3, r0
 80020d2:	2b00      	cmp	r3, #0
 80020d4:	d028      	beq.n	8002128 <MPU6050_Read_All+0x328>
    {
        KalmanY.angle = pitch;
 80020d6:	4913      	ldr	r1, [pc, #76]	; (8002124 <MPU6050_Read_All+0x324>)
 80020d8:	e9d7 2306 	ldrd	r2, r3, [r7, #24]
 80020dc:	e9c1 2306 	strd	r2, r3, [r1, #24]
        DataStruct->KalmanAngleY = pitch;
 80020e0:	6839      	ldr	r1, [r7, #0]
 80020e2:	e9d7 2306 	ldrd	r2, r3, [r7, #24]
 80020e6:	e9c1 2314 	strd	r2, r3, [r1, #80]	; 0x50
 80020ea:	e030      	b.n	800214e <MPU6050_Read_All+0x34e>
 80020ec:	f3af 8000 	nop.w
 80020f0:	00000000 	.word	0x00000000
 80020f4:	40cc2900 	.word	0x40cc2900
 80020f8:	00000000 	.word	0x00000000
 80020fc:	40606000 	.word	0x40606000
 8002100:	1a63c1f8 	.word	0x1a63c1f8
 8002104:	404ca5dc 	.word	0x404ca5dc
 8002108:	40d00000 	.word	0x40d00000
 800210c:	43aa0000 	.word	0x43aa0000
 8002110:	42121eb8 	.word	0x42121eb8
 8002114:	200005e0 	.word	0x200005e0
 8002118:	408f4000 	.word	0x408f4000
 800211c:	c0568000 	.word	0xc0568000
 8002120:	40568000 	.word	0x40568000
 8002124:	20000060 	.word	0x20000060
    }
    else
    {
        DataStruct->KalmanAngleY = Kalman_getAngle(&KalmanY, pitch, DataStruct->Gy, dt);
 8002128:	683b      	ldr	r3, [r7, #0]
 800212a:	e9d3 230c 	ldrd	r2, r3, [r3, #48]	; 0x30
 800212e:	e9d7 010a 	ldrd	r0, r1, [r7, #40]	; 0x28
 8002132:	e9cd 0102 	strd	r0, r1, [sp, #8]
 8002136:	e9cd 2300 	strd	r2, r3, [sp]
 800213a:	e9d7 2306 	ldrd	r2, r3, [r7, #24]
 800213e:	481c      	ldr	r0, [pc, #112]	; (80021b0 <MPU6050_Read_All+0x3b0>)
 8002140:	f000 f83c 	bl	80021bc <Kalman_getAngle>
 8002144:	4602      	mov	r2, r0
 8002146:	460b      	mov	r3, r1
 8002148:	6839      	ldr	r1, [r7, #0]
 800214a:	e9c1 2314 	strd	r2, r3, [r1, #80]	; 0x50
    }
    if (fabs(DataStruct->KalmanAngleY) > 90)
 800214e:	683b      	ldr	r3, [r7, #0]
 8002150:	e9d3 2314 	ldrd	r2, r3, [r3, #80]	; 0x50
 8002154:	4690      	mov	r8, r2
 8002156:	f023 4900 	bic.w	r9, r3, #2147483648	; 0x80000000
 800215a:	f04f 0200 	mov.w	r2, #0
 800215e:	4b15      	ldr	r3, [pc, #84]	; (80021b4 <MPU6050_Read_All+0x3b4>)
 8002160:	4640      	mov	r0, r8
 8002162:	4649      	mov	r1, r9
 8002164:	f7fe fc48 	bl	80009f8 <__aeabi_dcmpgt>
 8002168:	4603      	mov	r3, r0
 800216a:	2b00      	cmp	r3, #0
 800216c:	d008      	beq.n	8002180 <MPU6050_Read_All+0x380>
        DataStruct->Gx = -DataStruct->Gx;
 800216e:	683b      	ldr	r3, [r7, #0]
 8002170:	e9d3 230a 	ldrd	r2, r3, [r3, #40]	; 0x28
 8002174:	4614      	mov	r4, r2
 8002176:	f083 4500 	eor.w	r5, r3, #2147483648	; 0x80000000
 800217a:	683b      	ldr	r3, [r7, #0]
 800217c:	e9c3 450a 	strd	r4, r5, [r3, #40]	; 0x28
    DataStruct->KalmanAngleX = Kalman_getAngle(&KalmanX, roll, DataStruct->Gx, dt);
 8002180:	683b      	ldr	r3, [r7, #0]
 8002182:	e9d3 230a 	ldrd	r2, r3, [r3, #40]	; 0x28
 8002186:	e9d7 010a 	ldrd	r0, r1, [r7, #40]	; 0x28
 800218a:	e9cd 0102 	strd	r0, r1, [sp, #8]
 800218e:	e9cd 2300 	strd	r2, r3, [sp]
 8002192:	e9d7 230e 	ldrd	r2, r3, [r7, #56]	; 0x38
 8002196:	4808      	ldr	r0, [pc, #32]	; (80021b8 <MPU6050_Read_All+0x3b8>)
 8002198:	f000 f810 	bl	80021bc <Kalman_getAngle>
 800219c:	4602      	mov	r2, r0
 800219e:	460b      	mov	r3, r1
 80021a0:	6839      	ldr	r1, [r7, #0]
 80021a2:	e9c1 2312 	strd	r2, r3, [r1, #72]	; 0x48
}
 80021a6:	bf00      	nop
 80021a8:	3740      	adds	r7, #64	; 0x40
 80021aa:	46bd      	mov	sp, r7
 80021ac:	e8bd 8fb0 	ldmia.w	sp!, {r4, r5, r7, r8, r9, sl, fp, pc}
 80021b0:	20000060 	.word	0x20000060
 80021b4:	40568000 	.word	0x40568000
 80021b8:	20000018 	.word	0x20000018

080021bc <Kalman_getAngle>:

double Kalman_getAngle(Kalman_t *Kalman, double newAngle, double newRate, double dt)
{
 80021bc:	b5b0      	push	{r4, r5, r7, lr}
 80021be:	b092      	sub	sp, #72	; 0x48
 80021c0:	af00      	add	r7, sp, #0
 80021c2:	60f8      	str	r0, [r7, #12]
 80021c4:	e9c7 2300 	strd	r2, r3, [r7]
    double rate = newRate - Kalman->bias;
 80021c8:	68fb      	ldr	r3, [r7, #12]
 80021ca:	e9d3 2308 	ldrd	r2, r3, [r3, #32]
 80021ce:	e9d7 0116 	ldrd	r0, r1, [r7, #88]	; 0x58
 80021d2:	f7fd ffc9 	bl	8000168 <__aeabi_dsub>
 80021d6:	4602      	mov	r2, r0
 80021d8:	460b      	mov	r3, r1
 80021da:	e9c7 2310 	strd	r2, r3, [r7, #64]	; 0x40
    Kalman->angle += dt * rate;
 80021de:	68fb      	ldr	r3, [r7, #12]
 80021e0:	e9d3 4506 	ldrd	r4, r5, [r3, #24]
 80021e4:	e9d7 2310 	ldrd	r2, r3, [r7, #64]	; 0x40
 80021e8:	e9d7 0118 	ldrd	r0, r1, [r7, #96]	; 0x60
 80021ec:	f7fe f974 	bl	80004d8 <__aeabi_dmul>
 80021f0:	4602      	mov	r2, r0
 80021f2:	460b      	mov	r3, r1
 80021f4:	4620      	mov	r0, r4
 80021f6:	4629      	mov	r1, r5
 80021f8:	f7fd ffb8 	bl	800016c <__adddf3>
 80021fc:	4602      	mov	r2, r0
 80021fe:	460b      	mov	r3, r1
 8002200:	68f9      	ldr	r1, [r7, #12]
 8002202:	e9c1 2306 	strd	r2, r3, [r1, #24]

    Kalman->P[0][0] += dt * (dt * Kalman->P[1][1] - Kalman->P[0][1] - Kalman->P[1][0] + Kalman->Q_angle);
 8002206:	68fb      	ldr	r3, [r7, #12]
 8002208:	e9d3 450a 	ldrd	r4, r5, [r3, #40]	; 0x28
 800220c:	68fb      	ldr	r3, [r7, #12]
 800220e:	e9d3 0110 	ldrd	r0, r1, [r3, #64]	; 0x40
 8002212:	e9d7 2318 	ldrd	r2, r3, [r7, #96]	; 0x60
 8002216:	f7fe f95f 	bl	80004d8 <__aeabi_dmul>
 800221a:	4602      	mov	r2, r0
 800221c:	460b      	mov	r3, r1
 800221e:	4610      	mov	r0, r2
 8002220:	4619      	mov	r1, r3
 8002222:	68fb      	ldr	r3, [r7, #12]
 8002224:	e9d3 230c 	ldrd	r2, r3, [r3, #48]	; 0x30
 8002228:	f7fd ff9e 	bl	8000168 <__aeabi_dsub>
 800222c:	4602      	mov	r2, r0
 800222e:	460b      	mov	r3, r1
 8002230:	4610      	mov	r0, r2
 8002232:	4619      	mov	r1, r3
 8002234:	68fb      	ldr	r3, [r7, #12]
 8002236:	e9d3 230e 	ldrd	r2, r3, [r3, #56]	; 0x38
 800223a:	f7fd ff95 	bl	8000168 <__aeabi_dsub>
 800223e:	4602      	mov	r2, r0
 8002240:	460b      	mov	r3, r1
 8002242:	4610      	mov	r0, r2
 8002244:	4619      	mov	r1, r3
 8002246:	68fb      	ldr	r3, [r7, #12]
 8002248:	e9d3 2300 	ldrd	r2, r3, [r3]
 800224c:	f7fd ff8e 	bl	800016c <__adddf3>
 8002250:	4602      	mov	r2, r0
 8002252:	460b      	mov	r3, r1
 8002254:	4610      	mov	r0, r2
 8002256:	4619      	mov	r1, r3
 8002258:	e9d7 2318 	ldrd	r2, r3, [r7, #96]	; 0x60
 800225c:	f7fe f93c 	bl	80004d8 <__aeabi_dmul>
 8002260:	4602      	mov	r2, r0
 8002262:	460b      	mov	r3, r1
 8002264:	4620      	mov	r0, r4
 8002266:	4629      	mov	r1, r5
 8002268:	f7fd ff80 	bl	800016c <__adddf3>
 800226c:	4602      	mov	r2, r0
 800226e:	460b      	mov	r3, r1
 8002270:	68f9      	ldr	r1, [r7, #12]
 8002272:	e9c1 230a 	strd	r2, r3, [r1, #40]	; 0x28
    Kalman->P[0][1] -= dt * Kalman->P[1][1];
 8002276:	68fb      	ldr	r3, [r7, #12]
 8002278:	e9d3 450c 	ldrd	r4, r5, [r3, #48]	; 0x30
 800227c:	68fb      	ldr	r3, [r7, #12]
 800227e:	e9d3 0110 	ldrd	r0, r1, [r3, #64]	; 0x40
 8002282:	e9d7 2318 	ldrd	r2, r3, [r7, #96]	; 0x60
 8002286:	f7fe f927 	bl	80004d8 <__aeabi_dmul>
 800228a:	4602      	mov	r2, r0
 800228c:	460b      	mov	r3, r1
 800228e:	4620      	mov	r0, r4
 8002290:	4629      	mov	r1, r5
 8002292:	f7fd ff69 	bl	8000168 <__aeabi_dsub>
 8002296:	4602      	mov	r2, r0
 8002298:	460b      	mov	r3, r1
 800229a:	68f9      	ldr	r1, [r7, #12]
 800229c:	e9c1 230c 	strd	r2, r3, [r1, #48]	; 0x30
    Kalman->P[1][0] -= dt * Kalman->P[1][1];
 80022a0:	68fb      	ldr	r3, [r7, #12]
 80022a2:	e9d3 450e 	ldrd	r4, r5, [r3, #56]	; 0x38
 80022a6:	68fb      	ldr	r3, [r7, #12]
 80022a8:	e9d3 0110 	ldrd	r0, r1, [r3, #64]	; 0x40
 80022ac:	e9d7 2318 	ldrd	r2, r3, [r7, #96]	; 0x60
 80022b0:	f7fe f912 	bl	80004d8 <__aeabi_dmul>
 80022b4:	4602      	mov	r2, r0
 80022b6:	460b      	mov	r3, r1
 80022b8:	4620      	mov	r0, r4
 80022ba:	4629      	mov	r1, r5
 80022bc:	f7fd ff54 	bl	8000168 <__aeabi_dsub>
 80022c0:	4602      	mov	r2, r0
 80022c2:	460b      	mov	r3, r1
 80022c4:	68f9      	ldr	r1, [r7, #12]
 80022c6:	e9c1 230e 	strd	r2, r3, [r1, #56]	; 0x38
    Kalman->P[1][1] += Kalman->Q_bias * dt;
 80022ca:	68fb      	ldr	r3, [r7, #12]
 80022cc:	e9d3 4510 	ldrd	r4, r5, [r3, #64]	; 0x40
 80022d0:	68fb      	ldr	r3, [r7, #12]
 80022d2:	e9d3 0102 	ldrd	r0, r1, [r3, #8]
 80022d6:	e9d7 2318 	ldrd	r2, r3, [r7, #96]	; 0x60
 80022da:	f7fe f8fd 	bl	80004d8 <__aeabi_dmul>
 80022de:	4602      	mov	r2, r0
 80022e0:	460b      	mov	r3, r1
 80022e2:	4620      	mov	r0, r4
 80022e4:	4629      	mov	r1, r5
 80022e6:	f7fd ff41 	bl	800016c <__adddf3>
 80022ea:	4602      	mov	r2, r0
 80022ec:	460b      	mov	r3, r1
 80022ee:	68f9      	ldr	r1, [r7, #12]
 80022f0:	e9c1 2310 	strd	r2, r3, [r1, #64]	; 0x40

    double S = Kalman->P[0][0] + Kalman->R_measure;
 80022f4:	68fb      	ldr	r3, [r7, #12]
 80022f6:	e9d3 010a 	ldrd	r0, r1, [r3, #40]	; 0x28
 80022fa:	68fb      	ldr	r3, [r7, #12]
 80022fc:	e9d3 2304 	ldrd	r2, r3, [r3, #16]
 8002300:	f7fd ff34 	bl	800016c <__adddf3>
 8002304:	4602      	mov	r2, r0
 8002306:	460b      	mov	r3, r1
 8002308:	e9c7 230e 	strd	r2, r3, [r7, #56]	; 0x38
    double K[2];
    K[0] = Kalman->P[0][0] / S;
 800230c:	68fb      	ldr	r3, [r7, #12]
 800230e:	e9d3 010a 	ldrd	r0, r1, [r3, #40]	; 0x28
 8002312:	e9d7 230e 	ldrd	r2, r3, [r7, #56]	; 0x38
 8002316:	f7fe fa09 	bl	800072c <__aeabi_ddiv>
 800231a:	4602      	mov	r2, r0
 800231c:	460b      	mov	r3, r1
 800231e:	e9c7 2304 	strd	r2, r3, [r7, #16]
    K[1] = Kalman->P[1][0] / S;
 8002322:	68fb      	ldr	r3, [r7, #12]
 8002324:	e9d3 010e 	ldrd	r0, r1, [r3, #56]	; 0x38
 8002328:	e9d7 230e 	ldrd	r2, r3, [r7, #56]	; 0x38
 800232c:	f7fe f9fe 	bl	800072c <__aeabi_ddiv>
 8002330:	4602      	mov	r2, r0
 8002332:	460b      	mov	r3, r1
 8002334:	e9c7 2306 	strd	r2, r3, [r7, #24]

    double y = newAngle - Kalman->angle;
 8002338:	68fb      	ldr	r3, [r7, #12]
 800233a:	e9d3 2306 	ldrd	r2, r3, [r3, #24]
 800233e:	e9d7 0100 	ldrd	r0, r1, [r7]
 8002342:	f7fd ff11 	bl	8000168 <__aeabi_dsub>
 8002346:	4602      	mov	r2, r0
 8002348:	460b      	mov	r3, r1
 800234a:	e9c7 230c 	strd	r2, r3, [r7, #48]	; 0x30
    Kalman->angle += K[0] * y;
 800234e:	68fb      	ldr	r3, [r7, #12]
 8002350:	e9d3 4506 	ldrd	r4, r5, [r3, #24]
 8002354:	e9d7 0104 	ldrd	r0, r1, [r7, #16]
 8002358:	e9d7 230c 	ldrd	r2, r3, [r7, #48]	; 0x30
 800235c:	f7fe f8bc 	bl	80004d8 <__aeabi_dmul>
 8002360:	4602      	mov	r2, r0
 8002362:	460b      	mov	r3, r1
 8002364:	4620      	mov	r0, r4
 8002366:	4629      	mov	r1, r5
 8002368:	f7fd ff00 	bl	800016c <__adddf3>
 800236c:	4602      	mov	r2, r0
 800236e:	460b      	mov	r3, r1
 8002370:	68f9      	ldr	r1, [r7, #12]
 8002372:	e9c1 2306 	strd	r2, r3, [r1, #24]
    Kalman->bias += K[1] * y;
 8002376:	68fb      	ldr	r3, [r7, #12]
 8002378:	e9d3 4508 	ldrd	r4, r5, [r3, #32]
 800237c:	e9d7 0106 	ldrd	r0, r1, [r7, #24]
 8002380:	e9d7 230c 	ldrd	r2, r3, [r7, #48]	; 0x30
 8002384:	f7fe f8a8 	bl	80004d8 <__aeabi_dmul>
 8002388:	4602      	mov	r2, r0
 800238a:	460b      	mov	r3, r1
 800238c:	4620      	mov	r0, r4
 800238e:	4629      	mov	r1, r5
 8002390:	f7fd feec 	bl	800016c <__adddf3>
 8002394:	4602      	mov	r2, r0
 8002396:	460b      	mov	r3, r1
 8002398:	68f9      	ldr	r1, [r7, #12]
 800239a:	e9c1 2308 	strd	r2, r3, [r1, #32]

    double P00_temp = Kalman->P[0][0];
 800239e:	68fb      	ldr	r3, [r7, #12]
 80023a0:	e9d3 230a 	ldrd	r2, r3, [r3, #40]	; 0x28
 80023a4:	e9c7 230a 	strd	r2, r3, [r7, #40]	; 0x28
    double P01_temp = Kalman->P[0][1];
 80023a8:	68fb      	ldr	r3, [r7, #12]
 80023aa:	e9d3 230c 	ldrd	r2, r3, [r3, #48]	; 0x30
 80023ae:	e9c7 2308 	strd	r2, r3, [r7, #32]

    Kalman->P[0][0] -= K[0] * P00_temp;
 80023b2:	68fb      	ldr	r3, [r7, #12]
 80023b4:	e9d3 450a 	ldrd	r4, r5, [r3, #40]	; 0x28
 80023b8:	e9d7 0104 	ldrd	r0, r1, [r7, #16]
 80023bc:	e9d7 230a 	ldrd	r2, r3, [r7, #40]	; 0x28
 80023c0:	f7fe f88a 	bl	80004d8 <__aeabi_dmul>
 80023c4:	4602      	mov	r2, r0
 80023c6:	460b      	mov	r3, r1
 80023c8:	4620      	mov	r0, r4
 80023ca:	4629      	mov	r1, r5
 80023cc:	f7fd fecc 	bl	8000168 <__aeabi_dsub>
 80023d0:	4602      	mov	r2, r0
 80023d2:	460b      	mov	r3, r1
 80023d4:	68f9      	ldr	r1, [r7, #12]
 80023d6:	e9c1 230a 	strd	r2, r3, [r1, #40]	; 0x28
    Kalman->P[0][1] -= K[0] * P01_temp;
 80023da:	68fb      	ldr	r3, [r7, #12]
 80023dc:	e9d3 450c 	ldrd	r4, r5, [r3, #48]	; 0x30
 80023e0:	e9d7 0104 	ldrd	r0, r1, [r7, #16]
 80023e4:	e9d7 2308 	ldrd	r2, r3, [r7, #32]
 80023e8:	f7fe f876 	bl	80004d8 <__aeabi_dmul>
 80023ec:	4602      	mov	r2, r0
 80023ee:	460b      	mov	r3, r1
 80023f0:	4620      	mov	r0, r4
 80023f2:	4629      	mov	r1, r5
 80023f4:	f7fd feb8 	bl	8000168 <__aeabi_dsub>
 80023f8:	4602      	mov	r2, r0
 80023fa:	460b      	mov	r3, r1
 80023fc:	68f9      	ldr	r1, [r7, #12]
 80023fe:	e9c1 230c 	strd	r2, r3, [r1, #48]	; 0x30
    Kalman->P[1][0] -= K[1] * P00_temp;
 8002402:	68fb      	ldr	r3, [r7, #12]
 8002404:	e9d3 450e 	ldrd	r4, r5, [r3, #56]	; 0x38
 8002408:	e9d7 0106 	ldrd	r0, r1, [r7, #24]
 800240c:	e9d7 230a 	ldrd	r2, r3, [r7, #40]	; 0x28
 8002410:	f7fe f862 	bl	80004d8 <__aeabi_dmul>
 8002414:	4602      	mov	r2, r0
 8002416:	460b      	mov	r3, r1
 8002418:	4620      	mov	r0, r4
 800241a:	4629      	mov	r1, r5
 800241c:	f7fd fea4 	bl	8000168 <__aeabi_dsub>
 8002420:	4602      	mov	r2, r0
 8002422:	460b      	mov	r3, r1
 8002424:	68f9      	ldr	r1, [r7, #12]
 8002426:	e9c1 230e 	strd	r2, r3, [r1, #56]	; 0x38
    Kalman->P[1][1] -= K[1] * P01_temp;
 800242a:	68fb      	ldr	r3, [r7, #12]
 800242c:	e9d3 4510 	ldrd	r4, r5, [r3, #64]	; 0x40
 8002430:	e9d7 0106 	ldrd	r0, r1, [r7, #24]
 8002434:	e9d7 2308 	ldrd	r2, r3, [r7, #32]
 8002438:	f7fe f84e 	bl	80004d8 <__aeabi_dmul>
 800243c:	4602      	mov	r2, r0
 800243e:	460b      	mov	r3, r1
 8002440:	4620      	mov	r0, r4
 8002442:	4629      	mov	r1, r5
 8002444:	f7fd fe90 	bl	8000168 <__aeabi_dsub>
 8002448:	4602      	mov	r2, r0
 800244a:	460b      	mov	r3, r1
 800244c:	68f9      	ldr	r1, [r7, #12]
 800244e:	e9c1 2310 	strd	r2, r3, [r1, #64]	; 0x40

    return Kalman->angle;
 8002452:	68fb      	ldr	r3, [r7, #12]
 8002454:	e9d3 2306 	ldrd	r2, r3, [r3, #24]
};
 8002458:	4610      	mov	r0, r2
 800245a:	4619      	mov	r1, r3
 800245c:	3748      	adds	r7, #72	; 0x48
 800245e:	46bd      	mov	sp, r7
 8002460:	bdb0      	pop	{r4, r5, r7, pc}
	...

08002464 <_qFFMath_GetAbnormal>:
#define cast_reinterpret( dst, src, dst_type )                              \
(void)memcpy( &dst, &src, sizeof(dst_type) )                                \

/*============================================================================*/
float _qFFMath_GetAbnormal( const int i )
{
 8002464:	b480      	push	{r7}
 8002466:	b083      	sub	sp, #12
 8002468:	af00      	add	r7, sp, #0
 800246a:	6078      	str	r0, [r7, #4]
    static const uint32_t u_ab[ 2 ] = { 0x7F800000u, 0x7FBFFFFFu };
    static float f_ab[ 2 ] = { 0.0f, 0.0f };
    static bool init = true;

    if ( init ) {
 800246c:	4b0a      	ldr	r3, [pc, #40]	; (8002498 <_qFFMath_GetAbnormal+0x34>)
 800246e:	781b      	ldrb	r3, [r3, #0]
 8002470:	2b00      	cmp	r3, #0
 8002472:	d008      	beq.n	8002486 <_qFFMath_GetAbnormal+0x22>
        (void)memcpy( f_ab, u_ab, sizeof(f_ab) );
 8002474:	4b09      	ldr	r3, [pc, #36]	; (800249c <_qFFMath_GetAbnormal+0x38>)
 8002476:	4a0a      	ldr	r2, [pc, #40]	; (80024a0 <_qFFMath_GetAbnormal+0x3c>)
 8002478:	e892 0003 	ldmia.w	r2, {r0, r1}
 800247c:	e883 0003 	stmia.w	r3, {r0, r1}
        init = false;
 8002480:	4b05      	ldr	r3, [pc, #20]	; (8002498 <_qFFMath_GetAbnormal+0x34>)
 8002482:	2200      	movs	r2, #0
 8002484:	701a      	strb	r2, [r3, #0]
    }

    return f_ab[ i ];
 8002486:	4a05      	ldr	r2, [pc, #20]	; (800249c <_qFFMath_GetAbnormal+0x38>)
 8002488:	687b      	ldr	r3, [r7, #4]
 800248a:	f852 3023 	ldr.w	r3, [r2, r3, lsl #2]
}
 800248e:	4618      	mov	r0, r3
 8002490:	370c      	adds	r7, #12
 8002492:	46bd      	mov	sp, r7
 8002494:	bc80      	pop	{r7}
 8002496:	4770      	bx	lr
 8002498:	200000a8 	.word	0x200000a8
 800249c:	200005e4 	.word	0x200005e4
 80024a0:	08009ac8 	.word	0x08009ac8

080024a4 <qFFMath_FPClassify>:
/*============================================================================*/
int qFFMath_FPClassify( const float f )
{
 80024a4:	b480      	push	{r7}
 80024a6:	b085      	sub	sp, #20
 80024a8:	af00      	add	r7, sp, #0
 80024aa:	6078      	str	r0, [r7, #4]
    uint32_t u = 0u;
 80024ac:	2300      	movs	r3, #0
 80024ae:	60bb      	str	r3, [r7, #8]
 80024b0:	687b      	ldr	r3, [r7, #4]
    int retVal;

    cast_reinterpret( u, f, uint32_t );
 80024b2:	60bb      	str	r3, [r7, #8]
    u &= 0x7FFFFFFFu;
 80024b4:	68bb      	ldr	r3, [r7, #8]
 80024b6:	f023 4300 	bic.w	r3, r3, #2147483648	; 0x80000000
 80024ba:	60bb      	str	r3, [r7, #8]

    if ( 0u == u ) {
 80024bc:	68bb      	ldr	r3, [r7, #8]
 80024be:	2b00      	cmp	r3, #0
 80024c0:	d102      	bne.n	80024c8 <qFFMath_FPClassify+0x24>
        retVal = QFFM_FP_ZERO;
 80024c2:	2300      	movs	r3, #0
 80024c4:	60fb      	str	r3, [r7, #12]
 80024c6:	e016      	b.n	80024f6 <qFFMath_FPClassify+0x52>
    }
    else if ( u < 0x00800000u ) {
 80024c8:	68bb      	ldr	r3, [r7, #8]
 80024ca:	f5b3 0f00 	cmp.w	r3, #8388608	; 0x800000
 80024ce:	d202      	bcs.n	80024d6 <qFFMath_FPClassify+0x32>
        retVal = QFFM_FP_SUBNORMAL;
 80024d0:	2301      	movs	r3, #1
 80024d2:	60fb      	str	r3, [r7, #12]
 80024d4:	e00f      	b.n	80024f6 <qFFMath_FPClassify+0x52>
    }
    else if ( u < 0x7F800000u ) {
 80024d6:	68bb      	ldr	r3, [r7, #8]
 80024d8:	f1b3 4fff 	cmp.w	r3, #2139095040	; 0x7f800000
 80024dc:	d202      	bcs.n	80024e4 <qFFMath_FPClassify+0x40>
        retVal = QFFM_FP_NORMAL;
 80024de:	2302      	movs	r3, #2
 80024e0:	60fb      	str	r3, [r7, #12]
 80024e2:	e008      	b.n	80024f6 <qFFMath_FPClassify+0x52>
    }
    else if ( 0x7F800000U == u ) {
 80024e4:	68bb      	ldr	r3, [r7, #8]
 80024e6:	f1b3 4fff 	cmp.w	r3, #2139095040	; 0x7f800000
 80024ea:	d102      	bne.n	80024f2 <qFFMath_FPClassify+0x4e>
        retVal = QFFM_FP_INFINITE;
 80024ec:	2303      	movs	r3, #3
 80024ee:	60fb      	str	r3, [r7, #12]
 80024f0:	e001      	b.n	80024f6 <qFFMath_FPClassify+0x52>
    }
    else {
        retVal = QFFM_FP_NAN;
 80024f2:	2304      	movs	r3, #4
 80024f4:	60fb      	str	r3, [r7, #12]
    }

    return retVal;
 80024f6:	68fb      	ldr	r3, [r7, #12]
}
 80024f8:	4618      	mov	r0, r3
 80024fa:	3714      	adds	r7, #20
 80024fc:	46bd      	mov	sp, r7
 80024fe:	bc80      	pop	{r7}
 8002500:	4770      	bx	lr

08002502 <qFFMath_IsNaN>:
/*============================================================================*/
bool qFFMath_IsNaN( const float x )
{
 8002502:	b580      	push	{r7, lr}
 8002504:	b082      	sub	sp, #8
 8002506:	af00      	add	r7, sp, #0
 8002508:	6078      	str	r0, [r7, #4]
    return ( QFFM_FP_NAN == qFFMath_FPClassify( x ) );
 800250a:	6878      	ldr	r0, [r7, #4]
 800250c:	f7ff ffca 	bl	80024a4 <qFFMath_FPClassify>
 8002510:	4603      	mov	r3, r0
 8002512:	2b04      	cmp	r3, #4
 8002514:	bf0c      	ite	eq
 8002516:	2301      	moveq	r3, #1
 8002518:	2300      	movne	r3, #0
 800251a:	b2db      	uxtb	r3, r3
}
 800251c:	4618      	mov	r0, r3
 800251e:	3708      	adds	r7, #8
 8002520:	46bd      	mov	sp, r7
 8002522:	bd80      	pop	{r7, pc}

08002524 <qFFMath_Abs>:
{
    return ( qFFMath_FPClassify( x ) == QFFM_FP_NORMAL );
}
/*============================================================================*/
float qFFMath_Abs( float x )
{
 8002524:	b580      	push	{r7, lr}
 8002526:	b082      	sub	sp, #8
 8002528:	af00      	add	r7, sp, #0
 800252a:	6078      	str	r0, [r7, #4]
    return ( x < 0.0f ) ? -x : x;
 800252c:	f04f 0100 	mov.w	r1, #0
 8002530:	6878      	ldr	r0, [r7, #4]
 8002532:	f7fe fda5 	bl	8001080 <__aeabi_fcmplt>
 8002536:	4603      	mov	r3, r0
 8002538:	2b00      	cmp	r3, #0
 800253a:	d003      	beq.n	8002544 <qFFMath_Abs+0x20>
 800253c:	687b      	ldr	r3, [r7, #4]
 800253e:	f083 4300 	eor.w	r3, r3, #2147483648	; 0x80000000
 8002542:	e000      	b.n	8002546 <qFFMath_Abs+0x22>
 8002544:	687b      	ldr	r3, [r7, #4]
}
 8002546:	4618      	mov	r0, r3
 8002548:	3708      	adds	r7, #8
 800254a:	46bd      	mov	sp, r7
 800254c:	bd80      	pop	{r7, pc}

0800254e <qFFMath_Sqrt>:

    return z*( 2.0f - ( x*z ) );
}
/*============================================================================*/
float qFFMath_Sqrt( float x )
{
 800254e:	b580      	push	{r7, lr}
 8002550:	b086      	sub	sp, #24
 8002552:	af00      	add	r7, sp, #0
 8002554:	6078      	str	r0, [r7, #4]
    float retVal;

    if ( x < 0.0f ) {
 8002556:	687b      	ldr	r3, [r7, #4]
 8002558:	f04f 0100 	mov.w	r1, #0
 800255c:	4618      	mov	r0, r3
 800255e:	f7fe fd8f 	bl	8001080 <__aeabi_fcmplt>
 8002562:	4603      	mov	r3, r0
 8002564:	2b00      	cmp	r3, #0
 8002566:	d004      	beq.n	8002572 <qFFMath_Sqrt+0x24>
        retVal = QFFM_NAN;
 8002568:	2001      	movs	r0, #1
 800256a:	f7ff ff7b 	bl	8002464 <_qFFMath_GetAbnormal>
 800256e:	6178      	str	r0, [r7, #20]
 8002570:	e02f      	b.n	80025d2 <qFFMath_Sqrt+0x84>
    }
    else if ( QFFM_FP_ZERO == qFFMath_FPClassify( x ) ) {
 8002572:	687b      	ldr	r3, [r7, #4]
 8002574:	4618      	mov	r0, r3
 8002576:	f7ff ff95 	bl	80024a4 <qFFMath_FPClassify>
 800257a:	4603      	mov	r3, r0
 800257c:	2b00      	cmp	r3, #0
 800257e:	d103      	bne.n	8002588 <qFFMath_Sqrt+0x3a>
        retVal = 0.0f;
 8002580:	f04f 0300 	mov.w	r3, #0
 8002584:	617b      	str	r3, [r7, #20]
 8002586:	e024      	b.n	80025d2 <qFFMath_Sqrt+0x84>
    }
    else {
        uint32_t y = 0u;
 8002588:	2300      	movs	r3, #0
 800258a:	613b      	str	r3, [r7, #16]
        float z = 0.0f;
 800258c:	f04f 0300 	mov.w	r3, #0
 8002590:	60fb      	str	r3, [r7, #12]
 8002592:	687b      	ldr	r3, [r7, #4]

        cast_reinterpret( y, x, uint32_t );
 8002594:	613b      	str	r3, [r7, #16]
        y = ( ( y - 0x00800000u ) >> 1u ) + 0x20000000u;
 8002596:	693b      	ldr	r3, [r7, #16]
 8002598:	f5a3 0300 	sub.w	r3, r3, #8388608	; 0x800000
 800259c:	085b      	lsrs	r3, r3, #1
 800259e:	f103 5300 	add.w	r3, r3, #536870912	; 0x20000000
 80025a2:	613b      	str	r3, [r7, #16]
 80025a4:	693b      	ldr	r3, [r7, #16]
        cast_reinterpret( z, y, float );
 80025a6:	60fb      	str	r3, [r7, #12]
        retVal = ( ( x/z ) + z ) * 0.5f;
 80025a8:	687b      	ldr	r3, [r7, #4]
 80025aa:	68fa      	ldr	r2, [r7, #12]
 80025ac:	4611      	mov	r1, r2
 80025ae:	4618      	mov	r0, r3
 80025b0:	f7fe fc7c 	bl	8000eac <__aeabi_fdiv>
 80025b4:	4603      	mov	r3, r0
 80025b6:	461a      	mov	r2, r3
 80025b8:	68fb      	ldr	r3, [r7, #12]
 80025ba:	4619      	mov	r1, r3
 80025bc:	4610      	mov	r0, r2
 80025be:	f7fe fab9 	bl	8000b34 <__addsf3>
 80025c2:	4603      	mov	r3, r0
 80025c4:	f04f 517c 	mov.w	r1, #1056964608	; 0x3f000000
 80025c8:	4618      	mov	r0, r3
 80025ca:	f7fe fbbb 	bl	8000d44 <__aeabi_fmul>
 80025ce:	4603      	mov	r3, r0
 80025d0:	617b      	str	r3, [r7, #20]
    }

    return retVal;
 80025d2:	697b      	ldr	r3, [r7, #20]
}
 80025d4:	4618      	mov	r0, r3
 80025d6:	3718      	adds	r7, #24
 80025d8:	46bd      	mov	sp, r7
 80025da:	bd80      	pop	{r7, pc}

080025dc <qFFMath_Sin>:
    return ( QFFM_FP_ZERO == qFFMath_FPClassify( x )) ? QFFM_NAN
                                                      : ( x - ( y*qFFMath_Trunc( x/y ) ) );
}
/*============================================================================*/
float qFFMath_Sin( float x )
{
 80025dc:	b580      	push	{r7, lr}
 80025de:	b084      	sub	sp, #16
 80025e0:	af00      	add	r7, sp, #0
 80025e2:	6078      	str	r0, [r7, #4]
    float y;
    x *= -0.318309886f;
 80025e4:	491e      	ldr	r1, [pc, #120]	; (8002660 <qFFMath_Sin+0x84>)
 80025e6:	6878      	ldr	r0, [r7, #4]
 80025e8:	f7fe fbac 	bl	8000d44 <__aeabi_fmul>
 80025ec:	4603      	mov	r3, r0
 80025ee:	607b      	str	r3, [r7, #4]
    y = x + 25165824.0f;
 80025f0:	491c      	ldr	r1, [pc, #112]	; (8002664 <qFFMath_Sin+0x88>)
 80025f2:	6878      	ldr	r0, [r7, #4]
 80025f4:	f7fe fa9e 	bl	8000b34 <__addsf3>
 80025f8:	4603      	mov	r3, r0
 80025fa:	60fb      	str	r3, [r7, #12]
    x -= y - 25165824.0f;
 80025fc:	4919      	ldr	r1, [pc, #100]	; (8002664 <qFFMath_Sin+0x88>)
 80025fe:	68f8      	ldr	r0, [r7, #12]
 8002600:	f7fe fa96 	bl	8000b30 <__aeabi_fsub>
 8002604:	4603      	mov	r3, r0
 8002606:	4619      	mov	r1, r3
 8002608:	6878      	ldr	r0, [r7, #4]
 800260a:	f7fe fa91 	bl	8000b30 <__aeabi_fsub>
 800260e:	4603      	mov	r3, r0
 8002610:	607b      	str	r3, [r7, #4]
    x *= qFFMath_Abs( x ) - 1.0f;
 8002612:	6878      	ldr	r0, [r7, #4]
 8002614:	f7ff ff86 	bl	8002524 <qFFMath_Abs>
 8002618:	4603      	mov	r3, r0
 800261a:	f04f 517e 	mov.w	r1, #1065353216	; 0x3f800000
 800261e:	4618      	mov	r0, r3
 8002620:	f7fe fa86 	bl	8000b30 <__aeabi_fsub>
 8002624:	4603      	mov	r3, r0
 8002626:	4619      	mov	r1, r3
 8002628:	6878      	ldr	r0, [r7, #4]
 800262a:	f7fe fb8b 	bl	8000d44 <__aeabi_fmul>
 800262e:	4603      	mov	r3, r0
 8002630:	607b      	str	r3, [r7, #4]
    return x*( ( 3.5841304553896f*qFFMath_Abs( x ) ) + 3.1039673861526f );
 8002632:	6878      	ldr	r0, [r7, #4]
 8002634:	f7ff ff76 	bl	8002524 <qFFMath_Abs>
 8002638:	4603      	mov	r3, r0
 800263a:	490b      	ldr	r1, [pc, #44]	; (8002668 <qFFMath_Sin+0x8c>)
 800263c:	4618      	mov	r0, r3
 800263e:	f7fe fb81 	bl	8000d44 <__aeabi_fmul>
 8002642:	4603      	mov	r3, r0
 8002644:	4909      	ldr	r1, [pc, #36]	; (800266c <qFFMath_Sin+0x90>)
 8002646:	4618      	mov	r0, r3
 8002648:	f7fe fa74 	bl	8000b34 <__addsf3>
 800264c:	4603      	mov	r3, r0
 800264e:	6879      	ldr	r1, [r7, #4]
 8002650:	4618      	mov	r0, r3
 8002652:	f7fe fb77 	bl	8000d44 <__aeabi_fmul>
 8002656:	4603      	mov	r3, r0
}
 8002658:	4618      	mov	r0, r3
 800265a:	3710      	adds	r7, #16
 800265c:	46bd      	mov	sp, r7
 800265e:	bd80      	pop	{r7, pc}
 8002660:	bea2f983 	.word	0xbea2f983
 8002664:	4bc00000 	.word	0x4bc00000
 8002668:	40656265 	.word	0x40656265
 800266c:	4046a767 	.word	0x4046a767

08002670 <qFFMath_Cos>:
/*============================================================================*/
float qFFMath_Cos( float x )
{
 8002670:	b580      	push	{r7, lr}
 8002672:	b082      	sub	sp, #8
 8002674:	af00      	add	r7, sp, #0
 8002676:	6078      	str	r0, [r7, #4]
    return qFFMath_Sin( x + 1.570796327f );
 8002678:	4906      	ldr	r1, [pc, #24]	; (8002694 <qFFMath_Cos+0x24>)
 800267a:	6878      	ldr	r0, [r7, #4]
 800267c:	f7fe fa5a 	bl	8000b34 <__addsf3>
 8002680:	4603      	mov	r3, r0
 8002682:	4618      	mov	r0, r3
 8002684:	f7ff ffaa 	bl	80025dc <qFFMath_Sin>
 8002688:	4603      	mov	r3, r0
}
 800268a:	4618      	mov	r0, r3
 800268c:	3708      	adds	r7, #8
 800268e:	46bd      	mov	sp, r7
 8002690:	bd80      	pop	{r7, pc}
 8002692:	bf00      	nop
 8002694:	3fc90fdb 	.word	0x3fc90fdb

08002698 <qFFMath_Exp2>:
    y = qFFMath_ATan( y/( x + f ) ) + ( ( x < 0.0f ) ? t : 0.0f );
    return y + ( f*( ( 0.5f*t ) - y ) );
}
/*============================================================================*/
float qFFMath_Exp2( float x )
{
 8002698:	b580      	push	{r7, lr}
 800269a:	b086      	sub	sp, #24
 800269c:	af00      	add	r7, sp, #0
 800269e:	6078      	str	r0, [r7, #4]
    float retVal;

    if ( x <= -126.0f ) {
 80026a0:	492e      	ldr	r1, [pc, #184]	; (800275c <qFFMath_Exp2+0xc4>)
 80026a2:	6878      	ldr	r0, [r7, #4]
 80026a4:	f7fe fcf6 	bl	8001094 <__aeabi_fcmple>
 80026a8:	4603      	mov	r3, r0
 80026aa:	2b00      	cmp	r3, #0
 80026ac:	d003      	beq.n	80026b6 <qFFMath_Exp2+0x1e>
        retVal = 0.0f;
 80026ae:	f04f 0300 	mov.w	r3, #0
 80026b2:	617b      	str	r3, [r7, #20]
 80026b4:	e04c      	b.n	8002750 <qFFMath_Exp2+0xb8>
    }
    else if ( x > 128.0f ) {
 80026b6:	f04f 4186 	mov.w	r1, #1124073472	; 0x43000000
 80026ba:	6878      	ldr	r0, [r7, #4]
 80026bc:	f7fe fcfe 	bl	80010bc <__aeabi_fcmpgt>
 80026c0:	4603      	mov	r3, r0
 80026c2:	2b00      	cmp	r3, #0
 80026c4:	d004      	beq.n	80026d0 <qFFMath_Exp2+0x38>
        retVal = QFFM_INFINITY;
 80026c6:	2000      	movs	r0, #0
 80026c8:	f7ff fecc 	bl	8002464 <_qFFMath_GetAbnormal>
 80026cc:	6178      	str	r0, [r7, #20]
 80026ce:	e03f      	b.n	8002750 <qFFMath_Exp2+0xb8>
    }
    else {
        float y = 0.0f;
 80026d0:	f04f 0300 	mov.w	r3, #0
 80026d4:	613b      	str	r3, [r7, #16]
        uint32_t exponent;
        /*cstat -CERT-FLP34-C -MISRAC2012-Rule-10.8*/
        exponent = (uint32_t)( x + 127.0f );
 80026d6:	4922      	ldr	r1, [pc, #136]	; (8002760 <qFFMath_Exp2+0xc8>)
 80026d8:	6878      	ldr	r0, [r7, #4]
 80026da:	f7fe fa2b 	bl	8000b34 <__addsf3>
 80026de:	4603      	mov	r3, r0
 80026e0:	4618      	mov	r0, r3
 80026e2:	f7fe fd1b 	bl	800111c <__aeabi_f2uiz>
 80026e6:	4603      	mov	r3, r0
 80026e8:	60fb      	str	r3, [r7, #12]
        /*cstat +CERT-FLP34-C +MISRAC2012-Rule-10.8 -CERT-FLP36-C*/
        x += 127.0f - (float)exponent;
 80026ea:	68fb      	ldr	r3, [r7, #12]
 80026ec:	4618      	mov	r0, r3
 80026ee:	f7fe fad1 	bl	8000c94 <__aeabi_ui2f>
 80026f2:	4603      	mov	r3, r0
 80026f4:	4619      	mov	r1, r3
 80026f6:	481a      	ldr	r0, [pc, #104]	; (8002760 <qFFMath_Exp2+0xc8>)
 80026f8:	f7fe fa1a 	bl	8000b30 <__aeabi_fsub>
 80026fc:	4603      	mov	r3, r0
 80026fe:	4619      	mov	r1, r3
 8002700:	6878      	ldr	r0, [r7, #4]
 8002702:	f7fe fa17 	bl	8000b34 <__addsf3>
 8002706:	4603      	mov	r3, r0
 8002708:	607b      	str	r3, [r7, #4]
        /*cstat +CERT-FLP36-C*/
        exponent <<= 23u;
 800270a:	68fb      	ldr	r3, [r7, #12]
 800270c:	05db      	lsls	r3, r3, #23
 800270e:	60fb      	str	r3, [r7, #12]
 8002710:	68fb      	ldr	r3, [r7, #12]
        cast_reinterpret( y, exponent, float );
 8002712:	613b      	str	r3, [r7, #16]
        x *= ( x*0.339766027f ) + 0.660233972f;
 8002714:	4913      	ldr	r1, [pc, #76]	; (8002764 <qFFMath_Exp2+0xcc>)
 8002716:	6878      	ldr	r0, [r7, #4]
 8002718:	f7fe fb14 	bl	8000d44 <__aeabi_fmul>
 800271c:	4603      	mov	r3, r0
 800271e:	4912      	ldr	r1, [pc, #72]	; (8002768 <qFFMath_Exp2+0xd0>)
 8002720:	4618      	mov	r0, r3
 8002722:	f7fe fa07 	bl	8000b34 <__addsf3>
 8002726:	4603      	mov	r3, r0
 8002728:	4619      	mov	r1, r3
 800272a:	6878      	ldr	r0, [r7, #4]
 800272c:	f7fe fb0a 	bl	8000d44 <__aeabi_fmul>
 8002730:	4603      	mov	r3, r0
 8002732:	607b      	str	r3, [r7, #4]
        retVal = y*( x + 1.0f );
 8002734:	f04f 517e 	mov.w	r1, #1065353216	; 0x3f800000
 8002738:	6878      	ldr	r0, [r7, #4]
 800273a:	f7fe f9fb 	bl	8000b34 <__addsf3>
 800273e:	4603      	mov	r3, r0
 8002740:	461a      	mov	r2, r3
 8002742:	693b      	ldr	r3, [r7, #16]
 8002744:	4619      	mov	r1, r3
 8002746:	4610      	mov	r0, r2
 8002748:	f7fe fafc 	bl	8000d44 <__aeabi_fmul>
 800274c:	4603      	mov	r3, r0
 800274e:	617b      	str	r3, [r7, #20]
    }

    return retVal;
 8002750:	697b      	ldr	r3, [r7, #20]
}
 8002752:	4618      	mov	r0, r3
 8002754:	3718      	adds	r7, #24
 8002756:	46bd      	mov	sp, r7
 8002758:	bd80      	pop	{r7, pc}
 800275a:	bf00      	nop
 800275c:	c2fc0000 	.word	0xc2fc0000
 8002760:	42fe0000 	.word	0x42fe0000
 8002764:	3eadf5d0 	.word	0x3eadf5d0
 8002768:	3f290518 	.word	0x3f290518

0800276c <qFFMath_Log2>:
/*============================================================================*/
float qFFMath_Log2( float x )
{
 800276c:	b580      	push	{r7, lr}
 800276e:	b086      	sub	sp, #24
 8002770:	af00      	add	r7, sp, #0
 8002772:	6078      	str	r0, [r7, #4]
    float retVal;

    if ( x < 0.0f ) {
 8002774:	687b      	ldr	r3, [r7, #4]
 8002776:	f04f 0100 	mov.w	r1, #0
 800277a:	4618      	mov	r0, r3
 800277c:	f7fe fc80 	bl	8001080 <__aeabi_fcmplt>
 8002780:	4603      	mov	r3, r0
 8002782:	2b00      	cmp	r3, #0
 8002784:	d004      	beq.n	8002790 <qFFMath_Log2+0x24>
        retVal = QFFM_NAN;
 8002786:	2001      	movs	r0, #1
 8002788:	f7ff fe6c 	bl	8002464 <_qFFMath_GetAbnormal>
 800278c:	6178      	str	r0, [r7, #20]
 800278e:	e049      	b.n	8002824 <qFFMath_Log2+0xb8>
    }
    else if ( QFFM_FP_ZERO == qFFMath_FPClassify( x ) ) {
 8002790:	687b      	ldr	r3, [r7, #4]
 8002792:	4618      	mov	r0, r3
 8002794:	f7ff fe86 	bl	80024a4 <qFFMath_FPClassify>
 8002798:	4603      	mov	r3, r0
 800279a:	2b00      	cmp	r3, #0
 800279c:	d107      	bne.n	80027ae <qFFMath_Log2+0x42>
        retVal = -QFFM_INFINITY;
 800279e:	2000      	movs	r0, #0
 80027a0:	f7ff fe60 	bl	8002464 <_qFFMath_GetAbnormal>
 80027a4:	4603      	mov	r3, r0
 80027a6:	f083 4300 	eor.w	r3, r3, #2147483648	; 0x80000000
 80027aa:	617b      	str	r3, [r7, #20]
 80027ac:	e03a      	b.n	8002824 <qFFMath_Log2+0xb8>
    }
    else {
        uint32_t y = 0u, y2;
 80027ae:	2300      	movs	r3, #0
 80027b0:	60fb      	str	r3, [r7, #12]
 80027b2:	687b      	ldr	r3, [r7, #4]

        cast_reinterpret( y, x, uint32_t );
 80027b4:	60fb      	str	r3, [r7, #12]
        y2 = y;
 80027b6:	68fb      	ldr	r3, [r7, #12]
 80027b8:	613b      	str	r3, [r7, #16]
        y >>= 23u;
 80027ba:	68fb      	ldr	r3, [r7, #12]
 80027bc:	0ddb      	lsrs	r3, r3, #23
 80027be:	60fb      	str	r3, [r7, #12]
        /*cstat -CERT-FLP36-C*/
        retVal = (float)y;
 80027c0:	68fb      	ldr	r3, [r7, #12]
 80027c2:	4618      	mov	r0, r3
 80027c4:	f7fe fa66 	bl	8000c94 <__aeabi_ui2f>
 80027c8:	4603      	mov	r3, r0
 80027ca:	617b      	str	r3, [r7, #20]
        /*cstat +CERT-FLP36-C*/
        y = ( y2 & 0x007FFFFFu ) | 0x3F800000u;
 80027cc:	693b      	ldr	r3, [r7, #16]
 80027ce:	f3c3 0316 	ubfx	r3, r3, #0, #23
 80027d2:	f043 537e 	orr.w	r3, r3, #1065353216	; 0x3f800000
 80027d6:	60fb      	str	r3, [r7, #12]
 80027d8:	68fb      	ldr	r3, [r7, #12]
        cast_reinterpret( x, y, float );
 80027da:	607b      	str	r3, [r7, #4]
        retVal += -128.0f + ( x*( ( -0.333333333f*x ) + 2.0f ) ) - 0.666666666f;
 80027dc:	687b      	ldr	r3, [r7, #4]
 80027de:	4914      	ldr	r1, [pc, #80]	; (8002830 <qFFMath_Log2+0xc4>)
 80027e0:	4618      	mov	r0, r3
 80027e2:	f7fe faaf 	bl	8000d44 <__aeabi_fmul>
 80027e6:	4603      	mov	r3, r0
 80027e8:	f04f 4180 	mov.w	r1, #1073741824	; 0x40000000
 80027ec:	4618      	mov	r0, r3
 80027ee:	f7fe f9a1 	bl	8000b34 <__addsf3>
 80027f2:	4603      	mov	r3, r0
 80027f4:	461a      	mov	r2, r3
 80027f6:	687b      	ldr	r3, [r7, #4]
 80027f8:	4619      	mov	r1, r3
 80027fa:	4610      	mov	r0, r2
 80027fc:	f7fe faa2 	bl	8000d44 <__aeabi_fmul>
 8002800:	4603      	mov	r3, r0
 8002802:	f04f 4186 	mov.w	r1, #1124073472	; 0x43000000
 8002806:	4618      	mov	r0, r3
 8002808:	f7fe f992 	bl	8000b30 <__aeabi_fsub>
 800280c:	4603      	mov	r3, r0
 800280e:	4909      	ldr	r1, [pc, #36]	; (8002834 <qFFMath_Log2+0xc8>)
 8002810:	4618      	mov	r0, r3
 8002812:	f7fe f98d 	bl	8000b30 <__aeabi_fsub>
 8002816:	4603      	mov	r3, r0
 8002818:	4619      	mov	r1, r3
 800281a:	6978      	ldr	r0, [r7, #20]
 800281c:	f7fe f98a 	bl	8000b34 <__addsf3>
 8002820:	4603      	mov	r3, r0
 8002822:	617b      	str	r3, [r7, #20]
    }

    return retVal;
 8002824:	697b      	ldr	r3, [r7, #20]
}
 8002826:	4618      	mov	r0, r3
 8002828:	3718      	adds	r7, #24
 800282a:	46bd      	mov	sp, r7
 800282c:	bd80      	pop	{r7, pc}
 800282e:	bf00      	nop
 8002830:	beaaaaab 	.word	0xbeaaaaab
 8002834:	3f2aaaab 	.word	0x3f2aaaab

08002838 <qFFMath_Exp>:
/*============================================================================*/
float qFFMath_Exp( float x )
{
 8002838:	b580      	push	{r7, lr}
 800283a:	b082      	sub	sp, #8
 800283c:	af00      	add	r7, sp, #0
 800283e:	6078      	str	r0, [r7, #4]
    return qFFMath_Exp2( 1.442695041f*x );
 8002840:	4906      	ldr	r1, [pc, #24]	; (800285c <qFFMath_Exp+0x24>)
 8002842:	6878      	ldr	r0, [r7, #4]
 8002844:	f7fe fa7e 	bl	8000d44 <__aeabi_fmul>
 8002848:	4603      	mov	r3, r0
 800284a:	4618      	mov	r0, r3
 800284c:	f7ff ff24 	bl	8002698 <qFFMath_Exp2>
 8002850:	4603      	mov	r3, r0
}
 8002852:	4618      	mov	r0, r3
 8002854:	3708      	adds	r7, #8
 8002856:	46bd      	mov	sp, r7
 8002858:	bd80      	pop	{r7, pc}
 800285a:	bf00      	nop
 800285c:	3fb8aa3b 	.word	0x3fb8aa3b

08002860 <qFFMath_Log>:
{
    return qFFMath_Exp2( 3.32192809f*x );
}
/*============================================================================*/
float qFFMath_Log( float x )
{
 8002860:	b580      	push	{r7, lr}
 8002862:	b082      	sub	sp, #8
 8002864:	af00      	add	r7, sp, #0
 8002866:	6078      	str	r0, [r7, #4]
    return 0.693147181f*qFFMath_Log2(x);
 8002868:	6878      	ldr	r0, [r7, #4]
 800286a:	f7ff ff7f 	bl	800276c <qFFMath_Log2>
 800286e:	4603      	mov	r3, r0
 8002870:	4904      	ldr	r1, [pc, #16]	; (8002884 <qFFMath_Log+0x24>)
 8002872:	4618      	mov	r0, r3
 8002874:	f7fe fa66 	bl	8000d44 <__aeabi_fmul>
 8002878:	4603      	mov	r3, r0
}
 800287a:	4618      	mov	r0, r3
 800287c:	3708      	adds	r7, #8
 800287e:	46bd      	mov	sp, r7
 8002880:	bd80      	pop	{r7, pc}
 8002882:	bf00      	nop
 8002884:	3f317218 	.word	0x3f317218

08002888 <qFFMath_Pow>:
    return 0.301029996f*qFFMath_Log2(x);
}
/*============================================================================*/
float qFFMath_Pow( float b,
                   float e )
{
 8002888:	b580      	push	{r7, lr}
 800288a:	b082      	sub	sp, #8
 800288c:	af00      	add	r7, sp, #0
 800288e:	6078      	str	r0, [r7, #4]
 8002890:	6039      	str	r1, [r7, #0]
    return qFFMath_Exp2( e*qFFMath_Log2( b ) );
 8002892:	6878      	ldr	r0, [r7, #4]
 8002894:	f7ff ff6a 	bl	800276c <qFFMath_Log2>
 8002898:	4603      	mov	r3, r0
 800289a:	6839      	ldr	r1, [r7, #0]
 800289c:	4618      	mov	r0, r3
 800289e:	f7fe fa51 	bl	8000d44 <__aeabi_fmul>
 80028a2:	4603      	mov	r3, r0
 80028a4:	4618      	mov	r0, r3
 80028a6:	f7ff fef7 	bl	8002698 <qFFMath_Exp2>
 80028aa:	4603      	mov	r3, r0
}
 80028ac:	4618      	mov	r0, r3
 80028ae:	3708      	adds	r7, #8
 80028b0:	46bd      	mov	sp, r7
 80028b2:	bd80      	pop	{r7, pc}

080028b4 <qFIS_SetParameter>:

/*============================================================================*/
int qFIS_SetParameter( qFIS_t * const f,
                       const qFIS_Parameter_t p,
                       const qFIS_ParamValue_t x )
{
 80028b4:	b480      	push	{r7}
 80028b6:	b085      	sub	sp, #20
 80028b8:	af00      	add	r7, sp, #0
 80028ba:	6078      	str	r0, [r7, #4]
 80028bc:	460b      	mov	r3, r1
 80028be:	70fb      	strb	r3, [r7, #3]
 80028c0:	4613      	mov	r3, r2
 80028c2:	70bb      	strb	r3, [r7, #2]
    int retVal = 0;
 80028c4:	2300      	movs	r3, #0
 80028c6:	60fb      	str	r3, [r7, #12]
    typedef float (*methods_fcn)( const float a, const float b );
    static const methods_fcn method[ 5 ] = { &qFIS_Min, &qFIS_Prod, &qFIS_Max,
                                             &qFIS_ProbOR, &qFIS_Sum
                                           };

    if ( NULL != f ) {
 80028c8:	687b      	ldr	r3, [r7, #4]
 80028ca:	2b00      	cmp	r3, #0
 80028cc:	d05a      	beq.n	8002984 <qFIS_SetParameter+0xd0>
        switch ( p ) {
 80028ce:	78fb      	ldrb	r3, [r7, #3]
 80028d0:	2b04      	cmp	r3, #4
 80028d2:	d84c      	bhi.n	800296e <qFIS_SetParameter+0xba>
 80028d4:	a201      	add	r2, pc, #4	; (adr r2, 80028dc <qFIS_SetParameter+0x28>)
 80028d6:	f852 f023 	ldr.w	pc, [r2, r3, lsl #2]
 80028da:	bf00      	nop
 80028dc:	080028f1 	.word	0x080028f1
 80028e0:	08002909 	.word	0x08002909
 80028e4:	08002927 	.word	0x08002927
 80028e8:	0800293f 	.word	0x0800293f
 80028ec:	0800295d 	.word	0x0800295d
            case qFIS_Implication:
                if ( x <= qFIS_PROD ) {
 80028f0:	78bb      	ldrb	r3, [r7, #2]
 80028f2:	2b01      	cmp	r3, #1
 80028f4:	d83d      	bhi.n	8002972 <qFIS_SetParameter+0xbe>
                    f->implicate = method[ x ];
 80028f6:	78bb      	ldrb	r3, [r7, #2]
 80028f8:	4a25      	ldr	r2, [pc, #148]	; (8002990 <qFIS_SetParameter+0xdc>)
 80028fa:	f852 2023 	ldr.w	r2, [r2, r3, lsl #2]
 80028fe:	687b      	ldr	r3, [r7, #4]
 8002900:	619a      	str	r2, [r3, #24]
                    retVal = 1;
 8002902:	2301      	movs	r3, #1
 8002904:	60fb      	str	r3, [r7, #12]
                }
                break;
 8002906:	e034      	b.n	8002972 <qFIS_SetParameter+0xbe>
            case qFIS_Aggregation:
                if ( ( x >= qFIS_MAX ) && ( x <= qFIS_SUM ) ) {
 8002908:	78bb      	ldrb	r3, [r7, #2]
 800290a:	2b01      	cmp	r3, #1
 800290c:	d933      	bls.n	8002976 <qFIS_SetParameter+0xc2>
 800290e:	78bb      	ldrb	r3, [r7, #2]
 8002910:	2b04      	cmp	r3, #4
 8002912:	d830      	bhi.n	8002976 <qFIS_SetParameter+0xc2>
                    f->aggregate = method[ x ];
 8002914:	78bb      	ldrb	r3, [r7, #2]
 8002916:	4a1e      	ldr	r2, [pc, #120]	; (8002990 <qFIS_SetParameter+0xdc>)
 8002918:	f852 2023 	ldr.w	r2, [r2, r3, lsl #2]
 800291c:	687b      	ldr	r3, [r7, #4]
 800291e:	61da      	str	r2, [r3, #28]
                    retVal = 1;
 8002920:	2301      	movs	r3, #1
 8002922:	60fb      	str	r3, [r7, #12]
                }
                break;
 8002924:	e027      	b.n	8002976 <qFIS_SetParameter+0xc2>
            case qFIS_AND:
                if ( x <= qFIS_PROD ) {
 8002926:	78bb      	ldrb	r3, [r7, #2]
 8002928:	2b01      	cmp	r3, #1
 800292a:	d826      	bhi.n	800297a <qFIS_SetParameter+0xc6>
                    f->andOp = method[ x ];
 800292c:	78bb      	ldrb	r3, [r7, #2]
 800292e:	4a18      	ldr	r2, [pc, #96]	; (8002990 <qFIS_SetParameter+0xdc>)
 8002930:	f852 2023 	ldr.w	r2, [r2, r3, lsl #2]
 8002934:	687b      	ldr	r3, [r7, #4]
 8002936:	611a      	str	r2, [r3, #16]
                    retVal = 1;
 8002938:	2301      	movs	r3, #1
 800293a:	60fb      	str	r3, [r7, #12]
                }
                break;
 800293c:	e01d      	b.n	800297a <qFIS_SetParameter+0xc6>
            case qFIS_OR:
                if ( ( x >= qFIS_MAX ) && ( x <= qFIS_PROBOR ) ) {
 800293e:	78bb      	ldrb	r3, [r7, #2]
 8002940:	2b01      	cmp	r3, #1
 8002942:	d91c      	bls.n	800297e <qFIS_SetParameter+0xca>
 8002944:	78bb      	ldrb	r3, [r7, #2]
 8002946:	2b03      	cmp	r3, #3
 8002948:	d819      	bhi.n	800297e <qFIS_SetParameter+0xca>
                    f->orOp = method[ x ];
 800294a:	78bb      	ldrb	r3, [r7, #2]
 800294c:	4a10      	ldr	r2, [pc, #64]	; (8002990 <qFIS_SetParameter+0xdc>)
 800294e:	f852 2023 	ldr.w	r2, [r2, r3, lsl #2]
 8002952:	687b      	ldr	r3, [r7, #4]
 8002954:	615a      	str	r2, [r3, #20]
                    retVal = 1;
 8002956:	2301      	movs	r3, #1
 8002958:	60fb      	str	r3, [r7, #12]
                }
                break;
 800295a:	e010      	b.n	800297e <qFIS_SetParameter+0xca>
            case qFIS_EvalPoints:
                if ( (int)x >= 20 ) {
 800295c:	78bb      	ldrb	r3, [r7, #2]
 800295e:	2b13      	cmp	r3, #19
 8002960:	d90f      	bls.n	8002982 <qFIS_SetParameter+0xce>
                    f->nPoints = (size_t)x;
 8002962:	78ba      	ldrb	r2, [r7, #2]
 8002964:	687b      	ldr	r3, [r7, #4]
 8002966:	64da      	str	r2, [r3, #76]	; 0x4c
                    retVal = 1;
 8002968:	2301      	movs	r3, #1
 800296a:	60fb      	str	r3, [r7, #12]
                }
                break;
 800296c:	e009      	b.n	8002982 <qFIS_SetParameter+0xce>
            default:
                break;
 800296e:	bf00      	nop
 8002970:	e008      	b.n	8002984 <qFIS_SetParameter+0xd0>
                break;
 8002972:	bf00      	nop
 8002974:	e006      	b.n	8002984 <qFIS_SetParameter+0xd0>
                break;
 8002976:	bf00      	nop
 8002978:	e004      	b.n	8002984 <qFIS_SetParameter+0xd0>
                break;
 800297a:	bf00      	nop
 800297c:	e002      	b.n	8002984 <qFIS_SetParameter+0xd0>
                break;
 800297e:	bf00      	nop
 8002980:	e000      	b.n	8002984 <qFIS_SetParameter+0xd0>
                break;
 8002982:	bf00      	nop
        }
    }

    return retVal;
 8002984:	68fb      	ldr	r3, [r7, #12]
}
 8002986:	4618      	mov	r0, r3
 8002988:	3714      	adds	r7, #20
 800298a:	46bd      	mov	sp, r7
 800298c:	bc80      	pop	{r7}
 800298e:	4770      	bx	lr
 8002990:	08009ad0 	.word	0x08009ad0

08002994 <qFIS_Setup>:
                qFIS_MF_t *const mf_outputs,
                const size_t nmo,
                const qFIS_Rules_t * const r,
                float *wi,
                const size_t n )
{
 8002994:	b5b0      	push	{r4, r5, r7, lr}
 8002996:	b086      	sub	sp, #24
 8002998:	af00      	add	r7, sp, #0
 800299a:	60f8      	str	r0, [r7, #12]
 800299c:	607a      	str	r2, [r7, #4]
 800299e:	603b      	str	r3, [r7, #0]
 80029a0:	460b      	mov	r3, r1
 80029a2:	72fb      	strb	r3, [r7, #11]
    int retVal = 0;
 80029a4:	2300      	movs	r3, #0
 80029a6:	617b      	str	r3, [r7, #20]

    if ( ( NULL != f ) && ( t <= Tsukamoto ) && ( NULL != r ) && ( NULL != wi ) ) {
 80029a8:	68fb      	ldr	r3, [r7, #12]
 80029aa:	2b00      	cmp	r3, #0
 80029ac:	f000 80bb 	beq.w	8002b26 <qFIS_Setup+0x192>
 80029b0:	7afb      	ldrb	r3, [r7, #11]
 80029b2:	2b02      	cmp	r3, #2
 80029b4:	f200 80b7 	bhi.w	8002b26 <qFIS_Setup+0x192>
 80029b8:	6c3b      	ldr	r3, [r7, #64]	; 0x40
 80029ba:	2b00      	cmp	r3, #0
 80029bc:	f000 80b3 	beq.w	8002b26 <qFIS_Setup+0x192>
 80029c0:	6c7b      	ldr	r3, [r7, #68]	; 0x44
 80029c2:	2b00      	cmp	r3, #0
 80029c4:	f000 80af 	beq.w	8002b26 <qFIS_Setup+0x192>
        size_t i;

        f->nInputs = ni/sizeof(qFIS_Input_t);
 80029c8:	683b      	ldr	r3, [r7, #0]
 80029ca:	4a59      	ldr	r2, [pc, #356]	; (8002b30 <qFIS_Setup+0x19c>)
 80029cc:	fba2 2303 	umull	r2, r3, r2, r3
 80029d0:	08da      	lsrs	r2, r3, #3
 80029d2:	68fb      	ldr	r3, [r7, #12]
 80029d4:	63da      	str	r2, [r3, #60]	; 0x3c
        f->nOutputs = no/sizeof(qFIS_Output_t);
 80029d6:	6afb      	ldr	r3, [r7, #44]	; 0x2c
 80029d8:	4a56      	ldr	r2, [pc, #344]	; (8002b34 <qFIS_Setup+0x1a0>)
 80029da:	fba2 2303 	umull	r2, r3, r2, r3
 80029de:	091a      	lsrs	r2, r3, #4
 80029e0:	68fb      	ldr	r3, [r7, #12]
 80029e2:	641a      	str	r2, [r3, #64]	; 0x40
        f->nMFInputs = nmi/sizeof(qFIS_MF_t);
 80029e4:	6b7b      	ldr	r3, [r7, #52]	; 0x34
 80029e6:	4a54      	ldr	r2, [pc, #336]	; (8002b38 <qFIS_Setup+0x1a4>)
 80029e8:	fba2 2303 	umull	r2, r3, r2, r3
 80029ec:	091a      	lsrs	r2, r3, #4
 80029ee:	68fb      	ldr	r3, [r7, #12]
 80029f0:	645a      	str	r2, [r3, #68]	; 0x44
        f->nMFOutputs = nmo/sizeof(qFIS_MF_t);
 80029f2:	6bfb      	ldr	r3, [r7, #60]	; 0x3c
 80029f4:	4a50      	ldr	r2, [pc, #320]	; (8002b38 <qFIS_Setup+0x1a4>)
 80029f6:	fba2 2303 	umull	r2, r3, r2, r3
 80029fa:	091a      	lsrs	r2, r3, #4
 80029fc:	68fb      	ldr	r3, [r7, #12]
 80029fe:	649a      	str	r2, [r3, #72]	; 0x48
        f->input = inputs;
 8002a00:	68fb      	ldr	r3, [r7, #12]
 8002a02:	687a      	ldr	r2, [r7, #4]
 8002a04:	601a      	str	r2, [r3, #0]
        f->output = outputs;
 8002a06:	68fb      	ldr	r3, [r7, #12]
 8002a08:	6aba      	ldr	r2, [r7, #40]	; 0x28
 8002a0a:	605a      	str	r2, [r3, #4]
        f->inMF = mf_inputs;
 8002a0c:	68fb      	ldr	r3, [r7, #12]
 8002a0e:	6b3a      	ldr	r2, [r7, #48]	; 0x30
 8002a10:	609a      	str	r2, [r3, #8]
        f->outMF = mf_outputs;
 8002a12:	68fb      	ldr	r3, [r7, #12]
 8002a14:	6bba      	ldr	r2, [r7, #56]	; 0x38
 8002a16:	60da      	str	r2, [r3, #12]
        f->wi = wi;
 8002a18:	68fb      	ldr	r3, [r7, #12]
 8002a1a:	6c7a      	ldr	r2, [r7, #68]	; 0x44
 8002a1c:	631a      	str	r2, [r3, #48]	; 0x30
        f->rules = r;
 8002a1e:	68fb      	ldr	r3, [r7, #12]
 8002a20:	6c3a      	ldr	r2, [r7, #64]	; 0x40
 8002a22:	635a      	str	r2, [r3, #52]	; 0x34
        f->nRules = n;
 8002a24:	68fb      	ldr	r3, [r7, #12]
 8002a26:	6cba      	ldr	r2, [r7, #72]	; 0x48
 8002a28:	651a      	str	r2, [r3, #80]	; 0x50
        f->type = t;
 8002a2a:	68fb      	ldr	r3, [r7, #12]
 8002a2c:	7afa      	ldrb	r2, [r7, #11]
 8002a2e:	f883 205e 	strb.w	r2, [r3, #94]	; 0x5e
        retVal += qFIS_SetParameter( f, qFIS_EvalPoints, (qFIS_ParamValue_t)100 );
 8002a32:	2264      	movs	r2, #100	; 0x64
 8002a34:	2104      	movs	r1, #4
 8002a36:	68f8      	ldr	r0, [r7, #12]
 8002a38:	f7ff ff3c 	bl	80028b4 <qFIS_SetParameter>
 8002a3c:	4602      	mov	r2, r0
 8002a3e:	697b      	ldr	r3, [r7, #20]
 8002a40:	4413      	add	r3, r2
 8002a42:	617b      	str	r3, [r7, #20]
        retVal += qFIS_SetParameter( f, qFIS_AND, qFIS_MIN );
 8002a44:	2200      	movs	r2, #0
 8002a46:	2102      	movs	r1, #2
 8002a48:	68f8      	ldr	r0, [r7, #12]
 8002a4a:	f7ff ff33 	bl	80028b4 <qFIS_SetParameter>
 8002a4e:	4602      	mov	r2, r0
 8002a50:	697b      	ldr	r3, [r7, #20]
 8002a52:	4413      	add	r3, r2
 8002a54:	617b      	str	r3, [r7, #20]
        retVal += qFIS_SetParameter( f, qFIS_OR, qFIS_MAX );
 8002a56:	2202      	movs	r2, #2
 8002a58:	2103      	movs	r1, #3
 8002a5a:	68f8      	ldr	r0, [r7, #12]
 8002a5c:	f7ff ff2a 	bl	80028b4 <qFIS_SetParameter>
 8002a60:	4602      	mov	r2, r0
 8002a62:	697b      	ldr	r3, [r7, #20]
 8002a64:	4413      	add	r3, r2
 8002a66:	617b      	str	r3, [r7, #20]
        retVal += qFIS_SetParameter( f, qFIS_Implication, qFIS_MIN );
 8002a68:	2200      	movs	r2, #0
 8002a6a:	2100      	movs	r1, #0
 8002a6c:	68f8      	ldr	r0, [r7, #12]
 8002a6e:	f7ff ff21 	bl	80028b4 <qFIS_SetParameter>
 8002a72:	4602      	mov	r2, r0
 8002a74:	697b      	ldr	r3, [r7, #20]
 8002a76:	4413      	add	r3, r2
 8002a78:	617b      	str	r3, [r7, #20]
        retVal += qFIS_SetParameter( f, qFIS_Aggregation, qFIS_MAX );
 8002a7a:	2202      	movs	r2, #2
 8002a7c:	2101      	movs	r1, #1
 8002a7e:	68f8      	ldr	r0, [r7, #12]
 8002a80:	f7ff ff18 	bl	80028b4 <qFIS_SetParameter>
 8002a84:	4602      	mov	r2, r0
 8002a86:	697b      	ldr	r3, [r7, #20]
 8002a88:	4413      	add	r3, r2
 8002a8a:	617b      	str	r3, [r7, #20]
        retVal = ( 5 == retVal ) ? 1 : 0;
 8002a8c:	697b      	ldr	r3, [r7, #20]
 8002a8e:	2b05      	cmp	r3, #5
 8002a90:	bf0c      	ite	eq
 8002a92:	2301      	moveq	r3, #1
 8002a94:	2300      	movne	r3, #0
 8002a96:	b2db      	uxtb	r3, r3
 8002a98:	617b      	str	r3, [r7, #20]
        f->deFuzz = ( Mamdani == t ) ? &qFIS_DeFuzz_Centroid
                                     : &qFIS_DeFuzz_WtAverage;
 8002a9a:	7afb      	ldrb	r3, [r7, #11]
 8002a9c:	2b00      	cmp	r3, #0
 8002a9e:	d101      	bne.n	8002aa4 <qFIS_Setup+0x110>
 8002aa0:	4a26      	ldr	r2, [pc, #152]	; (8002b3c <qFIS_Setup+0x1a8>)
 8002aa2:	e000      	b.n	8002aa6 <qFIS_Setup+0x112>
 8002aa4:	4a26      	ldr	r2, [pc, #152]	; (8002b40 <qFIS_Setup+0x1ac>)
        f->deFuzz = ( Mamdani == t ) ? &qFIS_DeFuzz_Centroid
 8002aa6:	68fb      	ldr	r3, [r7, #12]
 8002aa8:	629a      	str	r2, [r3, #40]	; 0x28
        f->ruleWeight = NULL;
 8002aaa:	68fb      	ldr	r3, [r7, #12]
 8002aac:	2200      	movs	r2, #0
 8002aae:	62da      	str	r2, [r3, #44]	; 0x2c
        for ( i = 0 ; i < f->nOutputs ; ++i ) {
 8002ab0:	2300      	movs	r3, #0
 8002ab2:	613b      	str	r3, [r7, #16]
 8002ab4:	e032      	b.n	8002b1c <qFIS_Setup+0x188>
            /*cstat -CERT-FLP36-C*/
            f->output[ i ].res = ( f->output[ i ].b.max - f->output[ i ].b.min )/(float)f->nPoints;
 8002ab6:	68fb      	ldr	r3, [r7, #12]
 8002ab8:	685a      	ldr	r2, [r3, #4]
 8002aba:	693b      	ldr	r3, [r7, #16]
 8002abc:	2134      	movs	r1, #52	; 0x34
 8002abe:	fb01 f303 	mul.w	r3, r1, r3
 8002ac2:	4413      	add	r3, r2
 8002ac4:	6858      	ldr	r0, [r3, #4]
 8002ac6:	68fb      	ldr	r3, [r7, #12]
 8002ac8:	685a      	ldr	r2, [r3, #4]
 8002aca:	693b      	ldr	r3, [r7, #16]
 8002acc:	2134      	movs	r1, #52	; 0x34
 8002ace:	fb01 f303 	mul.w	r3, r1, r3
 8002ad2:	4413      	add	r3, r2
 8002ad4:	681b      	ldr	r3, [r3, #0]
 8002ad6:	4619      	mov	r1, r3
 8002ad8:	f7fe f82a 	bl	8000b30 <__aeabi_fsub>
 8002adc:	4603      	mov	r3, r0
 8002ade:	461d      	mov	r5, r3
 8002ae0:	68fb      	ldr	r3, [r7, #12]
 8002ae2:	6cdb      	ldr	r3, [r3, #76]	; 0x4c
 8002ae4:	4618      	mov	r0, r3
 8002ae6:	f7fe f8d5 	bl	8000c94 <__aeabi_ui2f>
 8002aea:	4601      	mov	r1, r0
 8002aec:	68fb      	ldr	r3, [r7, #12]
 8002aee:	685a      	ldr	r2, [r3, #4]
 8002af0:	693b      	ldr	r3, [r7, #16]
 8002af2:	2034      	movs	r0, #52	; 0x34
 8002af4:	fb00 f303 	mul.w	r3, r0, r3
 8002af8:	18d4      	adds	r4, r2, r3
 8002afa:	4628      	mov	r0, r5
 8002afc:	f7fe f9d6 	bl	8000eac <__aeabi_fdiv>
 8002b00:	4603      	mov	r3, r0
 8002b02:	60e3      	str	r3, [r4, #12]
            /*cstat +CERT-FLP36-C*/
            f->output[ i ].owner = f;
 8002b04:	68fb      	ldr	r3, [r7, #12]
 8002b06:	685a      	ldr	r2, [r3, #4]
 8002b08:	693b      	ldr	r3, [r7, #16]
 8002b0a:	2134      	movs	r1, #52	; 0x34
 8002b0c:	fb01 f303 	mul.w	r3, r1, r3
 8002b10:	4413      	add	r3, r2
 8002b12:	68fa      	ldr	r2, [r7, #12]
 8002b14:	629a      	str	r2, [r3, #40]	; 0x28
        for ( i = 0 ; i < f->nOutputs ; ++i ) {
 8002b16:	693b      	ldr	r3, [r7, #16]
 8002b18:	3301      	adds	r3, #1
 8002b1a:	613b      	str	r3, [r7, #16]
 8002b1c:	68fb      	ldr	r3, [r7, #12]
 8002b1e:	6c1b      	ldr	r3, [r3, #64]	; 0x40
 8002b20:	693a      	ldr	r2, [r7, #16]
 8002b22:	429a      	cmp	r2, r3
 8002b24:	d3c7      	bcc.n	8002ab6 <qFIS_Setup+0x122>
        }
    }

    return retVal;
 8002b26:	697b      	ldr	r3, [r7, #20]
}
 8002b28:	4618      	mov	r0, r3
 8002b2a:	3718      	adds	r7, #24
 8002b2c:	46bd      	mov	sp, r7
 8002b2e:	bdb0      	pop	{r4, r5, r7, pc}
 8002b30:	aaaaaaab 	.word	0xaaaaaaab
 8002b34:	4ec4ec4f 	.word	0x4ec4ec4f
 8002b38:	cccccccd 	.word	0xcccccccd
 8002b3c:	080033b5 	.word	0x080033b5
 8002b40:	0800344d 	.word	0x0800344d

08002b44 <qFIS_InputSetup>:
/*============================================================================*/
int qFIS_InputSetup( qFIS_Input_t * const v,
                     const qFIS_Tag_t t,
                     const float min,
                     const float max )
{
 8002b44:	b480      	push	{r7}
 8002b46:	b087      	sub	sp, #28
 8002b48:	af00      	add	r7, sp, #0
 8002b4a:	60f8      	str	r0, [r7, #12]
 8002b4c:	60b9      	str	r1, [r7, #8]
 8002b4e:	607a      	str	r2, [r7, #4]
 8002b50:	603b      	str	r3, [r7, #0]
    int retVal = 0;
 8002b52:	2300      	movs	r3, #0
 8002b54:	617b      	str	r3, [r7, #20]

    if ( ( NULL != v ) && ( t >= 0 ) ) {
 8002b56:	68fb      	ldr	r3, [r7, #12]
 8002b58:	2b00      	cmp	r3, #0
 8002b5a:	d018      	beq.n	8002b8e <qFIS_InputSetup+0x4a>
 8002b5c:	68bb      	ldr	r3, [r7, #8]
 8002b5e:	2b00      	cmp	r3, #0
 8002b60:	db15      	blt.n	8002b8e <qFIS_InputSetup+0x4a>
        v[ t ].b.min = min;
 8002b62:	68ba      	ldr	r2, [r7, #8]
 8002b64:	4613      	mov	r3, r2
 8002b66:	005b      	lsls	r3, r3, #1
 8002b68:	4413      	add	r3, r2
 8002b6a:	009b      	lsls	r3, r3, #2
 8002b6c:	461a      	mov	r2, r3
 8002b6e:	68fb      	ldr	r3, [r7, #12]
 8002b70:	4413      	add	r3, r2
 8002b72:	687a      	ldr	r2, [r7, #4]
 8002b74:	601a      	str	r2, [r3, #0]
        v[ t ].b.max = max;
 8002b76:	68ba      	ldr	r2, [r7, #8]
 8002b78:	4613      	mov	r3, r2
 8002b7a:	005b      	lsls	r3, r3, #1
 8002b7c:	4413      	add	r3, r2
 8002b7e:	009b      	lsls	r3, r3, #2
 8002b80:	461a      	mov	r2, r3
 8002b82:	68fb      	ldr	r3, [r7, #12]
 8002b84:	4413      	add	r3, r2
 8002b86:	683a      	ldr	r2, [r7, #0]
 8002b88:	605a      	str	r2, [r3, #4]
        retVal = 1;
 8002b8a:	2301      	movs	r3, #1
 8002b8c:	617b      	str	r3, [r7, #20]
    }

    return retVal;
 8002b8e:	697b      	ldr	r3, [r7, #20]
}
 8002b90:	4618      	mov	r0, r3
 8002b92:	371c      	adds	r7, #28
 8002b94:	46bd      	mov	sp, r7
 8002b96:	bc80      	pop	{r7}
 8002b98:	4770      	bx	lr

08002b9a <qFIS_OutputSetup>:
/*============================================================================*/
int qFIS_OutputSetup( qFIS_Output_t * const v,
                      const qFIS_Tag_t t,
                      const float min,
                      const float max )
{
 8002b9a:	b480      	push	{r7}
 8002b9c:	b087      	sub	sp, #28
 8002b9e:	af00      	add	r7, sp, #0
 8002ba0:	60f8      	str	r0, [r7, #12]
 8002ba2:	60b9      	str	r1, [r7, #8]
 8002ba4:	607a      	str	r2, [r7, #4]
 8002ba6:	603b      	str	r3, [r7, #0]
    int retVal = 0;
 8002ba8:	2300      	movs	r3, #0
 8002baa:	617b      	str	r3, [r7, #20]

    if ( ( NULL != v ) && ( t >= 0 ) ) {
 8002bac:	68fb      	ldr	r3, [r7, #12]
 8002bae:	2b00      	cmp	r3, #0
 8002bb0:	d05a      	beq.n	8002c68 <qFIS_OutputSetup+0xce>
 8002bb2:	68bb      	ldr	r3, [r7, #8]
 8002bb4:	2b00      	cmp	r3, #0
 8002bb6:	db57      	blt.n	8002c68 <qFIS_OutputSetup+0xce>
        v[ t ].data[ 0 ] = 0.0f;
 8002bb8:	68bb      	ldr	r3, [r7, #8]
 8002bba:	2234      	movs	r2, #52	; 0x34
 8002bbc:	fb02 f303 	mul.w	r3, r2, r3
 8002bc0:	68fa      	ldr	r2, [r7, #12]
 8002bc2:	4413      	add	r3, r2
 8002bc4:	f04f 0200 	mov.w	r2, #0
 8002bc8:	619a      	str	r2, [r3, #24]
        v[ t ].data[ 1 ] = 0.0f;
 8002bca:	68bb      	ldr	r3, [r7, #8]
 8002bcc:	2234      	movs	r2, #52	; 0x34
 8002bce:	fb02 f303 	mul.w	r3, r2, r3
 8002bd2:	68fa      	ldr	r2, [r7, #12]
 8002bd4:	4413      	add	r3, r2
 8002bd6:	f04f 0200 	mov.w	r2, #0
 8002bda:	61da      	str	r2, [r3, #28]
        v[ t ].data[ 2 ] = 0.0f;
 8002bdc:	68bb      	ldr	r3, [r7, #8]
 8002bde:	2234      	movs	r2, #52	; 0x34
 8002be0:	fb02 f303 	mul.w	r3, r2, r3
 8002be4:	68fa      	ldr	r2, [r7, #12]
 8002be6:	4413      	add	r3, r2
 8002be8:	f04f 0200 	mov.w	r2, #0
 8002bec:	621a      	str	r2, [r3, #32]
        v[ t ].data[ 3 ] = 0.0f;
 8002bee:	68bb      	ldr	r3, [r7, #8]
 8002bf0:	2234      	movs	r2, #52	; 0x34
 8002bf2:	fb02 f303 	mul.w	r3, r2, r3
 8002bf6:	68fa      	ldr	r2, [r7, #12]
 8002bf8:	4413      	add	r3, r2
 8002bfa:	f04f 0200 	mov.w	r2, #0
 8002bfe:	625a      	str	r2, [r3, #36]	; 0x24
        v[ t ].x = 0.0f;
 8002c00:	68bb      	ldr	r3, [r7, #8]
 8002c02:	2234      	movs	r2, #52	; 0x34
 8002c04:	fb02 f303 	mul.w	r3, r2, r3
 8002c08:	68fa      	ldr	r2, [r7, #12]
 8002c0a:	4413      	add	r3, r2
 8002c0c:	f04f 0200 	mov.w	r2, #0
 8002c10:	611a      	str	r2, [r3, #16]
        v[ t ].y = 0.0f;
 8002c12:	68bb      	ldr	r3, [r7, #8]
 8002c14:	2234      	movs	r2, #52	; 0x34
 8002c16:	fb02 f303 	mul.w	r3, r2, r3
 8002c1a:	68fa      	ldr	r2, [r7, #12]
 8002c1c:	4413      	add	r3, r2
 8002c1e:	f04f 0200 	mov.w	r2, #0
 8002c22:	615a      	str	r2, [r3, #20]
        v[ t ].b.min = min;
 8002c24:	68bb      	ldr	r3, [r7, #8]
 8002c26:	2234      	movs	r2, #52	; 0x34
 8002c28:	fb02 f303 	mul.w	r3, r2, r3
 8002c2c:	68fa      	ldr	r2, [r7, #12]
 8002c2e:	4413      	add	r3, r2
 8002c30:	687a      	ldr	r2, [r7, #4]
 8002c32:	601a      	str	r2, [r3, #0]
        v[ t ].b.max = max;
 8002c34:	68bb      	ldr	r3, [r7, #8]
 8002c36:	2234      	movs	r2, #52	; 0x34
 8002c38:	fb02 f303 	mul.w	r3, r2, r3
 8002c3c:	68fa      	ldr	r2, [r7, #12]
 8002c3e:	4413      	add	r3, r2
 8002c40:	683a      	ldr	r2, [r7, #0]
 8002c42:	605a      	str	r2, [r3, #4]
        v[ t ].xag = NULL;
 8002c44:	68bb      	ldr	r3, [r7, #8]
 8002c46:	2234      	movs	r2, #52	; 0x34
 8002c48:	fb02 f303 	mul.w	r3, r2, r3
 8002c4c:	68fa      	ldr	r2, [r7, #12]
 8002c4e:	4413      	add	r3, r2
 8002c50:	2200      	movs	r2, #0
 8002c52:	62da      	str	r2, [r3, #44]	; 0x2c
        v[ t ].yag = NULL;
 8002c54:	68bb      	ldr	r3, [r7, #8]
 8002c56:	2234      	movs	r2, #52	; 0x34
 8002c58:	fb02 f303 	mul.w	r3, r2, r3
 8002c5c:	68fa      	ldr	r2, [r7, #12]
 8002c5e:	4413      	add	r3, r2
 8002c60:	2200      	movs	r2, #0
 8002c62:	631a      	str	r2, [r3, #48]	; 0x30
        retVal = 1;
 8002c64:	2301      	movs	r3, #1
 8002c66:	617b      	str	r3, [r7, #20]
    }

    return retVal;
 8002c68:	697b      	ldr	r3, [r7, #20]
}
 8002c6a:	4618      	mov	r0, r3
 8002c6c:	371c      	adds	r7, #28
 8002c6e:	46bd      	mov	sp, r7
 8002c70:	bc80      	pop	{r7}
 8002c72:	4770      	bx	lr

08002c74 <qFIS_SetInput>:
/*============================================================================*/
int qFIS_SetInput( qFIS_Input_t * const v,
                   const qFIS_Tag_t t,
                   const float value )
{
 8002c74:	b480      	push	{r7}
 8002c76:	b087      	sub	sp, #28
 8002c78:	af00      	add	r7, sp, #0
 8002c7a:	60f8      	str	r0, [r7, #12]
 8002c7c:	60b9      	str	r1, [r7, #8]
 8002c7e:	607a      	str	r2, [r7, #4]
    int retVal = 0;
 8002c80:	2300      	movs	r3, #0
 8002c82:	617b      	str	r3, [r7, #20]

    if ( ( NULL != v ) && ( t >= 0 ) ) {
 8002c84:	68fb      	ldr	r3, [r7, #12]
 8002c86:	2b00      	cmp	r3, #0
 8002c88:	d00e      	beq.n	8002ca8 <qFIS_SetInput+0x34>
 8002c8a:	68bb      	ldr	r3, [r7, #8]
 8002c8c:	2b00      	cmp	r3, #0
 8002c8e:	db0b      	blt.n	8002ca8 <qFIS_SetInput+0x34>
        v[ t ].b.value = value;
 8002c90:	68ba      	ldr	r2, [r7, #8]
 8002c92:	4613      	mov	r3, r2
 8002c94:	005b      	lsls	r3, r3, #1
 8002c96:	4413      	add	r3, r2
 8002c98:	009b      	lsls	r3, r3, #2
 8002c9a:	461a      	mov	r2, r3
 8002c9c:	68fb      	ldr	r3, [r7, #12]
 8002c9e:	4413      	add	r3, r2
 8002ca0:	687a      	ldr	r2, [r7, #4]
 8002ca2:	609a      	str	r2, [r3, #8]
        retVal = 1;
 8002ca4:	2301      	movs	r3, #1
 8002ca6:	617b      	str	r3, [r7, #20]
    }

    return retVal;
 8002ca8:	697b      	ldr	r3, [r7, #20]
}
 8002caa:	4618      	mov	r0, r3
 8002cac:	371c      	adds	r7, #28
 8002cae:	46bd      	mov	sp, r7
 8002cb0:	bc80      	pop	{r7}
 8002cb2:	4770      	bx	lr

08002cb4 <qFIS_GetOutput>:
/*============================================================================*/
float qFIS_GetOutput( const qFIS_Output_t * const v,
                      const qFIS_Tag_t t )
{
 8002cb4:	b480      	push	{r7}
 8002cb6:	b085      	sub	sp, #20
 8002cb8:	af00      	add	r7, sp, #0
 8002cba:	6078      	str	r0, [r7, #4]
 8002cbc:	6039      	str	r1, [r7, #0]
    float retVal = 0.0f;
 8002cbe:	f04f 0300 	mov.w	r3, #0
 8002cc2:	60fb      	str	r3, [r7, #12]

    if ( ( NULL != v ) && ( t >= 0 ) ) {
 8002cc4:	687b      	ldr	r3, [r7, #4]
 8002cc6:	2b00      	cmp	r3, #0
 8002cc8:	d00a      	beq.n	8002ce0 <qFIS_GetOutput+0x2c>
 8002cca:	683b      	ldr	r3, [r7, #0]
 8002ccc:	2b00      	cmp	r3, #0
 8002cce:	db07      	blt.n	8002ce0 <qFIS_GetOutput+0x2c>
        retVal = v[ t ].b.value;
 8002cd0:	683b      	ldr	r3, [r7, #0]
 8002cd2:	2234      	movs	r2, #52	; 0x34
 8002cd4:	fb02 f303 	mul.w	r3, r2, r3
 8002cd8:	687a      	ldr	r2, [r7, #4]
 8002cda:	4413      	add	r3, r2
 8002cdc:	689b      	ldr	r3, [r3, #8]
 8002cde:	60fb      	str	r3, [r7, #12]
    }

    return retVal;
 8002ce0:	68fb      	ldr	r3, [r7, #12]
}
 8002ce2:	4618      	mov	r0, r3
 8002ce4:	3714      	adds	r7, #20
 8002ce6:	46bd      	mov	sp, r7
 8002ce8:	bc80      	pop	{r7}
 8002cea:	4770      	bx	lr

08002cec <qFIS_SetMF>:
                const qFIS_Tag_t mf,
                const qFIS_MF_Name_t s,
                qFIS_MF_Fcn_t custom_mf,
                const float *cp,
                float h )
{
 8002cec:	b590      	push	{r4, r7, lr}
 8002cee:	b087      	sub	sp, #28
 8002cf0:	af00      	add	r7, sp, #0
 8002cf2:	60f8      	str	r0, [r7, #12]
 8002cf4:	60b9      	str	r1, [r7, #8]
 8002cf6:	607a      	str	r2, [r7, #4]
 8002cf8:	70fb      	strb	r3, [r7, #3]
    int retVal = 0;
 8002cfa:	2300      	movs	r3, #0
 8002cfc:	617b      	str	r3, [r7, #20]
    /* Only for Tsukamoto consequents*/
    &qFIS_TLinSMF, &qFIS_TLinZMF, &qFIS_TConcaveMF,&qFIS_TSigMF, &qFIS_TSMF,
    &qFIS_TZMF
    };

    if ( ( NULL != m ) && ( io >= 0 ) && ( mf >= 0 ) && ( s < _NUM_MFS ) ) {
 8002cfe:	68fb      	ldr	r3, [r7, #12]
 8002d00:	2b00      	cmp	r3, #0
 8002d02:	d055      	beq.n	8002db0 <qFIS_SetMF+0xc4>
 8002d04:	68bb      	ldr	r3, [r7, #8]
 8002d06:	2b00      	cmp	r3, #0
 8002d08:	db52      	blt.n	8002db0 <qFIS_SetMF+0xc4>
 8002d0a:	687b      	ldr	r3, [r7, #4]
 8002d0c:	2b00      	cmp	r3, #0
 8002d0e:	db4f      	blt.n	8002db0 <qFIS_SetMF+0xc4>
 8002d10:	78fb      	ldrb	r3, [r7, #3]
 8002d12:	2b1a      	cmp	r3, #26
 8002d14:	d84c      	bhi.n	8002db0 <qFIS_SetMF+0xc4>
        if ( NULL != custom_mf ) {
 8002d16:	6abb      	ldr	r3, [r7, #40]	; 0x28
 8002d18:	2b00      	cmp	r3, #0
 8002d1a:	d00a      	beq.n	8002d32 <qFIS_SetMF+0x46>
            m[ mf ].shape = custom_mf; /*user-defined membership function*/
 8002d1c:	687a      	ldr	r2, [r7, #4]
 8002d1e:	4613      	mov	r3, r2
 8002d20:	009b      	lsls	r3, r3, #2
 8002d22:	4413      	add	r3, r2
 8002d24:	009b      	lsls	r3, r3, #2
 8002d26:	461a      	mov	r2, r3
 8002d28:	68fb      	ldr	r3, [r7, #12]
 8002d2a:	4413      	add	r3, r2
 8002d2c:	6aba      	ldr	r2, [r7, #40]	; 0x28
 8002d2e:	601a      	str	r2, [r3, #0]
 8002d30:	e00c      	b.n	8002d4c <qFIS_SetMF+0x60>
        }
        else {
            m[ mf ].shape = fShape[ s ];
 8002d32:	78f9      	ldrb	r1, [r7, #3]
 8002d34:	687a      	ldr	r2, [r7, #4]
 8002d36:	4613      	mov	r3, r2
 8002d38:	009b      	lsls	r3, r3, #2
 8002d3a:	4413      	add	r3, r2
 8002d3c:	009b      	lsls	r3, r3, #2
 8002d3e:	461a      	mov	r2, r3
 8002d40:	68fb      	ldr	r3, [r7, #12]
 8002d42:	4413      	add	r3, r2
 8002d44:	4a1d      	ldr	r2, [pc, #116]	; (8002dbc <qFIS_SetMF+0xd0>)
 8002d46:	f852 2021 	ldr.w	r2, [r2, r1, lsl #2]
 8002d4a:	601a      	str	r2, [r3, #0]
        }
        m[ mf ].index = (size_t)io;
 8002d4c:	687a      	ldr	r2, [r7, #4]
 8002d4e:	4613      	mov	r3, r2
 8002d50:	009b      	lsls	r3, r3, #2
 8002d52:	4413      	add	r3, r2
 8002d54:	009b      	lsls	r3, r3, #2
 8002d56:	461a      	mov	r2, r3
 8002d58:	68fb      	ldr	r3, [r7, #12]
 8002d5a:	4413      	add	r3, r2
 8002d5c:	68ba      	ldr	r2, [r7, #8]
 8002d5e:	611a      	str	r2, [r3, #16]
        m[ mf ].points = cp;
 8002d60:	687a      	ldr	r2, [r7, #4]
 8002d62:	4613      	mov	r3, r2
 8002d64:	009b      	lsls	r3, r3, #2
 8002d66:	4413      	add	r3, r2
 8002d68:	009b      	lsls	r3, r3, #2
 8002d6a:	461a      	mov	r2, r3
 8002d6c:	68fb      	ldr	r3, [r7, #12]
 8002d6e:	4413      	add	r3, r2
 8002d70:	6afa      	ldr	r2, [r7, #44]	; 0x2c
 8002d72:	605a      	str	r2, [r3, #4]
        m[ mf ].fx = 0.0f;
 8002d74:	687a      	ldr	r2, [r7, #4]
 8002d76:	4613      	mov	r3, r2
 8002d78:	009b      	lsls	r3, r3, #2
 8002d7a:	4413      	add	r3, r2
 8002d7c:	009b      	lsls	r3, r3, #2
 8002d7e:	461a      	mov	r2, r3
 8002d80:	68fb      	ldr	r3, [r7, #12]
 8002d82:	4413      	add	r3, r2
 8002d84:	f04f 0200 	mov.w	r2, #0
 8002d88:	609a      	str	r2, [r3, #8]
        m[ mf ].h = qFIS_Bound( h, 0.0f, 1.0f );
 8002d8a:	687a      	ldr	r2, [r7, #4]
 8002d8c:	4613      	mov	r3, r2
 8002d8e:	009b      	lsls	r3, r3, #2
 8002d90:	4413      	add	r3, r2
 8002d92:	009b      	lsls	r3, r3, #2
 8002d94:	461a      	mov	r2, r3
 8002d96:	68fb      	ldr	r3, [r7, #12]
 8002d98:	189c      	adds	r4, r3, r2
 8002d9a:	f04f 527e 	mov.w	r2, #1065353216	; 0x3f800000
 8002d9e:	f04f 0100 	mov.w	r1, #0
 8002da2:	6b38      	ldr	r0, [r7, #48]	; 0x30
 8002da4:	f001 fcf1 	bl	800478a <qFIS_Bound>
 8002da8:	4603      	mov	r3, r0
 8002daa:	60e3      	str	r3, [r4, #12]
        retVal = 1;
 8002dac:	2301      	movs	r3, #1
 8002dae:	617b      	str	r3, [r7, #20]
    }

    return retVal;
 8002db0:	697b      	ldr	r3, [r7, #20]
}
 8002db2:	4618      	mov	r0, r3
 8002db4:	371c      	adds	r7, #28
 8002db6:	46bd      	mov	sp, r7
 8002db8:	bd90      	pop	{r4, r7, pc}
 8002dba:	bf00      	nop
 8002dbc:	08009ae4 	.word	0x08009ae4

08002dc0 <qFIS_EvalInputMFs>:

    return retVal;
}
/*============================================================================*/
static void qFIS_EvalInputMFs( qFIS_t * const f )
{
 8002dc0:	b5b0      	push	{r4, r5, r7, lr}
 8002dc2:	b084      	sub	sp, #16
 8002dc4:	af00      	add	r7, sp, #0
 8002dc6:	6078      	str	r0, [r7, #4]
    size_t i;
    qFIS_MF_t *mf;

    for ( i = 0 ; i < f->nMFInputs ; ++i ) {
 8002dc8:	2300      	movs	r3, #0
 8002dca:	60fb      	str	r3, [r7, #12]
 8002dcc:	e026      	b.n	8002e1c <qFIS_EvalInputMFs+0x5c>
        mf = &f->inMF[ i ];
 8002dce:	687b      	ldr	r3, [r7, #4]
 8002dd0:	6899      	ldr	r1, [r3, #8]
 8002dd2:	68fa      	ldr	r2, [r7, #12]
 8002dd4:	4613      	mov	r3, r2
 8002dd6:	009b      	lsls	r3, r3, #2
 8002dd8:	4413      	add	r3, r2
 8002dda:	009b      	lsls	r3, r3, #2
 8002ddc:	440b      	add	r3, r1
 8002dde:	60bb      	str	r3, [r7, #8]
        /*cstat -MISRAC2012-Rule-11.3 -CERT-EXP39-C_d*/
        mf->fx = mf->h*mf->shape( (qFIS_IO_Base_t*)&f->input[ mf->index ],
 8002de0:	68bb      	ldr	r3, [r7, #8]
 8002de2:	68dd      	ldr	r5, [r3, #12]
 8002de4:	68bb      	ldr	r3, [r7, #8]
 8002de6:	681c      	ldr	r4, [r3, #0]
 8002de8:	687b      	ldr	r3, [r7, #4]
 8002dea:	6819      	ldr	r1, [r3, #0]
 8002dec:	68bb      	ldr	r3, [r7, #8]
 8002dee:	691a      	ldr	r2, [r3, #16]
 8002df0:	4613      	mov	r3, r2
 8002df2:	005b      	lsls	r3, r3, #1
 8002df4:	4413      	add	r3, r2
 8002df6:	009b      	lsls	r3, r3, #2
 8002df8:	18c8      	adds	r0, r1, r3
 8002dfa:	68bb      	ldr	r3, [r7, #8]
 8002dfc:	685b      	ldr	r3, [r3, #4]
 8002dfe:	2201      	movs	r2, #1
 8002e00:	4619      	mov	r1, r3
 8002e02:	47a0      	blx	r4
 8002e04:	4603      	mov	r3, r0
 8002e06:	4619      	mov	r1, r3
 8002e08:	4628      	mov	r0, r5
 8002e0a:	f7fd ff9b 	bl	8000d44 <__aeabi_fmul>
 8002e0e:	4603      	mov	r3, r0
 8002e10:	461a      	mov	r2, r3
 8002e12:	68bb      	ldr	r3, [r7, #8]
 8002e14:	609a      	str	r2, [r3, #8]
    for ( i = 0 ; i < f->nMFInputs ; ++i ) {
 8002e16:	68fb      	ldr	r3, [r7, #12]
 8002e18:	3301      	adds	r3, #1
 8002e1a:	60fb      	str	r3, [r7, #12]
 8002e1c:	687b      	ldr	r3, [r7, #4]
 8002e1e:	6c5b      	ldr	r3, [r3, #68]	; 0x44
 8002e20:	68fa      	ldr	r2, [r7, #12]
 8002e22:	429a      	cmp	r2, r3
 8002e24:	d3d3      	bcc.n	8002dce <qFIS_EvalInputMFs+0xe>
                                  mf->points,
                                  1u );
        /*cstat +MISRAC2012-Rule-11.3 +CERT-EXP39-C_d*/
    }
}
 8002e26:	bf00      	nop
 8002e28:	bf00      	nop
 8002e2a:	3710      	adds	r7, #16
 8002e2c:	46bd      	mov	sp, r7
 8002e2e:	bdb0      	pop	{r4, r5, r7, pc}

08002e30 <qFIS_TruncateInputs>:
/*============================================================================*/
static void qFIS_TruncateInputs( qFIS_t * const f )
{
 8002e30:	b5f0      	push	{r4, r5, r6, r7, lr}
 8002e32:	b085      	sub	sp, #20
 8002e34:	af00      	add	r7, sp, #0
 8002e36:	6078      	str	r0, [r7, #4]
    size_t i;

    for ( i = 0 ; i < f->nInputs ; ++i ) {
 8002e38:	2300      	movs	r3, #0
 8002e3a:	60fb      	str	r3, [r7, #12]
 8002e3c:	e02b      	b.n	8002e96 <qFIS_TruncateInputs+0x66>
        f->input[ i ].b.value = qFIS_Bound( f->input[ i ].b.value,
 8002e3e:	687b      	ldr	r3, [r7, #4]
 8002e40:	6819      	ldr	r1, [r3, #0]
 8002e42:	68fa      	ldr	r2, [r7, #12]
 8002e44:	4613      	mov	r3, r2
 8002e46:	005b      	lsls	r3, r3, #1
 8002e48:	4413      	add	r3, r2
 8002e4a:	009b      	lsls	r3, r3, #2
 8002e4c:	440b      	add	r3, r1
 8002e4e:	6898      	ldr	r0, [r3, #8]
                                            f->input[ i ].b.min,
 8002e50:	687b      	ldr	r3, [r7, #4]
 8002e52:	6819      	ldr	r1, [r3, #0]
 8002e54:	68fa      	ldr	r2, [r7, #12]
 8002e56:	4613      	mov	r3, r2
 8002e58:	005b      	lsls	r3, r3, #1
 8002e5a:	4413      	add	r3, r2
 8002e5c:	009b      	lsls	r3, r3, #2
 8002e5e:	440b      	add	r3, r1
        f->input[ i ].b.value = qFIS_Bound( f->input[ i ].b.value,
 8002e60:	681d      	ldr	r5, [r3, #0]
                                            f->input[ i ].b.max );
 8002e62:	687b      	ldr	r3, [r7, #4]
 8002e64:	6819      	ldr	r1, [r3, #0]
 8002e66:	68fa      	ldr	r2, [r7, #12]
 8002e68:	4613      	mov	r3, r2
 8002e6a:	005b      	lsls	r3, r3, #1
 8002e6c:	4413      	add	r3, r2
 8002e6e:	009b      	lsls	r3, r3, #2
 8002e70:	440b      	add	r3, r1
        f->input[ i ].b.value = qFIS_Bound( f->input[ i ].b.value,
 8002e72:	685e      	ldr	r6, [r3, #4]
 8002e74:	687b      	ldr	r3, [r7, #4]
 8002e76:	6819      	ldr	r1, [r3, #0]
 8002e78:	68fa      	ldr	r2, [r7, #12]
 8002e7a:	4613      	mov	r3, r2
 8002e7c:	005b      	lsls	r3, r3, #1
 8002e7e:	4413      	add	r3, r2
 8002e80:	009b      	lsls	r3, r3, #2
 8002e82:	18cc      	adds	r4, r1, r3
 8002e84:	4632      	mov	r2, r6
 8002e86:	4629      	mov	r1, r5
 8002e88:	f001 fc7f 	bl	800478a <qFIS_Bound>
 8002e8c:	4603      	mov	r3, r0
 8002e8e:	60a3      	str	r3, [r4, #8]
    for ( i = 0 ; i < f->nInputs ; ++i ) {
 8002e90:	68fb      	ldr	r3, [r7, #12]
 8002e92:	3301      	adds	r3, #1
 8002e94:	60fb      	str	r3, [r7, #12]
 8002e96:	687b      	ldr	r3, [r7, #4]
 8002e98:	6bdb      	ldr	r3, [r3, #60]	; 0x3c
 8002e9a:	68fa      	ldr	r2, [r7, #12]
 8002e9c:	429a      	cmp	r2, r3
 8002e9e:	d3ce      	bcc.n	8002e3e <qFIS_TruncateInputs+0xe>
    }
}
 8002ea0:	bf00      	nop
 8002ea2:	bf00      	nop
 8002ea4:	3714      	adds	r7, #20
 8002ea6:	46bd      	mov	sp, r7
 8002ea8:	bdf0      	pop	{r4, r5, r6, r7, pc}

08002eaa <qFIS_Fuzzify>:
/*============================================================================*/
int qFIS_Fuzzify( qFIS_t * const f )
{
 8002eaa:	b580      	push	{r7, lr}
 8002eac:	b084      	sub	sp, #16
 8002eae:	af00      	add	r7, sp, #0
 8002eb0:	6078      	str	r0, [r7, #4]
    int retVal = 0;
 8002eb2:	2300      	movs	r3, #0
 8002eb4:	60fb      	str	r3, [r7, #12]

    if ( NULL != f ) {
 8002eb6:	687b      	ldr	r3, [r7, #4]
 8002eb8:	2b00      	cmp	r3, #0
 8002eba:	d007      	beq.n	8002ecc <qFIS_Fuzzify+0x22>
        qFIS_TruncateInputs( f );
 8002ebc:	6878      	ldr	r0, [r7, #4]
 8002ebe:	f7ff ffb7 	bl	8002e30 <qFIS_TruncateInputs>
        qFIS_EvalInputMFs( f );
 8002ec2:	6878      	ldr	r0, [r7, #4]
 8002ec4:	f7ff ff7c 	bl	8002dc0 <qFIS_EvalInputMFs>
        retVal = 1;
 8002ec8:	2301      	movs	r3, #1
 8002eca:	60fb      	str	r3, [r7, #12]
    }

    return retVal;
 8002ecc:	68fb      	ldr	r3, [r7, #12]
}
 8002ece:	4618      	mov	r0, r3
 8002ed0:	3710      	adds	r7, #16
 8002ed2:	46bd      	mov	sp, r7
 8002ed4:	bd80      	pop	{r7, pc}

08002ed6 <qFIS_ParseFuzzValue>:
/*============================================================================*/
static float qFIS_ParseFuzzValue( qFIS_MF_t * const mfIO,
                                  qFIS_Rules_t index )
{
 8002ed6:	b580      	push	{r7, lr}
 8002ed8:	b084      	sub	sp, #16
 8002eda:	af00      	add	r7, sp, #0
 8002edc:	6078      	str	r0, [r7, #4]
 8002ede:	460b      	mov	r3, r1
 8002ee0:	807b      	strh	r3, [r7, #2]
    uint8_t neg = (uint8_t)( index < 0 );
 8002ee2:	887b      	ldrh	r3, [r7, #2]
 8002ee4:	0bdb      	lsrs	r3, r3, #15
 8002ee6:	b2db      	uxtb	r3, r3
 8002ee8:	73fb      	strb	r3, [r7, #15]
    float y;

    if ( 0u != neg ) {
 8002eea:	7bfb      	ldrb	r3, [r7, #15]
 8002eec:	2b00      	cmp	r3, #0
 8002eee:	d003      	beq.n	8002ef8 <qFIS_ParseFuzzValue+0x22>
        index = -index;
 8002ef0:	887b      	ldrh	r3, [r7, #2]
 8002ef2:	425b      	negs	r3, r3
 8002ef4:	b29b      	uxth	r3, r3
 8002ef6:	807b      	strh	r3, [r7, #2]
    }
    /*cstat -CERT-INT32-C_a*/
    y = qFIS_Bound( mfIO[ index - 1 ].fx, 0.0f, 1.0f );
 8002ef8:	f9b7 2002 	ldrsh.w	r2, [r7, #2]
 8002efc:	4613      	mov	r3, r2
 8002efe:	009b      	lsls	r3, r3, #2
 8002f00:	4413      	add	r3, r2
 8002f02:	009b      	lsls	r3, r3, #2
 8002f04:	3b14      	subs	r3, #20
 8002f06:	687a      	ldr	r2, [r7, #4]
 8002f08:	4413      	add	r3, r2
 8002f0a:	689b      	ldr	r3, [r3, #8]
 8002f0c:	f04f 527e 	mov.w	r2, #1065353216	; 0x3f800000
 8002f10:	f04f 0100 	mov.w	r1, #0
 8002f14:	4618      	mov	r0, r3
 8002f16:	f001 fc38 	bl	800478a <qFIS_Bound>
 8002f1a:	60b8      	str	r0, [r7, #8]
    /*cstat +CERT-INT32-C_a*/
    y = ( 0u != neg ) ? ( 1.0f - y ) : y ;
 8002f1c:	7bfb      	ldrb	r3, [r7, #15]
 8002f1e:	2b00      	cmp	r3, #0
 8002f20:	d006      	beq.n	8002f30 <qFIS_ParseFuzzValue+0x5a>
 8002f22:	68b9      	ldr	r1, [r7, #8]
 8002f24:	f04f 507e 	mov.w	r0, #1065353216	; 0x3f800000
 8002f28:	f7fd fe02 	bl	8000b30 <__aeabi_fsub>
 8002f2c:	4603      	mov	r3, r0
 8002f2e:	e000      	b.n	8002f32 <qFIS_ParseFuzzValue+0x5c>
 8002f30:	68bb      	ldr	r3, [r7, #8]
 8002f32:	60bb      	str	r3, [r7, #8]

    return y;
 8002f34:	68bb      	ldr	r3, [r7, #8]
}
 8002f36:	4618      	mov	r0, r3
 8002f38:	3710      	adds	r7, #16
 8002f3a:	46bd      	mov	sp, r7
 8002f3c:	bd80      	pop	{r7, pc}
	...

08002f40 <qFIS_GetFuzzOperator>:
/*============================================================================*/
static qFIS_FuzzyOperator_t qFIS_GetFuzzOperator( const qFIS_t * const f )
{
 8002f40:	b480      	push	{r7}
 8002f42:	b085      	sub	sp, #20
 8002f44:	af00      	add	r7, sp, #0
 8002f46:	6078      	str	r0, [r7, #4]
    qFIS_FuzzyOperator_t oper;

    switch ( f->lastConnector ) {
 8002f48:	687b      	ldr	r3, [r7, #4]
 8002f4a:	f9b3 305c 	ldrsh.w	r3, [r3, #92]	; 0x5c
 8002f4e:	4a0c      	ldr	r2, [pc, #48]	; (8002f80 <qFIS_GetFuzzOperator+0x40>)
 8002f50:	4293      	cmp	r3, r2
 8002f52:	d003      	beq.n	8002f5c <qFIS_GetFuzzOperator+0x1c>
 8002f54:	4a0b      	ldr	r2, [pc, #44]	; (8002f84 <qFIS_GetFuzzOperator+0x44>)
 8002f56:	4293      	cmp	r3, r2
 8002f58:	d004      	beq.n	8002f64 <qFIS_GetFuzzOperator+0x24>
 8002f5a:	e007      	b.n	8002f6c <qFIS_GetFuzzOperator+0x2c>
        case _QFIS_AND:
            oper = f->andOp;
 8002f5c:	687b      	ldr	r3, [r7, #4]
 8002f5e:	691b      	ldr	r3, [r3, #16]
 8002f60:	60fb      	str	r3, [r7, #12]
            break;
 8002f62:	e006      	b.n	8002f72 <qFIS_GetFuzzOperator+0x32>
        case _QFIS_OR:
            oper = f->orOp;
 8002f64:	687b      	ldr	r3, [r7, #4]
 8002f66:	695b      	ldr	r3, [r3, #20]
 8002f68:	60fb      	str	r3, [r7, #12]
            break;
 8002f6a:	e002      	b.n	8002f72 <qFIS_GetFuzzOperator+0x32>
        default:
            oper = &qFIS_Sum;
 8002f6c:	4b06      	ldr	r3, [pc, #24]	; (8002f88 <qFIS_GetFuzzOperator+0x48>)
 8002f6e:	60fb      	str	r3, [r7, #12]
            break;
 8002f70:	bf00      	nop
    }

    return oper;
 8002f72:	68fb      	ldr	r3, [r7, #12]
}
 8002f74:	4618      	mov	r0, r3
 8002f76:	3714      	adds	r7, #20
 8002f78:	46bd      	mov	sp, r7
 8002f7a:	bc80      	pop	{r7}
 8002f7c:	4770      	bx	lr
 8002f7e:	bf00      	nop
 8002f80:	ffff8002 	.word	0xffff8002
 8002f84:	ffff8003 	.word	0xffff8003
 8002f88:	0800475f 	.word	0x0800475f

08002f8c <qFIS_InferenceAntecedent>:
/*============================================================================*/
static size_t qFIS_InferenceAntecedent( struct _qFIS_s * const f,
                                        size_t i )
{
 8002f8c:	b590      	push	{r4, r7, lr}
 8002f8e:	b087      	sub	sp, #28
 8002f90:	af00      	add	r7, sp, #0
 8002f92:	6078      	str	r0, [r7, #4]
 8002f94:	6039      	str	r1, [r7, #0]
    int16_t inIndex, MFInIndex, connector;
    qFIS_FuzzyOperator_t op;
    /*cstat -CERT-INT30-C_a*/
    inIndex = f->rules[ i ];
 8002f96:	687b      	ldr	r3, [r7, #4]
 8002f98:	6b5a      	ldr	r2, [r3, #52]	; 0x34
 8002f9a:	683b      	ldr	r3, [r7, #0]
 8002f9c:	005b      	lsls	r3, r3, #1
 8002f9e:	4413      	add	r3, r2
 8002fa0:	881b      	ldrh	r3, [r3, #0]
 8002fa2:	82fb      	strh	r3, [r7, #22]
    MFInIndex = f->rules[ i + 1u ];
 8002fa4:	687b      	ldr	r3, [r7, #4]
 8002fa6:	6b5a      	ldr	r2, [r3, #52]	; 0x34
 8002fa8:	683b      	ldr	r3, [r7, #0]
 8002faa:	3301      	adds	r3, #1
 8002fac:	005b      	lsls	r3, r3, #1
 8002fae:	4413      	add	r3, r2
 8002fb0:	881b      	ldrh	r3, [r3, #0]
 8002fb2:	82bb      	strh	r3, [r7, #20]
    connector = f->rules[ i + 2u ];
 8002fb4:	687b      	ldr	r3, [r7, #4]
 8002fb6:	6b5a      	ldr	r2, [r3, #52]	; 0x34
 8002fb8:	683b      	ldr	r3, [r7, #0]
 8002fba:	3302      	adds	r3, #2
 8002fbc:	005b      	lsls	r3, r3, #1
 8002fbe:	4413      	add	r3, r2
 8002fc0:	881b      	ldrh	r3, [r3, #0]
 8002fc2:	827b      	strh	r3, [r7, #18]
    /*cstat -CERT-INT30-C_a*/
    op = qFIS_GetFuzzOperator( f );
 8002fc4:	6878      	ldr	r0, [r7, #4]
 8002fc6:	f7ff ffbb 	bl	8002f40 <qFIS_GetFuzzOperator>
 8002fca:	60f8      	str	r0, [r7, #12]
    f->rStrength = op( f->rStrength, qFIS_ParseFuzzValue( f->inMF, MFInIndex ) );
 8002fcc:	687b      	ldr	r3, [r7, #4]
 8002fce:	6d9c      	ldr	r4, [r3, #88]	; 0x58
 8002fd0:	687b      	ldr	r3, [r7, #4]
 8002fd2:	689b      	ldr	r3, [r3, #8]
 8002fd4:	f9b7 2014 	ldrsh.w	r2, [r7, #20]
 8002fd8:	4611      	mov	r1, r2
 8002fda:	4618      	mov	r0, r3
 8002fdc:	f7ff ff7b 	bl	8002ed6 <qFIS_ParseFuzzValue>
 8002fe0:	4602      	mov	r2, r0
 8002fe2:	68fb      	ldr	r3, [r7, #12]
 8002fe4:	4611      	mov	r1, r2
 8002fe6:	4620      	mov	r0, r4
 8002fe8:	4798      	blx	r3
 8002fea:	4602      	mov	r2, r0
 8002fec:	687b      	ldr	r3, [r7, #4]
 8002fee:	659a      	str	r2, [r3, #88]	; 0x58

    if ( ( inIndex < 0 ) || ( (size_t)inIndex > f->nInputs ) ) {
 8002ff0:	f9b7 3016 	ldrsh.w	r3, [r7, #22]
 8002ff4:	2b00      	cmp	r3, #0
 8002ff6:	db05      	blt.n	8003004 <qFIS_InferenceAntecedent+0x78>
 8002ff8:	f9b7 2016 	ldrsh.w	r2, [r7, #22]
 8002ffc:	687b      	ldr	r3, [r7, #4]
 8002ffe:	6bdb      	ldr	r3, [r3, #60]	; 0x3c
 8003000:	429a      	cmp	r2, r3
 8003002:	d902      	bls.n	800300a <qFIS_InferenceAntecedent+0x7e>
        i = QFIS_INFERENCE_ERROR;
 8003004:	2300      	movs	r3, #0
 8003006:	603b      	str	r3, [r7, #0]
 8003008:	e022      	b.n	8003050 <qFIS_InferenceAntecedent+0xc4>
    }
    else {
        if ( ( _QFIS_AND == connector ) || ( _QFIS_OR == connector ) ) {
 800300a:	f9b7 3012 	ldrsh.w	r3, [r7, #18]
 800300e:	4a13      	ldr	r2, [pc, #76]	; (800305c <qFIS_InferenceAntecedent+0xd0>)
 8003010:	4293      	cmp	r3, r2
 8003012:	d004      	beq.n	800301e <qFIS_InferenceAntecedent+0x92>
 8003014:	f9b7 3012 	ldrsh.w	r3, [r7, #18]
 8003018:	4a11      	ldr	r2, [pc, #68]	; (8003060 <qFIS_InferenceAntecedent+0xd4>)
 800301a:	4293      	cmp	r3, r2
 800301c:	d10a      	bne.n	8003034 <qFIS_InferenceAntecedent+0xa8>
            f->lastConnector = connector;
 800301e:	687b      	ldr	r3, [r7, #4]
 8003020:	8a7a      	ldrh	r2, [r7, #18]
 8003022:	f8a3 205c 	strh.w	r2, [r3, #92]	; 0x5c
            f->inferenceState = &qFIS_InferenceAntecedent;
 8003026:	687b      	ldr	r3, [r7, #4]
 8003028:	4a0e      	ldr	r2, [pc, #56]	; (8003064 <qFIS_InferenceAntecedent+0xd8>)
 800302a:	621a      	str	r2, [r3, #32]
            i += 2u;
 800302c:	683b      	ldr	r3, [r7, #0]
 800302e:	3302      	adds	r3, #2
 8003030:	603b      	str	r3, [r7, #0]
 8003032:	e00d      	b.n	8003050 <qFIS_InferenceAntecedent+0xc4>
        }
        else if ( _QFIS_THEN == connector ) {
 8003034:	f9b7 3012 	ldrsh.w	r3, [r7, #18]
 8003038:	4a0b      	ldr	r2, [pc, #44]	; (8003068 <qFIS_InferenceAntecedent+0xdc>)
 800303a:	4293      	cmp	r3, r2
 800303c:	d106      	bne.n	800304c <qFIS_InferenceAntecedent+0xc0>
            f->inferenceState = &qFIS_InferenceReachEnd;
 800303e:	687b      	ldr	r3, [r7, #4]
 8003040:	4a0a      	ldr	r2, [pc, #40]	; (800306c <qFIS_InferenceAntecedent+0xe0>)
 8003042:	621a      	str	r2, [r3, #32]
            i += 2u;
 8003044:	683b      	ldr	r3, [r7, #0]
 8003046:	3302      	adds	r3, #2
 8003048:	603b      	str	r3, [r7, #0]
 800304a:	e001      	b.n	8003050 <qFIS_InferenceAntecedent+0xc4>
        }
        else {
            i = QFIS_INFERENCE_ERROR;
 800304c:	2300      	movs	r3, #0
 800304e:	603b      	str	r3, [r7, #0]
        }
    }

    return i;
 8003050:	683b      	ldr	r3, [r7, #0]
}
 8003052:	4618      	mov	r0, r3
 8003054:	371c      	adds	r7, #28
 8003056:	46bd      	mov	sp, r7
 8003058:	bd90      	pop	{r4, r7, pc}
 800305a:	bf00      	nop
 800305c:	ffff8002 	.word	0xffff8002
 8003060:	ffff8003 	.word	0xffff8003
 8003064:	08002f8d 	.word	0x08002f8d
 8003068:	ffff8004 	.word	0xffff8004
 800306c:	08003071 	.word	0x08003071

08003070 <qFIS_InferenceReachEnd>:
/*============================================================================*/
static size_t qFIS_InferenceReachEnd( struct _qFIS_s * const f,
                                      size_t i )
{
 8003070:	b590      	push	{r4, r7, lr}
 8003072:	b085      	sub	sp, #20
 8003074:	af00      	add	r7, sp, #0
 8003076:	6078      	str	r0, [r7, #4]
 8003078:	6039      	str	r1, [r7, #0]
    int16_t  connector;

    connector = ( f->nOutputs > 1u )? f->rules[ i + 2u ] : -1;
 800307a:	687b      	ldr	r3, [r7, #4]
 800307c:	6c1b      	ldr	r3, [r3, #64]	; 0x40
 800307e:	2b01      	cmp	r3, #1
 8003080:	d908      	bls.n	8003094 <qFIS_InferenceReachEnd+0x24>
 8003082:	687b      	ldr	r3, [r7, #4]
 8003084:	6b5a      	ldr	r2, [r3, #52]	; 0x34
 8003086:	683b      	ldr	r3, [r7, #0]
 8003088:	3302      	adds	r3, #2
 800308a:	005b      	lsls	r3, r3, #1
 800308c:	4413      	add	r3, r2
 800308e:	f9b3 3000 	ldrsh.w	r3, [r3]
 8003092:	e001      	b.n	8003098 <qFIS_InferenceReachEnd+0x28>
 8003094:	f04f 33ff 	mov.w	r3, #4294967295
 8003098:	81fb      	strh	r3, [r7, #14]
    i += 2u;
 800309a:	683b      	ldr	r3, [r7, #0]
 800309c:	3302      	adds	r3, #2
 800309e:	603b      	str	r3, [r7, #0]
    if ( _QFIS_AND != connector ) {
 80030a0:	f9b7 300e 	ldrsh.w	r3, [r7, #14]
 80030a4:	4a23      	ldr	r2, [pc, #140]	; (8003134 <qFIS_InferenceReachEnd+0xc4>)
 80030a6:	4293      	cmp	r3, r2
 80030a8:	d03f      	beq.n	800312a <qFIS_InferenceReachEnd+0xba>
        f->inferenceState = &qFIS_InferenceAntecedent;
 80030aa:	687b      	ldr	r3, [r7, #4]
 80030ac:	4a22      	ldr	r2, [pc, #136]	; (8003138 <qFIS_InferenceReachEnd+0xc8>)
 80030ae:	621a      	str	r2, [r3, #32]
        f->lastConnector = -1;
 80030b0:	687b      	ldr	r3, [r7, #4]
 80030b2:	f64f 72ff 	movw	r2, #65535	; 0xffff
 80030b6:	f8a3 205c 	strh.w	r2, [r3, #92]	; 0x5c
        f->wi[ f->ruleCount ] = f->rStrength;
 80030ba:	687b      	ldr	r3, [r7, #4]
 80030bc:	6b1a      	ldr	r2, [r3, #48]	; 0x30
 80030be:	687b      	ldr	r3, [r7, #4]
 80030c0:	6d5b      	ldr	r3, [r3, #84]	; 0x54
 80030c2:	009b      	lsls	r3, r3, #2
 80030c4:	4413      	add	r3, r2
 80030c6:	687a      	ldr	r2, [r7, #4]
 80030c8:	6d92      	ldr	r2, [r2, #88]	; 0x58
 80030ca:	601a      	str	r2, [r3, #0]
        if ( NULL != f->ruleWeight ) {
 80030cc:	687b      	ldr	r3, [r7, #4]
 80030ce:	6adb      	ldr	r3, [r3, #44]	; 0x2c
 80030d0:	2b00      	cmp	r3, #0
 80030d2:	d01e      	beq.n	8003112 <qFIS_InferenceReachEnd+0xa2>
            f->wi[ f->ruleCount ] *= qFIS_Bound( f->ruleWeight[ f->ruleCount ], 0.0f, 1.0f );
 80030d4:	687b      	ldr	r3, [r7, #4]
 80030d6:	6ada      	ldr	r2, [r3, #44]	; 0x2c
 80030d8:	687b      	ldr	r3, [r7, #4]
 80030da:	6d5b      	ldr	r3, [r3, #84]	; 0x54
 80030dc:	009b      	lsls	r3, r3, #2
 80030de:	4413      	add	r3, r2
 80030e0:	681b      	ldr	r3, [r3, #0]
 80030e2:	f04f 527e 	mov.w	r2, #1065353216	; 0x3f800000
 80030e6:	f04f 0100 	mov.w	r1, #0
 80030ea:	4618      	mov	r0, r3
 80030ec:	f001 fb4d 	bl	800478a <qFIS_Bound>
 80030f0:	687b      	ldr	r3, [r7, #4]
 80030f2:	6b1a      	ldr	r2, [r3, #48]	; 0x30
 80030f4:	687b      	ldr	r3, [r7, #4]
 80030f6:	6d5b      	ldr	r3, [r3, #84]	; 0x54
 80030f8:	009b      	lsls	r3, r3, #2
 80030fa:	4413      	add	r3, r2
 80030fc:	6819      	ldr	r1, [r3, #0]
 80030fe:	687b      	ldr	r3, [r7, #4]
 8003100:	6b1a      	ldr	r2, [r3, #48]	; 0x30
 8003102:	687b      	ldr	r3, [r7, #4]
 8003104:	6d5b      	ldr	r3, [r3, #84]	; 0x54
 8003106:	009b      	lsls	r3, r3, #2
 8003108:	18d4      	adds	r4, r2, r3
 800310a:	f7fd fe1b 	bl	8000d44 <__aeabi_fmul>
 800310e:	4603      	mov	r3, r0
 8003110:	6023      	str	r3, [r4, #0]
        }
        f->rStrength = 0.0f;
 8003112:	687b      	ldr	r3, [r7, #4]
 8003114:	f04f 0200 	mov.w	r2, #0
 8003118:	659a      	str	r2, [r3, #88]	; 0x58
        ++f->ruleCount;
 800311a:	687b      	ldr	r3, [r7, #4]
 800311c:	6d5b      	ldr	r3, [r3, #84]	; 0x54
 800311e:	1c5a      	adds	r2, r3, #1
 8003120:	687b      	ldr	r3, [r7, #4]
 8003122:	655a      	str	r2, [r3, #84]	; 0x54
        --i;
 8003124:	683b      	ldr	r3, [r7, #0]
 8003126:	3b01      	subs	r3, #1
 8003128:	603b      	str	r3, [r7, #0]
    }

    return i;
 800312a:	683b      	ldr	r3, [r7, #0]
}
 800312c:	4618      	mov	r0, r3
 800312e:	3714      	adds	r7, #20
 8003130:	46bd      	mov	sp, r7
 8003132:	bd90      	pop	{r4, r7, pc}
 8003134:	ffff8002 	.word	0xffff8002
 8003138:	08002f8d 	.word	0x08002f8d

0800313c <qFIS_AggregationFindConsequent>:
/*============================================================================*/
static size_t qFIS_AggregationFindConsequent( struct _qFIS_s * const f,
                                              size_t i )
{
 800313c:	b480      	push	{r7}
 800313e:	b083      	sub	sp, #12
 8003140:	af00      	add	r7, sp, #0
 8003142:	6078      	str	r0, [r7, #4]
 8003144:	6039      	str	r1, [r7, #0]
    while ( _QFIS_THEN != f->rules[ i++ ] ) {}
 8003146:	bf00      	nop
 8003148:	687b      	ldr	r3, [r7, #4]
 800314a:	6b5a      	ldr	r2, [r3, #52]	; 0x34
 800314c:	683b      	ldr	r3, [r7, #0]
 800314e:	1c59      	adds	r1, r3, #1
 8003150:	6039      	str	r1, [r7, #0]
 8003152:	005b      	lsls	r3, r3, #1
 8003154:	4413      	add	r3, r2
 8003156:	f9b3 3000 	ldrsh.w	r3, [r3]
 800315a:	4a07      	ldr	r2, [pc, #28]	; (8003178 <qFIS_AggregationFindConsequent+0x3c>)
 800315c:	4293      	cmp	r3, r2
 800315e:	d1f3      	bne.n	8003148 <qFIS_AggregationFindConsequent+0xc>
    f->aggregationState = &qFIS_InferenceConsequent;
 8003160:	687b      	ldr	r3, [r7, #4]
 8003162:	4a06      	ldr	r2, [pc, #24]	; (800317c <qFIS_AggregationFindConsequent+0x40>)
 8003164:	625a      	str	r2, [r3, #36]	; 0x24

    return --i;
 8003166:	683b      	ldr	r3, [r7, #0]
 8003168:	3b01      	subs	r3, #1
 800316a:	603b      	str	r3, [r7, #0]
 800316c:	683b      	ldr	r3, [r7, #0]
}
 800316e:	4618      	mov	r0, r3
 8003170:	370c      	adds	r7, #12
 8003172:	46bd      	mov	sp, r7
 8003174:	bc80      	pop	{r7}
 8003176:	4770      	bx	lr
 8003178:	ffff8004 	.word	0xffff8004
 800317c:	08003181 	.word	0x08003181

08003180 <qFIS_InferenceConsequent>:
/*============================================================================*/
static size_t qFIS_InferenceConsequent( struct _qFIS_s * const f,
                                        size_t i )
{
 8003180:	b5b0      	push	{r4, r5, r7, lr}
 8003182:	b088      	sub	sp, #32
 8003184:	af00      	add	r7, sp, #0
 8003186:	6078      	str	r0, [r7, #4]
 8003188:	6039      	str	r1, [r7, #0]
    int16_t outIndex, MFOutIndex, connector;
    uint8_t neg = 0u;
 800318a:	2300      	movs	r3, #0
 800318c:	777b      	strb	r3, [r7, #29]

    outIndex = f->rules[ i ];
 800318e:	687b      	ldr	r3, [r7, #4]
 8003190:	6b5a      	ldr	r2, [r3, #52]	; 0x34
 8003192:	683b      	ldr	r3, [r7, #0]
 8003194:	005b      	lsls	r3, r3, #1
 8003196:	4413      	add	r3, r2
 8003198:	881b      	ldrh	r3, [r3, #0]
 800319a:	837b      	strh	r3, [r7, #26]
    MFOutIndex = f->rules[ i + 1u ];
 800319c:	687b      	ldr	r3, [r7, #4]
 800319e:	6b5a      	ldr	r2, [r3, #52]	; 0x34
 80031a0:	683b      	ldr	r3, [r7, #0]
 80031a2:	3301      	adds	r3, #1
 80031a4:	005b      	lsls	r3, r3, #1
 80031a6:	4413      	add	r3, r2
 80031a8:	881b      	ldrh	r3, [r3, #0]
 80031aa:	83fb      	strh	r3, [r7, #30]
    connector = ( f->nOutputs > 1u )? f->rules[ i + 2u ] : -1;
 80031ac:	687b      	ldr	r3, [r7, #4]
 80031ae:	6c1b      	ldr	r3, [r3, #64]	; 0x40
 80031b0:	2b01      	cmp	r3, #1
 80031b2:	d908      	bls.n	80031c6 <qFIS_InferenceConsequent+0x46>
 80031b4:	687b      	ldr	r3, [r7, #4]
 80031b6:	6b5a      	ldr	r2, [r3, #52]	; 0x34
 80031b8:	683b      	ldr	r3, [r7, #0]
 80031ba:	3302      	adds	r3, #2
 80031bc:	005b      	lsls	r3, r3, #1
 80031be:	4413      	add	r3, r2
 80031c0:	f9b3 3000 	ldrsh.w	r3, [r3]
 80031c4:	e001      	b.n	80031ca <qFIS_InferenceConsequent+0x4a>
 80031c6:	f04f 33ff 	mov.w	r3, #4294967295
 80031ca:	833b      	strh	r3, [r7, #24]
    if ( MFOutIndex < 0 ) {
 80031cc:	f9b7 301e 	ldrsh.w	r3, [r7, #30]
 80031d0:	2b00      	cmp	r3, #0
 80031d2:	da05      	bge.n	80031e0 <qFIS_InferenceConsequent+0x60>
        MFOutIndex = -MFOutIndex;
 80031d4:	8bfb      	ldrh	r3, [r7, #30]
 80031d6:	425b      	negs	r3, r3
 80031d8:	b29b      	uxth	r3, r3
 80031da:	83fb      	strh	r3, [r7, #30]
        neg = 1u;
 80031dc:	2301      	movs	r3, #1
 80031de:	777b      	strb	r3, [r7, #29]
    }
    MFOutIndex -= 1;
 80031e0:	8bfb      	ldrh	r3, [r7, #30]
 80031e2:	3b01      	subs	r3, #1
 80031e4:	b29b      	uxth	r3, r3
 80031e6:	83fb      	strh	r3, [r7, #30]

    if ( f->wi[ f->ruleCount ] > 0.0f ) {
 80031e8:	687b      	ldr	r3, [r7, #4]
 80031ea:	6b1a      	ldr	r2, [r3, #48]	; 0x30
 80031ec:	687b      	ldr	r3, [r7, #4]
 80031ee:	6d5b      	ldr	r3, [r3, #84]	; 0x54
 80031f0:	009b      	lsls	r3, r3, #2
 80031f2:	4413      	add	r3, r2
 80031f4:	681b      	ldr	r3, [r3, #0]
 80031f6:	f04f 0100 	mov.w	r1, #0
 80031fa:	4618      	mov	r0, r3
 80031fc:	f7fd ff5e 	bl	80010bc <__aeabi_fcmpgt>
 8003200:	4603      	mov	r3, r0
 8003202:	2b00      	cmp	r3, #0
 8003204:	d07b      	beq.n	80032fe <qFIS_InferenceConsequent+0x17e>
        qFIS_Output_t *o = &f->output[ outIndex ];
 8003206:	687b      	ldr	r3, [r7, #4]
 8003208:	685a      	ldr	r2, [r3, #4]
 800320a:	f9b7 301a 	ldrsh.w	r3, [r7, #26]
 800320e:	2134      	movs	r1, #52	; 0x34
 8003210:	fb01 f303 	mul.w	r3, r1, r3
 8003214:	4413      	add	r3, r2
 8003216:	617b      	str	r3, [r7, #20]
        qFIS_MF_t *m = &f->outMF[ MFOutIndex ];
 8003218:	687b      	ldr	r3, [r7, #4]
 800321a:	68d9      	ldr	r1, [r3, #12]
 800321c:	f9b7 201e 	ldrsh.w	r2, [r7, #30]
 8003220:	4613      	mov	r3, r2
 8003222:	009b      	lsls	r3, r3, #2
 8003224:	4413      	add	r3, r2
 8003226:	009b      	lsls	r3, r3, #2
 8003228:	440b      	add	r3, r1
 800322a:	613b      	str	r3, [r7, #16]

        if ( Mamdani == f->type ) {
 800322c:	687b      	ldr	r3, [r7, #4]
 800322e:	f893 305e 	ldrb.w	r3, [r3, #94]	; 0x5e
 8003232:	2b00      	cmp	r3, #0
 8003234:	d133      	bne.n	800329e <qFIS_InferenceConsequent+0x11e>
            float v;
            /*cstat -MISRAC2012-Rule-11.3 -CERT-EXP39-C_d*/
            v = m->h*m->shape( (qFIS_IO_Base_t*)o, m->points, 1u );
 8003236:	693b      	ldr	r3, [r7, #16]
 8003238:	68dc      	ldr	r4, [r3, #12]
 800323a:	693b      	ldr	r3, [r7, #16]
 800323c:	681b      	ldr	r3, [r3, #0]
 800323e:	693a      	ldr	r2, [r7, #16]
 8003240:	6851      	ldr	r1, [r2, #4]
 8003242:	2201      	movs	r2, #1
 8003244:	6978      	ldr	r0, [r7, #20]
 8003246:	4798      	blx	r3
 8003248:	4603      	mov	r3, r0
 800324a:	4619      	mov	r1, r3
 800324c:	4620      	mov	r0, r4
 800324e:	f7fd fd79 	bl	8000d44 <__aeabi_fmul>
 8003252:	4603      	mov	r3, r0
 8003254:	60bb      	str	r3, [r7, #8]
            /*cstat +MISRAC2012-Rule-11.3 +CERT-EXP39-C_d*/
            v = ( 1u == neg )? ( 1.0f - v ) : v;
 8003256:	7f7b      	ldrb	r3, [r7, #29]
 8003258:	2b01      	cmp	r3, #1
 800325a:	d106      	bne.n	800326a <qFIS_InferenceConsequent+0xea>
 800325c:	68b9      	ldr	r1, [r7, #8]
 800325e:	f04f 507e 	mov.w	r0, #1065353216	; 0x3f800000
 8003262:	f7fd fc65 	bl	8000b30 <__aeabi_fsub>
 8003266:	4603      	mov	r3, r0
 8003268:	e000      	b.n	800326c <qFIS_InferenceConsequent+0xec>
 800326a:	68bb      	ldr	r3, [r7, #8]
 800326c:	60bb      	str	r3, [r7, #8]
            o->y = f->aggregate( o->y, f->implicate( f->wi[ f->ruleCount ], v ) );
 800326e:	687b      	ldr	r3, [r7, #4]
 8003270:	69dc      	ldr	r4, [r3, #28]
 8003272:	697b      	ldr	r3, [r7, #20]
 8003274:	695d      	ldr	r5, [r3, #20]
 8003276:	687b      	ldr	r3, [r7, #4]
 8003278:	699b      	ldr	r3, [r3, #24]
 800327a:	687a      	ldr	r2, [r7, #4]
 800327c:	6b11      	ldr	r1, [r2, #48]	; 0x30
 800327e:	687a      	ldr	r2, [r7, #4]
 8003280:	6d52      	ldr	r2, [r2, #84]	; 0x54
 8003282:	0092      	lsls	r2, r2, #2
 8003284:	440a      	add	r2, r1
 8003286:	6812      	ldr	r2, [r2, #0]
 8003288:	68b9      	ldr	r1, [r7, #8]
 800328a:	4610      	mov	r0, r2
 800328c:	4798      	blx	r3
 800328e:	4603      	mov	r3, r0
 8003290:	4619      	mov	r1, r3
 8003292:	4628      	mov	r0, r5
 8003294:	47a0      	blx	r4
 8003296:	4602      	mov	r2, r0
 8003298:	697b      	ldr	r3, [r7, #20]
 800329a:	615a      	str	r2, [r3, #20]
 800329c:	e02f      	b.n	80032fe <qFIS_InferenceConsequent+0x17e>
        }
        else { /* Sugeno and Tsukamoto*/
            float zi;
            /*cstat -MISRAC2012-Rule-11.3 -CERT-EXP39-C_d*/
            zi = m->shape( (qFIS_IO_Base_t*)f->input, m->points, f->nInputs );
 800329e:	693b      	ldr	r3, [r7, #16]
 80032a0:	681b      	ldr	r3, [r3, #0]
 80032a2:	687a      	ldr	r2, [r7, #4]
 80032a4:	6810      	ldr	r0, [r2, #0]
 80032a6:	693a      	ldr	r2, [r7, #16]
 80032a8:	6851      	ldr	r1, [r2, #4]
 80032aa:	687a      	ldr	r2, [r7, #4]
 80032ac:	6bd2      	ldr	r2, [r2, #60]	; 0x3c
 80032ae:	4798      	blx	r3
 80032b0:	60f8      	str	r0, [r7, #12]
            /*cstat +MISRAC2012-Rule-11.3 +CERT-EXP39-C_d*/
            o->data[ 0 ] += zi*f->wi[ f->ruleCount ];
 80032b2:	697b      	ldr	r3, [r7, #20]
 80032b4:	699c      	ldr	r4, [r3, #24]
 80032b6:	687b      	ldr	r3, [r7, #4]
 80032b8:	6b1a      	ldr	r2, [r3, #48]	; 0x30
 80032ba:	687b      	ldr	r3, [r7, #4]
 80032bc:	6d5b      	ldr	r3, [r3, #84]	; 0x54
 80032be:	009b      	lsls	r3, r3, #2
 80032c0:	4413      	add	r3, r2
 80032c2:	681b      	ldr	r3, [r3, #0]
 80032c4:	68f9      	ldr	r1, [r7, #12]
 80032c6:	4618      	mov	r0, r3
 80032c8:	f7fd fd3c 	bl	8000d44 <__aeabi_fmul>
 80032cc:	4603      	mov	r3, r0
 80032ce:	4619      	mov	r1, r3
 80032d0:	4620      	mov	r0, r4
 80032d2:	f7fd fc2f 	bl	8000b34 <__addsf3>
 80032d6:	4603      	mov	r3, r0
 80032d8:	461a      	mov	r2, r3
 80032da:	697b      	ldr	r3, [r7, #20]
 80032dc:	619a      	str	r2, [r3, #24]
            o->data[ 1 ] += f->wi[ f->ruleCount ];
 80032de:	697b      	ldr	r3, [r7, #20]
 80032e0:	69d8      	ldr	r0, [r3, #28]
 80032e2:	687b      	ldr	r3, [r7, #4]
 80032e4:	6b1a      	ldr	r2, [r3, #48]	; 0x30
 80032e6:	687b      	ldr	r3, [r7, #4]
 80032e8:	6d5b      	ldr	r3, [r3, #84]	; 0x54
 80032ea:	009b      	lsls	r3, r3, #2
 80032ec:	4413      	add	r3, r2
 80032ee:	681b      	ldr	r3, [r3, #0]
 80032f0:	4619      	mov	r1, r3
 80032f2:	f7fd fc1f 	bl	8000b34 <__addsf3>
 80032f6:	4603      	mov	r3, r0
 80032f8:	461a      	mov	r2, r3
 80032fa:	697b      	ldr	r3, [r7, #20]
 80032fc:	61da      	str	r2, [r3, #28]
        }
    }

    i += 2u;
 80032fe:	683b      	ldr	r3, [r7, #0]
 8003300:	3302      	adds	r3, #2
 8003302:	603b      	str	r3, [r7, #0]
    if ( _QFIS_AND != connector ) {
 8003304:	f9b7 3018 	ldrsh.w	r3, [r7, #24]
 8003308:	4a09      	ldr	r2, [pc, #36]	; (8003330 <qFIS_InferenceConsequent+0x1b0>)
 800330a:	4293      	cmp	r3, r2
 800330c:	d00a      	beq.n	8003324 <qFIS_InferenceConsequent+0x1a4>
        f->aggregationState = &qFIS_AggregationFindConsequent;
 800330e:	687b      	ldr	r3, [r7, #4]
 8003310:	4a08      	ldr	r2, [pc, #32]	; (8003334 <qFIS_InferenceConsequent+0x1b4>)
 8003312:	625a      	str	r2, [r3, #36]	; 0x24
        ++f->ruleCount;
 8003314:	687b      	ldr	r3, [r7, #4]
 8003316:	6d5b      	ldr	r3, [r3, #84]	; 0x54
 8003318:	1c5a      	adds	r2, r3, #1
 800331a:	687b      	ldr	r3, [r7, #4]
 800331c:	655a      	str	r2, [r3, #84]	; 0x54
        --i;
 800331e:	683b      	ldr	r3, [r7, #0]
 8003320:	3b01      	subs	r3, #1
 8003322:	603b      	str	r3, [r7, #0]
    }

    return i;
 8003324:	683b      	ldr	r3, [r7, #0]
}
 8003326:	4618      	mov	r0, r3
 8003328:	3720      	adds	r7, #32
 800332a:	46bd      	mov	sp, r7
 800332c:	bdb0      	pop	{r4, r5, r7, pc}
 800332e:	bf00      	nop
 8003330:	ffff8002 	.word	0xffff8002
 8003334:	0800313d 	.word	0x0800313d

08003338 <qFIS_Aggregate>:
/*============================================================================*/
static void qFIS_Aggregate( qFIS_t * const f )
{
 8003338:	b580      	push	{r7, lr}
 800333a:	b084      	sub	sp, #16
 800333c:	af00      	add	r7, sp, #0
 800333e:	6078      	str	r0, [r7, #4]
    if ( NULL != f ) {
 8003340:	687b      	ldr	r3, [r7, #4]
 8003342:	2b00      	cmp	r3, #0
 8003344:	d02d      	beq.n	80033a2 <qFIS_Aggregate+0x6a>
        if ( QFIS_RULES_BEGIN == f->rules[ 0 ] ) {
 8003346:	687b      	ldr	r3, [r7, #4]
 8003348:	6b5b      	ldr	r3, [r3, #52]	; 0x34
 800334a:	f9b3 3000 	ldrsh.w	r3, [r3]
 800334e:	f513 4f00 	cmn.w	r3, #32768	; 0x8000
 8003352:	d126      	bne.n	80033a2 <qFIS_Aggregate+0x6a>
            size_t i = 1u;
 8003354:	2301      	movs	r3, #1
 8003356:	60fb      	str	r3, [r7, #12]

            f->aggregationState = &qFIS_AggregationFindConsequent;
 8003358:	687b      	ldr	r3, [r7, #4]
 800335a:	4a14      	ldr	r2, [pc, #80]	; (80033ac <qFIS_Aggregate+0x74>)
 800335c:	625a      	str	r2, [r3, #36]	; 0x24
            f->ruleCount = 0u;
 800335e:	687b      	ldr	r3, [r7, #4]
 8003360:	2200      	movs	r2, #0
 8003362:	655a      	str	r2, [r3, #84]	; 0x54
            while ( ( _QFIS_RULES_END != f->rules[ i ] ) && ( f->ruleCount < f->nRules ) ) {
 8003364:	e00b      	b.n	800337e <qFIS_Aggregate+0x46>
                i = f->aggregationState( f, i );
 8003366:	687b      	ldr	r3, [r7, #4]
 8003368:	6a5b      	ldr	r3, [r3, #36]	; 0x24
 800336a:	68f9      	ldr	r1, [r7, #12]
 800336c:	6878      	ldr	r0, [r7, #4]
 800336e:	4798      	blx	r3
 8003370:	60f8      	str	r0, [r7, #12]
                if ( QFIS_INFERENCE_ERROR == i ) {
 8003372:	68fb      	ldr	r3, [r7, #12]
 8003374:	2b00      	cmp	r3, #0
 8003376:	d013      	beq.n	80033a0 <qFIS_Aggregate+0x68>
                    break;
                }
                ++i;
 8003378:	68fb      	ldr	r3, [r7, #12]
 800337a:	3301      	adds	r3, #1
 800337c:	60fb      	str	r3, [r7, #12]
            while ( ( _QFIS_RULES_END != f->rules[ i ] ) && ( f->ruleCount < f->nRules ) ) {
 800337e:	687b      	ldr	r3, [r7, #4]
 8003380:	6b5a      	ldr	r2, [r3, #52]	; 0x34
 8003382:	68fb      	ldr	r3, [r7, #12]
 8003384:	005b      	lsls	r3, r3, #1
 8003386:	4413      	add	r3, r2
 8003388:	f9b3 3000 	ldrsh.w	r3, [r3]
 800338c:	4a08      	ldr	r2, [pc, #32]	; (80033b0 <qFIS_Aggregate+0x78>)
 800338e:	4293      	cmp	r3, r2
 8003390:	d007      	beq.n	80033a2 <qFIS_Aggregate+0x6a>
 8003392:	687b      	ldr	r3, [r7, #4]
 8003394:	6d5a      	ldr	r2, [r3, #84]	; 0x54
 8003396:	687b      	ldr	r3, [r7, #4]
 8003398:	6d1b      	ldr	r3, [r3, #80]	; 0x50
 800339a:	429a      	cmp	r2, r3
 800339c:	d3e3      	bcc.n	8003366 <qFIS_Aggregate+0x2e>
            }
        }
    }
}
 800339e:	e000      	b.n	80033a2 <qFIS_Aggregate+0x6a>
                    break;
 80033a0:	bf00      	nop
}
 80033a2:	bf00      	nop
 80033a4:	3710      	adds	r7, #16
 80033a6:	46bd      	mov	sp, r7
 80033a8:	bd80      	pop	{r7, pc}
 80033aa:	bf00      	nop
 80033ac:	0800313d 	.word	0x0800313d
 80033b0:	ffff8001 	.word	0xffff8001

080033b4 <qFIS_DeFuzz_Centroid>:
/*============================================================================*/
static float qFIS_DeFuzz_Centroid( qFIS_Output_t * const o,
                                   const qFIS_DeFuzzState_t stage )
{
 80033b4:	b590      	push	{r4, r7, lr}
 80033b6:	b085      	sub	sp, #20
 80033b8:	af00      	add	r7, sp, #0
 80033ba:	6078      	str	r0, [r7, #4]
 80033bc:	460b      	mov	r3, r1
 80033be:	70fb      	strb	r3, [r7, #3]
    float d = 0.0f;
 80033c0:	f04f 0300 	mov.w	r3, #0
 80033c4:	60fb      	str	r3, [r7, #12]

    switch ( stage ) {
 80033c6:	78fb      	ldrb	r3, [r7, #3]
 80033c8:	2b02      	cmp	r3, #2
 80033ca:	d02e      	beq.n	800342a <qFIS_DeFuzz_Centroid+0x76>
 80033cc:	2b02      	cmp	r3, #2
 80033ce:	dc37      	bgt.n	8003440 <qFIS_DeFuzz_Centroid+0x8c>
 80033d0:	2b00      	cmp	r3, #0
 80033d2:	d021      	beq.n	8003418 <qFIS_DeFuzz_Centroid+0x64>
 80033d4:	2b01      	cmp	r3, #1
 80033d6:	d133      	bne.n	8003440 <qFIS_DeFuzz_Centroid+0x8c>
        case DeFuzz_Compute:
            o->data[ 0 ] += o->x*o->y;
 80033d8:	687b      	ldr	r3, [r7, #4]
 80033da:	699c      	ldr	r4, [r3, #24]
 80033dc:	687b      	ldr	r3, [r7, #4]
 80033de:	691a      	ldr	r2, [r3, #16]
 80033e0:	687b      	ldr	r3, [r7, #4]
 80033e2:	695b      	ldr	r3, [r3, #20]
 80033e4:	4619      	mov	r1, r3
 80033e6:	4610      	mov	r0, r2
 80033e8:	f7fd fcac 	bl	8000d44 <__aeabi_fmul>
 80033ec:	4603      	mov	r3, r0
 80033ee:	4619      	mov	r1, r3
 80033f0:	4620      	mov	r0, r4
 80033f2:	f7fd fb9f 	bl	8000b34 <__addsf3>
 80033f6:	4603      	mov	r3, r0
 80033f8:	461a      	mov	r2, r3
 80033fa:	687b      	ldr	r3, [r7, #4]
 80033fc:	619a      	str	r2, [r3, #24]
            o->data[ 1 ] += o->y;
 80033fe:	687b      	ldr	r3, [r7, #4]
 8003400:	69da      	ldr	r2, [r3, #28]
 8003402:	687b      	ldr	r3, [r7, #4]
 8003404:	695b      	ldr	r3, [r3, #20]
 8003406:	4619      	mov	r1, r3
 8003408:	4610      	mov	r0, r2
 800340a:	f7fd fb93 	bl	8000b34 <__addsf3>
 800340e:	4603      	mov	r3, r0
 8003410:	461a      	mov	r2, r3
 8003412:	687b      	ldr	r3, [r7, #4]
 8003414:	61da      	str	r2, [r3, #28]
            break;
 8003416:	e014      	b.n	8003442 <qFIS_DeFuzz_Centroid+0x8e>
        case DeFuzz_Init:
            o->data[ 0 ] = 0.0f; /*store sum(y)*/
 8003418:	687b      	ldr	r3, [r7, #4]
 800341a:	f04f 0200 	mov.w	r2, #0
 800341e:	619a      	str	r2, [r3, #24]
            o->data[ 1 ] = 0.0f; /*store sum(x*y)*/
 8003420:	687b      	ldr	r3, [r7, #4]
 8003422:	f04f 0200 	mov.w	r2, #0
 8003426:	61da      	str	r2, [r3, #28]
            break;
 8003428:	e00b      	b.n	8003442 <qFIS_DeFuzz_Centroid+0x8e>
        case DeFuzz_End:
            d = o->data[ 0 ]/o->data[ 1 ]; /*sum(x*y)/sum(y)*/
 800342a:	687b      	ldr	r3, [r7, #4]
 800342c:	699a      	ldr	r2, [r3, #24]
 800342e:	687b      	ldr	r3, [r7, #4]
 8003430:	69db      	ldr	r3, [r3, #28]
 8003432:	4619      	mov	r1, r3
 8003434:	4610      	mov	r0, r2
 8003436:	f7fd fd39 	bl	8000eac <__aeabi_fdiv>
 800343a:	4603      	mov	r3, r0
 800343c:	60fb      	str	r3, [r7, #12]
            break;
 800343e:	e000      	b.n	8003442 <qFIS_DeFuzz_Centroid+0x8e>
        default:
            break;
 8003440:	bf00      	nop
    }

    return d;
 8003442:	68fb      	ldr	r3, [r7, #12]
}
 8003444:	4618      	mov	r0, r3
 8003446:	3714      	adds	r7, #20
 8003448:	46bd      	mov	sp, r7
 800344a:	bd90      	pop	{r4, r7, pc}

0800344c <qFIS_DeFuzz_WtAverage>:
    return d;
}
/*============================================================================*/
static float qFIS_DeFuzz_WtAverage( qFIS_Output_t * const o,
                                    const qFIS_DeFuzzState_t stage )
{
 800344c:	b580      	push	{r7, lr}
 800344e:	b084      	sub	sp, #16
 8003450:	af00      	add	r7, sp, #0
 8003452:	6078      	str	r0, [r7, #4]
 8003454:	460b      	mov	r3, r1
 8003456:	70fb      	strb	r3, [r7, #3]
    float d = 0.0f;
 8003458:	f04f 0300 	mov.w	r3, #0
 800345c:	60fb      	str	r3, [r7, #12]

    if ( DeFuzz_End == stage ) {
 800345e:	78fb      	ldrb	r3, [r7, #3]
 8003460:	2b02      	cmp	r3, #2
 8003462:	d109      	bne.n	8003478 <qFIS_DeFuzz_WtAverage+0x2c>
        d = o->data[ 0 ]/o->data[ 1 ];
 8003464:	687b      	ldr	r3, [r7, #4]
 8003466:	699a      	ldr	r2, [r3, #24]
 8003468:	687b      	ldr	r3, [r7, #4]
 800346a:	69db      	ldr	r3, [r3, #28]
 800346c:	4619      	mov	r1, r3
 800346e:	4610      	mov	r0, r2
 8003470:	f7fd fd1c 	bl	8000eac <__aeabi_fdiv>
 8003474:	4603      	mov	r3, r0
 8003476:	60fb      	str	r3, [r7, #12]
    }

    return d;
 8003478:	68fb      	ldr	r3, [r7, #12]
}
 800347a:	4618      	mov	r0, r3
 800347c:	3710      	adds	r7, #16
 800347e:	46bd      	mov	sp, r7
 8003480:	bd80      	pop	{r7, pc}

08003482 <qFIS_DeFuzzify>:

    return d;
}
/*============================================================================*/
int qFIS_DeFuzzify( qFIS_t * const f )
{
 8003482:	b5b0      	push	{r4, r5, r7, lr}
 8003484:	b086      	sub	sp, #24
 8003486:	af00      	add	r7, sp, #0
 8003488:	6078      	str	r0, [r7, #4]
    int retVal = 0;
 800348a:	2300      	movs	r3, #0
 800348c:	60fb      	str	r3, [r7, #12]

    if ( NULL != f ) {
 800348e:	687b      	ldr	r3, [r7, #4]
 8003490:	2b00      	cmp	r3, #0
 8003492:	f000 8133 	beq.w	80036fc <qFIS_DeFuzzify+0x27a>
        size_t i;

        for ( i = 0; i < f->nOutputs ; ++i ) {
 8003496:	2300      	movs	r3, #0
 8003498:	617b      	str	r3, [r7, #20]
 800349a:	e00e      	b.n	80034ba <qFIS_DeFuzzify+0x38>
            f->deFuzz( &f->output[ i ] , DeFuzz_Init );
 800349c:	687b      	ldr	r3, [r7, #4]
 800349e:	6a9b      	ldr	r3, [r3, #40]	; 0x28
 80034a0:	687a      	ldr	r2, [r7, #4]
 80034a2:	6851      	ldr	r1, [r2, #4]
 80034a4:	697a      	ldr	r2, [r7, #20]
 80034a6:	2034      	movs	r0, #52	; 0x34
 80034a8:	fb00 f202 	mul.w	r2, r0, r2
 80034ac:	440a      	add	r2, r1
 80034ae:	2100      	movs	r1, #0
 80034b0:	4610      	mov	r0, r2
 80034b2:	4798      	blx	r3
        for ( i = 0; i < f->nOutputs ; ++i ) {
 80034b4:	697b      	ldr	r3, [r7, #20]
 80034b6:	3301      	adds	r3, #1
 80034b8:	617b      	str	r3, [r7, #20]
 80034ba:	687b      	ldr	r3, [r7, #4]
 80034bc:	6c1b      	ldr	r3, [r3, #64]	; 0x40
 80034be:	697a      	ldr	r2, [r7, #20]
 80034c0:	429a      	cmp	r2, r3
 80034c2:	d3eb      	bcc.n	800349c <qFIS_DeFuzzify+0x1a>
        }

        if ( Mamdani == f->type  ) {
 80034c4:	687b      	ldr	r3, [r7, #4]
 80034c6:	f893 305e 	ldrb.w	r3, [r3, #94]	; 0x5e
 80034ca:	2b00      	cmp	r3, #0
 80034cc:	f040 809a 	bne.w	8003604 <qFIS_DeFuzzify+0x182>
            size_t k;

            for ( k = 0u ; k < f->nPoints ; ++k ) {
 80034d0:	2300      	movs	r3, #0
 80034d2:	613b      	str	r3, [r7, #16]
 80034d4:	e08f      	b.n	80035f6 <qFIS_DeFuzzify+0x174>
                for ( i = 0; i < f->nOutputs ; ++i ) { /* initialize*/
 80034d6:	2300      	movs	r3, #0
 80034d8:	617b      	str	r3, [r7, #20]
 80034da:	e038      	b.n	800354e <qFIS_DeFuzzify+0xcc>
                    f->output[ i ].y = 0.0f;
 80034dc:	687b      	ldr	r3, [r7, #4]
 80034de:	685a      	ldr	r2, [r3, #4]
 80034e0:	697b      	ldr	r3, [r7, #20]
 80034e2:	2134      	movs	r1, #52	; 0x34
 80034e4:	fb01 f303 	mul.w	r3, r1, r3
 80034e8:	4413      	add	r3, r2
 80034ea:	f04f 0200 	mov.w	r2, #0
 80034ee:	615a      	str	r2, [r3, #20]
                    f->output[ i ].x = qFIS_GetNextX( f->output[ i ].b.min,
 80034f0:	687b      	ldr	r3, [r7, #4]
 80034f2:	685a      	ldr	r2, [r3, #4]
 80034f4:	697b      	ldr	r3, [r7, #20]
 80034f6:	2134      	movs	r1, #52	; 0x34
 80034f8:	fb01 f303 	mul.w	r3, r1, r3
 80034fc:	4413      	add	r3, r2
 80034fe:	6818      	ldr	r0, [r3, #0]
                                                      f->output[ i ].res,
 8003500:	687b      	ldr	r3, [r7, #4]
 8003502:	685a      	ldr	r2, [r3, #4]
 8003504:	697b      	ldr	r3, [r7, #20]
 8003506:	2134      	movs	r1, #52	; 0x34
 8003508:	fb01 f303 	mul.w	r3, r1, r3
 800350c:	4413      	add	r3, r2
                    f->output[ i ].x = qFIS_GetNextX( f->output[ i ].b.min,
 800350e:	68d9      	ldr	r1, [r3, #12]
 8003510:	687b      	ldr	r3, [r7, #4]
 8003512:	685a      	ldr	r2, [r3, #4]
 8003514:	697b      	ldr	r3, [r7, #20]
 8003516:	2434      	movs	r4, #52	; 0x34
 8003518:	fb04 f303 	mul.w	r3, r4, r3
 800351c:	18d4      	adds	r4, r2, r3
 800351e:	693a      	ldr	r2, [r7, #16]
 8003520:	f000 f950 	bl	80037c4 <qFIS_GetNextX>
 8003524:	4603      	mov	r3, r0
 8003526:	6123      	str	r3, [r4, #16]
                                                      k );
                    f->output[ i ].b.value = f->output[ i ].x;
 8003528:	687b      	ldr	r3, [r7, #4]
 800352a:	685a      	ldr	r2, [r3, #4]
 800352c:	697b      	ldr	r3, [r7, #20]
 800352e:	2134      	movs	r1, #52	; 0x34
 8003530:	fb01 f303 	mul.w	r3, r1, r3
 8003534:	441a      	add	r2, r3
 8003536:	687b      	ldr	r3, [r7, #4]
 8003538:	6859      	ldr	r1, [r3, #4]
 800353a:	697b      	ldr	r3, [r7, #20]
 800353c:	2034      	movs	r0, #52	; 0x34
 800353e:	fb00 f303 	mul.w	r3, r0, r3
 8003542:	440b      	add	r3, r1
 8003544:	6912      	ldr	r2, [r2, #16]
 8003546:	609a      	str	r2, [r3, #8]
                for ( i = 0; i < f->nOutputs ; ++i ) { /* initialize*/
 8003548:	697b      	ldr	r3, [r7, #20]
 800354a:	3301      	adds	r3, #1
 800354c:	617b      	str	r3, [r7, #20]
 800354e:	687b      	ldr	r3, [r7, #4]
 8003550:	6c1b      	ldr	r3, [r3, #64]	; 0x40
 8003552:	697a      	ldr	r2, [r7, #20]
 8003554:	429a      	cmp	r2, r3
 8003556:	d3c1      	bcc.n	80034dc <qFIS_DeFuzzify+0x5a>
                }
                qFIS_Aggregate( f );
 8003558:	6878      	ldr	r0, [r7, #4]
 800355a:	f7ff feed 	bl	8003338 <qFIS_Aggregate>
                for ( i = 0; i < f->nOutputs ; ++i ) {
 800355e:	2300      	movs	r3, #0
 8003560:	617b      	str	r3, [r7, #20]
 8003562:	e040      	b.n	80035e6 <qFIS_DeFuzzify+0x164>
                    f->deFuzz( &f->output[ i ] , DeFuzz_Compute );
 8003564:	687b      	ldr	r3, [r7, #4]
 8003566:	6a9b      	ldr	r3, [r3, #40]	; 0x28
 8003568:	687a      	ldr	r2, [r7, #4]
 800356a:	6851      	ldr	r1, [r2, #4]
 800356c:	697a      	ldr	r2, [r7, #20]
 800356e:	2034      	movs	r0, #52	; 0x34
 8003570:	fb00 f202 	mul.w	r2, r0, r2
 8003574:	440a      	add	r2, r1
 8003576:	2101      	movs	r1, #1
 8003578:	4610      	mov	r0, r2
 800357a:	4798      	blx	r3
                    if ( NULL != f->output[ i ].xag ) { /*store aggregated*/
 800357c:	687b      	ldr	r3, [r7, #4]
 800357e:	685a      	ldr	r2, [r3, #4]
 8003580:	697b      	ldr	r3, [r7, #20]
 8003582:	2134      	movs	r1, #52	; 0x34
 8003584:	fb01 f303 	mul.w	r3, r1, r3
 8003588:	4413      	add	r3, r2
 800358a:	6adb      	ldr	r3, [r3, #44]	; 0x2c
 800358c:	2b00      	cmp	r3, #0
 800358e:	d027      	beq.n	80035e0 <qFIS_DeFuzzify+0x15e>
                        f->output[ i ].xag[ k ] = f->output[ i ].x;
 8003590:	687b      	ldr	r3, [r7, #4]
 8003592:	685a      	ldr	r2, [r3, #4]
 8003594:	697b      	ldr	r3, [r7, #20]
 8003596:	2134      	movs	r1, #52	; 0x34
 8003598:	fb01 f303 	mul.w	r3, r1, r3
 800359c:	441a      	add	r2, r3
 800359e:	687b      	ldr	r3, [r7, #4]
 80035a0:	6859      	ldr	r1, [r3, #4]
 80035a2:	697b      	ldr	r3, [r7, #20]
 80035a4:	2034      	movs	r0, #52	; 0x34
 80035a6:	fb00 f303 	mul.w	r3, r0, r3
 80035aa:	440b      	add	r3, r1
 80035ac:	6ad9      	ldr	r1, [r3, #44]	; 0x2c
 80035ae:	693b      	ldr	r3, [r7, #16]
 80035b0:	009b      	lsls	r3, r3, #2
 80035b2:	440b      	add	r3, r1
 80035b4:	6912      	ldr	r2, [r2, #16]
 80035b6:	601a      	str	r2, [r3, #0]
                        f->output[ i ].yag[ k ] = f->output[ i ].y;
 80035b8:	687b      	ldr	r3, [r7, #4]
 80035ba:	685a      	ldr	r2, [r3, #4]
 80035bc:	697b      	ldr	r3, [r7, #20]
 80035be:	2134      	movs	r1, #52	; 0x34
 80035c0:	fb01 f303 	mul.w	r3, r1, r3
 80035c4:	441a      	add	r2, r3
 80035c6:	687b      	ldr	r3, [r7, #4]
 80035c8:	6859      	ldr	r1, [r3, #4]
 80035ca:	697b      	ldr	r3, [r7, #20]
 80035cc:	2034      	movs	r0, #52	; 0x34
 80035ce:	fb00 f303 	mul.w	r3, r0, r3
 80035d2:	440b      	add	r3, r1
 80035d4:	6b19      	ldr	r1, [r3, #48]	; 0x30
 80035d6:	693b      	ldr	r3, [r7, #16]
 80035d8:	009b      	lsls	r3, r3, #2
 80035da:	440b      	add	r3, r1
 80035dc:	6952      	ldr	r2, [r2, #20]
 80035de:	601a      	str	r2, [r3, #0]
                for ( i = 0; i < f->nOutputs ; ++i ) {
 80035e0:	697b      	ldr	r3, [r7, #20]
 80035e2:	3301      	adds	r3, #1
 80035e4:	617b      	str	r3, [r7, #20]
 80035e6:	687b      	ldr	r3, [r7, #4]
 80035e8:	6c1b      	ldr	r3, [r3, #64]	; 0x40
 80035ea:	697a      	ldr	r2, [r7, #20]
 80035ec:	429a      	cmp	r2, r3
 80035ee:	d3b9      	bcc.n	8003564 <qFIS_DeFuzzify+0xe2>
            for ( k = 0u ; k < f->nPoints ; ++k ) {
 80035f0:	693b      	ldr	r3, [r7, #16]
 80035f2:	3301      	adds	r3, #1
 80035f4:	613b      	str	r3, [r7, #16]
 80035f6:	687b      	ldr	r3, [r7, #4]
 80035f8:	6cdb      	ldr	r3, [r3, #76]	; 0x4c
 80035fa:	693a      	ldr	r2, [r7, #16]
 80035fc:	429a      	cmp	r2, r3
 80035fe:	f4ff af6a 	bcc.w	80034d6 <qFIS_DeFuzzify+0x54>
 8003602:	e038      	b.n	8003676 <qFIS_DeFuzzify+0x1f4>
                    }
                }
            }
        }
        else { /*Sugeno and Tsukamoto systems*/
            for ( i = 0; i < f->nOutputs ; ++i ) { /* initialize*/
 8003604:	2300      	movs	r3, #0
 8003606:	617b      	str	r3, [r7, #20]
 8003608:	e016      	b.n	8003638 <qFIS_DeFuzzify+0x1b6>
                f->output[ i ].data[ 0 ] = 0.0f; /*store sum wi*/
 800360a:	687b      	ldr	r3, [r7, #4]
 800360c:	685a      	ldr	r2, [r3, #4]
 800360e:	697b      	ldr	r3, [r7, #20]
 8003610:	2134      	movs	r1, #52	; 0x34
 8003612:	fb01 f303 	mul.w	r3, r1, r3
 8003616:	4413      	add	r3, r2
 8003618:	f04f 0200 	mov.w	r2, #0
 800361c:	619a      	str	r2, [r3, #24]
                f->output[ i ].data[ 1 ] = 0.0f; /*store sum zi*wi*/
 800361e:	687b      	ldr	r3, [r7, #4]
 8003620:	685a      	ldr	r2, [r3, #4]
 8003622:	697b      	ldr	r3, [r7, #20]
 8003624:	2134      	movs	r1, #52	; 0x34
 8003626:	fb01 f303 	mul.w	r3, r1, r3
 800362a:	4413      	add	r3, r2
 800362c:	f04f 0200 	mov.w	r2, #0
 8003630:	61da      	str	r2, [r3, #28]
            for ( i = 0; i < f->nOutputs ; ++i ) { /* initialize*/
 8003632:	697b      	ldr	r3, [r7, #20]
 8003634:	3301      	adds	r3, #1
 8003636:	617b      	str	r3, [r7, #20]
 8003638:	687b      	ldr	r3, [r7, #4]
 800363a:	6c1b      	ldr	r3, [r3, #64]	; 0x40
 800363c:	697a      	ldr	r2, [r7, #20]
 800363e:	429a      	cmp	r2, r3
 8003640:	d3e3      	bcc.n	800360a <qFIS_DeFuzzify+0x188>
            }
            qFIS_Aggregate( f );
 8003642:	6878      	ldr	r0, [r7, #4]
 8003644:	f7ff fe78 	bl	8003338 <qFIS_Aggregate>
            for ( i = 0; i < f->nOutputs ; ++i ) { /* initialize*/
 8003648:	2300      	movs	r3, #0
 800364a:	617b      	str	r3, [r7, #20]
 800364c:	e00e      	b.n	800366c <qFIS_DeFuzzify+0x1ea>
                f->deFuzz( &f->output[ i ] , DeFuzz_Compute );
 800364e:	687b      	ldr	r3, [r7, #4]
 8003650:	6a9b      	ldr	r3, [r3, #40]	; 0x28
 8003652:	687a      	ldr	r2, [r7, #4]
 8003654:	6851      	ldr	r1, [r2, #4]
 8003656:	697a      	ldr	r2, [r7, #20]
 8003658:	2034      	movs	r0, #52	; 0x34
 800365a:	fb00 f202 	mul.w	r2, r0, r2
 800365e:	440a      	add	r2, r1
 8003660:	2101      	movs	r1, #1
 8003662:	4610      	mov	r0, r2
 8003664:	4798      	blx	r3
            for ( i = 0; i < f->nOutputs ; ++i ) { /* initialize*/
 8003666:	697b      	ldr	r3, [r7, #20]
 8003668:	3301      	adds	r3, #1
 800366a:	617b      	str	r3, [r7, #20]
 800366c:	687b      	ldr	r3, [r7, #4]
 800366e:	6c1b      	ldr	r3, [r3, #64]	; 0x40
 8003670:	697a      	ldr	r2, [r7, #20]
 8003672:	429a      	cmp	r2, r3
 8003674:	d3eb      	bcc.n	800364e <qFIS_DeFuzzify+0x1cc>
            }
        }

        for ( i = 0; i < f->nOutputs ; ++i ) {
 8003676:	2300      	movs	r3, #0
 8003678:	617b      	str	r3, [r7, #20]
 800367a:	e03a      	b.n	80036f2 <qFIS_DeFuzzify+0x270>
            f->output[ i ].b.value = f->deFuzz( &f->output[ i ] , DeFuzz_End );
 800367c:	687b      	ldr	r3, [r7, #4]
 800367e:	6a9b      	ldr	r3, [r3, #40]	; 0x28
 8003680:	687a      	ldr	r2, [r7, #4]
 8003682:	6851      	ldr	r1, [r2, #4]
 8003684:	697a      	ldr	r2, [r7, #20]
 8003686:	2034      	movs	r0, #52	; 0x34
 8003688:	fb00 f202 	mul.w	r2, r0, r2
 800368c:	1888      	adds	r0, r1, r2
 800368e:	687a      	ldr	r2, [r7, #4]
 8003690:	6851      	ldr	r1, [r2, #4]
 8003692:	697a      	ldr	r2, [r7, #20]
 8003694:	2434      	movs	r4, #52	; 0x34
 8003696:	fb04 f202 	mul.w	r2, r4, r2
 800369a:	188c      	adds	r4, r1, r2
 800369c:	2102      	movs	r1, #2
 800369e:	4798      	blx	r3
 80036a0:	4603      	mov	r3, r0
 80036a2:	60a3      	str	r3, [r4, #8]
            f->output[ i ].b.value = qFIS_Bound( f->output[ i ].b.value,
 80036a4:	687b      	ldr	r3, [r7, #4]
 80036a6:	685a      	ldr	r2, [r3, #4]
 80036a8:	697b      	ldr	r3, [r7, #20]
 80036aa:	2134      	movs	r1, #52	; 0x34
 80036ac:	fb01 f303 	mul.w	r3, r1, r3
 80036b0:	4413      	add	r3, r2
 80036b2:	6898      	ldr	r0, [r3, #8]
                                                 f->output[ i ].b.min,
 80036b4:	687b      	ldr	r3, [r7, #4]
 80036b6:	685a      	ldr	r2, [r3, #4]
 80036b8:	697b      	ldr	r3, [r7, #20]
 80036ba:	2134      	movs	r1, #52	; 0x34
 80036bc:	fb01 f303 	mul.w	r3, r1, r3
 80036c0:	4413      	add	r3, r2
            f->output[ i ].b.value = qFIS_Bound( f->output[ i ].b.value,
 80036c2:	6819      	ldr	r1, [r3, #0]
                                                 f->output[ i ].b.max );
 80036c4:	687b      	ldr	r3, [r7, #4]
 80036c6:	685a      	ldr	r2, [r3, #4]
 80036c8:	697b      	ldr	r3, [r7, #20]
 80036ca:	2434      	movs	r4, #52	; 0x34
 80036cc:	fb04 f303 	mul.w	r3, r4, r3
 80036d0:	4413      	add	r3, r2
            f->output[ i ].b.value = qFIS_Bound( f->output[ i ].b.value,
 80036d2:	685d      	ldr	r5, [r3, #4]
 80036d4:	687b      	ldr	r3, [r7, #4]
 80036d6:	685a      	ldr	r2, [r3, #4]
 80036d8:	697b      	ldr	r3, [r7, #20]
 80036da:	2434      	movs	r4, #52	; 0x34
 80036dc:	fb04 f303 	mul.w	r3, r4, r3
 80036e0:	18d4      	adds	r4, r2, r3
 80036e2:	462a      	mov	r2, r5
 80036e4:	f001 f851 	bl	800478a <qFIS_Bound>
 80036e8:	4603      	mov	r3, r0
 80036ea:	60a3      	str	r3, [r4, #8]
        for ( i = 0; i < f->nOutputs ; ++i ) {
 80036ec:	697b      	ldr	r3, [r7, #20]
 80036ee:	3301      	adds	r3, #1
 80036f0:	617b      	str	r3, [r7, #20]
 80036f2:	687b      	ldr	r3, [r7, #4]
 80036f4:	6c1b      	ldr	r3, [r3, #64]	; 0x40
 80036f6:	697a      	ldr	r2, [r7, #20]
 80036f8:	429a      	cmp	r2, r3
 80036fa:	d3bf      	bcc.n	800367c <qFIS_DeFuzzify+0x1fa>
        }
    }

    return retVal;
 80036fc:	68fb      	ldr	r3, [r7, #12]
}
 80036fe:	4618      	mov	r0, r3
 8003700:	3718      	adds	r7, #24
 8003702:	46bd      	mov	sp, r7
 8003704:	bdb0      	pop	{r4, r5, r7, pc}
	...

08003708 <qFIS_Inference>:

    return retVal;
}
/*============================================================================*/
int qFIS_Inference( qFIS_t * const f )
{
 8003708:	b580      	push	{r7, lr}
 800370a:	b084      	sub	sp, #16
 800370c:	af00      	add	r7, sp, #0
 800370e:	6078      	str	r0, [r7, #4]
    int retVal = 0;
 8003710:	2300      	movs	r3, #0
 8003712:	60fb      	str	r3, [r7, #12]

    if ( NULL != f  ) {
 8003714:	687b      	ldr	r3, [r7, #4]
 8003716:	2b00      	cmp	r3, #0
 8003718:	d04a      	beq.n	80037b0 <qFIS_Inference+0xa8>
        size_t i = 0u;
 800371a:	2300      	movs	r3, #0
 800371c:	60bb      	str	r3, [r7, #8]

        if ( QFIS_RULES_BEGIN == f->rules[ 0 ] ) {
 800371e:	687b      	ldr	r3, [r7, #4]
 8003720:	6b5b      	ldr	r3, [r3, #52]	; 0x34
 8003722:	f9b3 3000 	ldrsh.w	r3, [r3]
 8003726:	f513 4f00 	cmn.w	r3, #32768	; 0x8000
 800372a:	d12f      	bne.n	800378c <qFIS_Inference+0x84>
            f->inferenceState = &qFIS_InferenceAntecedent;
 800372c:	687b      	ldr	r3, [r7, #4]
 800372e:	4a23      	ldr	r2, [pc, #140]	; (80037bc <qFIS_Inference+0xb4>)
 8003730:	621a      	str	r2, [r3, #32]
            f->rStrength = 0.0f;
 8003732:	687b      	ldr	r3, [r7, #4]
 8003734:	f04f 0200 	mov.w	r2, #0
 8003738:	659a      	str	r2, [r3, #88]	; 0x58
            f->lastConnector = -1;
 800373a:	687b      	ldr	r3, [r7, #4]
 800373c:	f64f 72ff 	movw	r2, #65535	; 0xffff
 8003740:	f8a3 205c 	strh.w	r2, [r3, #92]	; 0x5c
            f->ruleCount = 0u;
 8003744:	687b      	ldr	r3, [r7, #4]
 8003746:	2200      	movs	r2, #0
 8003748:	655a      	str	r2, [r3, #84]	; 0x54
            i = 1u;
 800374a:	2301      	movs	r3, #1
 800374c:	60bb      	str	r3, [r7, #8]
            while ( ( _QFIS_RULES_END != f->rules[ i ] ) && ( f->ruleCount < f->nRules ) ) {
 800374e:	e00b      	b.n	8003768 <qFIS_Inference+0x60>
                i = f->inferenceState( f, i );
 8003750:	687b      	ldr	r3, [r7, #4]
 8003752:	6a1b      	ldr	r3, [r3, #32]
 8003754:	68b9      	ldr	r1, [r7, #8]
 8003756:	6878      	ldr	r0, [r7, #4]
 8003758:	4798      	blx	r3
 800375a:	60b8      	str	r0, [r7, #8]
                if ( QFIS_INFERENCE_ERROR == i ) {
 800375c:	68bb      	ldr	r3, [r7, #8]
 800375e:	2b00      	cmp	r3, #0
 8003760:	d013      	beq.n	800378a <qFIS_Inference+0x82>
                    break;
                }
                ++i;
 8003762:	68bb      	ldr	r3, [r7, #8]
 8003764:	3301      	adds	r3, #1
 8003766:	60bb      	str	r3, [r7, #8]
            while ( ( _QFIS_RULES_END != f->rules[ i ] ) && ( f->ruleCount < f->nRules ) ) {
 8003768:	687b      	ldr	r3, [r7, #4]
 800376a:	6b5a      	ldr	r2, [r3, #52]	; 0x34
 800376c:	68bb      	ldr	r3, [r7, #8]
 800376e:	005b      	lsls	r3, r3, #1
 8003770:	4413      	add	r3, r2
 8003772:	f9b3 3000 	ldrsh.w	r3, [r3]
 8003776:	4a12      	ldr	r2, [pc, #72]	; (80037c0 <qFIS_Inference+0xb8>)
 8003778:	4293      	cmp	r3, r2
 800377a:	d007      	beq.n	800378c <qFIS_Inference+0x84>
 800377c:	687b      	ldr	r3, [r7, #4]
 800377e:	6d5a      	ldr	r2, [r3, #84]	; 0x54
 8003780:	687b      	ldr	r3, [r7, #4]
 8003782:	6d1b      	ldr	r3, [r3, #80]	; 0x50
 8003784:	429a      	cmp	r2, r3
 8003786:	d3e3      	bcc.n	8003750 <qFIS_Inference+0x48>
 8003788:	e000      	b.n	800378c <qFIS_Inference+0x84>
                    break;
 800378a:	bf00      	nop
            }
        }
        if ( ( _QFIS_RULES_END == f->rules[ i ] ) && ( f->ruleCount == f->nRules) ) {
 800378c:	687b      	ldr	r3, [r7, #4]
 800378e:	6b5a      	ldr	r2, [r3, #52]	; 0x34
 8003790:	68bb      	ldr	r3, [r7, #8]
 8003792:	005b      	lsls	r3, r3, #1
 8003794:	4413      	add	r3, r2
 8003796:	f9b3 3000 	ldrsh.w	r3, [r3]
 800379a:	4a09      	ldr	r2, [pc, #36]	; (80037c0 <qFIS_Inference+0xb8>)
 800379c:	4293      	cmp	r3, r2
 800379e:	d107      	bne.n	80037b0 <qFIS_Inference+0xa8>
 80037a0:	687b      	ldr	r3, [r7, #4]
 80037a2:	6d5a      	ldr	r2, [r3, #84]	; 0x54
 80037a4:	687b      	ldr	r3, [r7, #4]
 80037a6:	6d1b      	ldr	r3, [r3, #80]	; 0x50
 80037a8:	429a      	cmp	r2, r3
 80037aa:	d101      	bne.n	80037b0 <qFIS_Inference+0xa8>
            retVal = 1;
 80037ac:	2301      	movs	r3, #1
 80037ae:	60fb      	str	r3, [r7, #12]
        }
    }

    return retVal;
 80037b0:	68fb      	ldr	r3, [r7, #12]
}
 80037b2:	4618      	mov	r0, r3
 80037b4:	3710      	adds	r7, #16
 80037b6:	46bd      	mov	sp, r7
 80037b8:	bd80      	pop	{r7, pc}
 80037ba:	bf00      	nop
 80037bc:	08002f8d 	.word	0x08002f8d
 80037c0:	ffff8001 	.word	0xffff8001

080037c4 <qFIS_GetNextX>:
/*============================================================================*/
static float qFIS_GetNextX( const float init,
                            const float res,
                            const size_t i )
{
 80037c4:	b580      	push	{r7, lr}
 80037c6:	b084      	sub	sp, #16
 80037c8:	af00      	add	r7, sp, #0
 80037ca:	60f8      	str	r0, [r7, #12]
 80037cc:	60b9      	str	r1, [r7, #8]
 80037ce:	607a      	str	r2, [r7, #4]
    /*cstat -CERT-FLP36-C*/
    return init + ( ( (float)i + 0.5f )*res );
 80037d0:	6878      	ldr	r0, [r7, #4]
 80037d2:	f7fd fa5f 	bl	8000c94 <__aeabi_ui2f>
 80037d6:	4603      	mov	r3, r0
 80037d8:	f04f 517c 	mov.w	r1, #1056964608	; 0x3f000000
 80037dc:	4618      	mov	r0, r3
 80037de:	f7fd f9a9 	bl	8000b34 <__addsf3>
 80037e2:	4603      	mov	r3, r0
 80037e4:	68b9      	ldr	r1, [r7, #8]
 80037e6:	4618      	mov	r0, r3
 80037e8:	f7fd faac 	bl	8000d44 <__aeabi_fmul>
 80037ec:	4603      	mov	r3, r0
 80037ee:	68f9      	ldr	r1, [r7, #12]
 80037f0:	4618      	mov	r0, r3
 80037f2:	f7fd f99f 	bl	8000b34 <__addsf3>
 80037f6:	4603      	mov	r3, r0
    /*cstat +CERT-FLP36-C*/
}
 80037f8:	4618      	mov	r0, r3
 80037fa:	3710      	adds	r7, #16
 80037fc:	46bd      	mov	sp, r7
 80037fe:	bd80      	pop	{r7, pc}

08003800 <qFIS_TriMF>:
/*============================================================================*/
static float qFIS_TriMF( const qFIS_IO_Base_t * const in,
                         const float *p,
                         const size_t n )
{
 8003800:	b5b0      	push	{r4, r5, r7, lr}
 8003802:	b08a      	sub	sp, #40	; 0x28
 8003804:	af00      	add	r7, sp, #0
 8003806:	60f8      	str	r0, [r7, #12]
 8003808:	60b9      	str	r1, [r7, #8]
 800380a:	607a      	str	r2, [r7, #4]
    float a, b, c, tmp;
    float x = in[ 0 ].value;
 800380c:	68fb      	ldr	r3, [r7, #12]
 800380e:	689b      	ldr	r3, [r3, #8]
 8003810:	627b      	str	r3, [r7, #36]	; 0x24
    (void)n;

    a = p[ 0 ];
 8003812:	68bb      	ldr	r3, [r7, #8]
 8003814:	681b      	ldr	r3, [r3, #0]
 8003816:	623b      	str	r3, [r7, #32]
    b = p[ 1 ];
 8003818:	68bb      	ldr	r3, [r7, #8]
 800381a:	3304      	adds	r3, #4
 800381c:	681b      	ldr	r3, [r3, #0]
 800381e:	61fb      	str	r3, [r7, #28]
    c = p[ 2 ];
 8003820:	68bb      	ldr	r3, [r7, #8]
 8003822:	3308      	adds	r3, #8
 8003824:	681b      	ldr	r3, [r3, #0]
 8003826:	61bb      	str	r3, [r7, #24]
    tmp = qFIS_Min( ( x - a )/( b - a ) , ( c - x )/( c - b ) );
 8003828:	6a39      	ldr	r1, [r7, #32]
 800382a:	6a78      	ldr	r0, [r7, #36]	; 0x24
 800382c:	f7fd f980 	bl	8000b30 <__aeabi_fsub>
 8003830:	4603      	mov	r3, r0
 8003832:	461c      	mov	r4, r3
 8003834:	6a39      	ldr	r1, [r7, #32]
 8003836:	69f8      	ldr	r0, [r7, #28]
 8003838:	f7fd f97a 	bl	8000b30 <__aeabi_fsub>
 800383c:	4603      	mov	r3, r0
 800383e:	4619      	mov	r1, r3
 8003840:	4620      	mov	r0, r4
 8003842:	f7fd fb33 	bl	8000eac <__aeabi_fdiv>
 8003846:	4603      	mov	r3, r0
 8003848:	461c      	mov	r4, r3
 800384a:	6a79      	ldr	r1, [r7, #36]	; 0x24
 800384c:	69b8      	ldr	r0, [r7, #24]
 800384e:	f7fd f96f 	bl	8000b30 <__aeabi_fsub>
 8003852:	4603      	mov	r3, r0
 8003854:	461d      	mov	r5, r3
 8003856:	69f9      	ldr	r1, [r7, #28]
 8003858:	69b8      	ldr	r0, [r7, #24]
 800385a:	f7fd f969 	bl	8000b30 <__aeabi_fsub>
 800385e:	4603      	mov	r3, r0
 8003860:	4619      	mov	r1, r3
 8003862:	4628      	mov	r0, r5
 8003864:	f7fd fb22 	bl	8000eac <__aeabi_fdiv>
 8003868:	4603      	mov	r3, r0
 800386a:	4619      	mov	r1, r3
 800386c:	4620      	mov	r0, r4
 800386e:	f000 ff09 	bl	8004684 <qFIS_Min>
 8003872:	6178      	str	r0, [r7, #20]

    return qFIS_Max( tmp , 0.0f );
 8003874:	f04f 0100 	mov.w	r1, #0
 8003878:	6978      	ldr	r0, [r7, #20]
 800387a:	f000 ff1e 	bl	80046ba <qFIS_Max>
 800387e:	4603      	mov	r3, r0
}
 8003880:	4618      	mov	r0, r3
 8003882:	3728      	adds	r7, #40	; 0x28
 8003884:	46bd      	mov	sp, r7
 8003886:	bdb0      	pop	{r4, r5, r7, pc}

08003888 <qFIS_TrapMF>:
/*============================================================================*/
static float qFIS_TrapMF( const qFIS_IO_Base_t * const in,
                          const float *p,
                          const size_t n )
{
 8003888:	b590      	push	{r4, r7, lr}
 800388a:	b08b      	sub	sp, #44	; 0x2c
 800388c:	af00      	add	r7, sp, #0
 800388e:	60f8      	str	r0, [r7, #12]
 8003890:	60b9      	str	r1, [r7, #8]
 8003892:	607a      	str	r2, [r7, #4]
    float a, b, c, d, tmp;
    float x = in[ 0 ].value;
 8003894:	68fb      	ldr	r3, [r7, #12]
 8003896:	689b      	ldr	r3, [r3, #8]
 8003898:	627b      	str	r3, [r7, #36]	; 0x24
    (void)n;

    a = p[ 0 ];
 800389a:	68bb      	ldr	r3, [r7, #8]
 800389c:	681b      	ldr	r3, [r3, #0]
 800389e:	623b      	str	r3, [r7, #32]
    b = p[ 1 ];
 80038a0:	68bb      	ldr	r3, [r7, #8]
 80038a2:	3304      	adds	r3, #4
 80038a4:	681b      	ldr	r3, [r3, #0]
 80038a6:	61fb      	str	r3, [r7, #28]
    c = p[ 2 ];
 80038a8:	68bb      	ldr	r3, [r7, #8]
 80038aa:	3308      	adds	r3, #8
 80038ac:	681b      	ldr	r3, [r3, #0]
 80038ae:	61bb      	str	r3, [r7, #24]
    d = p[ 3 ];
 80038b0:	68bb      	ldr	r3, [r7, #8]
 80038b2:	330c      	adds	r3, #12
 80038b4:	681b      	ldr	r3, [r3, #0]
 80038b6:	617b      	str	r3, [r7, #20]
    tmp = qFIS_Min( ( x - a )/( b - a ) , 1.0f );
 80038b8:	6a39      	ldr	r1, [r7, #32]
 80038ba:	6a78      	ldr	r0, [r7, #36]	; 0x24
 80038bc:	f7fd f938 	bl	8000b30 <__aeabi_fsub>
 80038c0:	4603      	mov	r3, r0
 80038c2:	461c      	mov	r4, r3
 80038c4:	6a39      	ldr	r1, [r7, #32]
 80038c6:	69f8      	ldr	r0, [r7, #28]
 80038c8:	f7fd f932 	bl	8000b30 <__aeabi_fsub>
 80038cc:	4603      	mov	r3, r0
 80038ce:	4619      	mov	r1, r3
 80038d0:	4620      	mov	r0, r4
 80038d2:	f7fd faeb 	bl	8000eac <__aeabi_fdiv>
 80038d6:	4603      	mov	r3, r0
 80038d8:	f04f 517e 	mov.w	r1, #1065353216	; 0x3f800000
 80038dc:	4618      	mov	r0, r3
 80038de:	f000 fed1 	bl	8004684 <qFIS_Min>
 80038e2:	6138      	str	r0, [r7, #16]
    tmp = qFIS_Min( tmp, ( d - x )/( d - c ) ) ;
 80038e4:	6a79      	ldr	r1, [r7, #36]	; 0x24
 80038e6:	6978      	ldr	r0, [r7, #20]
 80038e8:	f7fd f922 	bl	8000b30 <__aeabi_fsub>
 80038ec:	4603      	mov	r3, r0
 80038ee:	461c      	mov	r4, r3
 80038f0:	69b9      	ldr	r1, [r7, #24]
 80038f2:	6978      	ldr	r0, [r7, #20]
 80038f4:	f7fd f91c 	bl	8000b30 <__aeabi_fsub>
 80038f8:	4603      	mov	r3, r0
 80038fa:	4619      	mov	r1, r3
 80038fc:	4620      	mov	r0, r4
 80038fe:	f7fd fad5 	bl	8000eac <__aeabi_fdiv>
 8003902:	4603      	mov	r3, r0
 8003904:	4619      	mov	r1, r3
 8003906:	6938      	ldr	r0, [r7, #16]
 8003908:	f000 febc 	bl	8004684 <qFIS_Min>
 800390c:	6138      	str	r0, [r7, #16]

    return qFIS_Max( tmp , 0.0f );
 800390e:	f04f 0100 	mov.w	r1, #0
 8003912:	6938      	ldr	r0, [r7, #16]
 8003914:	f000 fed1 	bl	80046ba <qFIS_Max>
 8003918:	4603      	mov	r3, r0
}
 800391a:	4618      	mov	r0, r3
 800391c:	372c      	adds	r7, #44	; 0x2c
 800391e:	46bd      	mov	sp, r7
 8003920:	bd90      	pop	{r4, r7, pc}

08003922 <qFIS_GBellMF>:
/*============================================================================*/
static float qFIS_GBellMF( const qFIS_IO_Base_t * const in,
                           const float *p,
                           const size_t n )
{
 8003922:	b590      	push	{r4, r7, lr}
 8003924:	b089      	sub	sp, #36	; 0x24
 8003926:	af00      	add	r7, sp, #0
 8003928:	60f8      	str	r0, [r7, #12]
 800392a:	60b9      	str	r1, [r7, #8]
 800392c:	607a      	str	r2, [r7, #4]
    float a, b, c;
    float x = in[ 0 ].value;
 800392e:	68fb      	ldr	r3, [r7, #12]
 8003930:	689b      	ldr	r3, [r3, #8]
 8003932:	61fb      	str	r3, [r7, #28]
    (void)n;

    a = p[ 0 ];
 8003934:	68bb      	ldr	r3, [r7, #8]
 8003936:	681b      	ldr	r3, [r3, #0]
 8003938:	61bb      	str	r3, [r7, #24]
    b = p[ 1 ];
 800393a:	68bb      	ldr	r3, [r7, #8]
 800393c:	3304      	adds	r3, #4
 800393e:	681b      	ldr	r3, [r3, #0]
 8003940:	617b      	str	r3, [r7, #20]
    c = p[ 2 ];
 8003942:	68bb      	ldr	r3, [r7, #8]
 8003944:	3308      	adds	r3, #8
 8003946:	681b      	ldr	r3, [r3, #0]
 8003948:	613b      	str	r3, [r7, #16]

    return ( 1.0f/( 1.0f + QLIB_POW( QLIB_ABS( ( x - c )/a ) , 2.0f*b ) ) );
 800394a:	6939      	ldr	r1, [r7, #16]
 800394c:	69f8      	ldr	r0, [r7, #28]
 800394e:	f7fd f8ef 	bl	8000b30 <__aeabi_fsub>
 8003952:	4603      	mov	r3, r0
 8003954:	69b9      	ldr	r1, [r7, #24]
 8003956:	4618      	mov	r0, r3
 8003958:	f7fd faa8 	bl	8000eac <__aeabi_fdiv>
 800395c:	4603      	mov	r3, r0
 800395e:	4618      	mov	r0, r3
 8003960:	f7fe fde0 	bl	8002524 <qFFMath_Abs>
 8003964:	4604      	mov	r4, r0
 8003966:	697b      	ldr	r3, [r7, #20]
 8003968:	4619      	mov	r1, r3
 800396a:	4618      	mov	r0, r3
 800396c:	f7fd f8e2 	bl	8000b34 <__addsf3>
 8003970:	4603      	mov	r3, r0
 8003972:	4619      	mov	r1, r3
 8003974:	4620      	mov	r0, r4
 8003976:	f7fe ff87 	bl	8002888 <qFFMath_Pow>
 800397a:	4603      	mov	r3, r0
 800397c:	f04f 517e 	mov.w	r1, #1065353216	; 0x3f800000
 8003980:	4618      	mov	r0, r3
 8003982:	f7fd f8d7 	bl	8000b34 <__addsf3>
 8003986:	4603      	mov	r3, r0
 8003988:	4619      	mov	r1, r3
 800398a:	f04f 507e 	mov.w	r0, #1065353216	; 0x3f800000
 800398e:	f7fd fa8d 	bl	8000eac <__aeabi_fdiv>
 8003992:	4603      	mov	r3, r0
}
 8003994:	4618      	mov	r0, r3
 8003996:	3724      	adds	r7, #36	; 0x24
 8003998:	46bd      	mov	sp, r7
 800399a:	bd90      	pop	{r4, r7, pc}

0800399c <qFIS_GaussMF>:
/*============================================================================*/
static float qFIS_GaussMF( const qFIS_IO_Base_t * const in,
                           const float *p,
                           const size_t n )
{
 800399c:	b580      	push	{r7, lr}
 800399e:	b088      	sub	sp, #32
 80039a0:	af00      	add	r7, sp, #0
 80039a2:	60f8      	str	r0, [r7, #12]
 80039a4:	60b9      	str	r1, [r7, #8]
 80039a6:	607a      	str	r2, [r7, #4]
    float a, c, tmp;
    float x = in[ 0 ].value;
 80039a8:	68fb      	ldr	r3, [r7, #12]
 80039aa:	689b      	ldr	r3, [r3, #8]
 80039ac:	61fb      	str	r3, [r7, #28]
    (void)n;

    a = p[ 0 ];
 80039ae:	68bb      	ldr	r3, [r7, #8]
 80039b0:	681b      	ldr	r3, [r3, #0]
 80039b2:	61bb      	str	r3, [r7, #24]
    c = p[ 1 ];
 80039b4:	68bb      	ldr	r3, [r7, #8]
 80039b6:	3304      	adds	r3, #4
 80039b8:	681b      	ldr	r3, [r3, #0]
 80039ba:	617b      	str	r3, [r7, #20]
    tmp = ( x - c )/a;
 80039bc:	6979      	ldr	r1, [r7, #20]
 80039be:	69f8      	ldr	r0, [r7, #28]
 80039c0:	f7fd f8b6 	bl	8000b30 <__aeabi_fsub>
 80039c4:	4603      	mov	r3, r0
 80039c6:	69b9      	ldr	r1, [r7, #24]
 80039c8:	4618      	mov	r0, r3
 80039ca:	f7fd fa6f 	bl	8000eac <__aeabi_fdiv>
 80039ce:	4603      	mov	r3, r0
 80039d0:	613b      	str	r3, [r7, #16]

    return QLIB_EXP( -0.5f*tmp*tmp );
 80039d2:	f04f 413f 	mov.w	r1, #3204448256	; 0xbf000000
 80039d6:	6938      	ldr	r0, [r7, #16]
 80039d8:	f7fd f9b4 	bl	8000d44 <__aeabi_fmul>
 80039dc:	4603      	mov	r3, r0
 80039de:	6939      	ldr	r1, [r7, #16]
 80039e0:	4618      	mov	r0, r3
 80039e2:	f7fd f9af 	bl	8000d44 <__aeabi_fmul>
 80039e6:	4603      	mov	r3, r0
 80039e8:	4618      	mov	r0, r3
 80039ea:	f7fe ff25 	bl	8002838 <qFFMath_Exp>
 80039ee:	4603      	mov	r3, r0
}
 80039f0:	4618      	mov	r0, r3
 80039f2:	3720      	adds	r7, #32
 80039f4:	46bd      	mov	sp, r7
 80039f6:	bd80      	pop	{r7, pc}

080039f8 <qFIS_Gauss2MF>:
/*============================================================================*/
static float qFIS_Gauss2MF( const qFIS_IO_Base_t * const in,
                            const float *p,
                            const size_t n )
{
 80039f8:	b580      	push	{r7, lr}
 80039fa:	b08a      	sub	sp, #40	; 0x28
 80039fc:	af00      	add	r7, sp, #0
 80039fe:	60f8      	str	r0, [r7, #12]
 8003a00:	60b9      	str	r1, [r7, #8]
 8003a02:	607a      	str	r2, [r7, #4]
    float c1, c2, f1, f2;
    float x = in[ 0 ].value;
 8003a04:	68fb      	ldr	r3, [r7, #12]
 8003a06:	689b      	ldr	r3, [r3, #8]
 8003a08:	627b      	str	r3, [r7, #36]	; 0x24

    c1 = p[ 1 ];
 8003a0a:	68bb      	ldr	r3, [r7, #8]
 8003a0c:	3304      	adds	r3, #4
 8003a0e:	681b      	ldr	r3, [r3, #0]
 8003a10:	623b      	str	r3, [r7, #32]
    c2 = p[ 3 ];
 8003a12:	68bb      	ldr	r3, [r7, #8]
 8003a14:	330c      	adds	r3, #12
 8003a16:	681b      	ldr	r3, [r3, #0]
 8003a18:	61fb      	str	r3, [r7, #28]
    f1 = ( x <= c1 ) ? qFIS_GaussMF( in , p, n ) : 1.0f;
 8003a1a:	6a39      	ldr	r1, [r7, #32]
 8003a1c:	6a78      	ldr	r0, [r7, #36]	; 0x24
 8003a1e:	f7fd fb39 	bl	8001094 <__aeabi_fcmple>
 8003a22:	4603      	mov	r3, r0
 8003a24:	2b00      	cmp	r3, #0
 8003a26:	d006      	beq.n	8003a36 <qFIS_Gauss2MF+0x3e>
 8003a28:	687a      	ldr	r2, [r7, #4]
 8003a2a:	68b9      	ldr	r1, [r7, #8]
 8003a2c:	68f8      	ldr	r0, [r7, #12]
 8003a2e:	f7ff ffb5 	bl	800399c <qFIS_GaussMF>
 8003a32:	4603      	mov	r3, r0
 8003a34:	e001      	b.n	8003a3a <qFIS_Gauss2MF+0x42>
 8003a36:	f04f 537e 	mov.w	r3, #1065353216	; 0x3f800000
 8003a3a:	61bb      	str	r3, [r7, #24]
    f2 = ( x <= c2 ) ? qFIS_GaussMF( in , &p[ 2 ], n ) : 1.0f;
 8003a3c:	69f9      	ldr	r1, [r7, #28]
 8003a3e:	6a78      	ldr	r0, [r7, #36]	; 0x24
 8003a40:	f7fd fb28 	bl	8001094 <__aeabi_fcmple>
 8003a44:	4603      	mov	r3, r0
 8003a46:	2b00      	cmp	r3, #0
 8003a48:	d008      	beq.n	8003a5c <qFIS_Gauss2MF+0x64>
 8003a4a:	68bb      	ldr	r3, [r7, #8]
 8003a4c:	3308      	adds	r3, #8
 8003a4e:	687a      	ldr	r2, [r7, #4]
 8003a50:	4619      	mov	r1, r3
 8003a52:	68f8      	ldr	r0, [r7, #12]
 8003a54:	f7ff ffa2 	bl	800399c <qFIS_GaussMF>
 8003a58:	4603      	mov	r3, r0
 8003a5a:	e001      	b.n	8003a60 <qFIS_Gauss2MF+0x68>
 8003a5c:	f04f 537e 	mov.w	r3, #1065353216	; 0x3f800000
 8003a60:	617b      	str	r3, [r7, #20]

    return f1*f2;
 8003a62:	6979      	ldr	r1, [r7, #20]
 8003a64:	69b8      	ldr	r0, [r7, #24]
 8003a66:	f7fd f96d 	bl	8000d44 <__aeabi_fmul>
 8003a6a:	4603      	mov	r3, r0
}
 8003a6c:	4618      	mov	r0, r3
 8003a6e:	3728      	adds	r7, #40	; 0x28
 8003a70:	46bd      	mov	sp, r7
 8003a72:	bd80      	pop	{r7, pc}

08003a74 <qFIS_SigMF>:
/*============================================================================*/
static float qFIS_SigMF( const qFIS_IO_Base_t * const in,
                         const float *p,
                         const size_t n )
{
 8003a74:	b590      	push	{r4, r7, lr}
 8003a76:	b089      	sub	sp, #36	; 0x24
 8003a78:	af00      	add	r7, sp, #0
 8003a7a:	60f8      	str	r0, [r7, #12]
 8003a7c:	60b9      	str	r1, [r7, #8]
 8003a7e:	607a      	str	r2, [r7, #4]
    float a, b;
    float x = in[ 0 ].value;
 8003a80:	68fb      	ldr	r3, [r7, #12]
 8003a82:	689b      	ldr	r3, [r3, #8]
 8003a84:	61fb      	str	r3, [r7, #28]
    (void)n;

    a = p[ 0 ];
 8003a86:	68bb      	ldr	r3, [r7, #8]
 8003a88:	681b      	ldr	r3, [r3, #0]
 8003a8a:	61bb      	str	r3, [r7, #24]
    b = p[ 1 ];
 8003a8c:	68bb      	ldr	r3, [r7, #8]
 8003a8e:	3304      	adds	r3, #4
 8003a90:	681b      	ldr	r3, [r3, #0]
 8003a92:	617b      	str	r3, [r7, #20]

    return 1.0f/( 1.0f + QLIB_EXP( -a*( x - b ) ) );
 8003a94:	69bb      	ldr	r3, [r7, #24]
 8003a96:	f083 4400 	eor.w	r4, r3, #2147483648	; 0x80000000
 8003a9a:	6979      	ldr	r1, [r7, #20]
 8003a9c:	69f8      	ldr	r0, [r7, #28]
 8003a9e:	f7fd f847 	bl	8000b30 <__aeabi_fsub>
 8003aa2:	4603      	mov	r3, r0
 8003aa4:	4619      	mov	r1, r3
 8003aa6:	4620      	mov	r0, r4
 8003aa8:	f7fd f94c 	bl	8000d44 <__aeabi_fmul>
 8003aac:	4603      	mov	r3, r0
 8003aae:	4618      	mov	r0, r3
 8003ab0:	f7fe fec2 	bl	8002838 <qFFMath_Exp>
 8003ab4:	4603      	mov	r3, r0
 8003ab6:	f04f 517e 	mov.w	r1, #1065353216	; 0x3f800000
 8003aba:	4618      	mov	r0, r3
 8003abc:	f7fd f83a 	bl	8000b34 <__addsf3>
 8003ac0:	4603      	mov	r3, r0
 8003ac2:	4619      	mov	r1, r3
 8003ac4:	f04f 507e 	mov.w	r0, #1065353216	; 0x3f800000
 8003ac8:	f7fd f9f0 	bl	8000eac <__aeabi_fdiv>
 8003acc:	4603      	mov	r3, r0
}
 8003ace:	4618      	mov	r0, r3
 8003ad0:	3724      	adds	r7, #36	; 0x24
 8003ad2:	46bd      	mov	sp, r7
 8003ad4:	bd90      	pop	{r4, r7, pc}

08003ad6 <qFIS_TSigMF>:
/*============================================================================*/
static float qFIS_TSigMF( const qFIS_IO_Base_t * const in,
                          const float *p,
                          const size_t n )
{
 8003ad6:	b580      	push	{r7, lr}
 8003ad8:	b08a      	sub	sp, #40	; 0x28
 8003ada:	af00      	add	r7, sp, #0
 8003adc:	60f8      	str	r0, [r7, #12]
 8003ade:	60b9      	str	r1, [r7, #8]
 8003ae0:	607a      	str	r2, [r7, #4]
    float a, b, y;
    float x = in[ 0 ].value;
 8003ae2:	68fb      	ldr	r3, [r7, #12]
 8003ae4:	689b      	ldr	r3, [r3, #8]
 8003ae6:	623b      	str	r3, [r7, #32]
    float min = in[ 0 ].min;
 8003ae8:	68fb      	ldr	r3, [r7, #12]
 8003aea:	681b      	ldr	r3, [r3, #0]
 8003aec:	61fb      	str	r3, [r7, #28]
    float max = in[ 0 ].max;
 8003aee:	68fb      	ldr	r3, [r7, #12]
 8003af0:	685b      	ldr	r3, [r3, #4]
 8003af2:	61bb      	str	r3, [r7, #24]
    (void)n;

    a = p[ 0 ]; /*slope*/
 8003af4:	68bb      	ldr	r3, [r7, #8]
 8003af6:	681b      	ldr	r3, [r3, #0]
 8003af8:	617b      	str	r3, [r7, #20]
    b = p[ 1 ]; /*inflection*/
 8003afa:	68bb      	ldr	r3, [r7, #8]
 8003afc:	3304      	adds	r3, #4
 8003afe:	681b      	ldr	r3, [r3, #0]
 8003b00:	613b      	str	r3, [r7, #16]
    if ( qFMathEx_Equal( x, 1.0f ) ) {
 8003b02:	f04f 517e 	mov.w	r1, #1065353216	; 0x3f800000
 8003b06:	6a38      	ldr	r0, [r7, #32]
 8003b08:	f000 fea9 	bl	800485e <qFMathEx_Equal>
 8003b0c:	4603      	mov	r3, r0
 8003b0e:	2b00      	cmp	r3, #0
 8003b10:	d00d      	beq.n	8003b2e <qFIS_TSigMF+0x58>
        if ( a >= 0.0f ) {
 8003b12:	f04f 0100 	mov.w	r1, #0
 8003b16:	6978      	ldr	r0, [r7, #20]
 8003b18:	f7fd fac6 	bl	80010a8 <__aeabi_fcmpge>
 8003b1c:	4603      	mov	r3, r0
 8003b1e:	2b00      	cmp	r3, #0
 8003b20:	d002      	beq.n	8003b28 <qFIS_TSigMF+0x52>
            y = max;
 8003b22:	69bb      	ldr	r3, [r7, #24]
 8003b24:	627b      	str	r3, [r7, #36]	; 0x24
 8003b26:	e033      	b.n	8003b90 <qFIS_TSigMF+0xba>
        }
        else {
            y = min;
 8003b28:	69fb      	ldr	r3, [r7, #28]
 8003b2a:	627b      	str	r3, [r7, #36]	; 0x24
 8003b2c:	e030      	b.n	8003b90 <qFIS_TSigMF+0xba>
        }
    }
    else if ( qFMathEx_Equal( x, 0.0f ) ) {
 8003b2e:	f04f 0100 	mov.w	r1, #0
 8003b32:	6a38      	ldr	r0, [r7, #32]
 8003b34:	f000 fe93 	bl	800485e <qFMathEx_Equal>
 8003b38:	4603      	mov	r3, r0
 8003b3a:	2b00      	cmp	r3, #0
 8003b3c:	d00d      	beq.n	8003b5a <qFIS_TSigMF+0x84>
        if ( a >= 0.0f ) {
 8003b3e:	f04f 0100 	mov.w	r1, #0
 8003b42:	6978      	ldr	r0, [r7, #20]
 8003b44:	f7fd fab0 	bl	80010a8 <__aeabi_fcmpge>
 8003b48:	4603      	mov	r3, r0
 8003b4a:	2b00      	cmp	r3, #0
 8003b4c:	d002      	beq.n	8003b54 <qFIS_TSigMF+0x7e>
            y = min;
 8003b4e:	69fb      	ldr	r3, [r7, #28]
 8003b50:	627b      	str	r3, [r7, #36]	; 0x24
 8003b52:	e01d      	b.n	8003b90 <qFIS_TSigMF+0xba>
        }
        else {
            y = max;
 8003b54:	69bb      	ldr	r3, [r7, #24]
 8003b56:	627b      	str	r3, [r7, #36]	; 0x24
 8003b58:	e01a      	b.n	8003b90 <qFIS_TSigMF+0xba>
        }
    }
    else {
        /*cstat -MISRAC2012-Dir-4.11_a*/
        y = b - ( QLIB_LOG( ( 1.0f/x ) - 1.0f )/a );
 8003b5a:	6a39      	ldr	r1, [r7, #32]
 8003b5c:	f04f 507e 	mov.w	r0, #1065353216	; 0x3f800000
 8003b60:	f7fd f9a4 	bl	8000eac <__aeabi_fdiv>
 8003b64:	4603      	mov	r3, r0
 8003b66:	f04f 517e 	mov.w	r1, #1065353216	; 0x3f800000
 8003b6a:	4618      	mov	r0, r3
 8003b6c:	f7fc ffe0 	bl	8000b30 <__aeabi_fsub>
 8003b70:	4603      	mov	r3, r0
 8003b72:	4618      	mov	r0, r3
 8003b74:	f7fe fe74 	bl	8002860 <qFFMath_Log>
 8003b78:	4603      	mov	r3, r0
 8003b7a:	6979      	ldr	r1, [r7, #20]
 8003b7c:	4618      	mov	r0, r3
 8003b7e:	f7fd f995 	bl	8000eac <__aeabi_fdiv>
 8003b82:	4603      	mov	r3, r0
 8003b84:	4619      	mov	r1, r3
 8003b86:	6938      	ldr	r0, [r7, #16]
 8003b88:	f7fc ffd2 	bl	8000b30 <__aeabi_fsub>
 8003b8c:	4603      	mov	r3, r0
 8003b8e:	627b      	str	r3, [r7, #36]	; 0x24
        /*cstat +MISRAC2012-Dir-4.11_a*/
    }

    return y;
 8003b90:	6a7b      	ldr	r3, [r7, #36]	; 0x24
}
 8003b92:	4618      	mov	r0, r3
 8003b94:	3728      	adds	r7, #40	; 0x28
 8003b96:	46bd      	mov	sp, r7
 8003b98:	bd80      	pop	{r7, pc}

08003b9a <qFIS_DSigMF>:
/*============================================================================*/
static float qFIS_DSigMF( const qFIS_IO_Base_t * const in,
                          const float *p,
                          const size_t n )
{
 8003b9a:	b590      	push	{r4, r7, lr}
 8003b9c:	b085      	sub	sp, #20
 8003b9e:	af00      	add	r7, sp, #0
 8003ba0:	60f8      	str	r0, [r7, #12]
 8003ba2:	60b9      	str	r1, [r7, #8]
 8003ba4:	607a      	str	r2, [r7, #4]
    return QLIB_ABS( qFIS_SigMF( in , p, n ) - qFIS_SigMF( in , &p[ 2 ], n ) );
 8003ba6:	687a      	ldr	r2, [r7, #4]
 8003ba8:	68b9      	ldr	r1, [r7, #8]
 8003baa:	68f8      	ldr	r0, [r7, #12]
 8003bac:	f7ff ff62 	bl	8003a74 <qFIS_SigMF>
 8003bb0:	4604      	mov	r4, r0
 8003bb2:	68bb      	ldr	r3, [r7, #8]
 8003bb4:	3308      	adds	r3, #8
 8003bb6:	687a      	ldr	r2, [r7, #4]
 8003bb8:	4619      	mov	r1, r3
 8003bba:	68f8      	ldr	r0, [r7, #12]
 8003bbc:	f7ff ff5a 	bl	8003a74 <qFIS_SigMF>
 8003bc0:	4603      	mov	r3, r0
 8003bc2:	4619      	mov	r1, r3
 8003bc4:	4620      	mov	r0, r4
 8003bc6:	f7fc ffb3 	bl	8000b30 <__aeabi_fsub>
 8003bca:	4603      	mov	r3, r0
 8003bcc:	4618      	mov	r0, r3
 8003bce:	f7fe fca9 	bl	8002524 <qFFMath_Abs>
 8003bd2:	4603      	mov	r3, r0
}
 8003bd4:	4618      	mov	r0, r3
 8003bd6:	3714      	adds	r7, #20
 8003bd8:	46bd      	mov	sp, r7
 8003bda:	bd90      	pop	{r4, r7, pc}

08003bdc <qFIS_PSigMF>:
/*============================================================================*/
static float qFIS_PSigMF( const qFIS_IO_Base_t * const in,
                          const float *p,
                          const size_t n )
{
 8003bdc:	b590      	push	{r4, r7, lr}
 8003bde:	b085      	sub	sp, #20
 8003be0:	af00      	add	r7, sp, #0
 8003be2:	60f8      	str	r0, [r7, #12]
 8003be4:	60b9      	str	r1, [r7, #8]
 8003be6:	607a      	str	r2, [r7, #4]
    return QLIB_ABS( qFIS_SigMF( in , p, n )*qFIS_SigMF( in , &p[ 2 ], n ) );
 8003be8:	687a      	ldr	r2, [r7, #4]
 8003bea:	68b9      	ldr	r1, [r7, #8]
 8003bec:	68f8      	ldr	r0, [r7, #12]
 8003bee:	f7ff ff41 	bl	8003a74 <qFIS_SigMF>
 8003bf2:	4604      	mov	r4, r0
 8003bf4:	68bb      	ldr	r3, [r7, #8]
 8003bf6:	3308      	adds	r3, #8
 8003bf8:	687a      	ldr	r2, [r7, #4]
 8003bfa:	4619      	mov	r1, r3
 8003bfc:	68f8      	ldr	r0, [r7, #12]
 8003bfe:	f7ff ff39 	bl	8003a74 <qFIS_SigMF>
 8003c02:	4603      	mov	r3, r0
 8003c04:	4619      	mov	r1, r3
 8003c06:	4620      	mov	r0, r4
 8003c08:	f7fd f89c 	bl	8000d44 <__aeabi_fmul>
 8003c0c:	4603      	mov	r3, r0
 8003c0e:	4618      	mov	r0, r3
 8003c10:	f7fe fc88 	bl	8002524 <qFFMath_Abs>
 8003c14:	4603      	mov	r3, r0
}
 8003c16:	4618      	mov	r0, r3
 8003c18:	3714      	adds	r7, #20
 8003c1a:	46bd      	mov	sp, r7
 8003c1c:	bd90      	pop	{r4, r7, pc}

08003c1e <qFIS_SMF>:
/*============================================================================*/
static float qFIS_SMF( const qFIS_IO_Base_t * const in,
                       const float *p,
                       const size_t n )
{
 8003c1e:	b590      	push	{r4, r7, lr}
 8003c20:	b08b      	sub	sp, #44	; 0x2c
 8003c22:	af00      	add	r7, sp, #0
 8003c24:	60f8      	str	r0, [r7, #12]
 8003c26:	60b9      	str	r1, [r7, #8]
 8003c28:	607a      	str	r2, [r7, #4]
    float a, b, tmp, y;
    float x = in[ 0 ].value;
 8003c2a:	68fb      	ldr	r3, [r7, #12]
 8003c2c:	689b      	ldr	r3, [r3, #8]
 8003c2e:	623b      	str	r3, [r7, #32]
    (void)n;

    a = p[ 0 ];
 8003c30:	68bb      	ldr	r3, [r7, #8]
 8003c32:	681b      	ldr	r3, [r3, #0]
 8003c34:	61fb      	str	r3, [r7, #28]
    b = p[ 1 ];
 8003c36:	68bb      	ldr	r3, [r7, #8]
 8003c38:	3304      	adds	r3, #4
 8003c3a:	681b      	ldr	r3, [r3, #0]
 8003c3c:	61bb      	str	r3, [r7, #24]
    if ( x <= a ) {
 8003c3e:	69f9      	ldr	r1, [r7, #28]
 8003c40:	6a38      	ldr	r0, [r7, #32]
 8003c42:	f7fd fa27 	bl	8001094 <__aeabi_fcmple>
 8003c46:	4603      	mov	r3, r0
 8003c48:	2b00      	cmp	r3, #0
 8003c4a:	d003      	beq.n	8003c54 <qFIS_SMF+0x36>
        y =  0.0f;
 8003c4c:	f04f 0300 	mov.w	r3, #0
 8003c50:	627b      	str	r3, [r7, #36]	; 0x24
 8003c52:	e081      	b.n	8003d58 <qFIS_SMF+0x13a>
    }
    else if ( x >= b ) {
 8003c54:	69b9      	ldr	r1, [r7, #24]
 8003c56:	6a38      	ldr	r0, [r7, #32]
 8003c58:	f7fd fa26 	bl	80010a8 <__aeabi_fcmpge>
 8003c5c:	4603      	mov	r3, r0
 8003c5e:	2b00      	cmp	r3, #0
 8003c60:	d003      	beq.n	8003c6a <qFIS_SMF+0x4c>
        y = 1.0f;
 8003c62:	f04f 537e 	mov.w	r3, #1065353216	; 0x3f800000
 8003c66:	627b      	str	r3, [r7, #36]	; 0x24
 8003c68:	e076      	b.n	8003d58 <qFIS_SMF+0x13a>
    }
    else if ( ( x >= a ) && ( x <= ( ( a + b )*0.5f ) ) ) {
 8003c6a:	69f9      	ldr	r1, [r7, #28]
 8003c6c:	6a38      	ldr	r0, [r7, #32]
 8003c6e:	f7fd fa1b 	bl	80010a8 <__aeabi_fcmpge>
 8003c72:	4603      	mov	r3, r0
 8003c74:	2b00      	cmp	r3, #0
 8003c76:	d02f      	beq.n	8003cd8 <qFIS_SMF+0xba>
 8003c78:	69b9      	ldr	r1, [r7, #24]
 8003c7a:	69f8      	ldr	r0, [r7, #28]
 8003c7c:	f7fc ff5a 	bl	8000b34 <__addsf3>
 8003c80:	4603      	mov	r3, r0
 8003c82:	f04f 517c 	mov.w	r1, #1056964608	; 0x3f000000
 8003c86:	4618      	mov	r0, r3
 8003c88:	f7fd f85c 	bl	8000d44 <__aeabi_fmul>
 8003c8c:	4603      	mov	r3, r0
 8003c8e:	4619      	mov	r1, r3
 8003c90:	6a38      	ldr	r0, [r7, #32]
 8003c92:	f7fd f9ff 	bl	8001094 <__aeabi_fcmple>
 8003c96:	4603      	mov	r3, r0
 8003c98:	2b00      	cmp	r3, #0
 8003c9a:	d01d      	beq.n	8003cd8 <qFIS_SMF+0xba>
        tmp = ( x - a )/( b - a );
 8003c9c:	69f9      	ldr	r1, [r7, #28]
 8003c9e:	6a38      	ldr	r0, [r7, #32]
 8003ca0:	f7fc ff46 	bl	8000b30 <__aeabi_fsub>
 8003ca4:	4603      	mov	r3, r0
 8003ca6:	461c      	mov	r4, r3
 8003ca8:	69f9      	ldr	r1, [r7, #28]
 8003caa:	69b8      	ldr	r0, [r7, #24]
 8003cac:	f7fc ff40 	bl	8000b30 <__aeabi_fsub>
 8003cb0:	4603      	mov	r3, r0
 8003cb2:	4619      	mov	r1, r3
 8003cb4:	4620      	mov	r0, r4
 8003cb6:	f7fd f8f9 	bl	8000eac <__aeabi_fdiv>
 8003cba:	4603      	mov	r3, r0
 8003cbc:	617b      	str	r3, [r7, #20]
        y = 2.0f*tmp*tmp;
 8003cbe:	697b      	ldr	r3, [r7, #20]
 8003cc0:	4619      	mov	r1, r3
 8003cc2:	4618      	mov	r0, r3
 8003cc4:	f7fc ff36 	bl	8000b34 <__addsf3>
 8003cc8:	4603      	mov	r3, r0
 8003cca:	4619      	mov	r1, r3
 8003ccc:	6978      	ldr	r0, [r7, #20]
 8003cce:	f7fd f839 	bl	8000d44 <__aeabi_fmul>
 8003cd2:	4603      	mov	r3, r0
 8003cd4:	627b      	str	r3, [r7, #36]	; 0x24
 8003cd6:	e03f      	b.n	8003d58 <qFIS_SMF+0x13a>
    }
    else if ( ( x <= b ) && ( x >= ( ( a + b )*0.5f ) ) ) {
 8003cd8:	69b9      	ldr	r1, [r7, #24]
 8003cda:	6a38      	ldr	r0, [r7, #32]
 8003cdc:	f7fd f9da 	bl	8001094 <__aeabi_fcmple>
 8003ce0:	4603      	mov	r3, r0
 8003ce2:	2b00      	cmp	r3, #0
 8003ce4:	d035      	beq.n	8003d52 <qFIS_SMF+0x134>
 8003ce6:	69b9      	ldr	r1, [r7, #24]
 8003ce8:	69f8      	ldr	r0, [r7, #28]
 8003cea:	f7fc ff23 	bl	8000b34 <__addsf3>
 8003cee:	4603      	mov	r3, r0
 8003cf0:	f04f 517c 	mov.w	r1, #1056964608	; 0x3f000000
 8003cf4:	4618      	mov	r0, r3
 8003cf6:	f7fd f825 	bl	8000d44 <__aeabi_fmul>
 8003cfa:	4603      	mov	r3, r0
 8003cfc:	4619      	mov	r1, r3
 8003cfe:	6a38      	ldr	r0, [r7, #32]
 8003d00:	f7fd f9d2 	bl	80010a8 <__aeabi_fcmpge>
 8003d04:	4603      	mov	r3, r0
 8003d06:	2b00      	cmp	r3, #0
 8003d08:	d023      	beq.n	8003d52 <qFIS_SMF+0x134>
        tmp = ( x - b )/( b - a );
 8003d0a:	69b9      	ldr	r1, [r7, #24]
 8003d0c:	6a38      	ldr	r0, [r7, #32]
 8003d0e:	f7fc ff0f 	bl	8000b30 <__aeabi_fsub>
 8003d12:	4603      	mov	r3, r0
 8003d14:	461c      	mov	r4, r3
 8003d16:	69f9      	ldr	r1, [r7, #28]
 8003d18:	69b8      	ldr	r0, [r7, #24]
 8003d1a:	f7fc ff09 	bl	8000b30 <__aeabi_fsub>
 8003d1e:	4603      	mov	r3, r0
 8003d20:	4619      	mov	r1, r3
 8003d22:	4620      	mov	r0, r4
 8003d24:	f7fd f8c2 	bl	8000eac <__aeabi_fdiv>
 8003d28:	4603      	mov	r3, r0
 8003d2a:	617b      	str	r3, [r7, #20]
        y = ( 1.0f - ( 2.0f*tmp*tmp ) );
 8003d2c:	697b      	ldr	r3, [r7, #20]
 8003d2e:	4619      	mov	r1, r3
 8003d30:	4618      	mov	r0, r3
 8003d32:	f7fc feff 	bl	8000b34 <__addsf3>
 8003d36:	4603      	mov	r3, r0
 8003d38:	6979      	ldr	r1, [r7, #20]
 8003d3a:	4618      	mov	r0, r3
 8003d3c:	f7fd f802 	bl	8000d44 <__aeabi_fmul>
 8003d40:	4603      	mov	r3, r0
 8003d42:	4619      	mov	r1, r3
 8003d44:	f04f 507e 	mov.w	r0, #1065353216	; 0x3f800000
 8003d48:	f7fc fef2 	bl	8000b30 <__aeabi_fsub>
 8003d4c:	4603      	mov	r3, r0
 8003d4e:	627b      	str	r3, [r7, #36]	; 0x24
 8003d50:	e002      	b.n	8003d58 <qFIS_SMF+0x13a>
    }
    else {
        y = 0.0f;
 8003d52:	f04f 0300 	mov.w	r3, #0
 8003d56:	627b      	str	r3, [r7, #36]	; 0x24
    }

    return y;
 8003d58:	6a7b      	ldr	r3, [r7, #36]	; 0x24
}
 8003d5a:	4618      	mov	r0, r3
 8003d5c:	372c      	adds	r7, #44	; 0x2c
 8003d5e:	46bd      	mov	sp, r7
 8003d60:	bd90      	pop	{r4, r7, pc}

08003d62 <qFIS_TSMF>:
/*============================================================================*/
static float qFIS_TSMF( const qFIS_IO_Base_t * const in,
                        const float *p,
                        const size_t n )
{
 8003d62:	b590      	push	{r4, r7, lr}
 8003d64:	b091      	sub	sp, #68	; 0x44
 8003d66:	af00      	add	r7, sp, #0
 8003d68:	60f8      	str	r0, [r7, #12]
 8003d6a:	60b9      	str	r1, [r7, #8]
 8003d6c:	607a      	str	r2, [r7, #4]
    float diff, a, b, ta, tb, ma, mb;
    float x = in[ 0 ].value;
 8003d6e:	68fb      	ldr	r3, [r7, #12]
 8003d70:	689b      	ldr	r3, [r3, #8]
 8003d72:	63fb      	str	r3, [r7, #60]	; 0x3c
    (void)n;
    qFIS_IO_Base_t tmp;

    a = p[ 0 ]; /*start*/
 8003d74:	68bb      	ldr	r3, [r7, #8]
 8003d76:	681b      	ldr	r3, [r3, #0]
 8003d78:	63bb      	str	r3, [r7, #56]	; 0x38
    b = p[ 1 ]; /*end*/
 8003d7a:	68bb      	ldr	r3, [r7, #8]
 8003d7c:	3304      	adds	r3, #4
 8003d7e:	681b      	ldr	r3, [r3, #0]
 8003d80:	637b      	str	r3, [r7, #52]	; 0x34
    diff = b - a;
 8003d82:	6bb9      	ldr	r1, [r7, #56]	; 0x38
 8003d84:	6b78      	ldr	r0, [r7, #52]	; 0x34
 8003d86:	f7fc fed3 	bl	8000b30 <__aeabi_fsub>
 8003d8a:	4603      	mov	r3, r0
 8003d8c:	633b      	str	r3, [r7, #48]	; 0x30
    diff = 0.5f*diff*diff;
 8003d8e:	f04f 517c 	mov.w	r1, #1056964608	; 0x3f000000
 8003d92:	6b38      	ldr	r0, [r7, #48]	; 0x30
 8003d94:	f7fc ffd6 	bl	8000d44 <__aeabi_fmul>
 8003d98:	4603      	mov	r3, r0
 8003d9a:	4619      	mov	r1, r3
 8003d9c:	6b38      	ldr	r0, [r7, #48]	; 0x30
 8003d9e:	f7fc ffd1 	bl	8000d44 <__aeabi_fmul>
 8003da2:	4603      	mov	r3, r0
 8003da4:	633b      	str	r3, [r7, #48]	; 0x30
    /*cstat -MISRAC2012-Dir-4.11_a -MISRAC2012-Dir-4.11_b*/
    ta = a + QLIB_SQRT( x*diff );
 8003da6:	6b39      	ldr	r1, [r7, #48]	; 0x30
 8003da8:	6bf8      	ldr	r0, [r7, #60]	; 0x3c
 8003daa:	f7fc ffcb 	bl	8000d44 <__aeabi_fmul>
 8003dae:	4603      	mov	r3, r0
 8003db0:	4618      	mov	r0, r3
 8003db2:	f7fe fbcc 	bl	800254e <qFFMath_Sqrt>
 8003db6:	4603      	mov	r3, r0
 8003db8:	4619      	mov	r1, r3
 8003dba:	6bb8      	ldr	r0, [r7, #56]	; 0x38
 8003dbc:	f7fc feba 	bl	8000b34 <__addsf3>
 8003dc0:	4603      	mov	r3, r0
 8003dc2:	62fb      	str	r3, [r7, #44]	; 0x2c
    tmp.value = ta;
 8003dc4:	6afb      	ldr	r3, [r7, #44]	; 0x2c
 8003dc6:	61fb      	str	r3, [r7, #28]
    ma = qFIS_SMF( &tmp, p, n );
 8003dc8:	f107 0314 	add.w	r3, r7, #20
 8003dcc:	687a      	ldr	r2, [r7, #4]
 8003dce:	68b9      	ldr	r1, [r7, #8]
 8003dd0:	4618      	mov	r0, r3
 8003dd2:	f7ff ff24 	bl	8003c1e <qFIS_SMF>
 8003dd6:	62b8      	str	r0, [r7, #40]	; 0x28
    tb = b + QLIB_SQRT( -( x - 1.0f )*diff );
 8003dd8:	f04f 517e 	mov.w	r1, #1065353216	; 0x3f800000
 8003ddc:	6bf8      	ldr	r0, [r7, #60]	; 0x3c
 8003dde:	f7fc fea7 	bl	8000b30 <__aeabi_fsub>
 8003de2:	4603      	mov	r3, r0
 8003de4:	f083 4300 	eor.w	r3, r3, #2147483648	; 0x80000000
 8003de8:	6b39      	ldr	r1, [r7, #48]	; 0x30
 8003dea:	4618      	mov	r0, r3
 8003dec:	f7fc ffaa 	bl	8000d44 <__aeabi_fmul>
 8003df0:	4603      	mov	r3, r0
 8003df2:	4618      	mov	r0, r3
 8003df4:	f7fe fbab 	bl	800254e <qFFMath_Sqrt>
 8003df8:	4603      	mov	r3, r0
 8003dfa:	4619      	mov	r1, r3
 8003dfc:	6b78      	ldr	r0, [r7, #52]	; 0x34
 8003dfe:	f7fc fe99 	bl	8000b34 <__addsf3>
 8003e02:	4603      	mov	r3, r0
 8003e04:	627b      	str	r3, [r7, #36]	; 0x24
    tmp.value = tb;
 8003e06:	6a7b      	ldr	r3, [r7, #36]	; 0x24
 8003e08:	61fb      	str	r3, [r7, #28]
    mb = qFIS_SMF( &tmp, p, n );
 8003e0a:	f107 0314 	add.w	r3, r7, #20
 8003e0e:	687a      	ldr	r2, [r7, #4]
 8003e10:	68b9      	ldr	r1, [r7, #8]
 8003e12:	4618      	mov	r0, r3
 8003e14:	f7ff ff03 	bl	8003c1e <qFIS_SMF>
 8003e18:	6238      	str	r0, [r7, #32]
    /*cstat +MISRAC2012-Dir-4.11_a +MISRAC2012-Dir-4.11_b*/
    return  ( QLIB_ABS( x - ma ) < QLIB_ABS( x - mb ) ) ? ta : tb;
 8003e1a:	6ab9      	ldr	r1, [r7, #40]	; 0x28
 8003e1c:	6bf8      	ldr	r0, [r7, #60]	; 0x3c
 8003e1e:	f7fc fe87 	bl	8000b30 <__aeabi_fsub>
 8003e22:	4603      	mov	r3, r0
 8003e24:	4618      	mov	r0, r3
 8003e26:	f7fe fb7d 	bl	8002524 <qFFMath_Abs>
 8003e2a:	4604      	mov	r4, r0
 8003e2c:	6a39      	ldr	r1, [r7, #32]
 8003e2e:	6bf8      	ldr	r0, [r7, #60]	; 0x3c
 8003e30:	f7fc fe7e 	bl	8000b30 <__aeabi_fsub>
 8003e34:	4603      	mov	r3, r0
 8003e36:	4618      	mov	r0, r3
 8003e38:	f7fe fb74 	bl	8002524 <qFFMath_Abs>
 8003e3c:	4603      	mov	r3, r0
 8003e3e:	4619      	mov	r1, r3
 8003e40:	4620      	mov	r0, r4
 8003e42:	f7fd f91d 	bl	8001080 <__aeabi_fcmplt>
 8003e46:	4603      	mov	r3, r0
 8003e48:	2b00      	cmp	r3, #0
 8003e4a:	d001      	beq.n	8003e50 <qFIS_TSMF+0xee>
 8003e4c:	6afb      	ldr	r3, [r7, #44]	; 0x2c
 8003e4e:	e000      	b.n	8003e52 <qFIS_TSMF+0xf0>
 8003e50:	6a7b      	ldr	r3, [r7, #36]	; 0x24
}
 8003e52:	4618      	mov	r0, r3
 8003e54:	3744      	adds	r7, #68	; 0x44
 8003e56:	46bd      	mov	sp, r7
 8003e58:	bd90      	pop	{r4, r7, pc}

08003e5a <qFIS_ZMF>:
/*============================================================================*/
static float qFIS_ZMF( const qFIS_IO_Base_t * const in,
                       const float *p,
                       const size_t n )
{
 8003e5a:	b590      	push	{r4, r7, lr}
 8003e5c:	b08b      	sub	sp, #44	; 0x2c
 8003e5e:	af00      	add	r7, sp, #0
 8003e60:	60f8      	str	r0, [r7, #12]
 8003e62:	60b9      	str	r1, [r7, #8]
 8003e64:	607a      	str	r2, [r7, #4]
    float a, b, tmp, y;
    float x = in[ 0 ].value;
 8003e66:	68fb      	ldr	r3, [r7, #12]
 8003e68:	689b      	ldr	r3, [r3, #8]
 8003e6a:	623b      	str	r3, [r7, #32]
    (void)n;

    a = p[ 0 ];
 8003e6c:	68bb      	ldr	r3, [r7, #8]
 8003e6e:	681b      	ldr	r3, [r3, #0]
 8003e70:	61fb      	str	r3, [r7, #28]
    b = p[ 1 ];
 8003e72:	68bb      	ldr	r3, [r7, #8]
 8003e74:	3304      	adds	r3, #4
 8003e76:	681b      	ldr	r3, [r3, #0]
 8003e78:	61bb      	str	r3, [r7, #24]
    if ( x <= a ) {
 8003e7a:	69f9      	ldr	r1, [r7, #28]
 8003e7c:	6a38      	ldr	r0, [r7, #32]
 8003e7e:	f7fd f909 	bl	8001094 <__aeabi_fcmple>
 8003e82:	4603      	mov	r3, r0
 8003e84:	2b00      	cmp	r3, #0
 8003e86:	d003      	beq.n	8003e90 <qFIS_ZMF+0x36>
        y = 1.0f;
 8003e88:	f04f 537e 	mov.w	r3, #1065353216	; 0x3f800000
 8003e8c:	627b      	str	r3, [r7, #36]	; 0x24
 8003e8e:	e081      	b.n	8003f94 <qFIS_ZMF+0x13a>
    }
    else if ( x >= b ) {
 8003e90:	69b9      	ldr	r1, [r7, #24]
 8003e92:	6a38      	ldr	r0, [r7, #32]
 8003e94:	f7fd f908 	bl	80010a8 <__aeabi_fcmpge>
 8003e98:	4603      	mov	r3, r0
 8003e9a:	2b00      	cmp	r3, #0
 8003e9c:	d003      	beq.n	8003ea6 <qFIS_ZMF+0x4c>
        y = 0.0f;
 8003e9e:	f04f 0300 	mov.w	r3, #0
 8003ea2:	627b      	str	r3, [r7, #36]	; 0x24
 8003ea4:	e076      	b.n	8003f94 <qFIS_ZMF+0x13a>
    }
    else if ( ( x >= a ) && ( x <= ( ( a + b )*0.5f ) ) ) {
 8003ea6:	69f9      	ldr	r1, [r7, #28]
 8003ea8:	6a38      	ldr	r0, [r7, #32]
 8003eaa:	f7fd f8fd 	bl	80010a8 <__aeabi_fcmpge>
 8003eae:	4603      	mov	r3, r0
 8003eb0:	2b00      	cmp	r3, #0
 8003eb2:	d035      	beq.n	8003f20 <qFIS_ZMF+0xc6>
 8003eb4:	69b9      	ldr	r1, [r7, #24]
 8003eb6:	69f8      	ldr	r0, [r7, #28]
 8003eb8:	f7fc fe3c 	bl	8000b34 <__addsf3>
 8003ebc:	4603      	mov	r3, r0
 8003ebe:	f04f 517c 	mov.w	r1, #1056964608	; 0x3f000000
 8003ec2:	4618      	mov	r0, r3
 8003ec4:	f7fc ff3e 	bl	8000d44 <__aeabi_fmul>
 8003ec8:	4603      	mov	r3, r0
 8003eca:	4619      	mov	r1, r3
 8003ecc:	6a38      	ldr	r0, [r7, #32]
 8003ece:	f7fd f8e1 	bl	8001094 <__aeabi_fcmple>
 8003ed2:	4603      	mov	r3, r0
 8003ed4:	2b00      	cmp	r3, #0
 8003ed6:	d023      	beq.n	8003f20 <qFIS_ZMF+0xc6>
        tmp = ( x - a )/( b - a );
 8003ed8:	69f9      	ldr	r1, [r7, #28]
 8003eda:	6a38      	ldr	r0, [r7, #32]
 8003edc:	f7fc fe28 	bl	8000b30 <__aeabi_fsub>
 8003ee0:	4603      	mov	r3, r0
 8003ee2:	461c      	mov	r4, r3
 8003ee4:	69f9      	ldr	r1, [r7, #28]
 8003ee6:	69b8      	ldr	r0, [r7, #24]
 8003ee8:	f7fc fe22 	bl	8000b30 <__aeabi_fsub>
 8003eec:	4603      	mov	r3, r0
 8003eee:	4619      	mov	r1, r3
 8003ef0:	4620      	mov	r0, r4
 8003ef2:	f7fc ffdb 	bl	8000eac <__aeabi_fdiv>
 8003ef6:	4603      	mov	r3, r0
 8003ef8:	617b      	str	r3, [r7, #20]
        y = 1.0f - ( 2.0f*tmp*tmp );
 8003efa:	697b      	ldr	r3, [r7, #20]
 8003efc:	4619      	mov	r1, r3
 8003efe:	4618      	mov	r0, r3
 8003f00:	f7fc fe18 	bl	8000b34 <__addsf3>
 8003f04:	4603      	mov	r3, r0
 8003f06:	6979      	ldr	r1, [r7, #20]
 8003f08:	4618      	mov	r0, r3
 8003f0a:	f7fc ff1b 	bl	8000d44 <__aeabi_fmul>
 8003f0e:	4603      	mov	r3, r0
 8003f10:	4619      	mov	r1, r3
 8003f12:	f04f 507e 	mov.w	r0, #1065353216	; 0x3f800000
 8003f16:	f7fc fe0b 	bl	8000b30 <__aeabi_fsub>
 8003f1a:	4603      	mov	r3, r0
 8003f1c:	627b      	str	r3, [r7, #36]	; 0x24
 8003f1e:	e039      	b.n	8003f94 <qFIS_ZMF+0x13a>
    }
    else if ( ( x <= b ) && ( x >= ( ( a + b )*0.5f ) ) ) {
 8003f20:	69b9      	ldr	r1, [r7, #24]
 8003f22:	6a38      	ldr	r0, [r7, #32]
 8003f24:	f7fd f8b6 	bl	8001094 <__aeabi_fcmple>
 8003f28:	4603      	mov	r3, r0
 8003f2a:	2b00      	cmp	r3, #0
 8003f2c:	d02f      	beq.n	8003f8e <qFIS_ZMF+0x134>
 8003f2e:	69b9      	ldr	r1, [r7, #24]
 8003f30:	69f8      	ldr	r0, [r7, #28]
 8003f32:	f7fc fdff 	bl	8000b34 <__addsf3>
 8003f36:	4603      	mov	r3, r0
 8003f38:	f04f 517c 	mov.w	r1, #1056964608	; 0x3f000000
 8003f3c:	4618      	mov	r0, r3
 8003f3e:	f7fc ff01 	bl	8000d44 <__aeabi_fmul>
 8003f42:	4603      	mov	r3, r0
 8003f44:	4619      	mov	r1, r3
 8003f46:	6a38      	ldr	r0, [r7, #32]
 8003f48:	f7fd f8ae 	bl	80010a8 <__aeabi_fcmpge>
 8003f4c:	4603      	mov	r3, r0
 8003f4e:	2b00      	cmp	r3, #0
 8003f50:	d01d      	beq.n	8003f8e <qFIS_ZMF+0x134>
        tmp = ( x - b )/( b - a );
 8003f52:	69b9      	ldr	r1, [r7, #24]
 8003f54:	6a38      	ldr	r0, [r7, #32]
 8003f56:	f7fc fdeb 	bl	8000b30 <__aeabi_fsub>
 8003f5a:	4603      	mov	r3, r0
 8003f5c:	461c      	mov	r4, r3
 8003f5e:	69f9      	ldr	r1, [r7, #28]
 8003f60:	69b8      	ldr	r0, [r7, #24]
 8003f62:	f7fc fde5 	bl	8000b30 <__aeabi_fsub>
 8003f66:	4603      	mov	r3, r0
 8003f68:	4619      	mov	r1, r3
 8003f6a:	4620      	mov	r0, r4
 8003f6c:	f7fc ff9e 	bl	8000eac <__aeabi_fdiv>
 8003f70:	4603      	mov	r3, r0
 8003f72:	617b      	str	r3, [r7, #20]
        y = 2.0f*tmp*tmp;
 8003f74:	697b      	ldr	r3, [r7, #20]
 8003f76:	4619      	mov	r1, r3
 8003f78:	4618      	mov	r0, r3
 8003f7a:	f7fc fddb 	bl	8000b34 <__addsf3>
 8003f7e:	4603      	mov	r3, r0
 8003f80:	4619      	mov	r1, r3
 8003f82:	6978      	ldr	r0, [r7, #20]
 8003f84:	f7fc fede 	bl	8000d44 <__aeabi_fmul>
 8003f88:	4603      	mov	r3, r0
 8003f8a:	627b      	str	r3, [r7, #36]	; 0x24
 8003f8c:	e002      	b.n	8003f94 <qFIS_ZMF+0x13a>
    }
    else {
        y = 0.0f;
 8003f8e:	f04f 0300 	mov.w	r3, #0
 8003f92:	627b      	str	r3, [r7, #36]	; 0x24
    }

    return y;
 8003f94:	6a7b      	ldr	r3, [r7, #36]	; 0x24
}
 8003f96:	4618      	mov	r0, r3
 8003f98:	372c      	adds	r7, #44	; 0x2c
 8003f9a:	46bd      	mov	sp, r7
 8003f9c:	bd90      	pop	{r4, r7, pc}

08003f9e <qFIS_LinSMF>:
/*============================================================================*/
static float qFIS_LinSMF( const qFIS_IO_Base_t * const in,
                          const float *p,
                          const size_t n )
{
 8003f9e:	b590      	push	{r4, r7, lr}
 8003fa0:	b089      	sub	sp, #36	; 0x24
 8003fa2:	af00      	add	r7, sp, #0
 8003fa4:	60f8      	str	r0, [r7, #12]
 8003fa6:	60b9      	str	r1, [r7, #8]
 8003fa8:	607a      	str	r2, [r7, #4]
    float a, b, y;
    float x = in[ 0 ].value;
 8003faa:	68fb      	ldr	r3, [r7, #12]
 8003fac:	689b      	ldr	r3, [r3, #8]
 8003fae:	61bb      	str	r3, [r7, #24]
    (void)n;

    a = p[ 0 ];
 8003fb0:	68bb      	ldr	r3, [r7, #8]
 8003fb2:	681b      	ldr	r3, [r3, #0]
 8003fb4:	617b      	str	r3, [r7, #20]
    b = p[ 1 ];
 8003fb6:	68bb      	ldr	r3, [r7, #8]
 8003fb8:	3304      	adds	r3, #4
 8003fba:	681b      	ldr	r3, [r3, #0]
 8003fbc:	613b      	str	r3, [r7, #16]
    if ( a < b ) {
 8003fbe:	6939      	ldr	r1, [r7, #16]
 8003fc0:	6978      	ldr	r0, [r7, #20]
 8003fc2:	f7fd f85d 	bl	8001080 <__aeabi_fcmplt>
 8003fc6:	4603      	mov	r3, r0
 8003fc8:	2b00      	cmp	r3, #0
 8003fca:	d027      	beq.n	800401c <qFIS_LinSMF+0x7e>
        if ( x < a ) {
 8003fcc:	6979      	ldr	r1, [r7, #20]
 8003fce:	69b8      	ldr	r0, [r7, #24]
 8003fd0:	f7fd f856 	bl	8001080 <__aeabi_fcmplt>
 8003fd4:	4603      	mov	r3, r0
 8003fd6:	2b00      	cmp	r3, #0
 8003fd8:	d003      	beq.n	8003fe2 <qFIS_LinSMF+0x44>
            y = 0.0f;
 8003fda:	f04f 0300 	mov.w	r3, #0
 8003fde:	61fb      	str	r3, [r7, #28]
 8003fe0:	e034      	b.n	800404c <qFIS_LinSMF+0xae>
        }
        else if ( x > b ) {
 8003fe2:	6939      	ldr	r1, [r7, #16]
 8003fe4:	69b8      	ldr	r0, [r7, #24]
 8003fe6:	f7fd f869 	bl	80010bc <__aeabi_fcmpgt>
 8003fea:	4603      	mov	r3, r0
 8003fec:	2b00      	cmp	r3, #0
 8003fee:	d003      	beq.n	8003ff8 <qFIS_LinSMF+0x5a>
            y = 1.0f;
 8003ff0:	f04f 537e 	mov.w	r3, #1065353216	; 0x3f800000
 8003ff4:	61fb      	str	r3, [r7, #28]
 8003ff6:	e029      	b.n	800404c <qFIS_LinSMF+0xae>
        }
        else {
            y = ( x - a )/( b - a );
 8003ff8:	6979      	ldr	r1, [r7, #20]
 8003ffa:	69b8      	ldr	r0, [r7, #24]
 8003ffc:	f7fc fd98 	bl	8000b30 <__aeabi_fsub>
 8004000:	4603      	mov	r3, r0
 8004002:	461c      	mov	r4, r3
 8004004:	6979      	ldr	r1, [r7, #20]
 8004006:	6938      	ldr	r0, [r7, #16]
 8004008:	f7fc fd92 	bl	8000b30 <__aeabi_fsub>
 800400c:	4603      	mov	r3, r0
 800400e:	4619      	mov	r1, r3
 8004010:	4620      	mov	r0, r4
 8004012:	f7fc ff4b 	bl	8000eac <__aeabi_fdiv>
 8004016:	4603      	mov	r3, r0
 8004018:	61fb      	str	r3, [r7, #28]
 800401a:	e017      	b.n	800404c <qFIS_LinSMF+0xae>
        }
    }
    else if ( qFMathEx_Equal( a, b ) ) {
 800401c:	6939      	ldr	r1, [r7, #16]
 800401e:	6978      	ldr	r0, [r7, #20]
 8004020:	f000 fc1d 	bl	800485e <qFMathEx_Equal>
 8004024:	4603      	mov	r3, r0
 8004026:	2b00      	cmp	r3, #0
 8004028:	d00d      	beq.n	8004046 <qFIS_LinSMF+0xa8>
        y = ( x < a ) ? 0.0f : 1.0f;
 800402a:	6979      	ldr	r1, [r7, #20]
 800402c:	69b8      	ldr	r0, [r7, #24]
 800402e:	f7fd f827 	bl	8001080 <__aeabi_fcmplt>
 8004032:	4603      	mov	r3, r0
 8004034:	2b00      	cmp	r3, #0
 8004036:	d002      	beq.n	800403e <qFIS_LinSMF+0xa0>
 8004038:	f04f 0300 	mov.w	r3, #0
 800403c:	e001      	b.n	8004042 <qFIS_LinSMF+0xa4>
 800403e:	f04f 537e 	mov.w	r3, #1065353216	; 0x3f800000
 8004042:	61fb      	str	r3, [r7, #28]
 8004044:	e002      	b.n	800404c <qFIS_LinSMF+0xae>
    }
    else {
        y = 0.0f;
 8004046:	f04f 0300 	mov.w	r3, #0
 800404a:	61fb      	str	r3, [r7, #28]
    }

    return y;
 800404c:	69fb      	ldr	r3, [r7, #28]
}
 800404e:	4618      	mov	r0, r3
 8004050:	3724      	adds	r7, #36	; 0x24
 8004052:	46bd      	mov	sp, r7
 8004054:	bd90      	pop	{r4, r7, pc}

08004056 <qFIS_LinZMF>:
/*============================================================================*/
static float qFIS_LinZMF( const qFIS_IO_Base_t * const in,
                          const float *p,
                          const size_t n )
{
 8004056:	b590      	push	{r4, r7, lr}
 8004058:	b089      	sub	sp, #36	; 0x24
 800405a:	af00      	add	r7, sp, #0
 800405c:	60f8      	str	r0, [r7, #12]
 800405e:	60b9      	str	r1, [r7, #8]
 8004060:	607a      	str	r2, [r7, #4]
    float a, b, y;
    float x = in[ 0 ].value;
 8004062:	68fb      	ldr	r3, [r7, #12]
 8004064:	689b      	ldr	r3, [r3, #8]
 8004066:	61bb      	str	r3, [r7, #24]
    (void)n;

    a = p[ 0 ];
 8004068:	68bb      	ldr	r3, [r7, #8]
 800406a:	681b      	ldr	r3, [r3, #0]
 800406c:	617b      	str	r3, [r7, #20]
    b = p[ 1 ];
 800406e:	68bb      	ldr	r3, [r7, #8]
 8004070:	3304      	adds	r3, #4
 8004072:	681b      	ldr	r3, [r3, #0]
 8004074:	613b      	str	r3, [r7, #16]
    if ( a < b ) {
 8004076:	6939      	ldr	r1, [r7, #16]
 8004078:	6978      	ldr	r0, [r7, #20]
 800407a:	f7fd f801 	bl	8001080 <__aeabi_fcmplt>
 800407e:	4603      	mov	r3, r0
 8004080:	2b00      	cmp	r3, #0
 8004082:	d027      	beq.n	80040d4 <qFIS_LinZMF+0x7e>
        if ( x < a ) {
 8004084:	6979      	ldr	r1, [r7, #20]
 8004086:	69b8      	ldr	r0, [r7, #24]
 8004088:	f7fc fffa 	bl	8001080 <__aeabi_fcmplt>
 800408c:	4603      	mov	r3, r0
 800408e:	2b00      	cmp	r3, #0
 8004090:	d003      	beq.n	800409a <qFIS_LinZMF+0x44>
            y = 1.0f;
 8004092:	f04f 537e 	mov.w	r3, #1065353216	; 0x3f800000
 8004096:	61fb      	str	r3, [r7, #28]
 8004098:	e034      	b.n	8004104 <qFIS_LinZMF+0xae>
        }
        else if ( x > b ) {
 800409a:	6939      	ldr	r1, [r7, #16]
 800409c:	69b8      	ldr	r0, [r7, #24]
 800409e:	f7fd f80d 	bl	80010bc <__aeabi_fcmpgt>
 80040a2:	4603      	mov	r3, r0
 80040a4:	2b00      	cmp	r3, #0
 80040a6:	d003      	beq.n	80040b0 <qFIS_LinZMF+0x5a>
            y = 0.0f;
 80040a8:	f04f 0300 	mov.w	r3, #0
 80040ac:	61fb      	str	r3, [r7, #28]
 80040ae:	e029      	b.n	8004104 <qFIS_LinZMF+0xae>
        }
        else {
            y = ( a - x )/( a - b );
 80040b0:	69b9      	ldr	r1, [r7, #24]
 80040b2:	6978      	ldr	r0, [r7, #20]
 80040b4:	f7fc fd3c 	bl	8000b30 <__aeabi_fsub>
 80040b8:	4603      	mov	r3, r0
 80040ba:	461c      	mov	r4, r3
 80040bc:	6939      	ldr	r1, [r7, #16]
 80040be:	6978      	ldr	r0, [r7, #20]
 80040c0:	f7fc fd36 	bl	8000b30 <__aeabi_fsub>
 80040c4:	4603      	mov	r3, r0
 80040c6:	4619      	mov	r1, r3
 80040c8:	4620      	mov	r0, r4
 80040ca:	f7fc feef 	bl	8000eac <__aeabi_fdiv>
 80040ce:	4603      	mov	r3, r0
 80040d0:	61fb      	str	r3, [r7, #28]
 80040d2:	e017      	b.n	8004104 <qFIS_LinZMF+0xae>
        }
    }
    else if ( qFMathEx_Equal( a, b ) ) {
 80040d4:	6939      	ldr	r1, [r7, #16]
 80040d6:	6978      	ldr	r0, [r7, #20]
 80040d8:	f000 fbc1 	bl	800485e <qFMathEx_Equal>
 80040dc:	4603      	mov	r3, r0
 80040de:	2b00      	cmp	r3, #0
 80040e0:	d00d      	beq.n	80040fe <qFIS_LinZMF+0xa8>
        y = ( x < a ) ? 1.0f : 0.0f;
 80040e2:	6979      	ldr	r1, [r7, #20]
 80040e4:	69b8      	ldr	r0, [r7, #24]
 80040e6:	f7fc ffcb 	bl	8001080 <__aeabi_fcmplt>
 80040ea:	4603      	mov	r3, r0
 80040ec:	2b00      	cmp	r3, #0
 80040ee:	d002      	beq.n	80040f6 <qFIS_LinZMF+0xa0>
 80040f0:	f04f 537e 	mov.w	r3, #1065353216	; 0x3f800000
 80040f4:	e001      	b.n	80040fa <qFIS_LinZMF+0xa4>
 80040f6:	f04f 0300 	mov.w	r3, #0
 80040fa:	61fb      	str	r3, [r7, #28]
 80040fc:	e002      	b.n	8004104 <qFIS_LinZMF+0xae>
    }
    else {
        y = 0.0f;
 80040fe:	f04f 0300 	mov.w	r3, #0
 8004102:	61fb      	str	r3, [r7, #28]
    }

    return y;
 8004104:	69fb      	ldr	r3, [r7, #28]
}
 8004106:	4618      	mov	r0, r3
 8004108:	3724      	adds	r7, #36	; 0x24
 800410a:	46bd      	mov	sp, r7
 800410c:	bd90      	pop	{r4, r7, pc}

0800410e <qFIS_TZMF>:
/*============================================================================*/
static float qFIS_TZMF( const qFIS_IO_Base_t * const in,
                        const float *p,
                        const size_t n )
{
 800410e:	b590      	push	{r4, r7, lr}
 8004110:	b091      	sub	sp, #68	; 0x44
 8004112:	af00      	add	r7, sp, #0
 8004114:	60f8      	str	r0, [r7, #12]
 8004116:	60b9      	str	r1, [r7, #8]
 8004118:	607a      	str	r2, [r7, #4]
    float diff, a, b, ta, tb, ma, mb;
    float x = in[ 0 ].value;
 800411a:	68fb      	ldr	r3, [r7, #12]
 800411c:	689b      	ldr	r3, [r3, #8]
 800411e:	63fb      	str	r3, [r7, #60]	; 0x3c
    (void)n;
    qFIS_IO_Base_t tmp;

    a = p[ 0 ]; /*start*/
 8004120:	68bb      	ldr	r3, [r7, #8]
 8004122:	681b      	ldr	r3, [r3, #0]
 8004124:	63bb      	str	r3, [r7, #56]	; 0x38
    b = p[ 1 ]; /*end*/
 8004126:	68bb      	ldr	r3, [r7, #8]
 8004128:	3304      	adds	r3, #4
 800412a:	681b      	ldr	r3, [r3, #0]
 800412c:	637b      	str	r3, [r7, #52]	; 0x34
    diff = b - a;
 800412e:	6bb9      	ldr	r1, [r7, #56]	; 0x38
 8004130:	6b78      	ldr	r0, [r7, #52]	; 0x34
 8004132:	f7fc fcfd 	bl	8000b30 <__aeabi_fsub>
 8004136:	4603      	mov	r3, r0
 8004138:	633b      	str	r3, [r7, #48]	; 0x30
    diff = 0.5f*diff*diff;
 800413a:	f04f 517c 	mov.w	r1, #1056964608	; 0x3f000000
 800413e:	6b38      	ldr	r0, [r7, #48]	; 0x30
 8004140:	f7fc fe00 	bl	8000d44 <__aeabi_fmul>
 8004144:	4603      	mov	r3, r0
 8004146:	4619      	mov	r1, r3
 8004148:	6b38      	ldr	r0, [r7, #48]	; 0x30
 800414a:	f7fc fdfb 	bl	8000d44 <__aeabi_fmul>
 800414e:	4603      	mov	r3, r0
 8004150:	633b      	str	r3, [r7, #48]	; 0x30
    /*cstat -MISRAC2012-Dir-4.11_a -MISRAC2012-Dir-4.11_b*/
    ta = a + QLIB_SQRT( -( x - 1.0f )*diff );
 8004152:	f04f 517e 	mov.w	r1, #1065353216	; 0x3f800000
 8004156:	6bf8      	ldr	r0, [r7, #60]	; 0x3c
 8004158:	f7fc fcea 	bl	8000b30 <__aeabi_fsub>
 800415c:	4603      	mov	r3, r0
 800415e:	f083 4300 	eor.w	r3, r3, #2147483648	; 0x80000000
 8004162:	6b39      	ldr	r1, [r7, #48]	; 0x30
 8004164:	4618      	mov	r0, r3
 8004166:	f7fc fded 	bl	8000d44 <__aeabi_fmul>
 800416a:	4603      	mov	r3, r0
 800416c:	4618      	mov	r0, r3
 800416e:	f7fe f9ee 	bl	800254e <qFFMath_Sqrt>
 8004172:	4603      	mov	r3, r0
 8004174:	4619      	mov	r1, r3
 8004176:	6bb8      	ldr	r0, [r7, #56]	; 0x38
 8004178:	f7fc fcdc 	bl	8000b34 <__addsf3>
 800417c:	4603      	mov	r3, r0
 800417e:	62fb      	str	r3, [r7, #44]	; 0x2c
    tmp.value = ta;
 8004180:	6afb      	ldr	r3, [r7, #44]	; 0x2c
 8004182:	61fb      	str	r3, [r7, #28]
    ma = qFIS_SMF( &tmp, p, n );
 8004184:	f107 0314 	add.w	r3, r7, #20
 8004188:	687a      	ldr	r2, [r7, #4]
 800418a:	68b9      	ldr	r1, [r7, #8]
 800418c:	4618      	mov	r0, r3
 800418e:	f7ff fd46 	bl	8003c1e <qFIS_SMF>
 8004192:	62b8      	str	r0, [r7, #40]	; 0x28
    tb = b + QLIB_SQRT( x*diff );
 8004194:	6b39      	ldr	r1, [r7, #48]	; 0x30
 8004196:	6bf8      	ldr	r0, [r7, #60]	; 0x3c
 8004198:	f7fc fdd4 	bl	8000d44 <__aeabi_fmul>
 800419c:	4603      	mov	r3, r0
 800419e:	4618      	mov	r0, r3
 80041a0:	f7fe f9d5 	bl	800254e <qFFMath_Sqrt>
 80041a4:	4603      	mov	r3, r0
 80041a6:	4619      	mov	r1, r3
 80041a8:	6b78      	ldr	r0, [r7, #52]	; 0x34
 80041aa:	f7fc fcc3 	bl	8000b34 <__addsf3>
 80041ae:	4603      	mov	r3, r0
 80041b0:	627b      	str	r3, [r7, #36]	; 0x24
    tmp.value = tb;
 80041b2:	6a7b      	ldr	r3, [r7, #36]	; 0x24
 80041b4:	61fb      	str	r3, [r7, #28]
    mb = qFIS_SMF( &tmp, p, n );
 80041b6:	f107 0314 	add.w	r3, r7, #20
 80041ba:	687a      	ldr	r2, [r7, #4]
 80041bc:	68b9      	ldr	r1, [r7, #8]
 80041be:	4618      	mov	r0, r3
 80041c0:	f7ff fd2d 	bl	8003c1e <qFIS_SMF>
 80041c4:	6238      	str	r0, [r7, #32]
    /*cstat +MISRAC2012-Dir-4.11_a +MISRAC2012-Dir-4.11_b*/
    return  ( QLIB_ABS( x - ma ) < QLIB_ABS( x - mb ) ) ? ta : tb;
 80041c6:	6ab9      	ldr	r1, [r7, #40]	; 0x28
 80041c8:	6bf8      	ldr	r0, [r7, #60]	; 0x3c
 80041ca:	f7fc fcb1 	bl	8000b30 <__aeabi_fsub>
 80041ce:	4603      	mov	r3, r0
 80041d0:	4618      	mov	r0, r3
 80041d2:	f7fe f9a7 	bl	8002524 <qFFMath_Abs>
 80041d6:	4604      	mov	r4, r0
 80041d8:	6a39      	ldr	r1, [r7, #32]
 80041da:	6bf8      	ldr	r0, [r7, #60]	; 0x3c
 80041dc:	f7fc fca8 	bl	8000b30 <__aeabi_fsub>
 80041e0:	4603      	mov	r3, r0
 80041e2:	4618      	mov	r0, r3
 80041e4:	f7fe f99e 	bl	8002524 <qFFMath_Abs>
 80041e8:	4603      	mov	r3, r0
 80041ea:	4619      	mov	r1, r3
 80041ec:	4620      	mov	r0, r4
 80041ee:	f7fc ff47 	bl	8001080 <__aeabi_fcmplt>
 80041f2:	4603      	mov	r3, r0
 80041f4:	2b00      	cmp	r3, #0
 80041f6:	d001      	beq.n	80041fc <qFIS_TZMF+0xee>
 80041f8:	6afb      	ldr	r3, [r7, #44]	; 0x2c
 80041fa:	e000      	b.n	80041fe <qFIS_TZMF+0xf0>
 80041fc:	6a7b      	ldr	r3, [r7, #36]	; 0x24
}
 80041fe:	4618      	mov	r0, r3
 8004200:	3744      	adds	r7, #68	; 0x44
 8004202:	46bd      	mov	sp, r7
 8004204:	bd90      	pop	{r4, r7, pc}

08004206 <qFIS_PiMF>:
/*============================================================================*/
static float qFIS_PiMF( const qFIS_IO_Base_t * const in,
                        const float *p,
                        const size_t n )
{
 8004206:	b590      	push	{r4, r7, lr}
 8004208:	b085      	sub	sp, #20
 800420a:	af00      	add	r7, sp, #0
 800420c:	60f8      	str	r0, [r7, #12]
 800420e:	60b9      	str	r1, [r7, #8]
 8004210:	607a      	str	r2, [r7, #4]
    return QLIB_ABS( qFIS_SMF( in , p, n )*qFIS_ZMF( in , &p[ 2 ], n ) );
 8004212:	687a      	ldr	r2, [r7, #4]
 8004214:	68b9      	ldr	r1, [r7, #8]
 8004216:	68f8      	ldr	r0, [r7, #12]
 8004218:	f7ff fd01 	bl	8003c1e <qFIS_SMF>
 800421c:	4604      	mov	r4, r0
 800421e:	68bb      	ldr	r3, [r7, #8]
 8004220:	3308      	adds	r3, #8
 8004222:	687a      	ldr	r2, [r7, #4]
 8004224:	4619      	mov	r1, r3
 8004226:	68f8      	ldr	r0, [r7, #12]
 8004228:	f7ff fe17 	bl	8003e5a <qFIS_ZMF>
 800422c:	4603      	mov	r3, r0
 800422e:	4619      	mov	r1, r3
 8004230:	4620      	mov	r0, r4
 8004232:	f7fc fd87 	bl	8000d44 <__aeabi_fmul>
 8004236:	4603      	mov	r3, r0
 8004238:	4618      	mov	r0, r3
 800423a:	f7fe f973 	bl	8002524 <qFFMath_Abs>
 800423e:	4603      	mov	r3, r0
}
 8004240:	4618      	mov	r0, r3
 8004242:	3714      	adds	r7, #20
 8004244:	46bd      	mov	sp, r7
 8004246:	bd90      	pop	{r4, r7, pc}

08004248 <qFIS_SingletonMF>:
/*============================================================================*/
static float qFIS_SingletonMF( const qFIS_IO_Base_t * const in,
                               const float *p,
                               const size_t n )
{
 8004248:	b580      	push	{r7, lr}
 800424a:	b086      	sub	sp, #24
 800424c:	af00      	add	r7, sp, #0
 800424e:	60f8      	str	r0, [r7, #12]
 8004250:	60b9      	str	r1, [r7, #8]
 8004252:	607a      	str	r2, [r7, #4]
    float x = in[ 0 ].value;
 8004254:	68fb      	ldr	r3, [r7, #12]
 8004256:	689b      	ldr	r3, [r3, #8]
 8004258:	617b      	str	r3, [r7, #20]
    (void)n;

    return ( qFMathEx_Equal( x, p[ 0 ] ) ) ? 1.0f : 0.0f;
 800425a:	68bb      	ldr	r3, [r7, #8]
 800425c:	681b      	ldr	r3, [r3, #0]
 800425e:	4619      	mov	r1, r3
 8004260:	6978      	ldr	r0, [r7, #20]
 8004262:	f000 fafc 	bl	800485e <qFMathEx_Equal>
 8004266:	4603      	mov	r3, r0
 8004268:	2b00      	cmp	r3, #0
 800426a:	d002      	beq.n	8004272 <qFIS_SingletonMF+0x2a>
 800426c:	f04f 537e 	mov.w	r3, #1065353216	; 0x3f800000
 8004270:	e001      	b.n	8004276 <qFIS_SingletonMF+0x2e>
 8004272:	f04f 0300 	mov.w	r3, #0
}
 8004276:	4618      	mov	r0, r3
 8004278:	3718      	adds	r7, #24
 800427a:	46bd      	mov	sp, r7
 800427c:	bd80      	pop	{r7, pc}

0800427e <qFIS_ConcaveMF>:
/*============================================================================*/
static float qFIS_ConcaveMF( const qFIS_IO_Base_t * const in,
                             const float *p,
                             const size_t n )
{
 800427e:	b590      	push	{r4, r7, lr}
 8004280:	b089      	sub	sp, #36	; 0x24
 8004282:	af00      	add	r7, sp, #0
 8004284:	60f8      	str	r0, [r7, #12]
 8004286:	60b9      	str	r1, [r7, #8]
 8004288:	607a      	str	r2, [r7, #4]
    float x = in[ 0 ].value;
 800428a:	68fb      	ldr	r3, [r7, #12]
 800428c:	689b      	ldr	r3, [r3, #8]
 800428e:	61bb      	str	r3, [r7, #24]
    float i, e, y;
    (void)n;

    i = p[ 0 ];
 8004290:	68bb      	ldr	r3, [r7, #8]
 8004292:	681b      	ldr	r3, [r3, #0]
 8004294:	617b      	str	r3, [r7, #20]
    e = p[ 1 ];
 8004296:	68bb      	ldr	r3, [r7, #8]
 8004298:	3304      	adds	r3, #4
 800429a:	681b      	ldr	r3, [r3, #0]
 800429c:	613b      	str	r3, [r7, #16]
    if ( ( i <= e ) && ( x < e ) ) {
 800429e:	6939      	ldr	r1, [r7, #16]
 80042a0:	6978      	ldr	r0, [r7, #20]
 80042a2:	f7fc fef7 	bl	8001094 <__aeabi_fcmple>
 80042a6:	4603      	mov	r3, r0
 80042a8:	2b00      	cmp	r3, #0
 80042aa:	d023      	beq.n	80042f4 <qFIS_ConcaveMF+0x76>
 80042ac:	6939      	ldr	r1, [r7, #16]
 80042ae:	69b8      	ldr	r0, [r7, #24]
 80042b0:	f7fc fee6 	bl	8001080 <__aeabi_fcmplt>
 80042b4:	4603      	mov	r3, r0
 80042b6:	2b00      	cmp	r3, #0
 80042b8:	d01c      	beq.n	80042f4 <qFIS_ConcaveMF+0x76>
        y = ( e - i )/( ( 2.0f*e ) - i -x );
 80042ba:	6979      	ldr	r1, [r7, #20]
 80042bc:	6938      	ldr	r0, [r7, #16]
 80042be:	f7fc fc37 	bl	8000b30 <__aeabi_fsub>
 80042c2:	4603      	mov	r3, r0
 80042c4:	461c      	mov	r4, r3
 80042c6:	693b      	ldr	r3, [r7, #16]
 80042c8:	4619      	mov	r1, r3
 80042ca:	4618      	mov	r0, r3
 80042cc:	f7fc fc32 	bl	8000b34 <__addsf3>
 80042d0:	4603      	mov	r3, r0
 80042d2:	6979      	ldr	r1, [r7, #20]
 80042d4:	4618      	mov	r0, r3
 80042d6:	f7fc fc2b 	bl	8000b30 <__aeabi_fsub>
 80042da:	4603      	mov	r3, r0
 80042dc:	69b9      	ldr	r1, [r7, #24]
 80042de:	4618      	mov	r0, r3
 80042e0:	f7fc fc26 	bl	8000b30 <__aeabi_fsub>
 80042e4:	4603      	mov	r3, r0
 80042e6:	4619      	mov	r1, r3
 80042e8:	4620      	mov	r0, r4
 80042ea:	f7fc fddf 	bl	8000eac <__aeabi_fdiv>
 80042ee:	4603      	mov	r3, r0
 80042f0:	61fb      	str	r3, [r7, #28]
 80042f2:	e02d      	b.n	8004350 <qFIS_ConcaveMF+0xd2>
    }
    else if ( ( i > e ) && ( x > e ) ) {
 80042f4:	6939      	ldr	r1, [r7, #16]
 80042f6:	6978      	ldr	r0, [r7, #20]
 80042f8:	f7fc fee0 	bl	80010bc <__aeabi_fcmpgt>
 80042fc:	4603      	mov	r3, r0
 80042fe:	2b00      	cmp	r3, #0
 8004300:	d023      	beq.n	800434a <qFIS_ConcaveMF+0xcc>
 8004302:	6939      	ldr	r1, [r7, #16]
 8004304:	69b8      	ldr	r0, [r7, #24]
 8004306:	f7fc fed9 	bl	80010bc <__aeabi_fcmpgt>
 800430a:	4603      	mov	r3, r0
 800430c:	2b00      	cmp	r3, #0
 800430e:	d01c      	beq.n	800434a <qFIS_ConcaveMF+0xcc>
        y = ( i - e )/( -( 2.0f*e ) + i +x );
 8004310:	6939      	ldr	r1, [r7, #16]
 8004312:	6978      	ldr	r0, [r7, #20]
 8004314:	f7fc fc0c 	bl	8000b30 <__aeabi_fsub>
 8004318:	4603      	mov	r3, r0
 800431a:	461c      	mov	r4, r3
 800431c:	693b      	ldr	r3, [r7, #16]
 800431e:	4619      	mov	r1, r3
 8004320:	4618      	mov	r0, r3
 8004322:	f7fc fc07 	bl	8000b34 <__addsf3>
 8004326:	4603      	mov	r3, r0
 8004328:	4619      	mov	r1, r3
 800432a:	6978      	ldr	r0, [r7, #20]
 800432c:	f7fc fc00 	bl	8000b30 <__aeabi_fsub>
 8004330:	4603      	mov	r3, r0
 8004332:	69b9      	ldr	r1, [r7, #24]
 8004334:	4618      	mov	r0, r3
 8004336:	f7fc fbfd 	bl	8000b34 <__addsf3>
 800433a:	4603      	mov	r3, r0
 800433c:	4619      	mov	r1, r3
 800433e:	4620      	mov	r0, r4
 8004340:	f7fc fdb4 	bl	8000eac <__aeabi_fdiv>
 8004344:	4603      	mov	r3, r0
 8004346:	61fb      	str	r3, [r7, #28]
 8004348:	e002      	b.n	8004350 <qFIS_ConcaveMF+0xd2>
    }
    else {
        y = 1.0f;
 800434a:	f04f 537e 	mov.w	r3, #1065353216	; 0x3f800000
 800434e:	61fb      	str	r3, [r7, #28]
    }

    return y;
 8004350:	69fb      	ldr	r3, [r7, #28]
}
 8004352:	4618      	mov	r0, r3
 8004354:	3724      	adds	r7, #36	; 0x24
 8004356:	46bd      	mov	sp, r7
 8004358:	bd90      	pop	{r4, r7, pc}

0800435a <qFIS_TConcaveMF>:
/*============================================================================*/
static float qFIS_TConcaveMF( const qFIS_IO_Base_t * const in,
                              const float *p,
                              const size_t n )
{
 800435a:	b590      	push	{r4, r7, lr}
 800435c:	b087      	sub	sp, #28
 800435e:	af00      	add	r7, sp, #0
 8004360:	60f8      	str	r0, [r7, #12]
 8004362:	60b9      	str	r1, [r7, #8]
 8004364:	607a      	str	r2, [r7, #4]
    float i, e;

    i = p[ 0 ];
 8004366:	68bb      	ldr	r3, [r7, #8]
 8004368:	681b      	ldr	r3, [r3, #0]
 800436a:	617b      	str	r3, [r7, #20]
    e = p[ 1 ];
 800436c:	68bb      	ldr	r3, [r7, #8]
 800436e:	3304      	adds	r3, #4
 8004370:	681b      	ldr	r3, [r3, #0]
 8004372:	613b      	str	r3, [r7, #16]

    return ( ( i - e )/qFIS_ConcaveMF( in, p, n ) ) + ( 2.0f*e ) - i;
 8004374:	6939      	ldr	r1, [r7, #16]
 8004376:	6978      	ldr	r0, [r7, #20]
 8004378:	f7fc fbda 	bl	8000b30 <__aeabi_fsub>
 800437c:	4603      	mov	r3, r0
 800437e:	461c      	mov	r4, r3
 8004380:	687a      	ldr	r2, [r7, #4]
 8004382:	68b9      	ldr	r1, [r7, #8]
 8004384:	68f8      	ldr	r0, [r7, #12]
 8004386:	f7ff ff7a 	bl	800427e <qFIS_ConcaveMF>
 800438a:	4603      	mov	r3, r0
 800438c:	4619      	mov	r1, r3
 800438e:	4620      	mov	r0, r4
 8004390:	f7fc fd8c 	bl	8000eac <__aeabi_fdiv>
 8004394:	4603      	mov	r3, r0
 8004396:	461c      	mov	r4, r3
 8004398:	693b      	ldr	r3, [r7, #16]
 800439a:	4619      	mov	r1, r3
 800439c:	4618      	mov	r0, r3
 800439e:	f7fc fbc9 	bl	8000b34 <__addsf3>
 80043a2:	4603      	mov	r3, r0
 80043a4:	4619      	mov	r1, r3
 80043a6:	4620      	mov	r0, r4
 80043a8:	f7fc fbc4 	bl	8000b34 <__addsf3>
 80043ac:	4603      	mov	r3, r0
 80043ae:	6979      	ldr	r1, [r7, #20]
 80043b0:	4618      	mov	r0, r3
 80043b2:	f7fc fbbd 	bl	8000b30 <__aeabi_fsub>
 80043b6:	4603      	mov	r3, r0
}
 80043b8:	4618      	mov	r0, r3
 80043ba:	371c      	adds	r7, #28
 80043bc:	46bd      	mov	sp, r7
 80043be:	bd90      	pop	{r4, r7, pc}

080043c0 <qFIS_SpikeMF>:
/*============================================================================*/
static float qFIS_SpikeMF( const qFIS_IO_Base_t * const in,
                           const float *p,
                           const size_t n )
{
 80043c0:	b580      	push	{r7, lr}
 80043c2:	b088      	sub	sp, #32
 80043c4:	af00      	add	r7, sp, #0
 80043c6:	60f8      	str	r0, [r7, #12]
 80043c8:	60b9      	str	r1, [r7, #8]
 80043ca:	607a      	str	r2, [r7, #4]
    float x = in[ 0 ].value;
 80043cc:	68fb      	ldr	r3, [r7, #12]
 80043ce:	689b      	ldr	r3, [r3, #8]
 80043d0:	61fb      	str	r3, [r7, #28]
    float w, c;
    (void)n;

    w = p[ 0 ];
 80043d2:	68bb      	ldr	r3, [r7, #8]
 80043d4:	681b      	ldr	r3, [r3, #0]
 80043d6:	61bb      	str	r3, [r7, #24]
    c = p[ 1 ];
 80043d8:	68bb      	ldr	r3, [r7, #8]
 80043da:	3304      	adds	r3, #4
 80043dc:	681b      	ldr	r3, [r3, #0]
 80043de:	617b      	str	r3, [r7, #20]

    return QLIB_EXP( -QLIB_ABS( 10.0f*( x - c )/w ) );
 80043e0:	6979      	ldr	r1, [r7, #20]
 80043e2:	69f8      	ldr	r0, [r7, #28]
 80043e4:	f7fc fba4 	bl	8000b30 <__aeabi_fsub>
 80043e8:	4603      	mov	r3, r0
 80043ea:	490c      	ldr	r1, [pc, #48]	; (800441c <qFIS_SpikeMF+0x5c>)
 80043ec:	4618      	mov	r0, r3
 80043ee:	f7fc fca9 	bl	8000d44 <__aeabi_fmul>
 80043f2:	4603      	mov	r3, r0
 80043f4:	69b9      	ldr	r1, [r7, #24]
 80043f6:	4618      	mov	r0, r3
 80043f8:	f7fc fd58 	bl	8000eac <__aeabi_fdiv>
 80043fc:	4603      	mov	r3, r0
 80043fe:	4618      	mov	r0, r3
 8004400:	f7fe f890 	bl	8002524 <qFFMath_Abs>
 8004404:	4603      	mov	r3, r0
 8004406:	f083 4300 	eor.w	r3, r3, #2147483648	; 0x80000000
 800440a:	4618      	mov	r0, r3
 800440c:	f7fe fa14 	bl	8002838 <qFFMath_Exp>
 8004410:	4603      	mov	r3, r0
}
 8004412:	4618      	mov	r0, r3
 8004414:	3720      	adds	r7, #32
 8004416:	46bd      	mov	sp, r7
 8004418:	bd80      	pop	{r7, pc}
 800441a:	bf00      	nop
 800441c:	41200000 	.word	0x41200000

08004420 <qFIS_TLinSMF>:
/*============================================================================*/
static float qFIS_TLinSMF( const qFIS_IO_Base_t * const in,
                           const float *p,
                           const size_t n )
{
 8004420:	b580      	push	{r7, lr}
 8004422:	b088      	sub	sp, #32
 8004424:	af00      	add	r7, sp, #0
 8004426:	60f8      	str	r0, [r7, #12]
 8004428:	60b9      	str	r1, [r7, #8]
 800442a:	607a      	str	r2, [r7, #4]
    float x = in[ 0 ].value;
 800442c:	68fb      	ldr	r3, [r7, #12]
 800442e:	689b      	ldr	r3, [r3, #8]
 8004430:	61fb      	str	r3, [r7, #28]
    float a, b;
    (void)n;

    a = p[ 0 ];
 8004432:	68bb      	ldr	r3, [r7, #8]
 8004434:	681b      	ldr	r3, [r3, #0]
 8004436:	61bb      	str	r3, [r7, #24]
    b = p[ 1 ];
 8004438:	68bb      	ldr	r3, [r7, #8]
 800443a:	3304      	adds	r3, #4
 800443c:	681b      	ldr	r3, [r3, #0]
 800443e:	617b      	str	r3, [r7, #20]

    return ( ( b - a )*x ) + a;
 8004440:	69b9      	ldr	r1, [r7, #24]
 8004442:	6978      	ldr	r0, [r7, #20]
 8004444:	f7fc fb74 	bl	8000b30 <__aeabi_fsub>
 8004448:	4603      	mov	r3, r0
 800444a:	69f9      	ldr	r1, [r7, #28]
 800444c:	4618      	mov	r0, r3
 800444e:	f7fc fc79 	bl	8000d44 <__aeabi_fmul>
 8004452:	4603      	mov	r3, r0
 8004454:	69b9      	ldr	r1, [r7, #24]
 8004456:	4618      	mov	r0, r3
 8004458:	f7fc fb6c 	bl	8000b34 <__addsf3>
 800445c:	4603      	mov	r3, r0
}
 800445e:	4618      	mov	r0, r3
 8004460:	3720      	adds	r7, #32
 8004462:	46bd      	mov	sp, r7
 8004464:	bd80      	pop	{r7, pc}

08004466 <qFIS_TLinZMF>:
/*============================================================================*/
static float qFIS_TLinZMF( const qFIS_IO_Base_t * const in,
                           const float *p,
                           const size_t n )
{
 8004466:	b580      	push	{r7, lr}
 8004468:	b088      	sub	sp, #32
 800446a:	af00      	add	r7, sp, #0
 800446c:	60f8      	str	r0, [r7, #12]
 800446e:	60b9      	str	r1, [r7, #8]
 8004470:	607a      	str	r2, [r7, #4]
    float x = in[ 0 ].value;
 8004472:	68fb      	ldr	r3, [r7, #12]
 8004474:	689b      	ldr	r3, [r3, #8]
 8004476:	61fb      	str	r3, [r7, #28]
    float a, b;
    (void)n;

    a = p[ 0 ];
 8004478:	68bb      	ldr	r3, [r7, #8]
 800447a:	681b      	ldr	r3, [r3, #0]
 800447c:	61bb      	str	r3, [r7, #24]
    b = p[ 1 ];
 800447e:	68bb      	ldr	r3, [r7, #8]
 8004480:	3304      	adds	r3, #4
 8004482:	681b      	ldr	r3, [r3, #0]
 8004484:	617b      	str	r3, [r7, #20]

    return + a - ( ( a - b )*x );
 8004486:	6979      	ldr	r1, [r7, #20]
 8004488:	69b8      	ldr	r0, [r7, #24]
 800448a:	f7fc fb51 	bl	8000b30 <__aeabi_fsub>
 800448e:	4603      	mov	r3, r0
 8004490:	69f9      	ldr	r1, [r7, #28]
 8004492:	4618      	mov	r0, r3
 8004494:	f7fc fc56 	bl	8000d44 <__aeabi_fmul>
 8004498:	4603      	mov	r3, r0
 800449a:	4619      	mov	r1, r3
 800449c:	69b8      	ldr	r0, [r7, #24]
 800449e:	f7fc fb47 	bl	8000b30 <__aeabi_fsub>
 80044a2:	4603      	mov	r3, r0
}
 80044a4:	4618      	mov	r0, r3
 80044a6:	3720      	adds	r7, #32
 80044a8:	46bd      	mov	sp, r7
 80044aa:	bd80      	pop	{r7, pc}

080044ac <qFIS_RectangleMF>:
/*============================================================================*/
static float qFIS_RectangleMF( const qFIS_IO_Base_t * const in,
                               const float *p,
                               const size_t n )
{
 80044ac:	b580      	push	{r7, lr}
 80044ae:	b088      	sub	sp, #32
 80044b0:	af00      	add	r7, sp, #0
 80044b2:	60f8      	str	r0, [r7, #12]
 80044b4:	60b9      	str	r1, [r7, #8]
 80044b6:	607a      	str	r2, [r7, #4]
    float x = in[ 0 ].value;
 80044b8:	68fb      	ldr	r3, [r7, #12]
 80044ba:	689b      	ldr	r3, [r3, #8]
 80044bc:	61fb      	str	r3, [r7, #28]
    float s, e;
    (void)n;

    s = p[ 0 ];
 80044be:	68bb      	ldr	r3, [r7, #8]
 80044c0:	681b      	ldr	r3, [r3, #0]
 80044c2:	61bb      	str	r3, [r7, #24]
    e = p[ 1 ];
 80044c4:	68bb      	ldr	r3, [r7, #8]
 80044c6:	3304      	adds	r3, #4
 80044c8:	681b      	ldr	r3, [r3, #0]
 80044ca:	617b      	str	r3, [r7, #20]

    return ( ( x >= s ) && ( x <= e ) ) ? 1.0f : 0.0f;
 80044cc:	69b9      	ldr	r1, [r7, #24]
 80044ce:	69f8      	ldr	r0, [r7, #28]
 80044d0:	f7fc fdea 	bl	80010a8 <__aeabi_fcmpge>
 80044d4:	4603      	mov	r3, r0
 80044d6:	2b00      	cmp	r3, #0
 80044d8:	d009      	beq.n	80044ee <qFIS_RectangleMF+0x42>
 80044da:	6979      	ldr	r1, [r7, #20]
 80044dc:	69f8      	ldr	r0, [r7, #28]
 80044de:	f7fc fdd9 	bl	8001094 <__aeabi_fcmple>
 80044e2:	4603      	mov	r3, r0
 80044e4:	2b00      	cmp	r3, #0
 80044e6:	d002      	beq.n	80044ee <qFIS_RectangleMF+0x42>
 80044e8:	f04f 537e 	mov.w	r3, #1065353216	; 0x3f800000
 80044ec:	e001      	b.n	80044f2 <qFIS_RectangleMF+0x46>
 80044ee:	f04f 0300 	mov.w	r3, #0
}
 80044f2:	4618      	mov	r0, r3
 80044f4:	3720      	adds	r7, #32
 80044f6:	46bd      	mov	sp, r7
 80044f8:	bd80      	pop	{r7, pc}
	...

080044fc <qFIS_CosineMF>:
/*============================================================================*/
static float qFIS_CosineMF( const qFIS_IO_Base_t * const in,
                            const float *p,
                            const size_t n )
{
 80044fc:	e92d 43b0 	stmdb	sp!, {r4, r5, r7, r8, r9, lr}
 8004500:	b08a      	sub	sp, #40	; 0x28
 8004502:	af00      	add	r7, sp, #0
 8004504:	60f8      	str	r0, [r7, #12]
 8004506:	60b9      	str	r1, [r7, #8]
 8004508:	607a      	str	r2, [r7, #4]
    float x = in[ 0 ].value;
 800450a:	68fb      	ldr	r3, [r7, #12]
 800450c:	689b      	ldr	r3, [r3, #8]
 800450e:	623b      	str	r3, [r7, #32]
    float c, w, y;
    const float pi = 3.14159265358979323846f;
 8004510:	4b36      	ldr	r3, [pc, #216]	; (80045ec <qFIS_CosineMF+0xf0>)
 8004512:	61fb      	str	r3, [r7, #28]
    (void)n;

    c = p[ 0 ];
 8004514:	68bb      	ldr	r3, [r7, #8]
 8004516:	681b      	ldr	r3, [r3, #0]
 8004518:	61bb      	str	r3, [r7, #24]
    w = p[ 1 ];
 800451a:	68bb      	ldr	r3, [r7, #8]
 800451c:	3304      	adds	r3, #4
 800451e:	681b      	ldr	r3, [r3, #0]
 8004520:	617b      	str	r3, [r7, #20]
    if ( ( x < ( c - ( 0.5*w ) ) ) || ( x > ( c + ( 0.5f*w ) ) ) ) {
 8004522:	6a38      	ldr	r0, [r7, #32]
 8004524:	f7fb ff80 	bl	8000428 <__aeabi_f2d>
 8004528:	4604      	mov	r4, r0
 800452a:	460d      	mov	r5, r1
 800452c:	69b8      	ldr	r0, [r7, #24]
 800452e:	f7fb ff7b 	bl	8000428 <__aeabi_f2d>
 8004532:	4680      	mov	r8, r0
 8004534:	4689      	mov	r9, r1
 8004536:	6978      	ldr	r0, [r7, #20]
 8004538:	f7fb ff76 	bl	8000428 <__aeabi_f2d>
 800453c:	f04f 0200 	mov.w	r2, #0
 8004540:	4b2b      	ldr	r3, [pc, #172]	; (80045f0 <qFIS_CosineMF+0xf4>)
 8004542:	f7fb ffc9 	bl	80004d8 <__aeabi_dmul>
 8004546:	4602      	mov	r2, r0
 8004548:	460b      	mov	r3, r1
 800454a:	4640      	mov	r0, r8
 800454c:	4649      	mov	r1, r9
 800454e:	f7fb fe0b 	bl	8000168 <__aeabi_dsub>
 8004552:	4602      	mov	r2, r0
 8004554:	460b      	mov	r3, r1
 8004556:	4620      	mov	r0, r4
 8004558:	4629      	mov	r1, r5
 800455a:	f7fc fa2f 	bl	80009bc <__aeabi_dcmplt>
 800455e:	4603      	mov	r3, r0
 8004560:	2b00      	cmp	r3, #0
 8004562:	d111      	bne.n	8004588 <qFIS_CosineMF+0x8c>
 8004564:	f04f 517c 	mov.w	r1, #1056964608	; 0x3f000000
 8004568:	6978      	ldr	r0, [r7, #20]
 800456a:	f7fc fbeb 	bl	8000d44 <__aeabi_fmul>
 800456e:	4603      	mov	r3, r0
 8004570:	69b9      	ldr	r1, [r7, #24]
 8004572:	4618      	mov	r0, r3
 8004574:	f7fc fade 	bl	8000b34 <__addsf3>
 8004578:	4603      	mov	r3, r0
 800457a:	4619      	mov	r1, r3
 800457c:	6a38      	ldr	r0, [r7, #32]
 800457e:	f7fc fd9d 	bl	80010bc <__aeabi_fcmpgt>
 8004582:	4603      	mov	r3, r0
 8004584:	2b00      	cmp	r3, #0
 8004586:	d003      	beq.n	8004590 <qFIS_CosineMF+0x94>
        y = 0.0f;
 8004588:	f04f 0300 	mov.w	r3, #0
 800458c:	627b      	str	r3, [r7, #36]	; 0x24
 800458e:	e026      	b.n	80045de <qFIS_CosineMF+0xe2>
    }
    else {
        y = 0.5f*( 1.0f + QLIB_COS( 2.0f/w*pi*( x - c) ) );
 8004590:	6979      	ldr	r1, [r7, #20]
 8004592:	f04f 4080 	mov.w	r0, #1073741824	; 0x40000000
 8004596:	f7fc fc89 	bl	8000eac <__aeabi_fdiv>
 800459a:	4603      	mov	r3, r0
 800459c:	69f9      	ldr	r1, [r7, #28]
 800459e:	4618      	mov	r0, r3
 80045a0:	f7fc fbd0 	bl	8000d44 <__aeabi_fmul>
 80045a4:	4603      	mov	r3, r0
 80045a6:	461c      	mov	r4, r3
 80045a8:	69b9      	ldr	r1, [r7, #24]
 80045aa:	6a38      	ldr	r0, [r7, #32]
 80045ac:	f7fc fac0 	bl	8000b30 <__aeabi_fsub>
 80045b0:	4603      	mov	r3, r0
 80045b2:	4619      	mov	r1, r3
 80045b4:	4620      	mov	r0, r4
 80045b6:	f7fc fbc5 	bl	8000d44 <__aeabi_fmul>
 80045ba:	4603      	mov	r3, r0
 80045bc:	4618      	mov	r0, r3
 80045be:	f7fe f857 	bl	8002670 <qFFMath_Cos>
 80045c2:	4603      	mov	r3, r0
 80045c4:	f04f 517e 	mov.w	r1, #1065353216	; 0x3f800000
 80045c8:	4618      	mov	r0, r3
 80045ca:	f7fc fab3 	bl	8000b34 <__addsf3>
 80045ce:	4603      	mov	r3, r0
 80045d0:	f04f 517c 	mov.w	r1, #1056964608	; 0x3f000000
 80045d4:	4618      	mov	r0, r3
 80045d6:	f7fc fbb5 	bl	8000d44 <__aeabi_fmul>
 80045da:	4603      	mov	r3, r0
 80045dc:	627b      	str	r3, [r7, #36]	; 0x24
    }

    return y;
 80045de:	6a7b      	ldr	r3, [r7, #36]	; 0x24
}
 80045e0:	4618      	mov	r0, r3
 80045e2:	3728      	adds	r7, #40	; 0x28
 80045e4:	46bd      	mov	sp, r7
 80045e6:	e8bd 83b0 	ldmia.w	sp!, {r4, r5, r7, r8, r9, pc}
 80045ea:	bf00      	nop
 80045ec:	40490fdb 	.word	0x40490fdb
 80045f0:	3fe00000 	.word	0x3fe00000

080045f4 <qFIS_ConstantMF>:
/*============================================================================*/
static float qFIS_ConstantMF( const qFIS_IO_Base_t * const in,
                              const float *p,
                              const size_t n )
{
 80045f4:	b480      	push	{r7}
 80045f6:	b085      	sub	sp, #20
 80045f8:	af00      	add	r7, sp, #0
 80045fa:	60f8      	str	r0, [r7, #12]
 80045fc:	60b9      	str	r1, [r7, #8]
 80045fe:	607a      	str	r2, [r7, #4]
    (void)in;
    (void)n;
    return p[ 0 ];
 8004600:	68bb      	ldr	r3, [r7, #8]
 8004602:	681b      	ldr	r3, [r3, #0]
}
 8004604:	4618      	mov	r0, r3
 8004606:	3714      	adds	r7, #20
 8004608:	46bd      	mov	sp, r7
 800460a:	bc80      	pop	{r7}
 800460c:	4770      	bx	lr

0800460e <qFIS_LinearMF>:
/*============================================================================*/
static float qFIS_LinearMF( const qFIS_IO_Base_t * const in,
                            const float *p,
                            const size_t n )
{
 800460e:	b580      	push	{r7, lr}
 8004610:	b086      	sub	sp, #24
 8004612:	af00      	add	r7, sp, #0
 8004614:	60f8      	str	r0, [r7, #12]
 8004616:	60b9      	str	r1, [r7, #8]
 8004618:	607a      	str	r2, [r7, #4]
    float px = 0.0f;
 800461a:	f04f 0300 	mov.w	r3, #0
 800461e:	617b      	str	r3, [r7, #20]
    size_t i;

    for ( i = 0u ; i < n ; ++i ) {
 8004620:	2300      	movs	r3, #0
 8004622:	613b      	str	r3, [r7, #16]
 8004624:	e01a      	b.n	800465c <qFIS_LinearMF+0x4e>
        px += in[ i ].value*p[ i ];
 8004626:	693a      	ldr	r2, [r7, #16]
 8004628:	4613      	mov	r3, r2
 800462a:	005b      	lsls	r3, r3, #1
 800462c:	4413      	add	r3, r2
 800462e:	009b      	lsls	r3, r3, #2
 8004630:	461a      	mov	r2, r3
 8004632:	68fb      	ldr	r3, [r7, #12]
 8004634:	4413      	add	r3, r2
 8004636:	6898      	ldr	r0, [r3, #8]
 8004638:	693b      	ldr	r3, [r7, #16]
 800463a:	009b      	lsls	r3, r3, #2
 800463c:	68ba      	ldr	r2, [r7, #8]
 800463e:	4413      	add	r3, r2
 8004640:	681b      	ldr	r3, [r3, #0]
 8004642:	4619      	mov	r1, r3
 8004644:	f7fc fb7e 	bl	8000d44 <__aeabi_fmul>
 8004648:	4603      	mov	r3, r0
 800464a:	4619      	mov	r1, r3
 800464c:	6978      	ldr	r0, [r7, #20]
 800464e:	f7fc fa71 	bl	8000b34 <__addsf3>
 8004652:	4603      	mov	r3, r0
 8004654:	617b      	str	r3, [r7, #20]
    for ( i = 0u ; i < n ; ++i ) {
 8004656:	693b      	ldr	r3, [r7, #16]
 8004658:	3301      	adds	r3, #1
 800465a:	613b      	str	r3, [r7, #16]
 800465c:	693a      	ldr	r2, [r7, #16]
 800465e:	687b      	ldr	r3, [r7, #4]
 8004660:	429a      	cmp	r2, r3
 8004662:	d3e0      	bcc.n	8004626 <qFIS_LinearMF+0x18>
    }
    px += p[ i ];
 8004664:	693b      	ldr	r3, [r7, #16]
 8004666:	009b      	lsls	r3, r3, #2
 8004668:	68ba      	ldr	r2, [r7, #8]
 800466a:	4413      	add	r3, r2
 800466c:	681b      	ldr	r3, [r3, #0]
 800466e:	4619      	mov	r1, r3
 8004670:	6978      	ldr	r0, [r7, #20]
 8004672:	f7fc fa5f 	bl	8000b34 <__addsf3>
 8004676:	4603      	mov	r3, r0
 8004678:	617b      	str	r3, [r7, #20]

    return px;
 800467a:	697b      	ldr	r3, [r7, #20]
}
 800467c:	4618      	mov	r0, r3
 800467e:	3718      	adds	r7, #24
 8004680:	46bd      	mov	sp, r7
 8004682:	bd80      	pop	{r7, pc}

08004684 <qFIS_Min>:
/*============================================================================*/
static float qFIS_Min( const float a,
                       const float b )
{
 8004684:	b580      	push	{r7, lr}
 8004686:	b082      	sub	sp, #8
 8004688:	af00      	add	r7, sp, #0
 800468a:	6078      	str	r0, [r7, #4]
 800468c:	6039      	str	r1, [r7, #0]
    return qFIS_Bound( ( a < b ) ? a : b, 0.0f, 1.0f );
 800468e:	6839      	ldr	r1, [r7, #0]
 8004690:	6878      	ldr	r0, [r7, #4]
 8004692:	f7fc fcf5 	bl	8001080 <__aeabi_fcmplt>
 8004696:	4603      	mov	r3, r0
 8004698:	2b00      	cmp	r3, #0
 800469a:	d001      	beq.n	80046a0 <qFIS_Min+0x1c>
 800469c:	687b      	ldr	r3, [r7, #4]
 800469e:	e000      	b.n	80046a2 <qFIS_Min+0x1e>
 80046a0:	683b      	ldr	r3, [r7, #0]
 80046a2:	f04f 527e 	mov.w	r2, #1065353216	; 0x3f800000
 80046a6:	f04f 0100 	mov.w	r1, #0
 80046aa:	4618      	mov	r0, r3
 80046ac:	f000 f86d 	bl	800478a <qFIS_Bound>
 80046b0:	4603      	mov	r3, r0
}
 80046b2:	4618      	mov	r0, r3
 80046b4:	3708      	adds	r7, #8
 80046b6:	46bd      	mov	sp, r7
 80046b8:	bd80      	pop	{r7, pc}

080046ba <qFIS_Max>:
/*============================================================================*/
static float qFIS_Max( const float a,
                       const float b )
{
 80046ba:	b580      	push	{r7, lr}
 80046bc:	b082      	sub	sp, #8
 80046be:	af00      	add	r7, sp, #0
 80046c0:	6078      	str	r0, [r7, #4]
 80046c2:	6039      	str	r1, [r7, #0]
    return qFIS_Bound( ( a > b ) ? a : b, 0.0f, 1.0f );
 80046c4:	6839      	ldr	r1, [r7, #0]
 80046c6:	6878      	ldr	r0, [r7, #4]
 80046c8:	f7fc fcf8 	bl	80010bc <__aeabi_fcmpgt>
 80046cc:	4603      	mov	r3, r0
 80046ce:	2b00      	cmp	r3, #0
 80046d0:	d001      	beq.n	80046d6 <qFIS_Max+0x1c>
 80046d2:	687b      	ldr	r3, [r7, #4]
 80046d4:	e000      	b.n	80046d8 <qFIS_Max+0x1e>
 80046d6:	683b      	ldr	r3, [r7, #0]
 80046d8:	f04f 527e 	mov.w	r2, #1065353216	; 0x3f800000
 80046dc:	f04f 0100 	mov.w	r1, #0
 80046e0:	4618      	mov	r0, r3
 80046e2:	f000 f852 	bl	800478a <qFIS_Bound>
 80046e6:	4603      	mov	r3, r0
}
 80046e8:	4618      	mov	r0, r3
 80046ea:	3708      	adds	r7, #8
 80046ec:	46bd      	mov	sp, r7
 80046ee:	bd80      	pop	{r7, pc}

080046f0 <qFIS_Prod>:
/*============================================================================*/
static float qFIS_Prod( const float a,
                        const float b )
{
 80046f0:	b580      	push	{r7, lr}
 80046f2:	b082      	sub	sp, #8
 80046f4:	af00      	add	r7, sp, #0
 80046f6:	6078      	str	r0, [r7, #4]
 80046f8:	6039      	str	r1, [r7, #0]
    return qFIS_Bound( a*b, 0.0f, 1.0f );
 80046fa:	6839      	ldr	r1, [r7, #0]
 80046fc:	6878      	ldr	r0, [r7, #4]
 80046fe:	f7fc fb21 	bl	8000d44 <__aeabi_fmul>
 8004702:	4603      	mov	r3, r0
 8004704:	f04f 527e 	mov.w	r2, #1065353216	; 0x3f800000
 8004708:	f04f 0100 	mov.w	r1, #0
 800470c:	4618      	mov	r0, r3
 800470e:	f000 f83c 	bl	800478a <qFIS_Bound>
 8004712:	4603      	mov	r3, r0
}
 8004714:	4618      	mov	r0, r3
 8004716:	3708      	adds	r7, #8
 8004718:	46bd      	mov	sp, r7
 800471a:	bd80      	pop	{r7, pc}

0800471c <qFIS_ProbOR>:
/*============================================================================*/
static float qFIS_ProbOR( const float a,
                          const float b )
{
 800471c:	b590      	push	{r4, r7, lr}
 800471e:	b083      	sub	sp, #12
 8004720:	af00      	add	r7, sp, #0
 8004722:	6078      	str	r0, [r7, #4]
 8004724:	6039      	str	r1, [r7, #0]
    return qFIS_Bound( a + b - ( a*b ), 0.0f, 1.0f );
 8004726:	6839      	ldr	r1, [r7, #0]
 8004728:	6878      	ldr	r0, [r7, #4]
 800472a:	f7fc fa03 	bl	8000b34 <__addsf3>
 800472e:	4603      	mov	r3, r0
 8004730:	461c      	mov	r4, r3
 8004732:	6839      	ldr	r1, [r7, #0]
 8004734:	6878      	ldr	r0, [r7, #4]
 8004736:	f7fc fb05 	bl	8000d44 <__aeabi_fmul>
 800473a:	4603      	mov	r3, r0
 800473c:	4619      	mov	r1, r3
 800473e:	4620      	mov	r0, r4
 8004740:	f7fc f9f6 	bl	8000b30 <__aeabi_fsub>
 8004744:	4603      	mov	r3, r0
 8004746:	f04f 527e 	mov.w	r2, #1065353216	; 0x3f800000
 800474a:	f04f 0100 	mov.w	r1, #0
 800474e:	4618      	mov	r0, r3
 8004750:	f000 f81b 	bl	800478a <qFIS_Bound>
 8004754:	4603      	mov	r3, r0
}
 8004756:	4618      	mov	r0, r3
 8004758:	370c      	adds	r7, #12
 800475a:	46bd      	mov	sp, r7
 800475c:	bd90      	pop	{r4, r7, pc}

0800475e <qFIS_Sum>:
/*============================================================================*/
static float qFIS_Sum( const float a,
                       const float b )
{
 800475e:	b580      	push	{r7, lr}
 8004760:	b082      	sub	sp, #8
 8004762:	af00      	add	r7, sp, #0
 8004764:	6078      	str	r0, [r7, #4]
 8004766:	6039      	str	r1, [r7, #0]
    return qFIS_Bound( a + b, 0.0f, 1.0f );
 8004768:	6839      	ldr	r1, [r7, #0]
 800476a:	6878      	ldr	r0, [r7, #4]
 800476c:	f7fc f9e2 	bl	8000b34 <__addsf3>
 8004770:	4603      	mov	r3, r0
 8004772:	f04f 527e 	mov.w	r2, #1065353216	; 0x3f800000
 8004776:	f04f 0100 	mov.w	r1, #0
 800477a:	4618      	mov	r0, r3
 800477c:	f000 f805 	bl	800478a <qFIS_Bound>
 8004780:	4603      	mov	r3, r0
}
 8004782:	4618      	mov	r0, r3
 8004784:	3708      	adds	r7, #8
 8004786:	46bd      	mov	sp, r7
 8004788:	bd80      	pop	{r7, pc}

0800478a <qFIS_Bound>:
/*============================================================================*/
static float qFIS_Bound( float y,
                         const float yMin,
                         const float yMax )
{
 800478a:	b580      	push	{r7, lr}
 800478c:	b084      	sub	sp, #16
 800478e:	af00      	add	r7, sp, #0
 8004790:	60f8      	str	r0, [r7, #12]
 8004792:	60b9      	str	r1, [r7, #8]
 8004794:	607a      	str	r2, [r7, #4]
    (void)qFMathEx_InRangeCoerce( &y, yMin, yMax );
 8004796:	f107 030c 	add.w	r3, r7, #12
 800479a:	687a      	ldr	r2, [r7, #4]
 800479c:	68b9      	ldr	r1, [r7, #8]
 800479e:	4618      	mov	r0, r3
 80047a0:	f000 f805 	bl	80047ae <qFMathEx_InRangeCoerce>

    return y;
 80047a4:	68fb      	ldr	r3, [r7, #12]
}
 80047a6:	4618      	mov	r0, r3
 80047a8:	3710      	adds	r7, #16
 80047aa:	46bd      	mov	sp, r7
 80047ac:	bd80      	pop	{r7, pc}

080047ae <qFMathEx_InRangeCoerce>:
}
/*============================================================================*/
bool qFMathEx_InRangeCoerce( float * const x,
                             const float lowerL,
                             const float upperL )
{
 80047ae:	b580      	push	{r7, lr}
 80047b0:	b086      	sub	sp, #24
 80047b2:	af00      	add	r7, sp, #0
 80047b4:	60f8      	str	r0, [r7, #12]
 80047b6:	60b9      	str	r1, [r7, #8]
 80047b8:	607a      	str	r2, [r7, #4]
    bool retVal = false;
 80047ba:	2300      	movs	r3, #0
 80047bc:	75fb      	strb	r3, [r7, #23]

    if ( 1 == (int)QLIB_ISNAN( x[ 0 ] ) ) {
 80047be:	68fb      	ldr	r3, [r7, #12]
 80047c0:	681b      	ldr	r3, [r3, #0]
 80047c2:	4618      	mov	r0, r3
 80047c4:	f7fd fe9d 	bl	8002502 <qFFMath_IsNaN>
 80047c8:	4603      	mov	r3, r0
 80047ca:	2b00      	cmp	r3, #0
 80047cc:	d003      	beq.n	80047d6 <qFMathEx_InRangeCoerce+0x28>
        x[ 0 ] = lowerL;
 80047ce:	68fb      	ldr	r3, [r7, #12]
 80047d0:	68ba      	ldr	r2, [r7, #8]
 80047d2:	601a      	str	r2, [r3, #0]
 80047d4:	e01b      	b.n	800480e <qFMathEx_InRangeCoerce+0x60>
    }
    else {
        if ( x[ 0 ] < lowerL ) {
 80047d6:	68fb      	ldr	r3, [r7, #12]
 80047d8:	681b      	ldr	r3, [r3, #0]
 80047da:	4619      	mov	r1, r3
 80047dc:	68b8      	ldr	r0, [r7, #8]
 80047de:	f7fc fc6d 	bl	80010bc <__aeabi_fcmpgt>
 80047e2:	4603      	mov	r3, r0
 80047e4:	2b00      	cmp	r3, #0
 80047e6:	d003      	beq.n	80047f0 <qFMathEx_InRangeCoerce+0x42>
            x[ 0 ] = lowerL;
 80047e8:	68fb      	ldr	r3, [r7, #12]
 80047ea:	68ba      	ldr	r2, [r7, #8]
 80047ec:	601a      	str	r2, [r3, #0]
 80047ee:	e00e      	b.n	800480e <qFMathEx_InRangeCoerce+0x60>
        }
        else if ( x[ 0 ] > upperL ) {
 80047f0:	68fb      	ldr	r3, [r7, #12]
 80047f2:	681b      	ldr	r3, [r3, #0]
 80047f4:	4619      	mov	r1, r3
 80047f6:	6878      	ldr	r0, [r7, #4]
 80047f8:	f7fc fc42 	bl	8001080 <__aeabi_fcmplt>
 80047fc:	4603      	mov	r3, r0
 80047fe:	2b00      	cmp	r3, #0
 8004800:	d003      	beq.n	800480a <qFMathEx_InRangeCoerce+0x5c>
            x[ 0 ] = upperL;
 8004802:	68fb      	ldr	r3, [r7, #12]
 8004804:	687a      	ldr	r2, [r7, #4]
 8004806:	601a      	str	r2, [r3, #0]
 8004808:	e001      	b.n	800480e <qFMathEx_InRangeCoerce+0x60>
        }
        else {
            retVal = true;
 800480a:	2301      	movs	r3, #1
 800480c:	75fb      	strb	r3, [r7, #23]
        }
    }

    return retVal;
 800480e:	7dfb      	ldrb	r3, [r7, #23]
}
 8004810:	4618      	mov	r0, r3
 8004812:	3718      	adds	r7, #24
 8004814:	46bd      	mov	sp, r7
 8004816:	bd80      	pop	{r7, pc}

08004818 <qFMathEx_AlmostEqual>:
/*============================================================================*/
bool qFMathEx_AlmostEqual( const float a,
                           const float b,
                           const float tol )
{
 8004818:	b5b0      	push	{r4, r5, r7, lr}
 800481a:	b084      	sub	sp, #16
 800481c:	af00      	add	r7, sp, #0
 800481e:	60f8      	str	r0, [r7, #12]
 8004820:	60b9      	str	r1, [r7, #8]
 8004822:	607a      	str	r2, [r7, #4]
    return ( QLIB_ABS( a - b ) <= QLIB_ABS( tol ) );
 8004824:	68b9      	ldr	r1, [r7, #8]
 8004826:	68f8      	ldr	r0, [r7, #12]
 8004828:	f7fc f982 	bl	8000b30 <__aeabi_fsub>
 800482c:	4603      	mov	r3, r0
 800482e:	4618      	mov	r0, r3
 8004830:	f7fd fe78 	bl	8002524 <qFFMath_Abs>
 8004834:	4604      	mov	r4, r0
 8004836:	6878      	ldr	r0, [r7, #4]
 8004838:	f7fd fe74 	bl	8002524 <qFFMath_Abs>
 800483c:	4603      	mov	r3, r0
 800483e:	2201      	movs	r2, #1
 8004840:	4615      	mov	r5, r2
 8004842:	4619      	mov	r1, r3
 8004844:	4620      	mov	r0, r4
 8004846:	f7fc fc25 	bl	8001094 <__aeabi_fcmple>
 800484a:	4603      	mov	r3, r0
 800484c:	2b00      	cmp	r3, #0
 800484e:	d101      	bne.n	8004854 <qFMathEx_AlmostEqual+0x3c>
 8004850:	2300      	movs	r3, #0
 8004852:	461d      	mov	r5, r3
 8004854:	b2eb      	uxtb	r3, r5
}
 8004856:	4618      	mov	r0, r3
 8004858:	3710      	adds	r7, #16
 800485a:	46bd      	mov	sp, r7
 800485c:	bdb0      	pop	{r4, r5, r7, pc}

0800485e <qFMathEx_Equal>:
/*============================================================================*/
bool qFMathEx_Equal( const float a,
                     const float b )
{
 800485e:	b580      	push	{r7, lr}
 8004860:	b082      	sub	sp, #8
 8004862:	af00      	add	r7, sp, #0
 8004864:	6078      	str	r0, [r7, #4]
 8004866:	6039      	str	r1, [r7, #0]
    return qFMathEx_AlmostEqual( a, b, FLT_MIN );
 8004868:	f44f 0200 	mov.w	r2, #8388608	; 0x800000
 800486c:	6839      	ldr	r1, [r7, #0]
 800486e:	6878      	ldr	r0, [r7, #4]
 8004870:	f7ff ffd2 	bl	8004818 <qFMathEx_AlmostEqual>
 8004874:	4603      	mov	r3, r0
}
 8004876:	4618      	mov	r0, r3
 8004878:	3708      	adds	r7, #8
 800487a:	46bd      	mov	sp, r7
 800487c:	bd80      	pop	{r7, pc}
	...

08004880 <HAL_MspInit>:
void HAL_TIM_MspPostInit(TIM_HandleTypeDef *htim);
                                        /**
  * Initializes the Global MSP.
  */
void HAL_MspInit(void)
{
 8004880:	b480      	push	{r7}
 8004882:	b085      	sub	sp, #20
 8004884:	af00      	add	r7, sp, #0
  /* USER CODE BEGIN MspInit 0 */

  /* USER CODE END MspInit 0 */

  __HAL_RCC_AFIO_CLK_ENABLE();
 8004886:	4b15      	ldr	r3, [pc, #84]	; (80048dc <HAL_MspInit+0x5c>)
 8004888:	699b      	ldr	r3, [r3, #24]
 800488a:	4a14      	ldr	r2, [pc, #80]	; (80048dc <HAL_MspInit+0x5c>)
 800488c:	f043 0301 	orr.w	r3, r3, #1
 8004890:	6193      	str	r3, [r2, #24]
 8004892:	4b12      	ldr	r3, [pc, #72]	; (80048dc <HAL_MspInit+0x5c>)
 8004894:	699b      	ldr	r3, [r3, #24]
 8004896:	f003 0301 	and.w	r3, r3, #1
 800489a:	60bb      	str	r3, [r7, #8]
 800489c:	68bb      	ldr	r3, [r7, #8]
  __HAL_RCC_PWR_CLK_ENABLE();
 800489e:	4b0f      	ldr	r3, [pc, #60]	; (80048dc <HAL_MspInit+0x5c>)
 80048a0:	69db      	ldr	r3, [r3, #28]
 80048a2:	4a0e      	ldr	r2, [pc, #56]	; (80048dc <HAL_MspInit+0x5c>)
 80048a4:	f043 5380 	orr.w	r3, r3, #268435456	; 0x10000000
 80048a8:	61d3      	str	r3, [r2, #28]
 80048aa:	4b0c      	ldr	r3, [pc, #48]	; (80048dc <HAL_MspInit+0x5c>)
 80048ac:	69db      	ldr	r3, [r3, #28]
 80048ae:	f003 5380 	and.w	r3, r3, #268435456	; 0x10000000
 80048b2:	607b      	str	r3, [r7, #4]
 80048b4:	687b      	ldr	r3, [r7, #4]

  /* System interrupt init*/

  /** NOJTAG: JTAG-DP Disabled and SW-DP Enabled
  */
  __HAL_AFIO_REMAP_SWJ_NOJTAG();
 80048b6:	4b0a      	ldr	r3, [pc, #40]	; (80048e0 <HAL_MspInit+0x60>)
 80048b8:	685b      	ldr	r3, [r3, #4]
 80048ba:	60fb      	str	r3, [r7, #12]
 80048bc:	68fb      	ldr	r3, [r7, #12]
 80048be:	f023 63e0 	bic.w	r3, r3, #117440512	; 0x7000000
 80048c2:	60fb      	str	r3, [r7, #12]
 80048c4:	68fb      	ldr	r3, [r7, #12]
 80048c6:	f043 7300 	orr.w	r3, r3, #33554432	; 0x2000000
 80048ca:	60fb      	str	r3, [r7, #12]
 80048cc:	4a04      	ldr	r2, [pc, #16]	; (80048e0 <HAL_MspInit+0x60>)
 80048ce:	68fb      	ldr	r3, [r7, #12]
 80048d0:	6053      	str	r3, [r2, #4]

  /* USER CODE BEGIN MspInit 1 */

  /* USER CODE END MspInit 1 */
}
 80048d2:	bf00      	nop
 80048d4:	3714      	adds	r7, #20
 80048d6:	46bd      	mov	sp, r7
 80048d8:	bc80      	pop	{r7}
 80048da:	4770      	bx	lr
 80048dc:	40021000 	.word	0x40021000
 80048e0:	40010000 	.word	0x40010000

080048e4 <HAL_I2C_MspInit>:
* This function configures the hardware resources used in this example
* @param hi2c: I2C handle pointer
* @retval None
*/
void HAL_I2C_MspInit(I2C_HandleTypeDef* hi2c)
{
 80048e4:	b580      	push	{r7, lr}
 80048e6:	b08a      	sub	sp, #40	; 0x28
 80048e8:	af00      	add	r7, sp, #0
 80048ea:	6078      	str	r0, [r7, #4]
  GPIO_InitTypeDef GPIO_InitStruct = {0};
 80048ec:	f107 0314 	add.w	r3, r7, #20
 80048f0:	2200      	movs	r2, #0
 80048f2:	601a      	str	r2, [r3, #0]
 80048f4:	605a      	str	r2, [r3, #4]
 80048f6:	609a      	str	r2, [r3, #8]
 80048f8:	60da      	str	r2, [r3, #12]
  if(hi2c->Instance==I2C1)
 80048fa:	687b      	ldr	r3, [r7, #4]
 80048fc:	681b      	ldr	r3, [r3, #0]
 80048fe:	4a1d      	ldr	r2, [pc, #116]	; (8004974 <HAL_I2C_MspInit+0x90>)
 8004900:	4293      	cmp	r3, r2
 8004902:	d132      	bne.n	800496a <HAL_I2C_MspInit+0x86>
  {
  /* USER CODE BEGIN I2C1_MspInit 0 */

  /* USER CODE END I2C1_MspInit 0 */

    __HAL_RCC_GPIOB_CLK_ENABLE();
 8004904:	4b1c      	ldr	r3, [pc, #112]	; (8004978 <HAL_I2C_MspInit+0x94>)
 8004906:	699b      	ldr	r3, [r3, #24]
 8004908:	4a1b      	ldr	r2, [pc, #108]	; (8004978 <HAL_I2C_MspInit+0x94>)
 800490a:	f043 0308 	orr.w	r3, r3, #8
 800490e:	6193      	str	r3, [r2, #24]
 8004910:	4b19      	ldr	r3, [pc, #100]	; (8004978 <HAL_I2C_MspInit+0x94>)
 8004912:	699b      	ldr	r3, [r3, #24]
 8004914:	f003 0308 	and.w	r3, r3, #8
 8004918:	613b      	str	r3, [r7, #16]
 800491a:	693b      	ldr	r3, [r7, #16]
    /**I2C1 GPIO Configuration
    PB8     ------> I2C1_SCL
    PB9     ------> I2C1_SDA
    */
    GPIO_InitStruct.Pin = GPIO_PIN_8|GPIO_PIN_9;
 800491c:	f44f 7340 	mov.w	r3, #768	; 0x300
 8004920:	617b      	str	r3, [r7, #20]
    GPIO_InitStruct.Mode = GPIO_MODE_AF_OD;
 8004922:	2312      	movs	r3, #18
 8004924:	61bb      	str	r3, [r7, #24]
    GPIO_InitStruct.Speed = GPIO_SPEED_FREQ_HIGH;
 8004926:	2303      	movs	r3, #3
 8004928:	623b      	str	r3, [r7, #32]
    HAL_GPIO_Init(GPIOB, &GPIO_InitStruct);
 800492a:	f107 0314 	add.w	r3, r7, #20
 800492e:	4619      	mov	r1, r3
 8004930:	4812      	ldr	r0, [pc, #72]	; (800497c <HAL_I2C_MspInit+0x98>)
 8004932:	f000 fbf9 	bl	8005128 <HAL_GPIO_Init>

    __HAL_AFIO_REMAP_I2C1_ENABLE();
 8004936:	4b12      	ldr	r3, [pc, #72]	; (8004980 <HAL_I2C_MspInit+0x9c>)
 8004938:	685b      	ldr	r3, [r3, #4]
 800493a:	627b      	str	r3, [r7, #36]	; 0x24
 800493c:	6a7b      	ldr	r3, [r7, #36]	; 0x24
 800493e:	f043 63e0 	orr.w	r3, r3, #117440512	; 0x7000000
 8004942:	627b      	str	r3, [r7, #36]	; 0x24
 8004944:	6a7b      	ldr	r3, [r7, #36]	; 0x24
 8004946:	f043 0302 	orr.w	r3, r3, #2
 800494a:	627b      	str	r3, [r7, #36]	; 0x24
 800494c:	4a0c      	ldr	r2, [pc, #48]	; (8004980 <HAL_I2C_MspInit+0x9c>)
 800494e:	6a7b      	ldr	r3, [r7, #36]	; 0x24
 8004950:	6053      	str	r3, [r2, #4]

    /* Peripheral clock enable */
    __HAL_RCC_I2C1_CLK_ENABLE();
 8004952:	4b09      	ldr	r3, [pc, #36]	; (8004978 <HAL_I2C_MspInit+0x94>)
 8004954:	69db      	ldr	r3, [r3, #28]
 8004956:	4a08      	ldr	r2, [pc, #32]	; (8004978 <HAL_I2C_MspInit+0x94>)
 8004958:	f443 1300 	orr.w	r3, r3, #2097152	; 0x200000
 800495c:	61d3      	str	r3, [r2, #28]
 800495e:	4b06      	ldr	r3, [pc, #24]	; (8004978 <HAL_I2C_MspInit+0x94>)
 8004960:	69db      	ldr	r3, [r3, #28]
 8004962:	f403 1300 	and.w	r3, r3, #2097152	; 0x200000
 8004966:	60fb      	str	r3, [r7, #12]
 8004968:	68fb      	ldr	r3, [r7, #12]
  /* USER CODE BEGIN I2C1_MspInit 1 */

  /* USER CODE END I2C1_MspInit 1 */
  }

}
 800496a:	bf00      	nop
 800496c:	3728      	adds	r7, #40	; 0x28
 800496e:	46bd      	mov	sp, r7
 8004970:	bd80      	pop	{r7, pc}
 8004972:	bf00      	nop
 8004974:	40005400 	.word	0x40005400
 8004978:	40021000 	.word	0x40021000
 800497c:	40010c00 	.word	0x40010c00
 8004980:	40010000 	.word	0x40010000

08004984 <HAL_TIM_Base_MspInit>:
* This function configures the hardware resources used in this example
* @param htim_base: TIM_Base handle pointer
* @retval None
*/
void HAL_TIM_Base_MspInit(TIM_HandleTypeDef* htim_base)
{
 8004984:	b580      	push	{r7, lr}
 8004986:	b084      	sub	sp, #16
 8004988:	af00      	add	r7, sp, #0
 800498a:	6078      	str	r0, [r7, #4]
  if(htim_base->Instance==TIM1)
 800498c:	687b      	ldr	r3, [r7, #4]
 800498e:	681b      	ldr	r3, [r3, #0]
 8004990:	4a0d      	ldr	r2, [pc, #52]	; (80049c8 <HAL_TIM_Base_MspInit+0x44>)
 8004992:	4293      	cmp	r3, r2
 8004994:	d113      	bne.n	80049be <HAL_TIM_Base_MspInit+0x3a>
  {
  /* USER CODE BEGIN TIM1_MspInit 0 */

  /* USER CODE END TIM1_MspInit 0 */
    /* Peripheral clock enable */
    __HAL_RCC_TIM1_CLK_ENABLE();
 8004996:	4b0d      	ldr	r3, [pc, #52]	; (80049cc <HAL_TIM_Base_MspInit+0x48>)
 8004998:	699b      	ldr	r3, [r3, #24]
 800499a:	4a0c      	ldr	r2, [pc, #48]	; (80049cc <HAL_TIM_Base_MspInit+0x48>)
 800499c:	f443 6300 	orr.w	r3, r3, #2048	; 0x800
 80049a0:	6193      	str	r3, [r2, #24]
 80049a2:	4b0a      	ldr	r3, [pc, #40]	; (80049cc <HAL_TIM_Base_MspInit+0x48>)
 80049a4:	699b      	ldr	r3, [r3, #24]
 80049a6:	f403 6300 	and.w	r3, r3, #2048	; 0x800
 80049aa:	60fb      	str	r3, [r7, #12]
 80049ac:	68fb      	ldr	r3, [r7, #12]
    /* TIM1 interrupt Init */
    HAL_NVIC_SetPriority(TIM1_UP_IRQn, 0, 0);
 80049ae:	2200      	movs	r2, #0
 80049b0:	2100      	movs	r1, #0
 80049b2:	2019      	movs	r0, #25
 80049b4:	f000 facf 	bl	8004f56 <HAL_NVIC_SetPriority>
    HAL_NVIC_EnableIRQ(TIM1_UP_IRQn);
 80049b8:	2019      	movs	r0, #25
 80049ba:	f000 fae8 	bl	8004f8e <HAL_NVIC_EnableIRQ>
  /* USER CODE BEGIN TIM1_MspInit 1 */

  /* USER CODE END TIM1_MspInit 1 */
  }

}
 80049be:	bf00      	nop
 80049c0:	3710      	adds	r7, #16
 80049c2:	46bd      	mov	sp, r7
 80049c4:	bd80      	pop	{r7, pc}
 80049c6:	bf00      	nop
 80049c8:	40012c00 	.word	0x40012c00
 80049cc:	40021000 	.word	0x40021000

080049d0 <HAL_TIM_PWM_MspInit>:
* This function configures the hardware resources used in this example
* @param htim_pwm: TIM_PWM handle pointer
* @retval None
*/
void HAL_TIM_PWM_MspInit(TIM_HandleTypeDef* htim_pwm)
{
 80049d0:	b480      	push	{r7}
 80049d2:	b085      	sub	sp, #20
 80049d4:	af00      	add	r7, sp, #0
 80049d6:	6078      	str	r0, [r7, #4]
  if(htim_pwm->Instance==TIM3)
 80049d8:	687b      	ldr	r3, [r7, #4]
 80049da:	681b      	ldr	r3, [r3, #0]
 80049dc:	4a12      	ldr	r2, [pc, #72]	; (8004a28 <HAL_TIM_PWM_MspInit+0x58>)
 80049de:	4293      	cmp	r3, r2
 80049e0:	d10c      	bne.n	80049fc <HAL_TIM_PWM_MspInit+0x2c>
  {
  /* USER CODE BEGIN TIM3_MspInit 0 */

  /* USER CODE END TIM3_MspInit 0 */
    /* Peripheral clock enable */
    __HAL_RCC_TIM3_CLK_ENABLE();
 80049e2:	4b12      	ldr	r3, [pc, #72]	; (8004a2c <HAL_TIM_PWM_MspInit+0x5c>)
 80049e4:	69db      	ldr	r3, [r3, #28]
 80049e6:	4a11      	ldr	r2, [pc, #68]	; (8004a2c <HAL_TIM_PWM_MspInit+0x5c>)
 80049e8:	f043 0302 	orr.w	r3, r3, #2
 80049ec:	61d3      	str	r3, [r2, #28]
 80049ee:	4b0f      	ldr	r3, [pc, #60]	; (8004a2c <HAL_TIM_PWM_MspInit+0x5c>)
 80049f0:	69db      	ldr	r3, [r3, #28]
 80049f2:	f003 0302 	and.w	r3, r3, #2
 80049f6:	60fb      	str	r3, [r7, #12]
 80049f8:	68fb      	ldr	r3, [r7, #12]
  /* USER CODE BEGIN TIM4_MspInit 1 */

  /* USER CODE END TIM4_MspInit 1 */
  }

}
 80049fa:	e010      	b.n	8004a1e <HAL_TIM_PWM_MspInit+0x4e>
  else if(htim_pwm->Instance==TIM4)
 80049fc:	687b      	ldr	r3, [r7, #4]
 80049fe:	681b      	ldr	r3, [r3, #0]
 8004a00:	4a0b      	ldr	r2, [pc, #44]	; (8004a30 <HAL_TIM_PWM_MspInit+0x60>)
 8004a02:	4293      	cmp	r3, r2
 8004a04:	d10b      	bne.n	8004a1e <HAL_TIM_PWM_MspInit+0x4e>
    __HAL_RCC_TIM4_CLK_ENABLE();
 8004a06:	4b09      	ldr	r3, [pc, #36]	; (8004a2c <HAL_TIM_PWM_MspInit+0x5c>)
 8004a08:	69db      	ldr	r3, [r3, #28]
 8004a0a:	4a08      	ldr	r2, [pc, #32]	; (8004a2c <HAL_TIM_PWM_MspInit+0x5c>)
 8004a0c:	f043 0304 	orr.w	r3, r3, #4
 8004a10:	61d3      	str	r3, [r2, #28]
 8004a12:	4b06      	ldr	r3, [pc, #24]	; (8004a2c <HAL_TIM_PWM_MspInit+0x5c>)
 8004a14:	69db      	ldr	r3, [r3, #28]
 8004a16:	f003 0304 	and.w	r3, r3, #4
 8004a1a:	60bb      	str	r3, [r7, #8]
 8004a1c:	68bb      	ldr	r3, [r7, #8]
}
 8004a1e:	bf00      	nop
 8004a20:	3714      	adds	r7, #20
 8004a22:	46bd      	mov	sp, r7
 8004a24:	bc80      	pop	{r7}
 8004a26:	4770      	bx	lr
 8004a28:	40000400 	.word	0x40000400
 8004a2c:	40021000 	.word	0x40021000
 8004a30:	40000800 	.word	0x40000800

08004a34 <HAL_TIM_MspPostInit>:

void HAL_TIM_MspPostInit(TIM_HandleTypeDef* htim)
{
 8004a34:	b580      	push	{r7, lr}
 8004a36:	b08a      	sub	sp, #40	; 0x28
 8004a38:	af00      	add	r7, sp, #0
 8004a3a:	6078      	str	r0, [r7, #4]
  GPIO_InitTypeDef GPIO_InitStruct = {0};
 8004a3c:	f107 0314 	add.w	r3, r7, #20
 8004a40:	2200      	movs	r2, #0
 8004a42:	601a      	str	r2, [r3, #0]
 8004a44:	605a      	str	r2, [r3, #4]
 8004a46:	609a      	str	r2, [r3, #8]
 8004a48:	60da      	str	r2, [r3, #12]
  if(htim->Instance==TIM3)
 8004a4a:	687b      	ldr	r3, [r7, #4]
 8004a4c:	681b      	ldr	r3, [r3, #0]
 8004a4e:	4a27      	ldr	r2, [pc, #156]	; (8004aec <HAL_TIM_MspPostInit+0xb8>)
 8004a50:	4293      	cmp	r3, r2
 8004a52:	d12a      	bne.n	8004aaa <HAL_TIM_MspPostInit+0x76>
  {
  /* USER CODE BEGIN TIM3_MspPostInit 0 */

  /* USER CODE END TIM3_MspPostInit 0 */
    __HAL_RCC_GPIOB_CLK_ENABLE();
 8004a54:	4b26      	ldr	r3, [pc, #152]	; (8004af0 <HAL_TIM_MspPostInit+0xbc>)
 8004a56:	699b      	ldr	r3, [r3, #24]
 8004a58:	4a25      	ldr	r2, [pc, #148]	; (8004af0 <HAL_TIM_MspPostInit+0xbc>)
 8004a5a:	f043 0308 	orr.w	r3, r3, #8
 8004a5e:	6193      	str	r3, [r2, #24]
 8004a60:	4b23      	ldr	r3, [pc, #140]	; (8004af0 <HAL_TIM_MspPostInit+0xbc>)
 8004a62:	699b      	ldr	r3, [r3, #24]
 8004a64:	f003 0308 	and.w	r3, r3, #8
 8004a68:	613b      	str	r3, [r7, #16]
 8004a6a:	693b      	ldr	r3, [r7, #16]
    /**TIM3 GPIO Configuration
    PB4     ------> TIM3_CH1
    PB5     ------> TIM3_CH2
    */
    GPIO_InitStruct.Pin = GPIO_PIN_4|GPIO_PIN_5;
 8004a6c:	2330      	movs	r3, #48	; 0x30
 8004a6e:	617b      	str	r3, [r7, #20]
    GPIO_InitStruct.Mode = GPIO_MODE_AF_PP;
 8004a70:	2302      	movs	r3, #2
 8004a72:	61bb      	str	r3, [r7, #24]
    GPIO_InitStruct.Speed = GPIO_SPEED_FREQ_LOW;
 8004a74:	2302      	movs	r3, #2
 8004a76:	623b      	str	r3, [r7, #32]
    HAL_GPIO_Init(GPIOB, &GPIO_InitStruct);
 8004a78:	f107 0314 	add.w	r3, r7, #20
 8004a7c:	4619      	mov	r1, r3
 8004a7e:	481d      	ldr	r0, [pc, #116]	; (8004af4 <HAL_TIM_MspPostInit+0xc0>)
 8004a80:	f000 fb52 	bl	8005128 <HAL_GPIO_Init>

    __HAL_AFIO_REMAP_TIM3_PARTIAL();
 8004a84:	4b1c      	ldr	r3, [pc, #112]	; (8004af8 <HAL_TIM_MspPostInit+0xc4>)
 8004a86:	685b      	ldr	r3, [r3, #4]
 8004a88:	627b      	str	r3, [r7, #36]	; 0x24
 8004a8a:	6a7b      	ldr	r3, [r7, #36]	; 0x24
 8004a8c:	f423 6340 	bic.w	r3, r3, #3072	; 0xc00
 8004a90:	627b      	str	r3, [r7, #36]	; 0x24
 8004a92:	6a7b      	ldr	r3, [r7, #36]	; 0x24
 8004a94:	f043 63e0 	orr.w	r3, r3, #117440512	; 0x7000000
 8004a98:	627b      	str	r3, [r7, #36]	; 0x24
 8004a9a:	6a7b      	ldr	r3, [r7, #36]	; 0x24
 8004a9c:	f443 6300 	orr.w	r3, r3, #2048	; 0x800
 8004aa0:	627b      	str	r3, [r7, #36]	; 0x24
 8004aa2:	4a15      	ldr	r2, [pc, #84]	; (8004af8 <HAL_TIM_MspPostInit+0xc4>)
 8004aa4:	6a7b      	ldr	r3, [r7, #36]	; 0x24
 8004aa6:	6053      	str	r3, [r2, #4]
  /* USER CODE BEGIN TIM4_MspPostInit 1 */

  /* USER CODE END TIM4_MspPostInit 1 */
  }

}
 8004aa8:	e01c      	b.n	8004ae4 <HAL_TIM_MspPostInit+0xb0>
  else if(htim->Instance==TIM4)
 8004aaa:	687b      	ldr	r3, [r7, #4]
 8004aac:	681b      	ldr	r3, [r3, #0]
 8004aae:	4a13      	ldr	r2, [pc, #76]	; (8004afc <HAL_TIM_MspPostInit+0xc8>)
 8004ab0:	4293      	cmp	r3, r2
 8004ab2:	d117      	bne.n	8004ae4 <HAL_TIM_MspPostInit+0xb0>
    __HAL_RCC_GPIOB_CLK_ENABLE();
 8004ab4:	4b0e      	ldr	r3, [pc, #56]	; (8004af0 <HAL_TIM_MspPostInit+0xbc>)
 8004ab6:	699b      	ldr	r3, [r3, #24]
 8004ab8:	4a0d      	ldr	r2, [pc, #52]	; (8004af0 <HAL_TIM_MspPostInit+0xbc>)
 8004aba:	f043 0308 	orr.w	r3, r3, #8
 8004abe:	6193      	str	r3, [r2, #24]
 8004ac0:	4b0b      	ldr	r3, [pc, #44]	; (8004af0 <HAL_TIM_MspPostInit+0xbc>)
 8004ac2:	699b      	ldr	r3, [r3, #24]
 8004ac4:	f003 0308 	and.w	r3, r3, #8
 8004ac8:	60fb      	str	r3, [r7, #12]
 8004aca:	68fb      	ldr	r3, [r7, #12]
    GPIO_InitStruct.Pin = GPIO_PIN_6|GPIO_PIN_7;
 8004acc:	23c0      	movs	r3, #192	; 0xc0
 8004ace:	617b      	str	r3, [r7, #20]
    GPIO_InitStruct.Mode = GPIO_MODE_AF_PP;
 8004ad0:	2302      	movs	r3, #2
 8004ad2:	61bb      	str	r3, [r7, #24]
    GPIO_InitStruct.Speed = GPIO_SPEED_FREQ_LOW;
 8004ad4:	2302      	movs	r3, #2
 8004ad6:	623b      	str	r3, [r7, #32]
    HAL_GPIO_Init(GPIOB, &GPIO_InitStruct);
 8004ad8:	f107 0314 	add.w	r3, r7, #20
 8004adc:	4619      	mov	r1, r3
 8004ade:	4805      	ldr	r0, [pc, #20]	; (8004af4 <HAL_TIM_MspPostInit+0xc0>)
 8004ae0:	f000 fb22 	bl	8005128 <HAL_GPIO_Init>
}
 8004ae4:	bf00      	nop
 8004ae6:	3728      	adds	r7, #40	; 0x28
 8004ae8:	46bd      	mov	sp, r7
 8004aea:	bd80      	pop	{r7, pc}
 8004aec:	40000400 	.word	0x40000400
 8004af0:	40021000 	.word	0x40021000
 8004af4:	40010c00 	.word	0x40010c00
 8004af8:	40010000 	.word	0x40010000
 8004afc:	40000800 	.word	0x40000800

08004b00 <HAL_UART_MspInit>:
* This function configures the hardware resources used in this example
* @param huart: UART handle pointer
* @retval None
*/
void HAL_UART_MspInit(UART_HandleTypeDef* huart)
{
 8004b00:	b580      	push	{r7, lr}
 8004b02:	b088      	sub	sp, #32
 8004b04:	af00      	add	r7, sp, #0
 8004b06:	6078      	str	r0, [r7, #4]
  GPIO_InitTypeDef GPIO_InitStruct = {0};
 8004b08:	f107 0310 	add.w	r3, r7, #16
 8004b0c:	2200      	movs	r2, #0
 8004b0e:	601a      	str	r2, [r3, #0]
 8004b10:	605a      	str	r2, [r3, #4]
 8004b12:	609a      	str	r2, [r3, #8]
 8004b14:	60da      	str	r2, [r3, #12]
  if(huart->Instance==USART1)
 8004b16:	687b      	ldr	r3, [r7, #4]
 8004b18:	681b      	ldr	r3, [r3, #0]
 8004b1a:	4a20      	ldr	r2, [pc, #128]	; (8004b9c <HAL_UART_MspInit+0x9c>)
 8004b1c:	4293      	cmp	r3, r2
 8004b1e:	d139      	bne.n	8004b94 <HAL_UART_MspInit+0x94>
  {
  /* USER CODE BEGIN USART1_MspInit 0 */

  /* USER CODE END USART1_MspInit 0 */
    /* Peripheral clock enable */
    __HAL_RCC_USART1_CLK_ENABLE();
 8004b20:	4b1f      	ldr	r3, [pc, #124]	; (8004ba0 <HAL_UART_MspInit+0xa0>)
 8004b22:	699b      	ldr	r3, [r3, #24]
 8004b24:	4a1e      	ldr	r2, [pc, #120]	; (8004ba0 <HAL_UART_MspInit+0xa0>)
 8004b26:	f443 4380 	orr.w	r3, r3, #16384	; 0x4000
 8004b2a:	6193      	str	r3, [r2, #24]
 8004b2c:	4b1c      	ldr	r3, [pc, #112]	; (8004ba0 <HAL_UART_MspInit+0xa0>)
 8004b2e:	699b      	ldr	r3, [r3, #24]
 8004b30:	f403 4380 	and.w	r3, r3, #16384	; 0x4000
 8004b34:	60fb      	str	r3, [r7, #12]
 8004b36:	68fb      	ldr	r3, [r7, #12]

    __HAL_RCC_GPIOA_CLK_ENABLE();
 8004b38:	4b19      	ldr	r3, [pc, #100]	; (8004ba0 <HAL_UART_MspInit+0xa0>)
 8004b3a:	699b      	ldr	r3, [r3, #24]
 8004b3c:	4a18      	ldr	r2, [pc, #96]	; (8004ba0 <HAL_UART_MspInit+0xa0>)
 8004b3e:	f043 0304 	orr.w	r3, r3, #4
 8004b42:	6193      	str	r3, [r2, #24]
 8004b44:	4b16      	ldr	r3, [pc, #88]	; (8004ba0 <HAL_UART_MspInit+0xa0>)
 8004b46:	699b      	ldr	r3, [r3, #24]
 8004b48:	f003 0304 	and.w	r3, r3, #4
 8004b4c:	60bb      	str	r3, [r7, #8]
 8004b4e:	68bb      	ldr	r3, [r7, #8]
    /**USART1 GPIO Configuration
    PA9     ------> USART1_TX
    PA10     ------> USART1_RX
    */
    GPIO_InitStruct.Pin = GPIO_PIN_9;
 8004b50:	f44f 7300 	mov.w	r3, #512	; 0x200
 8004b54:	613b      	str	r3, [r7, #16]
    GPIO_InitStruct.Mode = GPIO_MODE_AF_PP;
 8004b56:	2302      	movs	r3, #2
 8004b58:	617b      	str	r3, [r7, #20]
    GPIO_InitStruct.Speed = GPIO_SPEED_FREQ_HIGH;
 8004b5a:	2303      	movs	r3, #3
 8004b5c:	61fb      	str	r3, [r7, #28]
    HAL_GPIO_Init(GPIOA, &GPIO_InitStruct);
 8004b5e:	f107 0310 	add.w	r3, r7, #16
 8004b62:	4619      	mov	r1, r3
 8004b64:	480f      	ldr	r0, [pc, #60]	; (8004ba4 <HAL_UART_MspInit+0xa4>)
 8004b66:	f000 fadf 	bl	8005128 <HAL_GPIO_Init>

    GPIO_InitStruct.Pin = GPIO_PIN_10;
 8004b6a:	f44f 6380 	mov.w	r3, #1024	; 0x400
 8004b6e:	613b      	str	r3, [r7, #16]
    GPIO_InitStruct.Mode = GPIO_MODE_INPUT;
 8004b70:	2300      	movs	r3, #0
 8004b72:	617b      	str	r3, [r7, #20]
    GPIO_InitStruct.Pull = GPIO_NOPULL;
 8004b74:	2300      	movs	r3, #0
 8004b76:	61bb      	str	r3, [r7, #24]
    HAL_GPIO_Init(GPIOA, &GPIO_InitStruct);
 8004b78:	f107 0310 	add.w	r3, r7, #16
 8004b7c:	4619      	mov	r1, r3
 8004b7e:	4809      	ldr	r0, [pc, #36]	; (8004ba4 <HAL_UART_MspInit+0xa4>)
 8004b80:	f000 fad2 	bl	8005128 <HAL_GPIO_Init>

    /* USART1 interrupt Init */
    HAL_NVIC_SetPriority(USART1_IRQn, 0, 0);
 8004b84:	2200      	movs	r2, #0
 8004b86:	2100      	movs	r1, #0
 8004b88:	2025      	movs	r0, #37	; 0x25
 8004b8a:	f000 f9e4 	bl	8004f56 <HAL_NVIC_SetPriority>
    HAL_NVIC_EnableIRQ(USART1_IRQn);
 8004b8e:	2025      	movs	r0, #37	; 0x25
 8004b90:	f000 f9fd 	bl	8004f8e <HAL_NVIC_EnableIRQ>
  /* USER CODE BEGIN USART1_MspInit 1 */

  /* USER CODE END USART1_MspInit 1 */
  }

}
 8004b94:	bf00      	nop
 8004b96:	3720      	adds	r7, #32
 8004b98:	46bd      	mov	sp, r7
 8004b9a:	bd80      	pop	{r7, pc}
 8004b9c:	40013800 	.word	0x40013800
 8004ba0:	40021000 	.word	0x40021000
 8004ba4:	40010800 	.word	0x40010800

08004ba8 <NMI_Handler>:
/******************************************************************************/
/**
  * @brief This function handles Non maskable interrupt.
  */
void NMI_Handler(void)
{
 8004ba8:	b480      	push	{r7}
 8004baa:	af00      	add	r7, sp, #0
  /* USER CODE BEGIN NonMaskableInt_IRQn 0 */

  /* USER CODE END NonMaskableInt_IRQn 0 */
  /* USER CODE BEGIN NonMaskableInt_IRQn 1 */
   while (1)
 8004bac:	e7fe      	b.n	8004bac <NMI_Handler+0x4>

08004bae <HardFault_Handler>:

/**
  * @brief This function handles Hard fault interrupt.
  */
void HardFault_Handler(void)
{
 8004bae:	b480      	push	{r7}
 8004bb0:	af00      	add	r7, sp, #0
  /* USER CODE BEGIN HardFault_IRQn 0 */

  /* USER CODE END HardFault_IRQn 0 */
  while (1)
 8004bb2:	e7fe      	b.n	8004bb2 <HardFault_Handler+0x4>

08004bb4 <MemManage_Handler>:

/**
  * @brief This function handles Memory management fault.
  */
void MemManage_Handler(void)
{
 8004bb4:	b480      	push	{r7}
 8004bb6:	af00      	add	r7, sp, #0
  /* USER CODE BEGIN MemoryManagement_IRQn 0 */

  /* USER CODE END MemoryManagement_IRQn 0 */
  while (1)
 8004bb8:	e7fe      	b.n	8004bb8 <MemManage_Handler+0x4>

08004bba <BusFault_Handler>:

/**
  * @brief This function handles Prefetch fault, memory access fault.
  */
void BusFault_Handler(void)
{
 8004bba:	b480      	push	{r7}
 8004bbc:	af00      	add	r7, sp, #0
  /* USER CODE BEGIN BusFault_IRQn 0 */

  /* USER CODE END BusFault_IRQn 0 */
  while (1)
 8004bbe:	e7fe      	b.n	8004bbe <BusFault_Handler+0x4>

08004bc0 <UsageFault_Handler>:

/**
  * @brief This function handles Undefined instruction or illegal state.
  */
void UsageFault_Handler(void)
{
 8004bc0:	b480      	push	{r7}
 8004bc2:	af00      	add	r7, sp, #0
  /* USER CODE BEGIN UsageFault_IRQn 0 */

  /* USER CODE END UsageFault_IRQn 0 */
  while (1)
 8004bc4:	e7fe      	b.n	8004bc4 <UsageFault_Handler+0x4>

08004bc6 <SVC_Handler>:

/**
  * @brief This function handles System service call via SWI instruction.
  */
void SVC_Handler(void)
{
 8004bc6:	b480      	push	{r7}
 8004bc8:	af00      	add	r7, sp, #0

  /* USER CODE END SVCall_IRQn 0 */
  /* USER CODE BEGIN SVCall_IRQn 1 */

  /* USER CODE END SVCall_IRQn 1 */
}
 8004bca:	bf00      	nop
 8004bcc:	46bd      	mov	sp, r7
 8004bce:	bc80      	pop	{r7}
 8004bd0:	4770      	bx	lr

08004bd2 <DebugMon_Handler>:

/**
  * @brief This function handles Debug monitor.
  */
void DebugMon_Handler(void)
{
 8004bd2:	b480      	push	{r7}
 8004bd4:	af00      	add	r7, sp, #0

  /* USER CODE END DebugMonitor_IRQn 0 */
  /* USER CODE BEGIN DebugMonitor_IRQn 1 */

  /* USER CODE END DebugMonitor_IRQn 1 */
}
 8004bd6:	bf00      	nop
 8004bd8:	46bd      	mov	sp, r7
 8004bda:	bc80      	pop	{r7}
 8004bdc:	4770      	bx	lr

08004bde <PendSV_Handler>:

/**
  * @brief This function handles Pendable request for system service.
  */
void PendSV_Handler(void)
{
 8004bde:	b480      	push	{r7}
 8004be0:	af00      	add	r7, sp, #0

  /* USER CODE END PendSV_IRQn 0 */
  /* USER CODE BEGIN PendSV_IRQn 1 */

  /* USER CODE END PendSV_IRQn 1 */
}
 8004be2:	bf00      	nop
 8004be4:	46bd      	mov	sp, r7
 8004be6:	bc80      	pop	{r7}
 8004be8:	4770      	bx	lr

08004bea <SysTick_Handler>:

/**
  * @brief This function handles System tick timer.
  */
void SysTick_Handler(void)
{
 8004bea:	b580      	push	{r7, lr}
 8004bec:	af00      	add	r7, sp, #0
  /* USER CODE BEGIN SysTick_IRQn 0 */

  /* USER CODE END SysTick_IRQn 0 */
  HAL_IncTick();
 8004bee:	f000 f8bf 	bl	8004d70 <HAL_IncTick>
  /* USER CODE BEGIN SysTick_IRQn 1 */

  /* USER CODE END SysTick_IRQn 1 */
}
 8004bf2:	bf00      	nop
 8004bf4:	bd80      	pop	{r7, pc}
	...

08004bf8 <TIM1_UP_IRQHandler>:

/**
  * @brief This function handles TIM1 update interrupt.
  */
void TIM1_UP_IRQHandler(void)
{
 8004bf8:	b580      	push	{r7, lr}
 8004bfa:	af00      	add	r7, sp, #0
  /* USER CODE BEGIN TIM1_UP_IRQn 0 */

  /* USER CODE END TIM1_UP_IRQn 0 */
  HAL_TIM_IRQHandler(&htim1);
 8004bfc:	4802      	ldr	r0, [pc, #8]	; (8004c08 <TIM1_UP_IRQHandler+0x10>)
 8004bfe:	f002 fa2d 	bl	800705c <HAL_TIM_IRQHandler>
  /* USER CODE BEGIN TIM1_UP_IRQn 1 */

  /* USER CODE END TIM1_UP_IRQn 1 */
}
 8004c02:	bf00      	nop
 8004c04:	bd80      	pop	{r7, pc}
 8004c06:	bf00      	nop
 8004c08:	200003ec 	.word	0x200003ec

08004c0c <USART1_IRQHandler>:

/**
  * @brief This function handles USART1 global interrupt.
  */
void USART1_IRQHandler(void)
{
 8004c0c:	b580      	push	{r7, lr}
 8004c0e:	af00      	add	r7, sp, #0
  /* USER CODE BEGIN USART1_IRQn 0 */

  /* USER CODE END USART1_IRQn 0 */
  HAL_UART_IRQHandler(&huart1);
 8004c10:	4802      	ldr	r0, [pc, #8]	; (8004c1c <USART1_IRQHandler+0x10>)
 8004c12:	f003 f8c1 	bl	8007d98 <HAL_UART_IRQHandler>
  /* USER CODE BEGIN USART1_IRQn 1 */

  /* USER CODE END USART1_IRQn 1 */
}
 8004c16:	bf00      	nop
 8004c18:	bd80      	pop	{r7, pc}
 8004c1a:	bf00      	nop
 8004c1c:	200004c4 	.word	0x200004c4

08004c20 <_sbrk>:
 *
 * @param incr Memory size
 * @return Pointer to allocated memory
 */
void *_sbrk(ptrdiff_t incr)
{
 8004c20:	b580      	push	{r7, lr}
 8004c22:	b086      	sub	sp, #24
 8004c24:	af00      	add	r7, sp, #0
 8004c26:	6078      	str	r0, [r7, #4]
  extern uint8_t _end; /* Symbol defined in the linker script */
  extern uint8_t _estack; /* Symbol defined in the linker script */
  extern uint32_t _Min_Stack_Size; /* Symbol defined in the linker script */
  const uint32_t stack_limit = (uint32_t)&_estack - (uint32_t)&_Min_Stack_Size;
 8004c28:	4a14      	ldr	r2, [pc, #80]	; (8004c7c <_sbrk+0x5c>)
 8004c2a:	4b15      	ldr	r3, [pc, #84]	; (8004c80 <_sbrk+0x60>)
 8004c2c:	1ad3      	subs	r3, r2, r3
 8004c2e:	617b      	str	r3, [r7, #20]
  const uint8_t *max_heap = (uint8_t *)stack_limit;
 8004c30:	697b      	ldr	r3, [r7, #20]
 8004c32:	613b      	str	r3, [r7, #16]
  uint8_t *prev_heap_end;

  /* Initialize heap end at first call */
  if (NULL == __sbrk_heap_end)
 8004c34:	4b13      	ldr	r3, [pc, #76]	; (8004c84 <_sbrk+0x64>)
 8004c36:	681b      	ldr	r3, [r3, #0]
 8004c38:	2b00      	cmp	r3, #0
 8004c3a:	d102      	bne.n	8004c42 <_sbrk+0x22>
  {
    __sbrk_heap_end = &_end;
 8004c3c:	4b11      	ldr	r3, [pc, #68]	; (8004c84 <_sbrk+0x64>)
 8004c3e:	4a12      	ldr	r2, [pc, #72]	; (8004c88 <_sbrk+0x68>)
 8004c40:	601a      	str	r2, [r3, #0]
  }

  /* Protect heap from growing into the reserved MSP stack */
  if (__sbrk_heap_end + incr > max_heap)
 8004c42:	4b10      	ldr	r3, [pc, #64]	; (8004c84 <_sbrk+0x64>)
 8004c44:	681a      	ldr	r2, [r3, #0]
 8004c46:	687b      	ldr	r3, [r7, #4]
 8004c48:	4413      	add	r3, r2
 8004c4a:	693a      	ldr	r2, [r7, #16]
 8004c4c:	429a      	cmp	r2, r3
 8004c4e:	d207      	bcs.n	8004c60 <_sbrk+0x40>
  {
    errno = ENOMEM;
 8004c50:	f003 fe1a 	bl	8008888 <__errno>
 8004c54:	4603      	mov	r3, r0
 8004c56:	220c      	movs	r2, #12
 8004c58:	601a      	str	r2, [r3, #0]
    return (void *)-1;
 8004c5a:	f04f 33ff 	mov.w	r3, #4294967295
 8004c5e:	e009      	b.n	8004c74 <_sbrk+0x54>
  }

  prev_heap_end = __sbrk_heap_end;
 8004c60:	4b08      	ldr	r3, [pc, #32]	; (8004c84 <_sbrk+0x64>)
 8004c62:	681b      	ldr	r3, [r3, #0]
 8004c64:	60fb      	str	r3, [r7, #12]
  __sbrk_heap_end += incr;
 8004c66:	4b07      	ldr	r3, [pc, #28]	; (8004c84 <_sbrk+0x64>)
 8004c68:	681a      	ldr	r2, [r3, #0]
 8004c6a:	687b      	ldr	r3, [r7, #4]
 8004c6c:	4413      	add	r3, r2
 8004c6e:	4a05      	ldr	r2, [pc, #20]	; (8004c84 <_sbrk+0x64>)
 8004c70:	6013      	str	r3, [r2, #0]

  return (void *)prev_heap_end;
 8004c72:	68fb      	ldr	r3, [r7, #12]
}
 8004c74:	4618      	mov	r0, r3
 8004c76:	3718      	adds	r7, #24
 8004c78:	46bd      	mov	sp, r7
 8004c7a:	bd80      	pop	{r7, pc}
 8004c7c:	20005000 	.word	0x20005000
 8004c80:	00000400 	.word	0x00000400
 8004c84:	200005ec 	.word	0x200005ec
 8004c88:	20000740 	.word	0x20000740

08004c8c <SystemInit>:
  * @note   This function should be used only after reset.
  * @param  None
  * @retval None
  */
void SystemInit (void)
{
 8004c8c:	b480      	push	{r7}
 8004c8e:	af00      	add	r7, sp, #0

  /* Configure the Vector Table location -------------------------------------*/
#if defined(USER_VECT_TAB_ADDRESS)
  SCB->VTOR = VECT_TAB_BASE_ADDRESS | VECT_TAB_OFFSET; /* Vector Table Relocation in Internal SRAM. */
#endif /* USER_VECT_TAB_ADDRESS */
}
 8004c90:	bf00      	nop
 8004c92:	46bd      	mov	sp, r7
 8004c94:	bc80      	pop	{r7}
 8004c96:	4770      	bx	lr

08004c98 <Reset_Handler>:
  .section .text.Reset_Handler
  .weak Reset_Handler
  .type Reset_Handler, %function
Reset_Handler:

/* Call the clock system initialization function.*/    bl  SystemInit
 8004c98:	f7ff fff8 	bl	8004c8c <SystemInit>

/* Copy the data segment initializers from flash to SRAM */
  ldr r0, =_sdata
 8004c9c:	480b      	ldr	r0, [pc, #44]	; (8004ccc <LoopFillZerobss+0xe>)
  ldr r1, =_edata
 8004c9e:	490c      	ldr	r1, [pc, #48]	; (8004cd0 <LoopFillZerobss+0x12>)
  ldr r2, =_sidata
 8004ca0:	4a0c      	ldr	r2, [pc, #48]	; (8004cd4 <LoopFillZerobss+0x16>)
  movs r3, #0
 8004ca2:	2300      	movs	r3, #0
  b LoopCopyDataInit
 8004ca4:	e002      	b.n	8004cac <LoopCopyDataInit>

08004ca6 <CopyDataInit>:

CopyDataInit:
  ldr r4, [r2, r3]
 8004ca6:	58d4      	ldr	r4, [r2, r3]
  str r4, [r0, r3]
 8004ca8:	50c4      	str	r4, [r0, r3]
  adds r3, r3, #4
 8004caa:	3304      	adds	r3, #4

08004cac <LoopCopyDataInit>:

LoopCopyDataInit:
  adds r4, r0, r3
 8004cac:	18c4      	adds	r4, r0, r3
  cmp r4, r1
 8004cae:	428c      	cmp	r4, r1
  bcc CopyDataInit
 8004cb0:	d3f9      	bcc.n	8004ca6 <CopyDataInit>
  
/* Zero fill the bss segment. */
  ldr r2, =_sbss
 8004cb2:	4a09      	ldr	r2, [pc, #36]	; (8004cd8 <LoopFillZerobss+0x1a>)
  ldr r4, =_ebss
 8004cb4:	4c09      	ldr	r4, [pc, #36]	; (8004cdc <LoopFillZerobss+0x1e>)
  movs r3, #0
 8004cb6:	2300      	movs	r3, #0
  b LoopFillZerobss
 8004cb8:	e001      	b.n	8004cbe <LoopFillZerobss>

08004cba <FillZerobss>:

FillZerobss:
  str  r3, [r2]
 8004cba:	6013      	str	r3, [r2, #0]
  adds r2, r2, #4
 8004cbc:	3204      	adds	r2, #4

08004cbe <LoopFillZerobss>:

LoopFillZerobss:
  cmp r2, r4
 8004cbe:	42a2      	cmp	r2, r4
  bcc FillZerobss
 8004cc0:	d3fb      	bcc.n	8004cba <FillZerobss>

/* Call static constructors */
    bl __libc_init_array
 8004cc2:	f003 fde7 	bl	8008894 <__libc_init_array>
/* Call the application's entry point.*/
  bl main
 8004cc6:	f7fc fbe3 	bl	8001490 <main>
  bx lr
 8004cca:	4770      	bx	lr
  ldr r0, =_sdata
 8004ccc:	20000000 	.word	0x20000000
  ldr r1, =_edata
 8004cd0:	20000118 	.word	0x20000118
  ldr r2, =_sidata
 8004cd4:	08009c28 	.word	0x08009c28
  ldr r2, =_sbss
 8004cd8:	20000118 	.word	0x20000118
  ldr r4, =_ebss
 8004cdc:	2000073c 	.word	0x2000073c

08004ce0 <ADC1_2_IRQHandler>:
 * @retval : None
*/
    .section .text.Default_Handler,"ax",%progbits
Default_Handler:
Infinite_Loop:
  b Infinite_Loop
 8004ce0:	e7fe      	b.n	8004ce0 <ADC1_2_IRQHandler>
	...

08004ce4 <HAL_Init>:
  *         need to ensure that the SysTick time base is always set to 1 millisecond
  *         to have correct HAL operation.
  * @retval HAL status
  */
HAL_StatusTypeDef HAL_Init(void)
{
 8004ce4:	b580      	push	{r7, lr}
 8004ce6:	af00      	add	r7, sp, #0
    defined(STM32F102x6) || defined(STM32F102xB) || \
    defined(STM32F103x6) || defined(STM32F103xB) || defined(STM32F103xE) || defined(STM32F103xG) || \
    defined(STM32F105xC) || defined(STM32F107xC)

  /* Prefetch buffer is not available on value line devices */
  __HAL_FLASH_PREFETCH_BUFFER_ENABLE();
 8004ce8:	4b08      	ldr	r3, [pc, #32]	; (8004d0c <HAL_Init+0x28>)
 8004cea:	681b      	ldr	r3, [r3, #0]
 8004cec:	4a07      	ldr	r2, [pc, #28]	; (8004d0c <HAL_Init+0x28>)
 8004cee:	f043 0310 	orr.w	r3, r3, #16
 8004cf2:	6013      	str	r3, [r2, #0]
#endif
#endif /* PREFETCH_ENABLE */

  /* Set Interrupt Group Priority */
  HAL_NVIC_SetPriorityGrouping(NVIC_PRIORITYGROUP_4);
 8004cf4:	2003      	movs	r0, #3
 8004cf6:	f000 f923 	bl	8004f40 <HAL_NVIC_SetPriorityGrouping>

  /* Use systick as time base source and configure 1ms tick (default clock after Reset is HSI) */
  HAL_InitTick(TICK_INT_PRIORITY);
 8004cfa:	200f      	movs	r0, #15
 8004cfc:	f000 f808 	bl	8004d10 <HAL_InitTick>

  /* Init the low level hardware */
  HAL_MspInit();
 8004d00:	f7ff fdbe 	bl	8004880 <HAL_MspInit>

  /* Return function status */
  return HAL_OK;
 8004d04:	2300      	movs	r3, #0
}
 8004d06:	4618      	mov	r0, r3
 8004d08:	bd80      	pop	{r7, pc}
 8004d0a:	bf00      	nop
 8004d0c:	40022000 	.word	0x40022000

08004d10 <HAL_InitTick>:
  *       implementation  in user file.
  * @param TickPriority Tick interrupt priority.
  * @retval HAL status
  */
__weak HAL_StatusTypeDef HAL_InitTick(uint32_t TickPriority)
{
 8004d10:	b580      	push	{r7, lr}
 8004d12:	b082      	sub	sp, #8
 8004d14:	af00      	add	r7, sp, #0
 8004d16:	6078      	str	r0, [r7, #4]
  /* Configure the SysTick to have interrupt in 1ms time basis*/
  if (HAL_SYSTICK_Config(SystemCoreClock / (1000U / uwTickFreq)) > 0U)
 8004d18:	4b12      	ldr	r3, [pc, #72]	; (8004d64 <HAL_InitTick+0x54>)
 8004d1a:	681a      	ldr	r2, [r3, #0]
 8004d1c:	4b12      	ldr	r3, [pc, #72]	; (8004d68 <HAL_InitTick+0x58>)
 8004d1e:	781b      	ldrb	r3, [r3, #0]
 8004d20:	4619      	mov	r1, r3
 8004d22:	f44f 737a 	mov.w	r3, #1000	; 0x3e8
 8004d26:	fbb3 f3f1 	udiv	r3, r3, r1
 8004d2a:	fbb2 f3f3 	udiv	r3, r2, r3
 8004d2e:	4618      	mov	r0, r3
 8004d30:	f000 f93b 	bl	8004faa <HAL_SYSTICK_Config>
 8004d34:	4603      	mov	r3, r0
 8004d36:	2b00      	cmp	r3, #0
 8004d38:	d001      	beq.n	8004d3e <HAL_InitTick+0x2e>
  {
    return HAL_ERROR;
 8004d3a:	2301      	movs	r3, #1
 8004d3c:	e00e      	b.n	8004d5c <HAL_InitTick+0x4c>
  }

  /* Configure the SysTick IRQ priority */
  if (TickPriority < (1UL << __NVIC_PRIO_BITS))
 8004d3e:	687b      	ldr	r3, [r7, #4]
 8004d40:	2b0f      	cmp	r3, #15
 8004d42:	d80a      	bhi.n	8004d5a <HAL_InitTick+0x4a>
  {
    HAL_NVIC_SetPriority(SysTick_IRQn, TickPriority, 0U);
 8004d44:	2200      	movs	r2, #0
 8004d46:	6879      	ldr	r1, [r7, #4]
 8004d48:	f04f 30ff 	mov.w	r0, #4294967295
 8004d4c:	f000 f903 	bl	8004f56 <HAL_NVIC_SetPriority>
    uwTickPrio = TickPriority;
 8004d50:	4a06      	ldr	r2, [pc, #24]	; (8004d6c <HAL_InitTick+0x5c>)
 8004d52:	687b      	ldr	r3, [r7, #4]
 8004d54:	6013      	str	r3, [r2, #0]
  {
    return HAL_ERROR;
  }

  /* Return function status */
  return HAL_OK;
 8004d56:	2300      	movs	r3, #0
 8004d58:	e000      	b.n	8004d5c <HAL_InitTick+0x4c>
    return HAL_ERROR;
 8004d5a:	2301      	movs	r3, #1
}
 8004d5c:	4618      	mov	r0, r3
 8004d5e:	3708      	adds	r7, #8
 8004d60:	46bd      	mov	sp, r7
 8004d62:	bd80      	pop	{r7, pc}
 8004d64:	200000ac 	.word	0x200000ac
 8004d68:	200000b4 	.word	0x200000b4
 8004d6c:	200000b0 	.word	0x200000b0

08004d70 <HAL_IncTick>:
  * @note This function is declared as __weak to be overwritten in case of other
  *      implementations in user file.
  * @retval None
  */
__weak void HAL_IncTick(void)
{
 8004d70:	b480      	push	{r7}
 8004d72:	af00      	add	r7, sp, #0
  uwTick += uwTickFreq;
 8004d74:	4b05      	ldr	r3, [pc, #20]	; (8004d8c <HAL_IncTick+0x1c>)
 8004d76:	781b      	ldrb	r3, [r3, #0]
 8004d78:	461a      	mov	r2, r3
 8004d7a:	4b05      	ldr	r3, [pc, #20]	; (8004d90 <HAL_IncTick+0x20>)
 8004d7c:	681b      	ldr	r3, [r3, #0]
 8004d7e:	4413      	add	r3, r2
 8004d80:	4a03      	ldr	r2, [pc, #12]	; (8004d90 <HAL_IncTick+0x20>)
 8004d82:	6013      	str	r3, [r2, #0]
}
 8004d84:	bf00      	nop
 8004d86:	46bd      	mov	sp, r7
 8004d88:	bc80      	pop	{r7}
 8004d8a:	4770      	bx	lr
 8004d8c:	200000b4 	.word	0x200000b4
 8004d90:	200005f0 	.word	0x200005f0

08004d94 <HAL_GetTick>:
  * @note  This function is declared as __weak to be overwritten in case of other
  *       implementations in user file.
  * @retval tick value
  */
__weak uint32_t HAL_GetTick(void)
{
 8004d94:	b480      	push	{r7}
 8004d96:	af00      	add	r7, sp, #0
  return uwTick;
 8004d98:	4b02      	ldr	r3, [pc, #8]	; (8004da4 <HAL_GetTick+0x10>)
 8004d9a:	681b      	ldr	r3, [r3, #0]
}
 8004d9c:	4618      	mov	r0, r3
 8004d9e:	46bd      	mov	sp, r7
 8004da0:	bc80      	pop	{r7}
 8004da2:	4770      	bx	lr
 8004da4:	200005f0 	.word	0x200005f0

08004da8 <__NVIC_SetPriorityGrouping>:
           In case of a conflict between priority grouping and available
           priority bits (__NVIC_PRIO_BITS), the smallest possible priority group is set.
  \param [in]      PriorityGroup  Priority grouping field.
 */
__STATIC_INLINE void __NVIC_SetPriorityGrouping(uint32_t PriorityGroup)
{
 8004da8:	b480      	push	{r7}
 8004daa:	b085      	sub	sp, #20
 8004dac:	af00      	add	r7, sp, #0
 8004dae:	6078      	str	r0, [r7, #4]
  uint32_t reg_value;
  uint32_t PriorityGroupTmp = (PriorityGroup & (uint32_t)0x07UL);             /* only values 0..7 are used          */
 8004db0:	687b      	ldr	r3, [r7, #4]
 8004db2:	f003 0307 	and.w	r3, r3, #7
 8004db6:	60fb      	str	r3, [r7, #12]

  reg_value  =  SCB->AIRCR;                                                   /* read old register configuration    */
 8004db8:	4b0c      	ldr	r3, [pc, #48]	; (8004dec <__NVIC_SetPriorityGrouping+0x44>)
 8004dba:	68db      	ldr	r3, [r3, #12]
 8004dbc:	60bb      	str	r3, [r7, #8]
  reg_value &= ~((uint32_t)(SCB_AIRCR_VECTKEY_Msk | SCB_AIRCR_PRIGROUP_Msk)); /* clear bits to change               */
 8004dbe:	68ba      	ldr	r2, [r7, #8]
 8004dc0:	f64f 03ff 	movw	r3, #63743	; 0xf8ff
 8004dc4:	4013      	ands	r3, r2
 8004dc6:	60bb      	str	r3, [r7, #8]
  reg_value  =  (reg_value                                   |
                ((uint32_t)0x5FAUL << SCB_AIRCR_VECTKEY_Pos) |
                (PriorityGroupTmp << SCB_AIRCR_PRIGROUP_Pos) );               /* Insert write key and priority group */
 8004dc8:	68fb      	ldr	r3, [r7, #12]
 8004dca:	021a      	lsls	r2, r3, #8
                ((uint32_t)0x5FAUL << SCB_AIRCR_VECTKEY_Pos) |
 8004dcc:	68bb      	ldr	r3, [r7, #8]
 8004dce:	4313      	orrs	r3, r2
  reg_value  =  (reg_value                                   |
 8004dd0:	f043 63bf 	orr.w	r3, r3, #100139008	; 0x5f80000
 8004dd4:	f443 3300 	orr.w	r3, r3, #131072	; 0x20000
 8004dd8:	60bb      	str	r3, [r7, #8]
  SCB->AIRCR =  reg_value;
 8004dda:	4a04      	ldr	r2, [pc, #16]	; (8004dec <__NVIC_SetPriorityGrouping+0x44>)
 8004ddc:	68bb      	ldr	r3, [r7, #8]
 8004dde:	60d3      	str	r3, [r2, #12]
}
 8004de0:	bf00      	nop
 8004de2:	3714      	adds	r7, #20
 8004de4:	46bd      	mov	sp, r7
 8004de6:	bc80      	pop	{r7}
 8004de8:	4770      	bx	lr
 8004dea:	bf00      	nop
 8004dec:	e000ed00 	.word	0xe000ed00

08004df0 <__NVIC_GetPriorityGrouping>:
  \brief   Get Priority Grouping
  \details Reads the priority grouping field from the NVIC Interrupt Controller.
  \return                Priority grouping field (SCB->AIRCR [10:8] PRIGROUP field).
 */
__STATIC_INLINE uint32_t __NVIC_GetPriorityGrouping(void)
{
 8004df0:	b480      	push	{r7}
 8004df2:	af00      	add	r7, sp, #0
  return ((uint32_t)((SCB->AIRCR & SCB_AIRCR_PRIGROUP_Msk) >> SCB_AIRCR_PRIGROUP_Pos));
 8004df4:	4b04      	ldr	r3, [pc, #16]	; (8004e08 <__NVIC_GetPriorityGrouping+0x18>)
 8004df6:	68db      	ldr	r3, [r3, #12]
 8004df8:	0a1b      	lsrs	r3, r3, #8
 8004dfa:	f003 0307 	and.w	r3, r3, #7
}
 8004dfe:	4618      	mov	r0, r3
 8004e00:	46bd      	mov	sp, r7
 8004e02:	bc80      	pop	{r7}
 8004e04:	4770      	bx	lr
 8004e06:	bf00      	nop
 8004e08:	e000ed00 	.word	0xe000ed00

08004e0c <__NVIC_EnableIRQ>:
  \details Enables a device specific interrupt in the NVIC interrupt controller.
  \param [in]      IRQn  Device specific interrupt number.
  \note    IRQn must not be negative.
 */
__STATIC_INLINE void __NVIC_EnableIRQ(IRQn_Type IRQn)
{
 8004e0c:	b480      	push	{r7}
 8004e0e:	b083      	sub	sp, #12
 8004e10:	af00      	add	r7, sp, #0
 8004e12:	4603      	mov	r3, r0
 8004e14:	71fb      	strb	r3, [r7, #7]
  if ((int32_t)(IRQn) >= 0)
 8004e16:	f997 3007 	ldrsb.w	r3, [r7, #7]
 8004e1a:	2b00      	cmp	r3, #0
 8004e1c:	db0b      	blt.n	8004e36 <__NVIC_EnableIRQ+0x2a>
  {
    NVIC->ISER[(((uint32_t)IRQn) >> 5UL)] = (uint32_t)(1UL << (((uint32_t)IRQn) & 0x1FUL));
 8004e1e:	79fb      	ldrb	r3, [r7, #7]
 8004e20:	f003 021f 	and.w	r2, r3, #31
 8004e24:	4906      	ldr	r1, [pc, #24]	; (8004e40 <__NVIC_EnableIRQ+0x34>)
 8004e26:	f997 3007 	ldrsb.w	r3, [r7, #7]
 8004e2a:	095b      	lsrs	r3, r3, #5
 8004e2c:	2001      	movs	r0, #1
 8004e2e:	fa00 f202 	lsl.w	r2, r0, r2
 8004e32:	f841 2023 	str.w	r2, [r1, r3, lsl #2]
  }
}
 8004e36:	bf00      	nop
 8004e38:	370c      	adds	r7, #12
 8004e3a:	46bd      	mov	sp, r7
 8004e3c:	bc80      	pop	{r7}
 8004e3e:	4770      	bx	lr
 8004e40:	e000e100 	.word	0xe000e100

08004e44 <__NVIC_SetPriority>:
  \param [in]      IRQn  Interrupt number.
  \param [in]  priority  Priority to set.
  \note    The priority cannot be set for every processor exception.
 */
__STATIC_INLINE void __NVIC_SetPriority(IRQn_Type IRQn, uint32_t priority)
{
 8004e44:	b480      	push	{r7}
 8004e46:	b083      	sub	sp, #12
 8004e48:	af00      	add	r7, sp, #0
 8004e4a:	4603      	mov	r3, r0
 8004e4c:	6039      	str	r1, [r7, #0]
 8004e4e:	71fb      	strb	r3, [r7, #7]
  if ((int32_t)(IRQn) >= 0)
 8004e50:	f997 3007 	ldrsb.w	r3, [r7, #7]
 8004e54:	2b00      	cmp	r3, #0
 8004e56:	db0a      	blt.n	8004e6e <__NVIC_SetPriority+0x2a>
  {
    NVIC->IP[((uint32_t)IRQn)]               = (uint8_t)((priority << (8U - __NVIC_PRIO_BITS)) & (uint32_t)0xFFUL);
 8004e58:	683b      	ldr	r3, [r7, #0]
 8004e5a:	b2da      	uxtb	r2, r3
 8004e5c:	490c      	ldr	r1, [pc, #48]	; (8004e90 <__NVIC_SetPriority+0x4c>)
 8004e5e:	f997 3007 	ldrsb.w	r3, [r7, #7]
 8004e62:	0112      	lsls	r2, r2, #4
 8004e64:	b2d2      	uxtb	r2, r2
 8004e66:	440b      	add	r3, r1
 8004e68:	f883 2300 	strb.w	r2, [r3, #768]	; 0x300
  }
  else
  {
    SCB->SHP[(((uint32_t)IRQn) & 0xFUL)-4UL] = (uint8_t)((priority << (8U - __NVIC_PRIO_BITS)) & (uint32_t)0xFFUL);
  }
}
 8004e6c:	e00a      	b.n	8004e84 <__NVIC_SetPriority+0x40>
    SCB->SHP[(((uint32_t)IRQn) & 0xFUL)-4UL] = (uint8_t)((priority << (8U - __NVIC_PRIO_BITS)) & (uint32_t)0xFFUL);
 8004e6e:	683b      	ldr	r3, [r7, #0]
 8004e70:	b2da      	uxtb	r2, r3
 8004e72:	4908      	ldr	r1, [pc, #32]	; (8004e94 <__NVIC_SetPriority+0x50>)
 8004e74:	79fb      	ldrb	r3, [r7, #7]
 8004e76:	f003 030f 	and.w	r3, r3, #15
 8004e7a:	3b04      	subs	r3, #4
 8004e7c:	0112      	lsls	r2, r2, #4
 8004e7e:	b2d2      	uxtb	r2, r2
 8004e80:	440b      	add	r3, r1
 8004e82:	761a      	strb	r2, [r3, #24]
}
 8004e84:	bf00      	nop
 8004e86:	370c      	adds	r7, #12
 8004e88:	46bd      	mov	sp, r7
 8004e8a:	bc80      	pop	{r7}
 8004e8c:	4770      	bx	lr
 8004e8e:	bf00      	nop
 8004e90:	e000e100 	.word	0xe000e100
 8004e94:	e000ed00 	.word	0xe000ed00

08004e98 <NVIC_EncodePriority>:
  \param [in]   PreemptPriority  Preemptive priority value (starting from 0).
  \param [in]       SubPriority  Subpriority value (starting from 0).
  \return                        Encoded priority. Value can be used in the function \ref NVIC_SetPriority().
 */
__STATIC_INLINE uint32_t NVIC_EncodePriority (uint32_t PriorityGroup, uint32_t PreemptPriority, uint32_t SubPriority)
{
 8004e98:	b480      	push	{r7}
 8004e9a:	b089      	sub	sp, #36	; 0x24
 8004e9c:	af00      	add	r7, sp, #0
 8004e9e:	60f8      	str	r0, [r7, #12]
 8004ea0:	60b9      	str	r1, [r7, #8]
 8004ea2:	607a      	str	r2, [r7, #4]
  uint32_t PriorityGroupTmp = (PriorityGroup & (uint32_t)0x07UL);   /* only values 0..7 are used          */
 8004ea4:	68fb      	ldr	r3, [r7, #12]
 8004ea6:	f003 0307 	and.w	r3, r3, #7
 8004eaa:	61fb      	str	r3, [r7, #28]
  uint32_t PreemptPriorityBits;
  uint32_t SubPriorityBits;

  PreemptPriorityBits = ((7UL - PriorityGroupTmp) > (uint32_t)(__NVIC_PRIO_BITS)) ? (uint32_t)(__NVIC_PRIO_BITS) : (uint32_t)(7UL - PriorityGroupTmp);
 8004eac:	69fb      	ldr	r3, [r7, #28]
 8004eae:	f1c3 0307 	rsb	r3, r3, #7
 8004eb2:	2b04      	cmp	r3, #4
 8004eb4:	bf28      	it	cs
 8004eb6:	2304      	movcs	r3, #4
 8004eb8:	61bb      	str	r3, [r7, #24]
  SubPriorityBits     = ((PriorityGroupTmp + (uint32_t)(__NVIC_PRIO_BITS)) < (uint32_t)7UL) ? (uint32_t)0UL : (uint32_t)((PriorityGroupTmp - 7UL) + (uint32_t)(__NVIC_PRIO_BITS));
 8004eba:	69fb      	ldr	r3, [r7, #28]
 8004ebc:	3304      	adds	r3, #4
 8004ebe:	2b06      	cmp	r3, #6
 8004ec0:	d902      	bls.n	8004ec8 <NVIC_EncodePriority+0x30>
 8004ec2:	69fb      	ldr	r3, [r7, #28]
 8004ec4:	3b03      	subs	r3, #3
 8004ec6:	e000      	b.n	8004eca <NVIC_EncodePriority+0x32>
 8004ec8:	2300      	movs	r3, #0
 8004eca:	617b      	str	r3, [r7, #20]

  return (
           ((PreemptPriority & (uint32_t)((1UL << (PreemptPriorityBits)) - 1UL)) << SubPriorityBits) |
 8004ecc:	f04f 32ff 	mov.w	r2, #4294967295
 8004ed0:	69bb      	ldr	r3, [r7, #24]
 8004ed2:	fa02 f303 	lsl.w	r3, r2, r3
 8004ed6:	43da      	mvns	r2, r3
 8004ed8:	68bb      	ldr	r3, [r7, #8]
 8004eda:	401a      	ands	r2, r3
 8004edc:	697b      	ldr	r3, [r7, #20]
 8004ede:	409a      	lsls	r2, r3
           ((SubPriority     & (uint32_t)((1UL << (SubPriorityBits    )) - 1UL)))
 8004ee0:	f04f 31ff 	mov.w	r1, #4294967295
 8004ee4:	697b      	ldr	r3, [r7, #20]
 8004ee6:	fa01 f303 	lsl.w	r3, r1, r3
 8004eea:	43d9      	mvns	r1, r3
 8004eec:	687b      	ldr	r3, [r7, #4]
 8004eee:	400b      	ands	r3, r1
           ((PreemptPriority & (uint32_t)((1UL << (PreemptPriorityBits)) - 1UL)) << SubPriorityBits) |
 8004ef0:	4313      	orrs	r3, r2
         );
}
 8004ef2:	4618      	mov	r0, r3
 8004ef4:	3724      	adds	r7, #36	; 0x24
 8004ef6:	46bd      	mov	sp, r7
 8004ef8:	bc80      	pop	{r7}
 8004efa:	4770      	bx	lr

08004efc <SysTick_Config>:
  \note    When the variable <b>__Vendor_SysTickConfig</b> is set to 1, then the
           function <b>SysTick_Config</b> is not included. In this case, the file <b><i>device</i>.h</b>
           must contain a vendor-specific implementation of this function.
 */
__STATIC_INLINE uint32_t SysTick_Config(uint32_t ticks)
{
 8004efc:	b580      	push	{r7, lr}
 8004efe:	b082      	sub	sp, #8
 8004f00:	af00      	add	r7, sp, #0
 8004f02:	6078      	str	r0, [r7, #4]
  if ((ticks - 1UL) > SysTick_LOAD_RELOAD_Msk)
 8004f04:	687b      	ldr	r3, [r7, #4]
 8004f06:	3b01      	subs	r3, #1
 8004f08:	f1b3 7f80 	cmp.w	r3, #16777216	; 0x1000000
 8004f0c:	d301      	bcc.n	8004f12 <SysTick_Config+0x16>
  {
    return (1UL);                                                   /* Reload value impossible */
 8004f0e:	2301      	movs	r3, #1
 8004f10:	e00f      	b.n	8004f32 <SysTick_Config+0x36>
  }

  SysTick->LOAD  = (uint32_t)(ticks - 1UL);                         /* set reload register */
 8004f12:	4a0a      	ldr	r2, [pc, #40]	; (8004f3c <SysTick_Config+0x40>)
 8004f14:	687b      	ldr	r3, [r7, #4]
 8004f16:	3b01      	subs	r3, #1
 8004f18:	6053      	str	r3, [r2, #4]
  NVIC_SetPriority (SysTick_IRQn, (1UL << __NVIC_PRIO_BITS) - 1UL); /* set Priority for Systick Interrupt */
 8004f1a:	210f      	movs	r1, #15
 8004f1c:	f04f 30ff 	mov.w	r0, #4294967295
 8004f20:	f7ff ff90 	bl	8004e44 <__NVIC_SetPriority>
  SysTick->VAL   = 0UL;                                             /* Load the SysTick Counter Value */
 8004f24:	4b05      	ldr	r3, [pc, #20]	; (8004f3c <SysTick_Config+0x40>)
 8004f26:	2200      	movs	r2, #0
 8004f28:	609a      	str	r2, [r3, #8]
  SysTick->CTRL  = SysTick_CTRL_CLKSOURCE_Msk |
 8004f2a:	4b04      	ldr	r3, [pc, #16]	; (8004f3c <SysTick_Config+0x40>)
 8004f2c:	2207      	movs	r2, #7
 8004f2e:	601a      	str	r2, [r3, #0]
                   SysTick_CTRL_TICKINT_Msk   |
                   SysTick_CTRL_ENABLE_Msk;                         /* Enable SysTick IRQ and SysTick Timer */
  return (0UL);                                                     /* Function successful */
 8004f30:	2300      	movs	r3, #0
}
 8004f32:	4618      	mov	r0, r3
 8004f34:	3708      	adds	r7, #8
 8004f36:	46bd      	mov	sp, r7
 8004f38:	bd80      	pop	{r7, pc}
 8004f3a:	bf00      	nop
 8004f3c:	e000e010 	.word	0xe000e010

08004f40 <HAL_NVIC_SetPriorityGrouping>:
  * @note   When the NVIC_PriorityGroup_0 is selected, IRQ preemption is no more possible. 
  *         The pending IRQ priority will be managed only by the subpriority. 
  * @retval None
  */
void HAL_NVIC_SetPriorityGrouping(uint32_t PriorityGroup)
{
 8004f40:	b580      	push	{r7, lr}
 8004f42:	b082      	sub	sp, #8
 8004f44:	af00      	add	r7, sp, #0
 8004f46:	6078      	str	r0, [r7, #4]
  /* Check the parameters */
  assert_param(IS_NVIC_PRIORITY_GROUP(PriorityGroup));
  
  /* Set the PRIGROUP[10:8] bits according to the PriorityGroup parameter value */
  NVIC_SetPriorityGrouping(PriorityGroup);
 8004f48:	6878      	ldr	r0, [r7, #4]
 8004f4a:	f7ff ff2d 	bl	8004da8 <__NVIC_SetPriorityGrouping>
}
 8004f4e:	bf00      	nop
 8004f50:	3708      	adds	r7, #8
 8004f52:	46bd      	mov	sp, r7
 8004f54:	bd80      	pop	{r7, pc}

08004f56 <HAL_NVIC_SetPriority>:
  *         This parameter can be a value between 0 and 15
  *         A lower priority value indicates a higher priority.          
  * @retval None
  */
void HAL_NVIC_SetPriority(IRQn_Type IRQn, uint32_t PreemptPriority, uint32_t SubPriority)
{ 
 8004f56:	b580      	push	{r7, lr}
 8004f58:	b086      	sub	sp, #24
 8004f5a:	af00      	add	r7, sp, #0
 8004f5c:	4603      	mov	r3, r0
 8004f5e:	60b9      	str	r1, [r7, #8]
 8004f60:	607a      	str	r2, [r7, #4]
 8004f62:	73fb      	strb	r3, [r7, #15]
  uint32_t prioritygroup = 0x00U;
 8004f64:	2300      	movs	r3, #0
 8004f66:	617b      	str	r3, [r7, #20]
  
  /* Check the parameters */
  assert_param(IS_NVIC_SUB_PRIORITY(SubPriority));
  assert_param(IS_NVIC_PREEMPTION_PRIORITY(PreemptPriority));
  
  prioritygroup = NVIC_GetPriorityGrouping();
 8004f68:	f7ff ff42 	bl	8004df0 <__NVIC_GetPriorityGrouping>
 8004f6c:	6178      	str	r0, [r7, #20]
  
  NVIC_SetPriority(IRQn, NVIC_EncodePriority(prioritygroup, PreemptPriority, SubPriority));
 8004f6e:	687a      	ldr	r2, [r7, #4]
 8004f70:	68b9      	ldr	r1, [r7, #8]
 8004f72:	6978      	ldr	r0, [r7, #20]
 8004f74:	f7ff ff90 	bl	8004e98 <NVIC_EncodePriority>
 8004f78:	4602      	mov	r2, r0
 8004f7a:	f997 300f 	ldrsb.w	r3, [r7, #15]
 8004f7e:	4611      	mov	r1, r2
 8004f80:	4618      	mov	r0, r3
 8004f82:	f7ff ff5f 	bl	8004e44 <__NVIC_SetPriority>
}
 8004f86:	bf00      	nop
 8004f88:	3718      	adds	r7, #24
 8004f8a:	46bd      	mov	sp, r7
 8004f8c:	bd80      	pop	{r7, pc}

08004f8e <HAL_NVIC_EnableIRQ>:
  *         This parameter can be an enumerator of IRQn_Type enumeration
  *         (For the complete STM32 Devices IRQ Channels list, please refer to the appropriate CMSIS device file (stm32f10xxx.h))
  * @retval None
  */
void HAL_NVIC_EnableIRQ(IRQn_Type IRQn)
{
 8004f8e:	b580      	push	{r7, lr}
 8004f90:	b082      	sub	sp, #8
 8004f92:	af00      	add	r7, sp, #0
 8004f94:	4603      	mov	r3, r0
 8004f96:	71fb      	strb	r3, [r7, #7]
  /* Check the parameters */
  assert_param(IS_NVIC_DEVICE_IRQ(IRQn));

  /* Enable interrupt */
  NVIC_EnableIRQ(IRQn);
 8004f98:	f997 3007 	ldrsb.w	r3, [r7, #7]
 8004f9c:	4618      	mov	r0, r3
 8004f9e:	f7ff ff35 	bl	8004e0c <__NVIC_EnableIRQ>
}
 8004fa2:	bf00      	nop
 8004fa4:	3708      	adds	r7, #8
 8004fa6:	46bd      	mov	sp, r7
 8004fa8:	bd80      	pop	{r7, pc}

08004faa <HAL_SYSTICK_Config>:
  * @param  TicksNumb: Specifies the ticks Number of ticks between two interrupts.
  * @retval status:  - 0  Function succeeded.
  *                  - 1  Function failed.
  */
uint32_t HAL_SYSTICK_Config(uint32_t TicksNumb)
{
 8004faa:	b580      	push	{r7, lr}
 8004fac:	b082      	sub	sp, #8
 8004fae:	af00      	add	r7, sp, #0
 8004fb0:	6078      	str	r0, [r7, #4]
   return SysTick_Config(TicksNumb);
 8004fb2:	6878      	ldr	r0, [r7, #4]
 8004fb4:	f7ff ffa2 	bl	8004efc <SysTick_Config>
 8004fb8:	4603      	mov	r3, r0
}
 8004fba:	4618      	mov	r0, r3
 8004fbc:	3708      	adds	r7, #8
 8004fbe:	46bd      	mov	sp, r7
 8004fc0:	bd80      	pop	{r7, pc}

08004fc2 <HAL_DMA_Abort>:
  * @param  hdma: pointer to a DMA_HandleTypeDef structure that contains
  *               the configuration information for the specified DMA Channel.
  * @retval HAL status
  */
HAL_StatusTypeDef HAL_DMA_Abort(DMA_HandleTypeDef *hdma)
{
 8004fc2:	b480      	push	{r7}
 8004fc4:	b085      	sub	sp, #20
 8004fc6:	af00      	add	r7, sp, #0
 8004fc8:	6078      	str	r0, [r7, #4]
  HAL_StatusTypeDef status = HAL_OK;
 8004fca:	2300      	movs	r3, #0
 8004fcc:	73fb      	strb	r3, [r7, #15]
  
  if(hdma->State != HAL_DMA_STATE_BUSY)
 8004fce:	687b      	ldr	r3, [r7, #4]
 8004fd0:	f893 3021 	ldrb.w	r3, [r3, #33]	; 0x21
 8004fd4:	b2db      	uxtb	r3, r3
 8004fd6:	2b02      	cmp	r3, #2
 8004fd8:	d008      	beq.n	8004fec <HAL_DMA_Abort+0x2a>
  {
    /* no transfer ongoing */
    hdma->ErrorCode = HAL_DMA_ERROR_NO_XFER;
 8004fda:	687b      	ldr	r3, [r7, #4]
 8004fdc:	2204      	movs	r2, #4
 8004fde:	639a      	str	r2, [r3, #56]	; 0x38
    
    /* Process Unlocked */
    __HAL_UNLOCK(hdma);
 8004fe0:	687b      	ldr	r3, [r7, #4]
 8004fe2:	2200      	movs	r2, #0
 8004fe4:	f883 2020 	strb.w	r2, [r3, #32]
    
    return HAL_ERROR;
 8004fe8:	2301      	movs	r3, #1
 8004fea:	e020      	b.n	800502e <HAL_DMA_Abort+0x6c>
  }
  else

  {
    /* Disable DMA IT */
    __HAL_DMA_DISABLE_IT(hdma, (DMA_IT_TC | DMA_IT_HT | DMA_IT_TE));
 8004fec:	687b      	ldr	r3, [r7, #4]
 8004fee:	681b      	ldr	r3, [r3, #0]
 8004ff0:	681a      	ldr	r2, [r3, #0]
 8004ff2:	687b      	ldr	r3, [r7, #4]
 8004ff4:	681b      	ldr	r3, [r3, #0]
 8004ff6:	f022 020e 	bic.w	r2, r2, #14
 8004ffa:	601a      	str	r2, [r3, #0]
      
    /* Disable the channel */
    __HAL_DMA_DISABLE(hdma);
 8004ffc:	687b      	ldr	r3, [r7, #4]
 8004ffe:	681b      	ldr	r3, [r3, #0]
 8005000:	681a      	ldr	r2, [r3, #0]
 8005002:	687b      	ldr	r3, [r7, #4]
 8005004:	681b      	ldr	r3, [r3, #0]
 8005006:	f022 0201 	bic.w	r2, r2, #1
 800500a:	601a      	str	r2, [r3, #0]
      
    /* Clear all flags */
    hdma->DmaBaseAddress->IFCR = (DMA_ISR_GIF1 << hdma->ChannelIndex);
 800500c:	687b      	ldr	r3, [r7, #4]
 800500e:	6c1a      	ldr	r2, [r3, #64]	; 0x40
 8005010:	687b      	ldr	r3, [r7, #4]
 8005012:	6bdb      	ldr	r3, [r3, #60]	; 0x3c
 8005014:	2101      	movs	r1, #1
 8005016:	fa01 f202 	lsl.w	r2, r1, r2
 800501a:	605a      	str	r2, [r3, #4]
  }
  /* Change the DMA state */
  hdma->State = HAL_DMA_STATE_READY;
 800501c:	687b      	ldr	r3, [r7, #4]
 800501e:	2201      	movs	r2, #1
 8005020:	f883 2021 	strb.w	r2, [r3, #33]	; 0x21

  /* Process Unlocked */
  __HAL_UNLOCK(hdma);      
 8005024:	687b      	ldr	r3, [r7, #4]
 8005026:	2200      	movs	r2, #0
 8005028:	f883 2020 	strb.w	r2, [r3, #32]
  
  return status; 
 800502c:	7bfb      	ldrb	r3, [r7, #15]
}
 800502e:	4618      	mov	r0, r3
 8005030:	3714      	adds	r7, #20
 8005032:	46bd      	mov	sp, r7
 8005034:	bc80      	pop	{r7}
 8005036:	4770      	bx	lr

08005038 <HAL_DMA_Abort_IT>:
  * @param  hdma  : pointer to a DMA_HandleTypeDef structure that contains
  *                 the configuration information for the specified DMA Channel.
  * @retval HAL status
  */
HAL_StatusTypeDef HAL_DMA_Abort_IT(DMA_HandleTypeDef *hdma)
{  
 8005038:	b580      	push	{r7, lr}
 800503a:	b084      	sub	sp, #16
 800503c:	af00      	add	r7, sp, #0
 800503e:	6078      	str	r0, [r7, #4]
  HAL_StatusTypeDef status = HAL_OK;
 8005040:	2300      	movs	r3, #0
 8005042:	73fb      	strb	r3, [r7, #15]
  
  if(HAL_DMA_STATE_BUSY != hdma->State)
 8005044:	687b      	ldr	r3, [r7, #4]
 8005046:	f893 3021 	ldrb.w	r3, [r3, #33]	; 0x21
 800504a:	b2db      	uxtb	r3, r3
 800504c:	2b02      	cmp	r3, #2
 800504e:	d005      	beq.n	800505c <HAL_DMA_Abort_IT+0x24>
  {
    /* no transfer ongoing */
    hdma->ErrorCode = HAL_DMA_ERROR_NO_XFER;
 8005050:	687b      	ldr	r3, [r7, #4]
 8005052:	2204      	movs	r2, #4
 8005054:	639a      	str	r2, [r3, #56]	; 0x38
        
    status = HAL_ERROR;
 8005056:	2301      	movs	r3, #1
 8005058:	73fb      	strb	r3, [r7, #15]
 800505a:	e051      	b.n	8005100 <HAL_DMA_Abort_IT+0xc8>
  }
  else
  { 
    /* Disable DMA IT */
    __HAL_DMA_DISABLE_IT(hdma, (DMA_IT_TC | DMA_IT_HT | DMA_IT_TE));
 800505c:	687b      	ldr	r3, [r7, #4]
 800505e:	681b      	ldr	r3, [r3, #0]
 8005060:	681a      	ldr	r2, [r3, #0]
 8005062:	687b      	ldr	r3, [r7, #4]
 8005064:	681b      	ldr	r3, [r3, #0]
 8005066:	f022 020e 	bic.w	r2, r2, #14
 800506a:	601a      	str	r2, [r3, #0]

    /* Disable the channel */
    __HAL_DMA_DISABLE(hdma);
 800506c:	687b      	ldr	r3, [r7, #4]
 800506e:	681b      	ldr	r3, [r3, #0]
 8005070:	681a      	ldr	r2, [r3, #0]
 8005072:	687b      	ldr	r3, [r7, #4]
 8005074:	681b      	ldr	r3, [r3, #0]
 8005076:	f022 0201 	bic.w	r2, r2, #1
 800507a:	601a      	str	r2, [r3, #0]

    /* Clear all flags */
    __HAL_DMA_CLEAR_FLAG(hdma, __HAL_DMA_GET_GI_FLAG_INDEX(hdma));
 800507c:	687b      	ldr	r3, [r7, #4]
 800507e:	681b      	ldr	r3, [r3, #0]
 8005080:	4a22      	ldr	r2, [pc, #136]	; (800510c <HAL_DMA_Abort_IT+0xd4>)
 8005082:	4293      	cmp	r3, r2
 8005084:	d029      	beq.n	80050da <HAL_DMA_Abort_IT+0xa2>
 8005086:	687b      	ldr	r3, [r7, #4]
 8005088:	681b      	ldr	r3, [r3, #0]
 800508a:	4a21      	ldr	r2, [pc, #132]	; (8005110 <HAL_DMA_Abort_IT+0xd8>)
 800508c:	4293      	cmp	r3, r2
 800508e:	d022      	beq.n	80050d6 <HAL_DMA_Abort_IT+0x9e>
 8005090:	687b      	ldr	r3, [r7, #4]
 8005092:	681b      	ldr	r3, [r3, #0]
 8005094:	4a1f      	ldr	r2, [pc, #124]	; (8005114 <HAL_DMA_Abort_IT+0xdc>)
 8005096:	4293      	cmp	r3, r2
 8005098:	d01a      	beq.n	80050d0 <HAL_DMA_Abort_IT+0x98>
 800509a:	687b      	ldr	r3, [r7, #4]
 800509c:	681b      	ldr	r3, [r3, #0]
 800509e:	4a1e      	ldr	r2, [pc, #120]	; (8005118 <HAL_DMA_Abort_IT+0xe0>)
 80050a0:	4293      	cmp	r3, r2
 80050a2:	d012      	beq.n	80050ca <HAL_DMA_Abort_IT+0x92>
 80050a4:	687b      	ldr	r3, [r7, #4]
 80050a6:	681b      	ldr	r3, [r3, #0]
 80050a8:	4a1c      	ldr	r2, [pc, #112]	; (800511c <HAL_DMA_Abort_IT+0xe4>)
 80050aa:	4293      	cmp	r3, r2
 80050ac:	d00a      	beq.n	80050c4 <HAL_DMA_Abort_IT+0x8c>
 80050ae:	687b      	ldr	r3, [r7, #4]
 80050b0:	681b      	ldr	r3, [r3, #0]
 80050b2:	4a1b      	ldr	r2, [pc, #108]	; (8005120 <HAL_DMA_Abort_IT+0xe8>)
 80050b4:	4293      	cmp	r3, r2
 80050b6:	d102      	bne.n	80050be <HAL_DMA_Abort_IT+0x86>
 80050b8:	f44f 1380 	mov.w	r3, #1048576	; 0x100000
 80050bc:	e00e      	b.n	80050dc <HAL_DMA_Abort_IT+0xa4>
 80050be:	f04f 7380 	mov.w	r3, #16777216	; 0x1000000
 80050c2:	e00b      	b.n	80050dc <HAL_DMA_Abort_IT+0xa4>
 80050c4:	f44f 3380 	mov.w	r3, #65536	; 0x10000
 80050c8:	e008      	b.n	80050dc <HAL_DMA_Abort_IT+0xa4>
 80050ca:	f44f 5380 	mov.w	r3, #4096	; 0x1000
 80050ce:	e005      	b.n	80050dc <HAL_DMA_Abort_IT+0xa4>
 80050d0:	f44f 7380 	mov.w	r3, #256	; 0x100
 80050d4:	e002      	b.n	80050dc <HAL_DMA_Abort_IT+0xa4>
 80050d6:	2310      	movs	r3, #16
 80050d8:	e000      	b.n	80050dc <HAL_DMA_Abort_IT+0xa4>
 80050da:	2301      	movs	r3, #1
 80050dc:	4a11      	ldr	r2, [pc, #68]	; (8005124 <HAL_DMA_Abort_IT+0xec>)
 80050de:	6053      	str	r3, [r2, #4]

    /* Change the DMA state */
    hdma->State = HAL_DMA_STATE_READY;
 80050e0:	687b      	ldr	r3, [r7, #4]
 80050e2:	2201      	movs	r2, #1
 80050e4:	f883 2021 	strb.w	r2, [r3, #33]	; 0x21

    /* Process Unlocked */
    __HAL_UNLOCK(hdma);
 80050e8:	687b      	ldr	r3, [r7, #4]
 80050ea:	2200      	movs	r2, #0
 80050ec:	f883 2020 	strb.w	r2, [r3, #32]

    /* Call User Abort callback */
    if(hdma->XferAbortCallback != NULL)
 80050f0:	687b      	ldr	r3, [r7, #4]
 80050f2:	6b5b      	ldr	r3, [r3, #52]	; 0x34
 80050f4:	2b00      	cmp	r3, #0
 80050f6:	d003      	beq.n	8005100 <HAL_DMA_Abort_IT+0xc8>
    {
      hdma->XferAbortCallback(hdma);
 80050f8:	687b      	ldr	r3, [r7, #4]
 80050fa:	6b5b      	ldr	r3, [r3, #52]	; 0x34
 80050fc:	6878      	ldr	r0, [r7, #4]
 80050fe:	4798      	blx	r3
    } 
  }
  return status;
 8005100:	7bfb      	ldrb	r3, [r7, #15]
}
 8005102:	4618      	mov	r0, r3
 8005104:	3710      	adds	r7, #16
 8005106:	46bd      	mov	sp, r7
 8005108:	bd80      	pop	{r7, pc}
 800510a:	bf00      	nop
 800510c:	40020008 	.word	0x40020008
 8005110:	4002001c 	.word	0x4002001c
 8005114:	40020030 	.word	0x40020030
 8005118:	40020044 	.word	0x40020044
 800511c:	40020058 	.word	0x40020058
 8005120:	4002006c 	.word	0x4002006c
 8005124:	40020000 	.word	0x40020000

08005128 <HAL_GPIO_Init>:
  * @param  GPIO_Init: pointer to a GPIO_InitTypeDef structure that contains
  *         the configuration information for the specified GPIO peripheral.
  * @retval None
  */
void HAL_GPIO_Init(GPIO_TypeDef  *GPIOx, GPIO_InitTypeDef *GPIO_Init)
{
 8005128:	b480      	push	{r7}
 800512a:	b08b      	sub	sp, #44	; 0x2c
 800512c:	af00      	add	r7, sp, #0
 800512e:	6078      	str	r0, [r7, #4]
 8005130:	6039      	str	r1, [r7, #0]
  uint32_t position = 0x00u;
 8005132:	2300      	movs	r3, #0
 8005134:	627b      	str	r3, [r7, #36]	; 0x24
  uint32_t ioposition;
  uint32_t iocurrent;
  uint32_t temp;
  uint32_t config = 0x00u;
 8005136:	2300      	movs	r3, #0
 8005138:	623b      	str	r3, [r7, #32]
  assert_param(IS_GPIO_ALL_INSTANCE(GPIOx));
  assert_param(IS_GPIO_PIN(GPIO_Init->Pin));
  assert_param(IS_GPIO_MODE(GPIO_Init->Mode));

  /* Configure the port pins */
  while (((GPIO_Init->Pin) >> position) != 0x00u)
 800513a:	e169      	b.n	8005410 <HAL_GPIO_Init+0x2e8>
  {
    /* Get the IO position */
    ioposition = (0x01uL << position);
 800513c:	2201      	movs	r2, #1
 800513e:	6a7b      	ldr	r3, [r7, #36]	; 0x24
 8005140:	fa02 f303 	lsl.w	r3, r2, r3
 8005144:	61fb      	str	r3, [r7, #28]

    /* Get the current IO position */
    iocurrent = (uint32_t)(GPIO_Init->Pin) & ioposition;
 8005146:	683b      	ldr	r3, [r7, #0]
 8005148:	681b      	ldr	r3, [r3, #0]
 800514a:	69fa      	ldr	r2, [r7, #28]
 800514c:	4013      	ands	r3, r2
 800514e:	61bb      	str	r3, [r7, #24]

    if (iocurrent == ioposition)
 8005150:	69ba      	ldr	r2, [r7, #24]
 8005152:	69fb      	ldr	r3, [r7, #28]
 8005154:	429a      	cmp	r2, r3
 8005156:	f040 8158 	bne.w	800540a <HAL_GPIO_Init+0x2e2>
    {
      /* Check the Alternate function parameters */
      assert_param(IS_GPIO_AF_INSTANCE(GPIOx));

      /* Based on the required mode, filling config variable with MODEy[1:0] and CNFy[3:2] corresponding bits */
      switch (GPIO_Init->Mode)
 800515a:	683b      	ldr	r3, [r7, #0]
 800515c:	685b      	ldr	r3, [r3, #4]
 800515e:	4a9a      	ldr	r2, [pc, #616]	; (80053c8 <HAL_GPIO_Init+0x2a0>)
 8005160:	4293      	cmp	r3, r2
 8005162:	d05e      	beq.n	8005222 <HAL_GPIO_Init+0xfa>
 8005164:	4a98      	ldr	r2, [pc, #608]	; (80053c8 <HAL_GPIO_Init+0x2a0>)
 8005166:	4293      	cmp	r3, r2
 8005168:	d875      	bhi.n	8005256 <HAL_GPIO_Init+0x12e>
 800516a:	4a98      	ldr	r2, [pc, #608]	; (80053cc <HAL_GPIO_Init+0x2a4>)
 800516c:	4293      	cmp	r3, r2
 800516e:	d058      	beq.n	8005222 <HAL_GPIO_Init+0xfa>
 8005170:	4a96      	ldr	r2, [pc, #600]	; (80053cc <HAL_GPIO_Init+0x2a4>)
 8005172:	4293      	cmp	r3, r2
 8005174:	d86f      	bhi.n	8005256 <HAL_GPIO_Init+0x12e>
 8005176:	4a96      	ldr	r2, [pc, #600]	; (80053d0 <HAL_GPIO_Init+0x2a8>)
 8005178:	4293      	cmp	r3, r2
 800517a:	d052      	beq.n	8005222 <HAL_GPIO_Init+0xfa>
 800517c:	4a94      	ldr	r2, [pc, #592]	; (80053d0 <HAL_GPIO_Init+0x2a8>)
 800517e:	4293      	cmp	r3, r2
 8005180:	d869      	bhi.n	8005256 <HAL_GPIO_Init+0x12e>
 8005182:	4a94      	ldr	r2, [pc, #592]	; (80053d4 <HAL_GPIO_Init+0x2ac>)
 8005184:	4293      	cmp	r3, r2
 8005186:	d04c      	beq.n	8005222 <HAL_GPIO_Init+0xfa>
 8005188:	4a92      	ldr	r2, [pc, #584]	; (80053d4 <HAL_GPIO_Init+0x2ac>)
 800518a:	4293      	cmp	r3, r2
 800518c:	d863      	bhi.n	8005256 <HAL_GPIO_Init+0x12e>
 800518e:	4a92      	ldr	r2, [pc, #584]	; (80053d8 <HAL_GPIO_Init+0x2b0>)
 8005190:	4293      	cmp	r3, r2
 8005192:	d046      	beq.n	8005222 <HAL_GPIO_Init+0xfa>
 8005194:	4a90      	ldr	r2, [pc, #576]	; (80053d8 <HAL_GPIO_Init+0x2b0>)
 8005196:	4293      	cmp	r3, r2
 8005198:	d85d      	bhi.n	8005256 <HAL_GPIO_Init+0x12e>
 800519a:	2b12      	cmp	r3, #18
 800519c:	d82a      	bhi.n	80051f4 <HAL_GPIO_Init+0xcc>
 800519e:	2b12      	cmp	r3, #18
 80051a0:	d859      	bhi.n	8005256 <HAL_GPIO_Init+0x12e>
 80051a2:	a201      	add	r2, pc, #4	; (adr r2, 80051a8 <HAL_GPIO_Init+0x80>)
 80051a4:	f852 f023 	ldr.w	pc, [r2, r3, lsl #2]
 80051a8:	08005223 	.word	0x08005223
 80051ac:	080051fd 	.word	0x080051fd
 80051b0:	0800520f 	.word	0x0800520f
 80051b4:	08005251 	.word	0x08005251
 80051b8:	08005257 	.word	0x08005257
 80051bc:	08005257 	.word	0x08005257
 80051c0:	08005257 	.word	0x08005257
 80051c4:	08005257 	.word	0x08005257
 80051c8:	08005257 	.word	0x08005257
 80051cc:	08005257 	.word	0x08005257
 80051d0:	08005257 	.word	0x08005257
 80051d4:	08005257 	.word	0x08005257
 80051d8:	08005257 	.word	0x08005257
 80051dc:	08005257 	.word	0x08005257
 80051e0:	08005257 	.word	0x08005257
 80051e4:	08005257 	.word	0x08005257
 80051e8:	08005257 	.word	0x08005257
 80051ec:	08005205 	.word	0x08005205
 80051f0:	08005219 	.word	0x08005219
 80051f4:	4a79      	ldr	r2, [pc, #484]	; (80053dc <HAL_GPIO_Init+0x2b4>)
 80051f6:	4293      	cmp	r3, r2
 80051f8:	d013      	beq.n	8005222 <HAL_GPIO_Init+0xfa>
          config = GPIO_CR_MODE_INPUT + GPIO_CR_CNF_ANALOG;
          break;

        /* Parameters are checked with assert_param */
        default:
          break;
 80051fa:	e02c      	b.n	8005256 <HAL_GPIO_Init+0x12e>
          config = GPIO_Init->Speed + GPIO_CR_CNF_GP_OUTPUT_PP;
 80051fc:	683b      	ldr	r3, [r7, #0]
 80051fe:	68db      	ldr	r3, [r3, #12]
 8005200:	623b      	str	r3, [r7, #32]
          break;
 8005202:	e029      	b.n	8005258 <HAL_GPIO_Init+0x130>
          config = GPIO_Init->Speed + GPIO_CR_CNF_GP_OUTPUT_OD;
 8005204:	683b      	ldr	r3, [r7, #0]
 8005206:	68db      	ldr	r3, [r3, #12]
 8005208:	3304      	adds	r3, #4
 800520a:	623b      	str	r3, [r7, #32]
          break;
 800520c:	e024      	b.n	8005258 <HAL_GPIO_Init+0x130>
          config = GPIO_Init->Speed + GPIO_CR_CNF_AF_OUTPUT_PP;
 800520e:	683b      	ldr	r3, [r7, #0]
 8005210:	68db      	ldr	r3, [r3, #12]
 8005212:	3308      	adds	r3, #8
 8005214:	623b      	str	r3, [r7, #32]
          break;
 8005216:	e01f      	b.n	8005258 <HAL_GPIO_Init+0x130>
          config = GPIO_Init->Speed + GPIO_CR_CNF_AF_OUTPUT_OD;
 8005218:	683b      	ldr	r3, [r7, #0]
 800521a:	68db      	ldr	r3, [r3, #12]
 800521c:	330c      	adds	r3, #12
 800521e:	623b      	str	r3, [r7, #32]
          break;
 8005220:	e01a      	b.n	8005258 <HAL_GPIO_Init+0x130>
          if (GPIO_Init->Pull == GPIO_NOPULL)
 8005222:	683b      	ldr	r3, [r7, #0]
 8005224:	689b      	ldr	r3, [r3, #8]
 8005226:	2b00      	cmp	r3, #0
 8005228:	d102      	bne.n	8005230 <HAL_GPIO_Init+0x108>
            config = GPIO_CR_MODE_INPUT + GPIO_CR_CNF_INPUT_FLOATING;
 800522a:	2304      	movs	r3, #4
 800522c:	623b      	str	r3, [r7, #32]
          break;
 800522e:	e013      	b.n	8005258 <HAL_GPIO_Init+0x130>
          else if (GPIO_Init->Pull == GPIO_PULLUP)
 8005230:	683b      	ldr	r3, [r7, #0]
 8005232:	689b      	ldr	r3, [r3, #8]
 8005234:	2b01      	cmp	r3, #1
 8005236:	d105      	bne.n	8005244 <HAL_GPIO_Init+0x11c>
            config = GPIO_CR_MODE_INPUT + GPIO_CR_CNF_INPUT_PU_PD;
 8005238:	2308      	movs	r3, #8
 800523a:	623b      	str	r3, [r7, #32]
            GPIOx->BSRR = ioposition;
 800523c:	687b      	ldr	r3, [r7, #4]
 800523e:	69fa      	ldr	r2, [r7, #28]
 8005240:	611a      	str	r2, [r3, #16]
          break;
 8005242:	e009      	b.n	8005258 <HAL_GPIO_Init+0x130>
            config = GPIO_CR_MODE_INPUT + GPIO_CR_CNF_INPUT_PU_PD;
 8005244:	2308      	movs	r3, #8
 8005246:	623b      	str	r3, [r7, #32]
            GPIOx->BRR = ioposition;
 8005248:	687b      	ldr	r3, [r7, #4]
 800524a:	69fa      	ldr	r2, [r7, #28]
 800524c:	615a      	str	r2, [r3, #20]
          break;
 800524e:	e003      	b.n	8005258 <HAL_GPIO_Init+0x130>
          config = GPIO_CR_MODE_INPUT + GPIO_CR_CNF_ANALOG;
 8005250:	2300      	movs	r3, #0
 8005252:	623b      	str	r3, [r7, #32]
          break;
 8005254:	e000      	b.n	8005258 <HAL_GPIO_Init+0x130>
          break;
 8005256:	bf00      	nop
      }

      /* Check if the current bit belongs to first half or last half of the pin count number
       in order to address CRH or CRL register*/
      configregister = (iocurrent < GPIO_PIN_8) ? &GPIOx->CRL     : &GPIOx->CRH;
 8005258:	69bb      	ldr	r3, [r7, #24]
 800525a:	2bff      	cmp	r3, #255	; 0xff
 800525c:	d801      	bhi.n	8005262 <HAL_GPIO_Init+0x13a>
 800525e:	687b      	ldr	r3, [r7, #4]
 8005260:	e001      	b.n	8005266 <HAL_GPIO_Init+0x13e>
 8005262:	687b      	ldr	r3, [r7, #4]
 8005264:	3304      	adds	r3, #4
 8005266:	617b      	str	r3, [r7, #20]
      registeroffset = (iocurrent < GPIO_PIN_8) ? (position << 2u) : ((position - 8u) << 2u);
 8005268:	69bb      	ldr	r3, [r7, #24]
 800526a:	2bff      	cmp	r3, #255	; 0xff
 800526c:	d802      	bhi.n	8005274 <HAL_GPIO_Init+0x14c>
 800526e:	6a7b      	ldr	r3, [r7, #36]	; 0x24
 8005270:	009b      	lsls	r3, r3, #2
 8005272:	e002      	b.n	800527a <HAL_GPIO_Init+0x152>
 8005274:	6a7b      	ldr	r3, [r7, #36]	; 0x24
 8005276:	3b08      	subs	r3, #8
 8005278:	009b      	lsls	r3, r3, #2
 800527a:	613b      	str	r3, [r7, #16]

      /* Apply the new configuration of the pin to the register */
      MODIFY_REG((*configregister), ((GPIO_CRL_MODE0 | GPIO_CRL_CNF0) << registeroffset), (config << registeroffset));
 800527c:	697b      	ldr	r3, [r7, #20]
 800527e:	681a      	ldr	r2, [r3, #0]
 8005280:	210f      	movs	r1, #15
 8005282:	693b      	ldr	r3, [r7, #16]
 8005284:	fa01 f303 	lsl.w	r3, r1, r3
 8005288:	43db      	mvns	r3, r3
 800528a:	401a      	ands	r2, r3
 800528c:	6a39      	ldr	r1, [r7, #32]
 800528e:	693b      	ldr	r3, [r7, #16]
 8005290:	fa01 f303 	lsl.w	r3, r1, r3
 8005294:	431a      	orrs	r2, r3
 8005296:	697b      	ldr	r3, [r7, #20]
 8005298:	601a      	str	r2, [r3, #0]

      /*--------------------- EXTI Mode Configuration ------------------------*/
      /* Configure the External Interrupt or event for the current IO */
      if ((GPIO_Init->Mode & EXTI_MODE) == EXTI_MODE)
 800529a:	683b      	ldr	r3, [r7, #0]
 800529c:	685b      	ldr	r3, [r3, #4]
 800529e:	f003 5380 	and.w	r3, r3, #268435456	; 0x10000000
 80052a2:	2b00      	cmp	r3, #0
 80052a4:	f000 80b1 	beq.w	800540a <HAL_GPIO_Init+0x2e2>
      {
        /* Enable AFIO Clock */
        __HAL_RCC_AFIO_CLK_ENABLE();
 80052a8:	4b4d      	ldr	r3, [pc, #308]	; (80053e0 <HAL_GPIO_Init+0x2b8>)
 80052aa:	699b      	ldr	r3, [r3, #24]
 80052ac:	4a4c      	ldr	r2, [pc, #304]	; (80053e0 <HAL_GPIO_Init+0x2b8>)
 80052ae:	f043 0301 	orr.w	r3, r3, #1
 80052b2:	6193      	str	r3, [r2, #24]
 80052b4:	4b4a      	ldr	r3, [pc, #296]	; (80053e0 <HAL_GPIO_Init+0x2b8>)
 80052b6:	699b      	ldr	r3, [r3, #24]
 80052b8:	f003 0301 	and.w	r3, r3, #1
 80052bc:	60bb      	str	r3, [r7, #8]
 80052be:	68bb      	ldr	r3, [r7, #8]
        temp = AFIO->EXTICR[position >> 2u];
 80052c0:	4a48      	ldr	r2, [pc, #288]	; (80053e4 <HAL_GPIO_Init+0x2bc>)
 80052c2:	6a7b      	ldr	r3, [r7, #36]	; 0x24
 80052c4:	089b      	lsrs	r3, r3, #2
 80052c6:	3302      	adds	r3, #2
 80052c8:	f852 3023 	ldr.w	r3, [r2, r3, lsl #2]
 80052cc:	60fb      	str	r3, [r7, #12]
        CLEAR_BIT(temp, (0x0Fu) << (4u * (position & 0x03u)));
 80052ce:	6a7b      	ldr	r3, [r7, #36]	; 0x24
 80052d0:	f003 0303 	and.w	r3, r3, #3
 80052d4:	009b      	lsls	r3, r3, #2
 80052d6:	220f      	movs	r2, #15
 80052d8:	fa02 f303 	lsl.w	r3, r2, r3
 80052dc:	43db      	mvns	r3, r3
 80052de:	68fa      	ldr	r2, [r7, #12]
 80052e0:	4013      	ands	r3, r2
 80052e2:	60fb      	str	r3, [r7, #12]
        SET_BIT(temp, (GPIO_GET_INDEX(GPIOx)) << (4u * (position & 0x03u)));
 80052e4:	687b      	ldr	r3, [r7, #4]
 80052e6:	4a40      	ldr	r2, [pc, #256]	; (80053e8 <HAL_GPIO_Init+0x2c0>)
 80052e8:	4293      	cmp	r3, r2
 80052ea:	d013      	beq.n	8005314 <HAL_GPIO_Init+0x1ec>
 80052ec:	687b      	ldr	r3, [r7, #4]
 80052ee:	4a3f      	ldr	r2, [pc, #252]	; (80053ec <HAL_GPIO_Init+0x2c4>)
 80052f0:	4293      	cmp	r3, r2
 80052f2:	d00d      	beq.n	8005310 <HAL_GPIO_Init+0x1e8>
 80052f4:	687b      	ldr	r3, [r7, #4]
 80052f6:	4a3e      	ldr	r2, [pc, #248]	; (80053f0 <HAL_GPIO_Init+0x2c8>)
 80052f8:	4293      	cmp	r3, r2
 80052fa:	d007      	beq.n	800530c <HAL_GPIO_Init+0x1e4>
 80052fc:	687b      	ldr	r3, [r7, #4]
 80052fe:	4a3d      	ldr	r2, [pc, #244]	; (80053f4 <HAL_GPIO_Init+0x2cc>)
 8005300:	4293      	cmp	r3, r2
 8005302:	d101      	bne.n	8005308 <HAL_GPIO_Init+0x1e0>
 8005304:	2303      	movs	r3, #3
 8005306:	e006      	b.n	8005316 <HAL_GPIO_Init+0x1ee>
 8005308:	2304      	movs	r3, #4
 800530a:	e004      	b.n	8005316 <HAL_GPIO_Init+0x1ee>
 800530c:	2302      	movs	r3, #2
 800530e:	e002      	b.n	8005316 <HAL_GPIO_Init+0x1ee>
 8005310:	2301      	movs	r3, #1
 8005312:	e000      	b.n	8005316 <HAL_GPIO_Init+0x1ee>
 8005314:	2300      	movs	r3, #0
 8005316:	6a7a      	ldr	r2, [r7, #36]	; 0x24
 8005318:	f002 0203 	and.w	r2, r2, #3
 800531c:	0092      	lsls	r2, r2, #2
 800531e:	4093      	lsls	r3, r2
 8005320:	68fa      	ldr	r2, [r7, #12]
 8005322:	4313      	orrs	r3, r2
 8005324:	60fb      	str	r3, [r7, #12]
        AFIO->EXTICR[position >> 2u] = temp;
 8005326:	492f      	ldr	r1, [pc, #188]	; (80053e4 <HAL_GPIO_Init+0x2bc>)
 8005328:	6a7b      	ldr	r3, [r7, #36]	; 0x24
 800532a:	089b      	lsrs	r3, r3, #2
 800532c:	3302      	adds	r3, #2
 800532e:	68fa      	ldr	r2, [r7, #12]
 8005330:	f841 2023 	str.w	r2, [r1, r3, lsl #2]


        /* Enable or disable the rising trigger */
        if ((GPIO_Init->Mode & RISING_EDGE) == RISING_EDGE)
 8005334:	683b      	ldr	r3, [r7, #0]
 8005336:	685b      	ldr	r3, [r3, #4]
 8005338:	f403 1380 	and.w	r3, r3, #1048576	; 0x100000
 800533c:	2b00      	cmp	r3, #0
 800533e:	d006      	beq.n	800534e <HAL_GPIO_Init+0x226>
        {
          SET_BIT(EXTI->RTSR, iocurrent);
 8005340:	4b2d      	ldr	r3, [pc, #180]	; (80053f8 <HAL_GPIO_Init+0x2d0>)
 8005342:	689a      	ldr	r2, [r3, #8]
 8005344:	492c      	ldr	r1, [pc, #176]	; (80053f8 <HAL_GPIO_Init+0x2d0>)
 8005346:	69bb      	ldr	r3, [r7, #24]
 8005348:	4313      	orrs	r3, r2
 800534a:	608b      	str	r3, [r1, #8]
 800534c:	e006      	b.n	800535c <HAL_GPIO_Init+0x234>
        }
        else
        {
          CLEAR_BIT(EXTI->RTSR, iocurrent);
 800534e:	4b2a      	ldr	r3, [pc, #168]	; (80053f8 <HAL_GPIO_Init+0x2d0>)
 8005350:	689a      	ldr	r2, [r3, #8]
 8005352:	69bb      	ldr	r3, [r7, #24]
 8005354:	43db      	mvns	r3, r3
 8005356:	4928      	ldr	r1, [pc, #160]	; (80053f8 <HAL_GPIO_Init+0x2d0>)
 8005358:	4013      	ands	r3, r2
 800535a:	608b      	str	r3, [r1, #8]
        }

        /* Enable or disable the falling trigger */
        if ((GPIO_Init->Mode & FALLING_EDGE) == FALLING_EDGE)
 800535c:	683b      	ldr	r3, [r7, #0]
 800535e:	685b      	ldr	r3, [r3, #4]
 8005360:	f403 1300 	and.w	r3, r3, #2097152	; 0x200000
 8005364:	2b00      	cmp	r3, #0
 8005366:	d006      	beq.n	8005376 <HAL_GPIO_Init+0x24e>
        {
          SET_BIT(EXTI->FTSR, iocurrent);
 8005368:	4b23      	ldr	r3, [pc, #140]	; (80053f8 <HAL_GPIO_Init+0x2d0>)
 800536a:	68da      	ldr	r2, [r3, #12]
 800536c:	4922      	ldr	r1, [pc, #136]	; (80053f8 <HAL_GPIO_Init+0x2d0>)
 800536e:	69bb      	ldr	r3, [r7, #24]
 8005370:	4313      	orrs	r3, r2
 8005372:	60cb      	str	r3, [r1, #12]
 8005374:	e006      	b.n	8005384 <HAL_GPIO_Init+0x25c>
        }
        else
        {
          CLEAR_BIT(EXTI->FTSR, iocurrent);
 8005376:	4b20      	ldr	r3, [pc, #128]	; (80053f8 <HAL_GPIO_Init+0x2d0>)
 8005378:	68da      	ldr	r2, [r3, #12]
 800537a:	69bb      	ldr	r3, [r7, #24]
 800537c:	43db      	mvns	r3, r3
 800537e:	491e      	ldr	r1, [pc, #120]	; (80053f8 <HAL_GPIO_Init+0x2d0>)
 8005380:	4013      	ands	r3, r2
 8005382:	60cb      	str	r3, [r1, #12]
        }

        /* Configure the event mask */
        if ((GPIO_Init->Mode & GPIO_MODE_EVT) == GPIO_MODE_EVT)
 8005384:	683b      	ldr	r3, [r7, #0]
 8005386:	685b      	ldr	r3, [r3, #4]
 8005388:	f403 3300 	and.w	r3, r3, #131072	; 0x20000
 800538c:	2b00      	cmp	r3, #0
 800538e:	d006      	beq.n	800539e <HAL_GPIO_Init+0x276>
        {
          SET_BIT(EXTI->EMR, iocurrent);
 8005390:	4b19      	ldr	r3, [pc, #100]	; (80053f8 <HAL_GPIO_Init+0x2d0>)
 8005392:	685a      	ldr	r2, [r3, #4]
 8005394:	4918      	ldr	r1, [pc, #96]	; (80053f8 <HAL_GPIO_Init+0x2d0>)
 8005396:	69bb      	ldr	r3, [r7, #24]
 8005398:	4313      	orrs	r3, r2
 800539a:	604b      	str	r3, [r1, #4]
 800539c:	e006      	b.n	80053ac <HAL_GPIO_Init+0x284>
        }
        else
        {
          CLEAR_BIT(EXTI->EMR, iocurrent);
 800539e:	4b16      	ldr	r3, [pc, #88]	; (80053f8 <HAL_GPIO_Init+0x2d0>)
 80053a0:	685a      	ldr	r2, [r3, #4]
 80053a2:	69bb      	ldr	r3, [r7, #24]
 80053a4:	43db      	mvns	r3, r3
 80053a6:	4914      	ldr	r1, [pc, #80]	; (80053f8 <HAL_GPIO_Init+0x2d0>)
 80053a8:	4013      	ands	r3, r2
 80053aa:	604b      	str	r3, [r1, #4]
        }

        /* Configure the interrupt mask */
        if ((GPIO_Init->Mode & GPIO_MODE_IT) == GPIO_MODE_IT)
 80053ac:	683b      	ldr	r3, [r7, #0]
 80053ae:	685b      	ldr	r3, [r3, #4]
 80053b0:	f403 3380 	and.w	r3, r3, #65536	; 0x10000
 80053b4:	2b00      	cmp	r3, #0
 80053b6:	d021      	beq.n	80053fc <HAL_GPIO_Init+0x2d4>
        {
          SET_BIT(EXTI->IMR, iocurrent);
 80053b8:	4b0f      	ldr	r3, [pc, #60]	; (80053f8 <HAL_GPIO_Init+0x2d0>)
 80053ba:	681a      	ldr	r2, [r3, #0]
 80053bc:	490e      	ldr	r1, [pc, #56]	; (80053f8 <HAL_GPIO_Init+0x2d0>)
 80053be:	69bb      	ldr	r3, [r7, #24]
 80053c0:	4313      	orrs	r3, r2
 80053c2:	600b      	str	r3, [r1, #0]
 80053c4:	e021      	b.n	800540a <HAL_GPIO_Init+0x2e2>
 80053c6:	bf00      	nop
 80053c8:	10320000 	.word	0x10320000
 80053cc:	10310000 	.word	0x10310000
 80053d0:	10220000 	.word	0x10220000
 80053d4:	10210000 	.word	0x10210000
 80053d8:	10120000 	.word	0x10120000
 80053dc:	10110000 	.word	0x10110000
 80053e0:	40021000 	.word	0x40021000
 80053e4:	40010000 	.word	0x40010000
 80053e8:	40010800 	.word	0x40010800
 80053ec:	40010c00 	.word	0x40010c00
 80053f0:	40011000 	.word	0x40011000
 80053f4:	40011400 	.word	0x40011400
 80053f8:	40010400 	.word	0x40010400
        }
        else
        {
          CLEAR_BIT(EXTI->IMR, iocurrent);
 80053fc:	4b0b      	ldr	r3, [pc, #44]	; (800542c <HAL_GPIO_Init+0x304>)
 80053fe:	681a      	ldr	r2, [r3, #0]
 8005400:	69bb      	ldr	r3, [r7, #24]
 8005402:	43db      	mvns	r3, r3
 8005404:	4909      	ldr	r1, [pc, #36]	; (800542c <HAL_GPIO_Init+0x304>)
 8005406:	4013      	ands	r3, r2
 8005408:	600b      	str	r3, [r1, #0]
        }
      }
    }

	position++;
 800540a:	6a7b      	ldr	r3, [r7, #36]	; 0x24
 800540c:	3301      	adds	r3, #1
 800540e:	627b      	str	r3, [r7, #36]	; 0x24
  while (((GPIO_Init->Pin) >> position) != 0x00u)
 8005410:	683b      	ldr	r3, [r7, #0]
 8005412:	681a      	ldr	r2, [r3, #0]
 8005414:	6a7b      	ldr	r3, [r7, #36]	; 0x24
 8005416:	fa22 f303 	lsr.w	r3, r2, r3
 800541a:	2b00      	cmp	r3, #0
 800541c:	f47f ae8e 	bne.w	800513c <HAL_GPIO_Init+0x14>
  }
}
 8005420:	bf00      	nop
 8005422:	bf00      	nop
 8005424:	372c      	adds	r7, #44	; 0x2c
 8005426:	46bd      	mov	sp, r7
 8005428:	bc80      	pop	{r7}
 800542a:	4770      	bx	lr
 800542c:	40010400 	.word	0x40010400

08005430 <HAL_GPIO_WritePin>:
  *            @arg GPIO_PIN_RESET: to clear the port pin
  *            @arg GPIO_PIN_SET: to set the port pin
  * @retval None
  */
void HAL_GPIO_WritePin(GPIO_TypeDef *GPIOx, uint16_t GPIO_Pin, GPIO_PinState PinState)
{
 8005430:	b480      	push	{r7}
 8005432:	b083      	sub	sp, #12
 8005434:	af00      	add	r7, sp, #0
 8005436:	6078      	str	r0, [r7, #4]
 8005438:	460b      	mov	r3, r1
 800543a:	807b      	strh	r3, [r7, #2]
 800543c:	4613      	mov	r3, r2
 800543e:	707b      	strb	r3, [r7, #1]
  /* Check the parameters */
  assert_param(IS_GPIO_PIN(GPIO_Pin));
  assert_param(IS_GPIO_PIN_ACTION(PinState));

  if (PinState != GPIO_PIN_RESET)
 8005440:	787b      	ldrb	r3, [r7, #1]
 8005442:	2b00      	cmp	r3, #0
 8005444:	d003      	beq.n	800544e <HAL_GPIO_WritePin+0x1e>
  {
    GPIOx->BSRR = GPIO_Pin;
 8005446:	887a      	ldrh	r2, [r7, #2]
 8005448:	687b      	ldr	r3, [r7, #4]
 800544a:	611a      	str	r2, [r3, #16]
  }
  else
  {
    GPIOx->BSRR = (uint32_t)GPIO_Pin << 16u;
  }
}
 800544c:	e003      	b.n	8005456 <HAL_GPIO_WritePin+0x26>
    GPIOx->BSRR = (uint32_t)GPIO_Pin << 16u;
 800544e:	887b      	ldrh	r3, [r7, #2]
 8005450:	041a      	lsls	r2, r3, #16
 8005452:	687b      	ldr	r3, [r7, #4]
 8005454:	611a      	str	r2, [r3, #16]
}
 8005456:	bf00      	nop
 8005458:	370c      	adds	r7, #12
 800545a:	46bd      	mov	sp, r7
 800545c:	bc80      	pop	{r7}
 800545e:	4770      	bx	lr

08005460 <HAL_I2C_Init>:
  * @param  hi2c Pointer to a I2C_HandleTypeDef structure that contains
  *                the configuration information for the specified I2C.
  * @retval HAL status
  */
HAL_StatusTypeDef HAL_I2C_Init(I2C_HandleTypeDef *hi2c)
{
 8005460:	b580      	push	{r7, lr}
 8005462:	b084      	sub	sp, #16
 8005464:	af00      	add	r7, sp, #0
 8005466:	6078      	str	r0, [r7, #4]
  uint32_t freqrange;
  uint32_t pclk1;

  /* Check the I2C handle allocation */
  if (hi2c == NULL)
 8005468:	687b      	ldr	r3, [r7, #4]
 800546a:	2b00      	cmp	r3, #0
 800546c:	d101      	bne.n	8005472 <HAL_I2C_Init+0x12>
  {
    return HAL_ERROR;
 800546e:	2301      	movs	r3, #1
 8005470:	e12b      	b.n	80056ca <HAL_I2C_Init+0x26a>
  assert_param(IS_I2C_DUAL_ADDRESS(hi2c->Init.DualAddressMode));
  assert_param(IS_I2C_OWN_ADDRESS2(hi2c->Init.OwnAddress2));
  assert_param(IS_I2C_GENERAL_CALL(hi2c->Init.GeneralCallMode));
  assert_param(IS_I2C_NO_STRETCH(hi2c->Init.NoStretchMode));

  if (hi2c->State == HAL_I2C_STATE_RESET)
 8005472:	687b      	ldr	r3, [r7, #4]
 8005474:	f893 303d 	ldrb.w	r3, [r3, #61]	; 0x3d
 8005478:	b2db      	uxtb	r3, r3
 800547a:	2b00      	cmp	r3, #0
 800547c:	d106      	bne.n	800548c <HAL_I2C_Init+0x2c>
  {
    /* Allocate lock resource and initialize it */
    hi2c->Lock = HAL_UNLOCKED;
 800547e:	687b      	ldr	r3, [r7, #4]
 8005480:	2200      	movs	r2, #0
 8005482:	f883 203c 	strb.w	r2, [r3, #60]	; 0x3c

    /* Init the low level hardware : GPIO, CLOCK, NVIC */
    hi2c->MspInitCallback(hi2c);
#else
    /* Init the low level hardware : GPIO, CLOCK, NVIC */
    HAL_I2C_MspInit(hi2c);
 8005486:	6878      	ldr	r0, [r7, #4]
 8005488:	f7ff fa2c 	bl	80048e4 <HAL_I2C_MspInit>
#endif /* USE_HAL_I2C_REGISTER_CALLBACKS */
  }

  hi2c->State = HAL_I2C_STATE_BUSY;
 800548c:	687b      	ldr	r3, [r7, #4]
 800548e:	2224      	movs	r2, #36	; 0x24
 8005490:	f883 203d 	strb.w	r2, [r3, #61]	; 0x3d

  /* Disable the selected I2C peripheral */
  __HAL_I2C_DISABLE(hi2c);
 8005494:	687b      	ldr	r3, [r7, #4]
 8005496:	681b      	ldr	r3, [r3, #0]
 8005498:	681a      	ldr	r2, [r3, #0]
 800549a:	687b      	ldr	r3, [r7, #4]
 800549c:	681b      	ldr	r3, [r3, #0]
 800549e:	f022 0201 	bic.w	r2, r2, #1
 80054a2:	601a      	str	r2, [r3, #0]

  /*Reset I2C*/
  hi2c->Instance->CR1 |= I2C_CR1_SWRST;
 80054a4:	687b      	ldr	r3, [r7, #4]
 80054a6:	681b      	ldr	r3, [r3, #0]
 80054a8:	681a      	ldr	r2, [r3, #0]
 80054aa:	687b      	ldr	r3, [r7, #4]
 80054ac:	681b      	ldr	r3, [r3, #0]
 80054ae:	f442 4200 	orr.w	r2, r2, #32768	; 0x8000
 80054b2:	601a      	str	r2, [r3, #0]
  hi2c->Instance->CR1 &= ~I2C_CR1_SWRST;
 80054b4:	687b      	ldr	r3, [r7, #4]
 80054b6:	681b      	ldr	r3, [r3, #0]
 80054b8:	681a      	ldr	r2, [r3, #0]
 80054ba:	687b      	ldr	r3, [r7, #4]
 80054bc:	681b      	ldr	r3, [r3, #0]
 80054be:	f422 4200 	bic.w	r2, r2, #32768	; 0x8000
 80054c2:	601a      	str	r2, [r3, #0]

  /* Get PCLK1 frequency */
  pclk1 = HAL_RCC_GetPCLK1Freq();
 80054c4:	f001 fbf0 	bl	8006ca8 <HAL_RCC_GetPCLK1Freq>
 80054c8:	60f8      	str	r0, [r7, #12]

  /* Check the minimum allowed PCLK1 frequency */
  if (I2C_MIN_PCLK_FREQ(pclk1, hi2c->Init.ClockSpeed) == 1U)
 80054ca:	687b      	ldr	r3, [r7, #4]
 80054cc:	685b      	ldr	r3, [r3, #4]
 80054ce:	4a81      	ldr	r2, [pc, #516]	; (80056d4 <HAL_I2C_Init+0x274>)
 80054d0:	4293      	cmp	r3, r2
 80054d2:	d807      	bhi.n	80054e4 <HAL_I2C_Init+0x84>
 80054d4:	68fb      	ldr	r3, [r7, #12]
 80054d6:	4a80      	ldr	r2, [pc, #512]	; (80056d8 <HAL_I2C_Init+0x278>)
 80054d8:	4293      	cmp	r3, r2
 80054da:	bf94      	ite	ls
 80054dc:	2301      	movls	r3, #1
 80054de:	2300      	movhi	r3, #0
 80054e0:	b2db      	uxtb	r3, r3
 80054e2:	e006      	b.n	80054f2 <HAL_I2C_Init+0x92>
 80054e4:	68fb      	ldr	r3, [r7, #12]
 80054e6:	4a7d      	ldr	r2, [pc, #500]	; (80056dc <HAL_I2C_Init+0x27c>)
 80054e8:	4293      	cmp	r3, r2
 80054ea:	bf94      	ite	ls
 80054ec:	2301      	movls	r3, #1
 80054ee:	2300      	movhi	r3, #0
 80054f0:	b2db      	uxtb	r3, r3
 80054f2:	2b00      	cmp	r3, #0
 80054f4:	d001      	beq.n	80054fa <HAL_I2C_Init+0x9a>
  {
    return HAL_ERROR;
 80054f6:	2301      	movs	r3, #1
 80054f8:	e0e7      	b.n	80056ca <HAL_I2C_Init+0x26a>
  }

  /* Calculate frequency range */
  freqrange = I2C_FREQRANGE(pclk1);
 80054fa:	68fb      	ldr	r3, [r7, #12]
 80054fc:	4a78      	ldr	r2, [pc, #480]	; (80056e0 <HAL_I2C_Init+0x280>)
 80054fe:	fba2 2303 	umull	r2, r3, r2, r3
 8005502:	0c9b      	lsrs	r3, r3, #18
 8005504:	60bb      	str	r3, [r7, #8]

  /*---------------------------- I2Cx CR2 Configuration ----------------------*/
  /* Configure I2Cx: Frequency range */
  MODIFY_REG(hi2c->Instance->CR2, I2C_CR2_FREQ, freqrange);
 8005506:	687b      	ldr	r3, [r7, #4]
 8005508:	681b      	ldr	r3, [r3, #0]
 800550a:	685b      	ldr	r3, [r3, #4]
 800550c:	f023 013f 	bic.w	r1, r3, #63	; 0x3f
 8005510:	687b      	ldr	r3, [r7, #4]
 8005512:	681b      	ldr	r3, [r3, #0]
 8005514:	68ba      	ldr	r2, [r7, #8]
 8005516:	430a      	orrs	r2, r1
 8005518:	605a      	str	r2, [r3, #4]

  /*---------------------------- I2Cx TRISE Configuration --------------------*/
  /* Configure I2Cx: Rise Time */
  MODIFY_REG(hi2c->Instance->TRISE, I2C_TRISE_TRISE, I2C_RISE_TIME(freqrange, hi2c->Init.ClockSpeed));
 800551a:	687b      	ldr	r3, [r7, #4]
 800551c:	681b      	ldr	r3, [r3, #0]
 800551e:	6a1b      	ldr	r3, [r3, #32]
 8005520:	f023 013f 	bic.w	r1, r3, #63	; 0x3f
 8005524:	687b      	ldr	r3, [r7, #4]
 8005526:	685b      	ldr	r3, [r3, #4]
 8005528:	4a6a      	ldr	r2, [pc, #424]	; (80056d4 <HAL_I2C_Init+0x274>)
 800552a:	4293      	cmp	r3, r2
 800552c:	d802      	bhi.n	8005534 <HAL_I2C_Init+0xd4>
 800552e:	68bb      	ldr	r3, [r7, #8]
 8005530:	3301      	adds	r3, #1
 8005532:	e009      	b.n	8005548 <HAL_I2C_Init+0xe8>
 8005534:	68bb      	ldr	r3, [r7, #8]
 8005536:	f44f 7296 	mov.w	r2, #300	; 0x12c
 800553a:	fb02 f303 	mul.w	r3, r2, r3
 800553e:	4a69      	ldr	r2, [pc, #420]	; (80056e4 <HAL_I2C_Init+0x284>)
 8005540:	fba2 2303 	umull	r2, r3, r2, r3
 8005544:	099b      	lsrs	r3, r3, #6
 8005546:	3301      	adds	r3, #1
 8005548:	687a      	ldr	r2, [r7, #4]
 800554a:	6812      	ldr	r2, [r2, #0]
 800554c:	430b      	orrs	r3, r1
 800554e:	6213      	str	r3, [r2, #32]

  /*---------------------------- I2Cx CCR Configuration ----------------------*/
  /* Configure I2Cx: Speed */
  MODIFY_REG(hi2c->Instance->CCR, (I2C_CCR_FS | I2C_CCR_DUTY | I2C_CCR_CCR), I2C_SPEED(pclk1, hi2c->Init.ClockSpeed, hi2c->Init.DutyCycle));
 8005550:	687b      	ldr	r3, [r7, #4]
 8005552:	681b      	ldr	r3, [r3, #0]
 8005554:	69db      	ldr	r3, [r3, #28]
 8005556:	f423 424f 	bic.w	r2, r3, #52992	; 0xcf00
 800555a:	f022 02ff 	bic.w	r2, r2, #255	; 0xff
 800555e:	687b      	ldr	r3, [r7, #4]
 8005560:	685b      	ldr	r3, [r3, #4]
 8005562:	495c      	ldr	r1, [pc, #368]	; (80056d4 <HAL_I2C_Init+0x274>)
 8005564:	428b      	cmp	r3, r1
 8005566:	d819      	bhi.n	800559c <HAL_I2C_Init+0x13c>
 8005568:	68fb      	ldr	r3, [r7, #12]
 800556a:	1e59      	subs	r1, r3, #1
 800556c:	687b      	ldr	r3, [r7, #4]
 800556e:	685b      	ldr	r3, [r3, #4]
 8005570:	005b      	lsls	r3, r3, #1
 8005572:	fbb1 f3f3 	udiv	r3, r1, r3
 8005576:	1c59      	adds	r1, r3, #1
 8005578:	f640 73fc 	movw	r3, #4092	; 0xffc
 800557c:	400b      	ands	r3, r1
 800557e:	2b00      	cmp	r3, #0
 8005580:	d00a      	beq.n	8005598 <HAL_I2C_Init+0x138>
 8005582:	68fb      	ldr	r3, [r7, #12]
 8005584:	1e59      	subs	r1, r3, #1
 8005586:	687b      	ldr	r3, [r7, #4]
 8005588:	685b      	ldr	r3, [r3, #4]
 800558a:	005b      	lsls	r3, r3, #1
 800558c:	fbb1 f3f3 	udiv	r3, r1, r3
 8005590:	3301      	adds	r3, #1
 8005592:	f3c3 030b 	ubfx	r3, r3, #0, #12
 8005596:	e051      	b.n	800563c <HAL_I2C_Init+0x1dc>
 8005598:	2304      	movs	r3, #4
 800559a:	e04f      	b.n	800563c <HAL_I2C_Init+0x1dc>
 800559c:	687b      	ldr	r3, [r7, #4]
 800559e:	689b      	ldr	r3, [r3, #8]
 80055a0:	2b00      	cmp	r3, #0
 80055a2:	d111      	bne.n	80055c8 <HAL_I2C_Init+0x168>
 80055a4:	68fb      	ldr	r3, [r7, #12]
 80055a6:	1e58      	subs	r0, r3, #1
 80055a8:	687b      	ldr	r3, [r7, #4]
 80055aa:	6859      	ldr	r1, [r3, #4]
 80055ac:	460b      	mov	r3, r1
 80055ae:	005b      	lsls	r3, r3, #1
 80055b0:	440b      	add	r3, r1
 80055b2:	fbb0 f3f3 	udiv	r3, r0, r3
 80055b6:	3301      	adds	r3, #1
 80055b8:	f3c3 030b 	ubfx	r3, r3, #0, #12
 80055bc:	2b00      	cmp	r3, #0
 80055be:	bf0c      	ite	eq
 80055c0:	2301      	moveq	r3, #1
 80055c2:	2300      	movne	r3, #0
 80055c4:	b2db      	uxtb	r3, r3
 80055c6:	e012      	b.n	80055ee <HAL_I2C_Init+0x18e>
 80055c8:	68fb      	ldr	r3, [r7, #12]
 80055ca:	1e58      	subs	r0, r3, #1
 80055cc:	687b      	ldr	r3, [r7, #4]
 80055ce:	6859      	ldr	r1, [r3, #4]
 80055d0:	460b      	mov	r3, r1
 80055d2:	009b      	lsls	r3, r3, #2
 80055d4:	440b      	add	r3, r1
 80055d6:	0099      	lsls	r1, r3, #2
 80055d8:	440b      	add	r3, r1
 80055da:	fbb0 f3f3 	udiv	r3, r0, r3
 80055de:	3301      	adds	r3, #1
 80055e0:	f3c3 030b 	ubfx	r3, r3, #0, #12
 80055e4:	2b00      	cmp	r3, #0
 80055e6:	bf0c      	ite	eq
 80055e8:	2301      	moveq	r3, #1
 80055ea:	2300      	movne	r3, #0
 80055ec:	b2db      	uxtb	r3, r3
 80055ee:	2b00      	cmp	r3, #0
 80055f0:	d001      	beq.n	80055f6 <HAL_I2C_Init+0x196>
 80055f2:	2301      	movs	r3, #1
 80055f4:	e022      	b.n	800563c <HAL_I2C_Init+0x1dc>
 80055f6:	687b      	ldr	r3, [r7, #4]
 80055f8:	689b      	ldr	r3, [r3, #8]
 80055fa:	2b00      	cmp	r3, #0
 80055fc:	d10e      	bne.n	800561c <HAL_I2C_Init+0x1bc>
 80055fe:	68fb      	ldr	r3, [r7, #12]
 8005600:	1e58      	subs	r0, r3, #1
 8005602:	687b      	ldr	r3, [r7, #4]
 8005604:	6859      	ldr	r1, [r3, #4]
 8005606:	460b      	mov	r3, r1
 8005608:	005b      	lsls	r3, r3, #1
 800560a:	440b      	add	r3, r1
 800560c:	fbb0 f3f3 	udiv	r3, r0, r3
 8005610:	3301      	adds	r3, #1
 8005612:	f3c3 030b 	ubfx	r3, r3, #0, #12
 8005616:	f443 4300 	orr.w	r3, r3, #32768	; 0x8000
 800561a:	e00f      	b.n	800563c <HAL_I2C_Init+0x1dc>
 800561c:	68fb      	ldr	r3, [r7, #12]
 800561e:	1e58      	subs	r0, r3, #1
 8005620:	687b      	ldr	r3, [r7, #4]
 8005622:	6859      	ldr	r1, [r3, #4]
 8005624:	460b      	mov	r3, r1
 8005626:	009b      	lsls	r3, r3, #2
 8005628:	440b      	add	r3, r1
 800562a:	0099      	lsls	r1, r3, #2
 800562c:	440b      	add	r3, r1
 800562e:	fbb0 f3f3 	udiv	r3, r0, r3
 8005632:	3301      	adds	r3, #1
 8005634:	f3c3 030b 	ubfx	r3, r3, #0, #12
 8005638:	f443 4340 	orr.w	r3, r3, #49152	; 0xc000
 800563c:	6879      	ldr	r1, [r7, #4]
 800563e:	6809      	ldr	r1, [r1, #0]
 8005640:	4313      	orrs	r3, r2
 8005642:	61cb      	str	r3, [r1, #28]

  /*---------------------------- I2Cx CR1 Configuration ----------------------*/
  /* Configure I2Cx: Generalcall and NoStretch mode */
  MODIFY_REG(hi2c->Instance->CR1, (I2C_CR1_ENGC | I2C_CR1_NOSTRETCH), (hi2c->Init.GeneralCallMode | hi2c->Init.NoStretchMode));
 8005644:	687b      	ldr	r3, [r7, #4]
 8005646:	681b      	ldr	r3, [r3, #0]
 8005648:	681b      	ldr	r3, [r3, #0]
 800564a:	f023 01c0 	bic.w	r1, r3, #192	; 0xc0
 800564e:	687b      	ldr	r3, [r7, #4]
 8005650:	69da      	ldr	r2, [r3, #28]
 8005652:	687b      	ldr	r3, [r7, #4]
 8005654:	6a1b      	ldr	r3, [r3, #32]
 8005656:	431a      	orrs	r2, r3
 8005658:	687b      	ldr	r3, [r7, #4]
 800565a:	681b      	ldr	r3, [r3, #0]
 800565c:	430a      	orrs	r2, r1
 800565e:	601a      	str	r2, [r3, #0]

  /*---------------------------- I2Cx OAR1 Configuration ---------------------*/
  /* Configure I2Cx: Own Address1 and addressing mode */
  MODIFY_REG(hi2c->Instance->OAR1, (I2C_OAR1_ADDMODE | I2C_OAR1_ADD8_9 | I2C_OAR1_ADD1_7 | I2C_OAR1_ADD0), (hi2c->Init.AddressingMode | hi2c->Init.OwnAddress1));
 8005660:	687b      	ldr	r3, [r7, #4]
 8005662:	681b      	ldr	r3, [r3, #0]
 8005664:	689b      	ldr	r3, [r3, #8]
 8005666:	f423 4303 	bic.w	r3, r3, #33536	; 0x8300
 800566a:	f023 03ff 	bic.w	r3, r3, #255	; 0xff
 800566e:	687a      	ldr	r2, [r7, #4]
 8005670:	6911      	ldr	r1, [r2, #16]
 8005672:	687a      	ldr	r2, [r7, #4]
 8005674:	68d2      	ldr	r2, [r2, #12]
 8005676:	4311      	orrs	r1, r2
 8005678:	687a      	ldr	r2, [r7, #4]
 800567a:	6812      	ldr	r2, [r2, #0]
 800567c:	430b      	orrs	r3, r1
 800567e:	6093      	str	r3, [r2, #8]

  /*---------------------------- I2Cx OAR2 Configuration ---------------------*/
  /* Configure I2Cx: Dual mode and Own Address2 */
  MODIFY_REG(hi2c->Instance->OAR2, (I2C_OAR2_ENDUAL | I2C_OAR2_ADD2), (hi2c->Init.DualAddressMode | hi2c->Init.OwnAddress2));
 8005680:	687b      	ldr	r3, [r7, #4]
 8005682:	681b      	ldr	r3, [r3, #0]
 8005684:	68db      	ldr	r3, [r3, #12]
 8005686:	f023 01ff 	bic.w	r1, r3, #255	; 0xff
 800568a:	687b      	ldr	r3, [r7, #4]
 800568c:	695a      	ldr	r2, [r3, #20]
 800568e:	687b      	ldr	r3, [r7, #4]
 8005690:	699b      	ldr	r3, [r3, #24]
 8005692:	431a      	orrs	r2, r3
 8005694:	687b      	ldr	r3, [r7, #4]
 8005696:	681b      	ldr	r3, [r3, #0]
 8005698:	430a      	orrs	r2, r1
 800569a:	60da      	str	r2, [r3, #12]

  /* Enable the selected I2C peripheral */
  __HAL_I2C_ENABLE(hi2c);
 800569c:	687b      	ldr	r3, [r7, #4]
 800569e:	681b      	ldr	r3, [r3, #0]
 80056a0:	681a      	ldr	r2, [r3, #0]
 80056a2:	687b      	ldr	r3, [r7, #4]
 80056a4:	681b      	ldr	r3, [r3, #0]
 80056a6:	f042 0201 	orr.w	r2, r2, #1
 80056aa:	601a      	str	r2, [r3, #0]

  hi2c->ErrorCode = HAL_I2C_ERROR_NONE;
 80056ac:	687b      	ldr	r3, [r7, #4]
 80056ae:	2200      	movs	r2, #0
 80056b0:	641a      	str	r2, [r3, #64]	; 0x40
  hi2c->State = HAL_I2C_STATE_READY;
 80056b2:	687b      	ldr	r3, [r7, #4]
 80056b4:	2220      	movs	r2, #32
 80056b6:	f883 203d 	strb.w	r2, [r3, #61]	; 0x3d
  hi2c->PreviousState = I2C_STATE_NONE;
 80056ba:	687b      	ldr	r3, [r7, #4]
 80056bc:	2200      	movs	r2, #0
 80056be:	631a      	str	r2, [r3, #48]	; 0x30
  hi2c->Mode = HAL_I2C_MODE_NONE;
 80056c0:	687b      	ldr	r3, [r7, #4]
 80056c2:	2200      	movs	r2, #0
 80056c4:	f883 203e 	strb.w	r2, [r3, #62]	; 0x3e

  return HAL_OK;
 80056c8:	2300      	movs	r3, #0
}
 80056ca:	4618      	mov	r0, r3
 80056cc:	3710      	adds	r7, #16
 80056ce:	46bd      	mov	sp, r7
 80056d0:	bd80      	pop	{r7, pc}
 80056d2:	bf00      	nop
 80056d4:	000186a0 	.word	0x000186a0
 80056d8:	001e847f 	.word	0x001e847f
 80056dc:	003d08ff 	.word	0x003d08ff
 80056e0:	431bde83 	.word	0x431bde83
 80056e4:	10624dd3 	.word	0x10624dd3

080056e8 <HAL_I2C_Mem_Write>:
  * @param  Size Amount of data to be sent
  * @param  Timeout Timeout duration
  * @retval HAL status
  */
HAL_StatusTypeDef HAL_I2C_Mem_Write(I2C_HandleTypeDef *hi2c, uint16_t DevAddress, uint16_t MemAddress, uint16_t MemAddSize, uint8_t *pData, uint16_t Size, uint32_t Timeout)
{
 80056e8:	b580      	push	{r7, lr}
 80056ea:	b088      	sub	sp, #32
 80056ec:	af02      	add	r7, sp, #8
 80056ee:	60f8      	str	r0, [r7, #12]
 80056f0:	4608      	mov	r0, r1
 80056f2:	4611      	mov	r1, r2
 80056f4:	461a      	mov	r2, r3
 80056f6:	4603      	mov	r3, r0
 80056f8:	817b      	strh	r3, [r7, #10]
 80056fa:	460b      	mov	r3, r1
 80056fc:	813b      	strh	r3, [r7, #8]
 80056fe:	4613      	mov	r3, r2
 8005700:	80fb      	strh	r3, [r7, #6]
  /* Init tickstart for timeout management*/
  uint32_t tickstart = HAL_GetTick();
 8005702:	f7ff fb47 	bl	8004d94 <HAL_GetTick>
 8005706:	6178      	str	r0, [r7, #20]

  /* Check the parameters */
  assert_param(IS_I2C_MEMADD_SIZE(MemAddSize));

  if (hi2c->State == HAL_I2C_STATE_READY)
 8005708:	68fb      	ldr	r3, [r7, #12]
 800570a:	f893 303d 	ldrb.w	r3, [r3, #61]	; 0x3d
 800570e:	b2db      	uxtb	r3, r3
 8005710:	2b20      	cmp	r3, #32
 8005712:	f040 80d9 	bne.w	80058c8 <HAL_I2C_Mem_Write+0x1e0>
  {
    /* Wait until BUSY flag is reset */
    if (I2C_WaitOnFlagUntilTimeout(hi2c, I2C_FLAG_BUSY, SET, I2C_TIMEOUT_BUSY_FLAG, tickstart) != HAL_OK)
 8005716:	697b      	ldr	r3, [r7, #20]
 8005718:	9300      	str	r3, [sp, #0]
 800571a:	2319      	movs	r3, #25
 800571c:	2201      	movs	r2, #1
 800571e:	496d      	ldr	r1, [pc, #436]	; (80058d4 <HAL_I2C_Mem_Write+0x1ec>)
 8005720:	68f8      	ldr	r0, [r7, #12]
 8005722:	f000 fcc1 	bl	80060a8 <I2C_WaitOnFlagUntilTimeout>
 8005726:	4603      	mov	r3, r0
 8005728:	2b00      	cmp	r3, #0
 800572a:	d001      	beq.n	8005730 <HAL_I2C_Mem_Write+0x48>
    {
      return HAL_BUSY;
 800572c:	2302      	movs	r3, #2
 800572e:	e0cc      	b.n	80058ca <HAL_I2C_Mem_Write+0x1e2>
    }

    /* Process Locked */
    __HAL_LOCK(hi2c);
 8005730:	68fb      	ldr	r3, [r7, #12]
 8005732:	f893 303c 	ldrb.w	r3, [r3, #60]	; 0x3c
 8005736:	2b01      	cmp	r3, #1
 8005738:	d101      	bne.n	800573e <HAL_I2C_Mem_Write+0x56>
 800573a:	2302      	movs	r3, #2
 800573c:	e0c5      	b.n	80058ca <HAL_I2C_Mem_Write+0x1e2>
 800573e:	68fb      	ldr	r3, [r7, #12]
 8005740:	2201      	movs	r2, #1
 8005742:	f883 203c 	strb.w	r2, [r3, #60]	; 0x3c

    /* Check if the I2C is already enabled */
    if ((hi2c->Instance->CR1 & I2C_CR1_PE) != I2C_CR1_PE)
 8005746:	68fb      	ldr	r3, [r7, #12]
 8005748:	681b      	ldr	r3, [r3, #0]
 800574a:	681b      	ldr	r3, [r3, #0]
 800574c:	f003 0301 	and.w	r3, r3, #1
 8005750:	2b01      	cmp	r3, #1
 8005752:	d007      	beq.n	8005764 <HAL_I2C_Mem_Write+0x7c>
    {
      /* Enable I2C peripheral */
      __HAL_I2C_ENABLE(hi2c);
 8005754:	68fb      	ldr	r3, [r7, #12]
 8005756:	681b      	ldr	r3, [r3, #0]
 8005758:	681a      	ldr	r2, [r3, #0]
 800575a:	68fb      	ldr	r3, [r7, #12]
 800575c:	681b      	ldr	r3, [r3, #0]
 800575e:	f042 0201 	orr.w	r2, r2, #1
 8005762:	601a      	str	r2, [r3, #0]
    }

    /* Disable Pos */
    CLEAR_BIT(hi2c->Instance->CR1, I2C_CR1_POS);
 8005764:	68fb      	ldr	r3, [r7, #12]
 8005766:	681b      	ldr	r3, [r3, #0]
 8005768:	681a      	ldr	r2, [r3, #0]
 800576a:	68fb      	ldr	r3, [r7, #12]
 800576c:	681b      	ldr	r3, [r3, #0]
 800576e:	f422 6200 	bic.w	r2, r2, #2048	; 0x800
 8005772:	601a      	str	r2, [r3, #0]

    hi2c->State     = HAL_I2C_STATE_BUSY_TX;
 8005774:	68fb      	ldr	r3, [r7, #12]
 8005776:	2221      	movs	r2, #33	; 0x21
 8005778:	f883 203d 	strb.w	r2, [r3, #61]	; 0x3d
    hi2c->Mode      = HAL_I2C_MODE_MEM;
 800577c:	68fb      	ldr	r3, [r7, #12]
 800577e:	2240      	movs	r2, #64	; 0x40
 8005780:	f883 203e 	strb.w	r2, [r3, #62]	; 0x3e
    hi2c->ErrorCode = HAL_I2C_ERROR_NONE;
 8005784:	68fb      	ldr	r3, [r7, #12]
 8005786:	2200      	movs	r2, #0
 8005788:	641a      	str	r2, [r3, #64]	; 0x40

    /* Prepare transfer parameters */
    hi2c->pBuffPtr    = pData;
 800578a:	68fb      	ldr	r3, [r7, #12]
 800578c:	6a3a      	ldr	r2, [r7, #32]
 800578e:	625a      	str	r2, [r3, #36]	; 0x24
    hi2c->XferCount   = Size;
 8005790:	68fb      	ldr	r3, [r7, #12]
 8005792:	8cba      	ldrh	r2, [r7, #36]	; 0x24
 8005794:	855a      	strh	r2, [r3, #42]	; 0x2a
    hi2c->XferSize    = hi2c->XferCount;
 8005796:	68fb      	ldr	r3, [r7, #12]
 8005798:	8d5b      	ldrh	r3, [r3, #42]	; 0x2a
 800579a:	b29a      	uxth	r2, r3
 800579c:	68fb      	ldr	r3, [r7, #12]
 800579e:	851a      	strh	r2, [r3, #40]	; 0x28
    hi2c->XferOptions = I2C_NO_OPTION_FRAME;
 80057a0:	68fb      	ldr	r3, [r7, #12]
 80057a2:	4a4d      	ldr	r2, [pc, #308]	; (80058d8 <HAL_I2C_Mem_Write+0x1f0>)
 80057a4:	62da      	str	r2, [r3, #44]	; 0x2c

    /* Send Slave Address and Memory Address */
    if (I2C_RequestMemoryWrite(hi2c, DevAddress, MemAddress, MemAddSize, Timeout, tickstart) != HAL_OK)
 80057a6:	88f8      	ldrh	r0, [r7, #6]
 80057a8:	893a      	ldrh	r2, [r7, #8]
 80057aa:	8979      	ldrh	r1, [r7, #10]
 80057ac:	697b      	ldr	r3, [r7, #20]
 80057ae:	9301      	str	r3, [sp, #4]
 80057b0:	6abb      	ldr	r3, [r7, #40]	; 0x28
 80057b2:	9300      	str	r3, [sp, #0]
 80057b4:	4603      	mov	r3, r0
 80057b6:	68f8      	ldr	r0, [r7, #12]
 80057b8:	f000 faf8 	bl	8005dac <I2C_RequestMemoryWrite>
 80057bc:	4603      	mov	r3, r0
 80057be:	2b00      	cmp	r3, #0
 80057c0:	d052      	beq.n	8005868 <HAL_I2C_Mem_Write+0x180>
    {
      return HAL_ERROR;
 80057c2:	2301      	movs	r3, #1
 80057c4:	e081      	b.n	80058ca <HAL_I2C_Mem_Write+0x1e2>
    }

    while (hi2c->XferSize > 0U)
    {
      /* Wait until TXE flag is set */
      if (I2C_WaitOnTXEFlagUntilTimeout(hi2c, Timeout, tickstart) != HAL_OK)
 80057c6:	697a      	ldr	r2, [r7, #20]
 80057c8:	6ab9      	ldr	r1, [r7, #40]	; 0x28
 80057ca:	68f8      	ldr	r0, [r7, #12]
 80057cc:	f000 fd86 	bl	80062dc <I2C_WaitOnTXEFlagUntilTimeout>
 80057d0:	4603      	mov	r3, r0
 80057d2:	2b00      	cmp	r3, #0
 80057d4:	d00d      	beq.n	80057f2 <HAL_I2C_Mem_Write+0x10a>
      {
        if (hi2c->ErrorCode == HAL_I2C_ERROR_AF)
 80057d6:	68fb      	ldr	r3, [r7, #12]
 80057d8:	6c1b      	ldr	r3, [r3, #64]	; 0x40
 80057da:	2b04      	cmp	r3, #4
 80057dc:	d107      	bne.n	80057ee <HAL_I2C_Mem_Write+0x106>
        {
          /* Generate Stop */
          SET_BIT(hi2c->Instance->CR1, I2C_CR1_STOP);
 80057de:	68fb      	ldr	r3, [r7, #12]
 80057e0:	681b      	ldr	r3, [r3, #0]
 80057e2:	681a      	ldr	r2, [r3, #0]
 80057e4:	68fb      	ldr	r3, [r7, #12]
 80057e6:	681b      	ldr	r3, [r3, #0]
 80057e8:	f442 7200 	orr.w	r2, r2, #512	; 0x200
 80057ec:	601a      	str	r2, [r3, #0]
        }
        return HAL_ERROR;
 80057ee:	2301      	movs	r3, #1
 80057f0:	e06b      	b.n	80058ca <HAL_I2C_Mem_Write+0x1e2>
      }

      /* Write data to DR */
      hi2c->Instance->DR = *hi2c->pBuffPtr;
 80057f2:	68fb      	ldr	r3, [r7, #12]
 80057f4:	6a5b      	ldr	r3, [r3, #36]	; 0x24
 80057f6:	781a      	ldrb	r2, [r3, #0]
 80057f8:	68fb      	ldr	r3, [r7, #12]
 80057fa:	681b      	ldr	r3, [r3, #0]
 80057fc:	611a      	str	r2, [r3, #16]

      /* Increment Buffer pointer */
      hi2c->pBuffPtr++;
 80057fe:	68fb      	ldr	r3, [r7, #12]
 8005800:	6a5b      	ldr	r3, [r3, #36]	; 0x24
 8005802:	1c5a      	adds	r2, r3, #1
 8005804:	68fb      	ldr	r3, [r7, #12]
 8005806:	625a      	str	r2, [r3, #36]	; 0x24

      /* Update counter */
      hi2c->XferSize--;
 8005808:	68fb      	ldr	r3, [r7, #12]
 800580a:	8d1b      	ldrh	r3, [r3, #40]	; 0x28
 800580c:	3b01      	subs	r3, #1
 800580e:	b29a      	uxth	r2, r3
 8005810:	68fb      	ldr	r3, [r7, #12]
 8005812:	851a      	strh	r2, [r3, #40]	; 0x28
      hi2c->XferCount--;
 8005814:	68fb      	ldr	r3, [r7, #12]
 8005816:	8d5b      	ldrh	r3, [r3, #42]	; 0x2a
 8005818:	b29b      	uxth	r3, r3
 800581a:	3b01      	subs	r3, #1
 800581c:	b29a      	uxth	r2, r3
 800581e:	68fb      	ldr	r3, [r7, #12]
 8005820:	855a      	strh	r2, [r3, #42]	; 0x2a

      if ((__HAL_I2C_GET_FLAG(hi2c, I2C_FLAG_BTF) == SET) && (hi2c->XferSize != 0U))
 8005822:	68fb      	ldr	r3, [r7, #12]
 8005824:	681b      	ldr	r3, [r3, #0]
 8005826:	695b      	ldr	r3, [r3, #20]
 8005828:	f003 0304 	and.w	r3, r3, #4
 800582c:	2b04      	cmp	r3, #4
 800582e:	d11b      	bne.n	8005868 <HAL_I2C_Mem_Write+0x180>
 8005830:	68fb      	ldr	r3, [r7, #12]
 8005832:	8d1b      	ldrh	r3, [r3, #40]	; 0x28
 8005834:	2b00      	cmp	r3, #0
 8005836:	d017      	beq.n	8005868 <HAL_I2C_Mem_Write+0x180>
      {
        /* Write data to DR */
        hi2c->Instance->DR = *hi2c->pBuffPtr;
 8005838:	68fb      	ldr	r3, [r7, #12]
 800583a:	6a5b      	ldr	r3, [r3, #36]	; 0x24
 800583c:	781a      	ldrb	r2, [r3, #0]
 800583e:	68fb      	ldr	r3, [r7, #12]
 8005840:	681b      	ldr	r3, [r3, #0]
 8005842:	611a      	str	r2, [r3, #16]

        /* Increment Buffer pointer */
        hi2c->pBuffPtr++;
 8005844:	68fb      	ldr	r3, [r7, #12]
 8005846:	6a5b      	ldr	r3, [r3, #36]	; 0x24
 8005848:	1c5a      	adds	r2, r3, #1
 800584a:	68fb      	ldr	r3, [r7, #12]
 800584c:	625a      	str	r2, [r3, #36]	; 0x24

        /* Update counter */
        hi2c->XferSize--;
 800584e:	68fb      	ldr	r3, [r7, #12]
 8005850:	8d1b      	ldrh	r3, [r3, #40]	; 0x28
 8005852:	3b01      	subs	r3, #1
 8005854:	b29a      	uxth	r2, r3
 8005856:	68fb      	ldr	r3, [r7, #12]
 8005858:	851a      	strh	r2, [r3, #40]	; 0x28
        hi2c->XferCount--;
 800585a:	68fb      	ldr	r3, [r7, #12]
 800585c:	8d5b      	ldrh	r3, [r3, #42]	; 0x2a
 800585e:	b29b      	uxth	r3, r3
 8005860:	3b01      	subs	r3, #1
 8005862:	b29a      	uxth	r2, r3
 8005864:	68fb      	ldr	r3, [r7, #12]
 8005866:	855a      	strh	r2, [r3, #42]	; 0x2a
    while (hi2c->XferSize > 0U)
 8005868:	68fb      	ldr	r3, [r7, #12]
 800586a:	8d1b      	ldrh	r3, [r3, #40]	; 0x28
 800586c:	2b00      	cmp	r3, #0
 800586e:	d1aa      	bne.n	80057c6 <HAL_I2C_Mem_Write+0xde>
      }
    }

    /* Wait until BTF flag is set */
    if (I2C_WaitOnBTFFlagUntilTimeout(hi2c, Timeout, tickstart) != HAL_OK)
 8005870:	697a      	ldr	r2, [r7, #20]
 8005872:	6ab9      	ldr	r1, [r7, #40]	; 0x28
 8005874:	68f8      	ldr	r0, [r7, #12]
 8005876:	f000 fd79 	bl	800636c <I2C_WaitOnBTFFlagUntilTimeout>
 800587a:	4603      	mov	r3, r0
 800587c:	2b00      	cmp	r3, #0
 800587e:	d00d      	beq.n	800589c <HAL_I2C_Mem_Write+0x1b4>
    {
      if (hi2c->ErrorCode == HAL_I2C_ERROR_AF)
 8005880:	68fb      	ldr	r3, [r7, #12]
 8005882:	6c1b      	ldr	r3, [r3, #64]	; 0x40
 8005884:	2b04      	cmp	r3, #4
 8005886:	d107      	bne.n	8005898 <HAL_I2C_Mem_Write+0x1b0>
      {
        /* Generate Stop */
        SET_BIT(hi2c->Instance->CR1, I2C_CR1_STOP);
 8005888:	68fb      	ldr	r3, [r7, #12]
 800588a:	681b      	ldr	r3, [r3, #0]
 800588c:	681a      	ldr	r2, [r3, #0]
 800588e:	68fb      	ldr	r3, [r7, #12]
 8005890:	681b      	ldr	r3, [r3, #0]
 8005892:	f442 7200 	orr.w	r2, r2, #512	; 0x200
 8005896:	601a      	str	r2, [r3, #0]
      }
      return HAL_ERROR;
 8005898:	2301      	movs	r3, #1
 800589a:	e016      	b.n	80058ca <HAL_I2C_Mem_Write+0x1e2>
    }

    /* Generate Stop */
    SET_BIT(hi2c->Instance->CR1, I2C_CR1_STOP);
 800589c:	68fb      	ldr	r3, [r7, #12]
 800589e:	681b      	ldr	r3, [r3, #0]
 80058a0:	681a      	ldr	r2, [r3, #0]
 80058a2:	68fb      	ldr	r3, [r7, #12]
 80058a4:	681b      	ldr	r3, [r3, #0]
 80058a6:	f442 7200 	orr.w	r2, r2, #512	; 0x200
 80058aa:	601a      	str	r2, [r3, #0]

    hi2c->State = HAL_I2C_STATE_READY;
 80058ac:	68fb      	ldr	r3, [r7, #12]
 80058ae:	2220      	movs	r2, #32
 80058b0:	f883 203d 	strb.w	r2, [r3, #61]	; 0x3d
    hi2c->Mode = HAL_I2C_MODE_NONE;
 80058b4:	68fb      	ldr	r3, [r7, #12]
 80058b6:	2200      	movs	r2, #0
 80058b8:	f883 203e 	strb.w	r2, [r3, #62]	; 0x3e

    /* Process Unlocked */
    __HAL_UNLOCK(hi2c);
 80058bc:	68fb      	ldr	r3, [r7, #12]
 80058be:	2200      	movs	r2, #0
 80058c0:	f883 203c 	strb.w	r2, [r3, #60]	; 0x3c

    return HAL_OK;
 80058c4:	2300      	movs	r3, #0
 80058c6:	e000      	b.n	80058ca <HAL_I2C_Mem_Write+0x1e2>
  }
  else
  {
    return HAL_BUSY;
 80058c8:	2302      	movs	r3, #2
  }
}
 80058ca:	4618      	mov	r0, r3
 80058cc:	3718      	adds	r7, #24
 80058ce:	46bd      	mov	sp, r7
 80058d0:	bd80      	pop	{r7, pc}
 80058d2:	bf00      	nop
 80058d4:	00100002 	.word	0x00100002
 80058d8:	ffff0000 	.word	0xffff0000

080058dc <HAL_I2C_Mem_Read>:
  * @param  Size Amount of data to be sent
  * @param  Timeout Timeout duration
  * @retval HAL status
  */
HAL_StatusTypeDef HAL_I2C_Mem_Read(I2C_HandleTypeDef *hi2c, uint16_t DevAddress, uint16_t MemAddress, uint16_t MemAddSize, uint8_t *pData, uint16_t Size, uint32_t Timeout)
{
 80058dc:	b580      	push	{r7, lr}
 80058de:	b08c      	sub	sp, #48	; 0x30
 80058e0:	af02      	add	r7, sp, #8
 80058e2:	60f8      	str	r0, [r7, #12]
 80058e4:	4608      	mov	r0, r1
 80058e6:	4611      	mov	r1, r2
 80058e8:	461a      	mov	r2, r3
 80058ea:	4603      	mov	r3, r0
 80058ec:	817b      	strh	r3, [r7, #10]
 80058ee:	460b      	mov	r3, r1
 80058f0:	813b      	strh	r3, [r7, #8]
 80058f2:	4613      	mov	r3, r2
 80058f4:	80fb      	strh	r3, [r7, #6]
  __IO uint32_t count = 0U;
 80058f6:	2300      	movs	r3, #0
 80058f8:	623b      	str	r3, [r7, #32]

  /* Init tickstart for timeout management*/
  uint32_t tickstart = HAL_GetTick();
 80058fa:	f7ff fa4b 	bl	8004d94 <HAL_GetTick>
 80058fe:	6278      	str	r0, [r7, #36]	; 0x24

  /* Check the parameters */
  assert_param(IS_I2C_MEMADD_SIZE(MemAddSize));

  if (hi2c->State == HAL_I2C_STATE_READY)
 8005900:	68fb      	ldr	r3, [r7, #12]
 8005902:	f893 303d 	ldrb.w	r3, [r3, #61]	; 0x3d
 8005906:	b2db      	uxtb	r3, r3
 8005908:	2b20      	cmp	r3, #32
 800590a:	f040 8244 	bne.w	8005d96 <HAL_I2C_Mem_Read+0x4ba>
  {
    /* Wait until BUSY flag is reset */
    if (I2C_WaitOnFlagUntilTimeout(hi2c, I2C_FLAG_BUSY, SET, I2C_TIMEOUT_BUSY_FLAG, tickstart) != HAL_OK)
 800590e:	6a7b      	ldr	r3, [r7, #36]	; 0x24
 8005910:	9300      	str	r3, [sp, #0]
 8005912:	2319      	movs	r3, #25
 8005914:	2201      	movs	r2, #1
 8005916:	4982      	ldr	r1, [pc, #520]	; (8005b20 <HAL_I2C_Mem_Read+0x244>)
 8005918:	68f8      	ldr	r0, [r7, #12]
 800591a:	f000 fbc5 	bl	80060a8 <I2C_WaitOnFlagUntilTimeout>
 800591e:	4603      	mov	r3, r0
 8005920:	2b00      	cmp	r3, #0
 8005922:	d001      	beq.n	8005928 <HAL_I2C_Mem_Read+0x4c>
    {
      return HAL_BUSY;
 8005924:	2302      	movs	r3, #2
 8005926:	e237      	b.n	8005d98 <HAL_I2C_Mem_Read+0x4bc>
    }

    /* Process Locked */
    __HAL_LOCK(hi2c);
 8005928:	68fb      	ldr	r3, [r7, #12]
 800592a:	f893 303c 	ldrb.w	r3, [r3, #60]	; 0x3c
 800592e:	2b01      	cmp	r3, #1
 8005930:	d101      	bne.n	8005936 <HAL_I2C_Mem_Read+0x5a>
 8005932:	2302      	movs	r3, #2
 8005934:	e230      	b.n	8005d98 <HAL_I2C_Mem_Read+0x4bc>
 8005936:	68fb      	ldr	r3, [r7, #12]
 8005938:	2201      	movs	r2, #1
 800593a:	f883 203c 	strb.w	r2, [r3, #60]	; 0x3c

    /* Check if the I2C is already enabled */
    if ((hi2c->Instance->CR1 & I2C_CR1_PE) != I2C_CR1_PE)
 800593e:	68fb      	ldr	r3, [r7, #12]
 8005940:	681b      	ldr	r3, [r3, #0]
 8005942:	681b      	ldr	r3, [r3, #0]
 8005944:	f003 0301 	and.w	r3, r3, #1
 8005948:	2b01      	cmp	r3, #1
 800594a:	d007      	beq.n	800595c <HAL_I2C_Mem_Read+0x80>
    {
      /* Enable I2C peripheral */
      __HAL_I2C_ENABLE(hi2c);
 800594c:	68fb      	ldr	r3, [r7, #12]
 800594e:	681b      	ldr	r3, [r3, #0]
 8005950:	681a      	ldr	r2, [r3, #0]
 8005952:	68fb      	ldr	r3, [r7, #12]
 8005954:	681b      	ldr	r3, [r3, #0]
 8005956:	f042 0201 	orr.w	r2, r2, #1
 800595a:	601a      	str	r2, [r3, #0]
    }

    /* Disable Pos */
    CLEAR_BIT(hi2c->Instance->CR1, I2C_CR1_POS);
 800595c:	68fb      	ldr	r3, [r7, #12]
 800595e:	681b      	ldr	r3, [r3, #0]
 8005960:	681a      	ldr	r2, [r3, #0]
 8005962:	68fb      	ldr	r3, [r7, #12]
 8005964:	681b      	ldr	r3, [r3, #0]
 8005966:	f422 6200 	bic.w	r2, r2, #2048	; 0x800
 800596a:	601a      	str	r2, [r3, #0]

    hi2c->State     = HAL_I2C_STATE_BUSY_RX;
 800596c:	68fb      	ldr	r3, [r7, #12]
 800596e:	2222      	movs	r2, #34	; 0x22
 8005970:	f883 203d 	strb.w	r2, [r3, #61]	; 0x3d
    hi2c->Mode      = HAL_I2C_MODE_MEM;
 8005974:	68fb      	ldr	r3, [r7, #12]
 8005976:	2240      	movs	r2, #64	; 0x40
 8005978:	f883 203e 	strb.w	r2, [r3, #62]	; 0x3e
    hi2c->ErrorCode = HAL_I2C_ERROR_NONE;
 800597c:	68fb      	ldr	r3, [r7, #12]
 800597e:	2200      	movs	r2, #0
 8005980:	641a      	str	r2, [r3, #64]	; 0x40

    /* Prepare transfer parameters */
    hi2c->pBuffPtr    = pData;
 8005982:	68fb      	ldr	r3, [r7, #12]
 8005984:	6b3a      	ldr	r2, [r7, #48]	; 0x30
 8005986:	625a      	str	r2, [r3, #36]	; 0x24
    hi2c->XferCount   = Size;
 8005988:	68fb      	ldr	r3, [r7, #12]
 800598a:	8eba      	ldrh	r2, [r7, #52]	; 0x34
 800598c:	855a      	strh	r2, [r3, #42]	; 0x2a
    hi2c->XferSize    = hi2c->XferCount;
 800598e:	68fb      	ldr	r3, [r7, #12]
 8005990:	8d5b      	ldrh	r3, [r3, #42]	; 0x2a
 8005992:	b29a      	uxth	r2, r3
 8005994:	68fb      	ldr	r3, [r7, #12]
 8005996:	851a      	strh	r2, [r3, #40]	; 0x28
    hi2c->XferOptions = I2C_NO_OPTION_FRAME;
 8005998:	68fb      	ldr	r3, [r7, #12]
 800599a:	4a62      	ldr	r2, [pc, #392]	; (8005b24 <HAL_I2C_Mem_Read+0x248>)
 800599c:	62da      	str	r2, [r3, #44]	; 0x2c

    /* Send Slave Address and Memory Address */
    if (I2C_RequestMemoryRead(hi2c, DevAddress, MemAddress, MemAddSize, Timeout, tickstart) != HAL_OK)
 800599e:	88f8      	ldrh	r0, [r7, #6]
 80059a0:	893a      	ldrh	r2, [r7, #8]
 80059a2:	8979      	ldrh	r1, [r7, #10]
 80059a4:	6a7b      	ldr	r3, [r7, #36]	; 0x24
 80059a6:	9301      	str	r3, [sp, #4]
 80059a8:	6bbb      	ldr	r3, [r7, #56]	; 0x38
 80059aa:	9300      	str	r3, [sp, #0]
 80059ac:	4603      	mov	r3, r0
 80059ae:	68f8      	ldr	r0, [r7, #12]
 80059b0:	f000 fa92 	bl	8005ed8 <I2C_RequestMemoryRead>
 80059b4:	4603      	mov	r3, r0
 80059b6:	2b00      	cmp	r3, #0
 80059b8:	d001      	beq.n	80059be <HAL_I2C_Mem_Read+0xe2>
    {
      return HAL_ERROR;
 80059ba:	2301      	movs	r3, #1
 80059bc:	e1ec      	b.n	8005d98 <HAL_I2C_Mem_Read+0x4bc>
    }

    if (hi2c->XferSize == 0U)
 80059be:	68fb      	ldr	r3, [r7, #12]
 80059c0:	8d1b      	ldrh	r3, [r3, #40]	; 0x28
 80059c2:	2b00      	cmp	r3, #0
 80059c4:	d113      	bne.n	80059ee <HAL_I2C_Mem_Read+0x112>
    {
      /* Clear ADDR flag */
      __HAL_I2C_CLEAR_ADDRFLAG(hi2c);
 80059c6:	2300      	movs	r3, #0
 80059c8:	61fb      	str	r3, [r7, #28]
 80059ca:	68fb      	ldr	r3, [r7, #12]
 80059cc:	681b      	ldr	r3, [r3, #0]
 80059ce:	695b      	ldr	r3, [r3, #20]
 80059d0:	61fb      	str	r3, [r7, #28]
 80059d2:	68fb      	ldr	r3, [r7, #12]
 80059d4:	681b      	ldr	r3, [r3, #0]
 80059d6:	699b      	ldr	r3, [r3, #24]
 80059d8:	61fb      	str	r3, [r7, #28]
 80059da:	69fb      	ldr	r3, [r7, #28]

      /* Generate Stop */
      SET_BIT(hi2c->Instance->CR1, I2C_CR1_STOP);
 80059dc:	68fb      	ldr	r3, [r7, #12]
 80059de:	681b      	ldr	r3, [r3, #0]
 80059e0:	681a      	ldr	r2, [r3, #0]
 80059e2:	68fb      	ldr	r3, [r7, #12]
 80059e4:	681b      	ldr	r3, [r3, #0]
 80059e6:	f442 7200 	orr.w	r2, r2, #512	; 0x200
 80059ea:	601a      	str	r2, [r3, #0]
 80059ec:	e1c0      	b.n	8005d70 <HAL_I2C_Mem_Read+0x494>
    }
    else if (hi2c->XferSize == 1U)
 80059ee:	68fb      	ldr	r3, [r7, #12]
 80059f0:	8d1b      	ldrh	r3, [r3, #40]	; 0x28
 80059f2:	2b01      	cmp	r3, #1
 80059f4:	d11e      	bne.n	8005a34 <HAL_I2C_Mem_Read+0x158>
    {
      /* Disable Acknowledge */
      CLEAR_BIT(hi2c->Instance->CR1, I2C_CR1_ACK);
 80059f6:	68fb      	ldr	r3, [r7, #12]
 80059f8:	681b      	ldr	r3, [r3, #0]
 80059fa:	681a      	ldr	r2, [r3, #0]
 80059fc:	68fb      	ldr	r3, [r7, #12]
 80059fe:	681b      	ldr	r3, [r3, #0]
 8005a00:	f422 6280 	bic.w	r2, r2, #1024	; 0x400
 8005a04:	601a      	str	r2, [r3, #0]
  __ASM volatile ("cpsid i" : : : "memory");
 8005a06:	b672      	cpsid	i
}
 8005a08:	bf00      	nop
      /* Disable all active IRQs around ADDR clearing and STOP programming because the EV6_3
         software sequence must complete before the current byte end of transfer */
      __disable_irq();

      /* Clear ADDR flag */
      __HAL_I2C_CLEAR_ADDRFLAG(hi2c);
 8005a0a:	2300      	movs	r3, #0
 8005a0c:	61bb      	str	r3, [r7, #24]
 8005a0e:	68fb      	ldr	r3, [r7, #12]
 8005a10:	681b      	ldr	r3, [r3, #0]
 8005a12:	695b      	ldr	r3, [r3, #20]
 8005a14:	61bb      	str	r3, [r7, #24]
 8005a16:	68fb      	ldr	r3, [r7, #12]
 8005a18:	681b      	ldr	r3, [r3, #0]
 8005a1a:	699b      	ldr	r3, [r3, #24]
 8005a1c:	61bb      	str	r3, [r7, #24]
 8005a1e:	69bb      	ldr	r3, [r7, #24]

      /* Generate Stop */
      SET_BIT(hi2c->Instance->CR1, I2C_CR1_STOP);
 8005a20:	68fb      	ldr	r3, [r7, #12]
 8005a22:	681b      	ldr	r3, [r3, #0]
 8005a24:	681a      	ldr	r2, [r3, #0]
 8005a26:	68fb      	ldr	r3, [r7, #12]
 8005a28:	681b      	ldr	r3, [r3, #0]
 8005a2a:	f442 7200 	orr.w	r2, r2, #512	; 0x200
 8005a2e:	601a      	str	r2, [r3, #0]
  __ASM volatile ("cpsie i" : : : "memory");
 8005a30:	b662      	cpsie	i
}
 8005a32:	e035      	b.n	8005aa0 <HAL_I2C_Mem_Read+0x1c4>

      /* Re-enable IRQs */
      __enable_irq();
    }
    else if (hi2c->XferSize == 2U)
 8005a34:	68fb      	ldr	r3, [r7, #12]
 8005a36:	8d1b      	ldrh	r3, [r3, #40]	; 0x28
 8005a38:	2b02      	cmp	r3, #2
 8005a3a:	d11e      	bne.n	8005a7a <HAL_I2C_Mem_Read+0x19e>
    {
      /* Enable Pos */
      SET_BIT(hi2c->Instance->CR1, I2C_CR1_POS);
 8005a3c:	68fb      	ldr	r3, [r7, #12]
 8005a3e:	681b      	ldr	r3, [r3, #0]
 8005a40:	681a      	ldr	r2, [r3, #0]
 8005a42:	68fb      	ldr	r3, [r7, #12]
 8005a44:	681b      	ldr	r3, [r3, #0]
 8005a46:	f442 6200 	orr.w	r2, r2, #2048	; 0x800
 8005a4a:	601a      	str	r2, [r3, #0]
  __ASM volatile ("cpsid i" : : : "memory");
 8005a4c:	b672      	cpsid	i
}
 8005a4e:	bf00      	nop
      /* Disable all active IRQs around ADDR clearing and STOP programming because the EV6_3
         software sequence must complete before the current byte end of transfer */
      __disable_irq();

      /* Clear ADDR flag */
      __HAL_I2C_CLEAR_ADDRFLAG(hi2c);
 8005a50:	2300      	movs	r3, #0
 8005a52:	617b      	str	r3, [r7, #20]
 8005a54:	68fb      	ldr	r3, [r7, #12]
 8005a56:	681b      	ldr	r3, [r3, #0]
 8005a58:	695b      	ldr	r3, [r3, #20]
 8005a5a:	617b      	str	r3, [r7, #20]
 8005a5c:	68fb      	ldr	r3, [r7, #12]
 8005a5e:	681b      	ldr	r3, [r3, #0]
 8005a60:	699b      	ldr	r3, [r3, #24]
 8005a62:	617b      	str	r3, [r7, #20]
 8005a64:	697b      	ldr	r3, [r7, #20]

      /* Disable Acknowledge */
      CLEAR_BIT(hi2c->Instance->CR1, I2C_CR1_ACK);
 8005a66:	68fb      	ldr	r3, [r7, #12]
 8005a68:	681b      	ldr	r3, [r3, #0]
 8005a6a:	681a      	ldr	r2, [r3, #0]
 8005a6c:	68fb      	ldr	r3, [r7, #12]
 8005a6e:	681b      	ldr	r3, [r3, #0]
 8005a70:	f422 6280 	bic.w	r2, r2, #1024	; 0x400
 8005a74:	601a      	str	r2, [r3, #0]
  __ASM volatile ("cpsie i" : : : "memory");
 8005a76:	b662      	cpsie	i
}
 8005a78:	e012      	b.n	8005aa0 <HAL_I2C_Mem_Read+0x1c4>
      __enable_irq();
    }
    else
    {
      /* Enable Acknowledge */
      SET_BIT(hi2c->Instance->CR1, I2C_CR1_ACK);
 8005a7a:	68fb      	ldr	r3, [r7, #12]
 8005a7c:	681b      	ldr	r3, [r3, #0]
 8005a7e:	681a      	ldr	r2, [r3, #0]
 8005a80:	68fb      	ldr	r3, [r7, #12]
 8005a82:	681b      	ldr	r3, [r3, #0]
 8005a84:	f442 6280 	orr.w	r2, r2, #1024	; 0x400
 8005a88:	601a      	str	r2, [r3, #0]
      /* Clear ADDR flag */
      __HAL_I2C_CLEAR_ADDRFLAG(hi2c);
 8005a8a:	2300      	movs	r3, #0
 8005a8c:	613b      	str	r3, [r7, #16]
 8005a8e:	68fb      	ldr	r3, [r7, #12]
 8005a90:	681b      	ldr	r3, [r3, #0]
 8005a92:	695b      	ldr	r3, [r3, #20]
 8005a94:	613b      	str	r3, [r7, #16]
 8005a96:	68fb      	ldr	r3, [r7, #12]
 8005a98:	681b      	ldr	r3, [r3, #0]
 8005a9a:	699b      	ldr	r3, [r3, #24]
 8005a9c:	613b      	str	r3, [r7, #16]
 8005a9e:	693b      	ldr	r3, [r7, #16]
    }

    while (hi2c->XferSize > 0U)
 8005aa0:	e166      	b.n	8005d70 <HAL_I2C_Mem_Read+0x494>
    {
      if (hi2c->XferSize <= 3U)
 8005aa2:	68fb      	ldr	r3, [r7, #12]
 8005aa4:	8d1b      	ldrh	r3, [r3, #40]	; 0x28
 8005aa6:	2b03      	cmp	r3, #3
 8005aa8:	f200 811f 	bhi.w	8005cea <HAL_I2C_Mem_Read+0x40e>
      {
        /* One byte */
        if (hi2c->XferSize == 1U)
 8005aac:	68fb      	ldr	r3, [r7, #12]
 8005aae:	8d1b      	ldrh	r3, [r3, #40]	; 0x28
 8005ab0:	2b01      	cmp	r3, #1
 8005ab2:	d123      	bne.n	8005afc <HAL_I2C_Mem_Read+0x220>
        {
          /* Wait until RXNE flag is set */
          if (I2C_WaitOnRXNEFlagUntilTimeout(hi2c, Timeout, tickstart) != HAL_OK)
 8005ab4:	6a7a      	ldr	r2, [r7, #36]	; 0x24
 8005ab6:	6bb9      	ldr	r1, [r7, #56]	; 0x38
 8005ab8:	68f8      	ldr	r0, [r7, #12]
 8005aba:	f000 fc9f 	bl	80063fc <I2C_WaitOnRXNEFlagUntilTimeout>
 8005abe:	4603      	mov	r3, r0
 8005ac0:	2b00      	cmp	r3, #0
 8005ac2:	d001      	beq.n	8005ac8 <HAL_I2C_Mem_Read+0x1ec>
          {
            return HAL_ERROR;
 8005ac4:	2301      	movs	r3, #1
 8005ac6:	e167      	b.n	8005d98 <HAL_I2C_Mem_Read+0x4bc>
          }

          /* Read data from DR */
          *hi2c->pBuffPtr = (uint8_t)hi2c->Instance->DR;
 8005ac8:	68fb      	ldr	r3, [r7, #12]
 8005aca:	681b      	ldr	r3, [r3, #0]
 8005acc:	691a      	ldr	r2, [r3, #16]
 8005ace:	68fb      	ldr	r3, [r7, #12]
 8005ad0:	6a5b      	ldr	r3, [r3, #36]	; 0x24
 8005ad2:	b2d2      	uxtb	r2, r2
 8005ad4:	701a      	strb	r2, [r3, #0]

          /* Increment Buffer pointer */
          hi2c->pBuffPtr++;
 8005ad6:	68fb      	ldr	r3, [r7, #12]
 8005ad8:	6a5b      	ldr	r3, [r3, #36]	; 0x24
 8005ada:	1c5a      	adds	r2, r3, #1
 8005adc:	68fb      	ldr	r3, [r7, #12]
 8005ade:	625a      	str	r2, [r3, #36]	; 0x24

          /* Update counter */
          hi2c->XferSize--;
 8005ae0:	68fb      	ldr	r3, [r7, #12]
 8005ae2:	8d1b      	ldrh	r3, [r3, #40]	; 0x28
 8005ae4:	3b01      	subs	r3, #1
 8005ae6:	b29a      	uxth	r2, r3
 8005ae8:	68fb      	ldr	r3, [r7, #12]
 8005aea:	851a      	strh	r2, [r3, #40]	; 0x28
          hi2c->XferCount--;
 8005aec:	68fb      	ldr	r3, [r7, #12]
 8005aee:	8d5b      	ldrh	r3, [r3, #42]	; 0x2a
 8005af0:	b29b      	uxth	r3, r3
 8005af2:	3b01      	subs	r3, #1
 8005af4:	b29a      	uxth	r2, r3
 8005af6:	68fb      	ldr	r3, [r7, #12]
 8005af8:	855a      	strh	r2, [r3, #42]	; 0x2a
 8005afa:	e139      	b.n	8005d70 <HAL_I2C_Mem_Read+0x494>
        }
        /* Two bytes */
        else if (hi2c->XferSize == 2U)
 8005afc:	68fb      	ldr	r3, [r7, #12]
 8005afe:	8d1b      	ldrh	r3, [r3, #40]	; 0x28
 8005b00:	2b02      	cmp	r3, #2
 8005b02:	d152      	bne.n	8005baa <HAL_I2C_Mem_Read+0x2ce>
        {
          /* Wait until BTF flag is set */
          if (I2C_WaitOnFlagUntilTimeout(hi2c, I2C_FLAG_BTF, RESET, Timeout, tickstart) != HAL_OK)
 8005b04:	6a7b      	ldr	r3, [r7, #36]	; 0x24
 8005b06:	9300      	str	r3, [sp, #0]
 8005b08:	6bbb      	ldr	r3, [r7, #56]	; 0x38
 8005b0a:	2200      	movs	r2, #0
 8005b0c:	4906      	ldr	r1, [pc, #24]	; (8005b28 <HAL_I2C_Mem_Read+0x24c>)
 8005b0e:	68f8      	ldr	r0, [r7, #12]
 8005b10:	f000 faca 	bl	80060a8 <I2C_WaitOnFlagUntilTimeout>
 8005b14:	4603      	mov	r3, r0
 8005b16:	2b00      	cmp	r3, #0
 8005b18:	d008      	beq.n	8005b2c <HAL_I2C_Mem_Read+0x250>
          {
            return HAL_ERROR;
 8005b1a:	2301      	movs	r3, #1
 8005b1c:	e13c      	b.n	8005d98 <HAL_I2C_Mem_Read+0x4bc>
 8005b1e:	bf00      	nop
 8005b20:	00100002 	.word	0x00100002
 8005b24:	ffff0000 	.word	0xffff0000
 8005b28:	00010004 	.word	0x00010004
  __ASM volatile ("cpsid i" : : : "memory");
 8005b2c:	b672      	cpsid	i
}
 8005b2e:	bf00      	nop
          /* Disable all active IRQs around ADDR clearing and STOP programming because the EV6_3
             software sequence must complete before the current byte end of transfer */
          __disable_irq();

          /* Generate Stop */
          SET_BIT(hi2c->Instance->CR1, I2C_CR1_STOP);
 8005b30:	68fb      	ldr	r3, [r7, #12]
 8005b32:	681b      	ldr	r3, [r3, #0]
 8005b34:	681a      	ldr	r2, [r3, #0]
 8005b36:	68fb      	ldr	r3, [r7, #12]
 8005b38:	681b      	ldr	r3, [r3, #0]
 8005b3a:	f442 7200 	orr.w	r2, r2, #512	; 0x200
 8005b3e:	601a      	str	r2, [r3, #0]

          /* Read data from DR */
          *hi2c->pBuffPtr = (uint8_t)hi2c->Instance->DR;
 8005b40:	68fb      	ldr	r3, [r7, #12]
 8005b42:	681b      	ldr	r3, [r3, #0]
 8005b44:	691a      	ldr	r2, [r3, #16]
 8005b46:	68fb      	ldr	r3, [r7, #12]
 8005b48:	6a5b      	ldr	r3, [r3, #36]	; 0x24
 8005b4a:	b2d2      	uxtb	r2, r2
 8005b4c:	701a      	strb	r2, [r3, #0]

          /* Increment Buffer pointer */
          hi2c->pBuffPtr++;
 8005b4e:	68fb      	ldr	r3, [r7, #12]
 8005b50:	6a5b      	ldr	r3, [r3, #36]	; 0x24
 8005b52:	1c5a      	adds	r2, r3, #1
 8005b54:	68fb      	ldr	r3, [r7, #12]
 8005b56:	625a      	str	r2, [r3, #36]	; 0x24

          /* Update counter */
          hi2c->XferSize--;
 8005b58:	68fb      	ldr	r3, [r7, #12]
 8005b5a:	8d1b      	ldrh	r3, [r3, #40]	; 0x28
 8005b5c:	3b01      	subs	r3, #1
 8005b5e:	b29a      	uxth	r2, r3
 8005b60:	68fb      	ldr	r3, [r7, #12]
 8005b62:	851a      	strh	r2, [r3, #40]	; 0x28
          hi2c->XferCount--;
 8005b64:	68fb      	ldr	r3, [r7, #12]
 8005b66:	8d5b      	ldrh	r3, [r3, #42]	; 0x2a
 8005b68:	b29b      	uxth	r3, r3
 8005b6a:	3b01      	subs	r3, #1
 8005b6c:	b29a      	uxth	r2, r3
 8005b6e:	68fb      	ldr	r3, [r7, #12]
 8005b70:	855a      	strh	r2, [r3, #42]	; 0x2a
  __ASM volatile ("cpsie i" : : : "memory");
 8005b72:	b662      	cpsie	i
}
 8005b74:	bf00      	nop

          /* Re-enable IRQs */
          __enable_irq();

          /* Read data from DR */
          *hi2c->pBuffPtr = (uint8_t)hi2c->Instance->DR;
 8005b76:	68fb      	ldr	r3, [r7, #12]
 8005b78:	681b      	ldr	r3, [r3, #0]
 8005b7a:	691a      	ldr	r2, [r3, #16]
 8005b7c:	68fb      	ldr	r3, [r7, #12]
 8005b7e:	6a5b      	ldr	r3, [r3, #36]	; 0x24
 8005b80:	b2d2      	uxtb	r2, r2
 8005b82:	701a      	strb	r2, [r3, #0]

          /* Increment Buffer pointer */
          hi2c->pBuffPtr++;
 8005b84:	68fb      	ldr	r3, [r7, #12]
 8005b86:	6a5b      	ldr	r3, [r3, #36]	; 0x24
 8005b88:	1c5a      	adds	r2, r3, #1
 8005b8a:	68fb      	ldr	r3, [r7, #12]
 8005b8c:	625a      	str	r2, [r3, #36]	; 0x24

          /* Update counter */
          hi2c->XferSize--;
 8005b8e:	68fb      	ldr	r3, [r7, #12]
 8005b90:	8d1b      	ldrh	r3, [r3, #40]	; 0x28
 8005b92:	3b01      	subs	r3, #1
 8005b94:	b29a      	uxth	r2, r3
 8005b96:	68fb      	ldr	r3, [r7, #12]
 8005b98:	851a      	strh	r2, [r3, #40]	; 0x28
          hi2c->XferCount--;
 8005b9a:	68fb      	ldr	r3, [r7, #12]
 8005b9c:	8d5b      	ldrh	r3, [r3, #42]	; 0x2a
 8005b9e:	b29b      	uxth	r3, r3
 8005ba0:	3b01      	subs	r3, #1
 8005ba2:	b29a      	uxth	r2, r3
 8005ba4:	68fb      	ldr	r3, [r7, #12]
 8005ba6:	855a      	strh	r2, [r3, #42]	; 0x2a
 8005ba8:	e0e2      	b.n	8005d70 <HAL_I2C_Mem_Read+0x494>
        }
        /* 3 Last bytes */
        else
        {
          /* Wait until BTF flag is set */
          if (I2C_WaitOnFlagUntilTimeout(hi2c, I2C_FLAG_BTF, RESET, Timeout, tickstart) != HAL_OK)
 8005baa:	6a7b      	ldr	r3, [r7, #36]	; 0x24
 8005bac:	9300      	str	r3, [sp, #0]
 8005bae:	6bbb      	ldr	r3, [r7, #56]	; 0x38
 8005bb0:	2200      	movs	r2, #0
 8005bb2:	497b      	ldr	r1, [pc, #492]	; (8005da0 <HAL_I2C_Mem_Read+0x4c4>)
 8005bb4:	68f8      	ldr	r0, [r7, #12]
 8005bb6:	f000 fa77 	bl	80060a8 <I2C_WaitOnFlagUntilTimeout>
 8005bba:	4603      	mov	r3, r0
 8005bbc:	2b00      	cmp	r3, #0
 8005bbe:	d001      	beq.n	8005bc4 <HAL_I2C_Mem_Read+0x2e8>
          {
            return HAL_ERROR;
 8005bc0:	2301      	movs	r3, #1
 8005bc2:	e0e9      	b.n	8005d98 <HAL_I2C_Mem_Read+0x4bc>
          }

          /* Disable Acknowledge */
          CLEAR_BIT(hi2c->Instance->CR1, I2C_CR1_ACK);
 8005bc4:	68fb      	ldr	r3, [r7, #12]
 8005bc6:	681b      	ldr	r3, [r3, #0]
 8005bc8:	681a      	ldr	r2, [r3, #0]
 8005bca:	68fb      	ldr	r3, [r7, #12]
 8005bcc:	681b      	ldr	r3, [r3, #0]
 8005bce:	f422 6280 	bic.w	r2, r2, #1024	; 0x400
 8005bd2:	601a      	str	r2, [r3, #0]
  __ASM volatile ("cpsid i" : : : "memory");
 8005bd4:	b672      	cpsid	i
}
 8005bd6:	bf00      	nop
          /* Disable all active IRQs around ADDR clearing and STOP programming because the EV6_3
             software sequence must complete before the current byte end of transfer */
          __disable_irq();

          /* Read data from DR */
          *hi2c->pBuffPtr = (uint8_t)hi2c->Instance->DR;
 8005bd8:	68fb      	ldr	r3, [r7, #12]
 8005bda:	681b      	ldr	r3, [r3, #0]
 8005bdc:	691a      	ldr	r2, [r3, #16]
 8005bde:	68fb      	ldr	r3, [r7, #12]
 8005be0:	6a5b      	ldr	r3, [r3, #36]	; 0x24
 8005be2:	b2d2      	uxtb	r2, r2
 8005be4:	701a      	strb	r2, [r3, #0]

          /* Increment Buffer pointer */
          hi2c->pBuffPtr++;
 8005be6:	68fb      	ldr	r3, [r7, #12]
 8005be8:	6a5b      	ldr	r3, [r3, #36]	; 0x24
 8005bea:	1c5a      	adds	r2, r3, #1
 8005bec:	68fb      	ldr	r3, [r7, #12]
 8005bee:	625a      	str	r2, [r3, #36]	; 0x24

          /* Update counter */
          hi2c->XferSize--;
 8005bf0:	68fb      	ldr	r3, [r7, #12]
 8005bf2:	8d1b      	ldrh	r3, [r3, #40]	; 0x28
 8005bf4:	3b01      	subs	r3, #1
 8005bf6:	b29a      	uxth	r2, r3
 8005bf8:	68fb      	ldr	r3, [r7, #12]
 8005bfa:	851a      	strh	r2, [r3, #40]	; 0x28
          hi2c->XferCount--;
 8005bfc:	68fb      	ldr	r3, [r7, #12]
 8005bfe:	8d5b      	ldrh	r3, [r3, #42]	; 0x2a
 8005c00:	b29b      	uxth	r3, r3
 8005c02:	3b01      	subs	r3, #1
 8005c04:	b29a      	uxth	r2, r3
 8005c06:	68fb      	ldr	r3, [r7, #12]
 8005c08:	855a      	strh	r2, [r3, #42]	; 0x2a

          /* Wait until BTF flag is set */
          count = I2C_TIMEOUT_FLAG * (SystemCoreClock / 25U / 1000U);
 8005c0a:	4b66      	ldr	r3, [pc, #408]	; (8005da4 <HAL_I2C_Mem_Read+0x4c8>)
 8005c0c:	681b      	ldr	r3, [r3, #0]
 8005c0e:	08db      	lsrs	r3, r3, #3
 8005c10:	4a65      	ldr	r2, [pc, #404]	; (8005da8 <HAL_I2C_Mem_Read+0x4cc>)
 8005c12:	fba2 2303 	umull	r2, r3, r2, r3
 8005c16:	0a1a      	lsrs	r2, r3, #8
 8005c18:	4613      	mov	r3, r2
 8005c1a:	009b      	lsls	r3, r3, #2
 8005c1c:	4413      	add	r3, r2
 8005c1e:	00da      	lsls	r2, r3, #3
 8005c20:	1ad3      	subs	r3, r2, r3
 8005c22:	623b      	str	r3, [r7, #32]
          do
          {
            count--;
 8005c24:	6a3b      	ldr	r3, [r7, #32]
 8005c26:	3b01      	subs	r3, #1
 8005c28:	623b      	str	r3, [r7, #32]
            if (count == 0U)
 8005c2a:	6a3b      	ldr	r3, [r7, #32]
 8005c2c:	2b00      	cmp	r3, #0
 8005c2e:	d118      	bne.n	8005c62 <HAL_I2C_Mem_Read+0x386>
            {
              hi2c->PreviousState       = I2C_STATE_NONE;
 8005c30:	68fb      	ldr	r3, [r7, #12]
 8005c32:	2200      	movs	r2, #0
 8005c34:	631a      	str	r2, [r3, #48]	; 0x30
              hi2c->State               = HAL_I2C_STATE_READY;
 8005c36:	68fb      	ldr	r3, [r7, #12]
 8005c38:	2220      	movs	r2, #32
 8005c3a:	f883 203d 	strb.w	r2, [r3, #61]	; 0x3d
              hi2c->Mode                = HAL_I2C_MODE_NONE;
 8005c3e:	68fb      	ldr	r3, [r7, #12]
 8005c40:	2200      	movs	r2, #0
 8005c42:	f883 203e 	strb.w	r2, [r3, #62]	; 0x3e
              hi2c->ErrorCode           |= HAL_I2C_ERROR_TIMEOUT;
 8005c46:	68fb      	ldr	r3, [r7, #12]
 8005c48:	6c1b      	ldr	r3, [r3, #64]	; 0x40
 8005c4a:	f043 0220 	orr.w	r2, r3, #32
 8005c4e:	68fb      	ldr	r3, [r7, #12]
 8005c50:	641a      	str	r2, [r3, #64]	; 0x40
  __ASM volatile ("cpsie i" : : : "memory");
 8005c52:	b662      	cpsie	i
}
 8005c54:	bf00      	nop

              /* Re-enable IRQs */
              __enable_irq();

              /* Process Unlocked */
              __HAL_UNLOCK(hi2c);
 8005c56:	68fb      	ldr	r3, [r7, #12]
 8005c58:	2200      	movs	r2, #0
 8005c5a:	f883 203c 	strb.w	r2, [r3, #60]	; 0x3c

              return HAL_ERROR;
 8005c5e:	2301      	movs	r3, #1
 8005c60:	e09a      	b.n	8005d98 <HAL_I2C_Mem_Read+0x4bc>
            }
          }
          while (__HAL_I2C_GET_FLAG(hi2c, I2C_FLAG_BTF) == RESET);
 8005c62:	68fb      	ldr	r3, [r7, #12]
 8005c64:	681b      	ldr	r3, [r3, #0]
 8005c66:	695b      	ldr	r3, [r3, #20]
 8005c68:	f003 0304 	and.w	r3, r3, #4
 8005c6c:	2b04      	cmp	r3, #4
 8005c6e:	d1d9      	bne.n	8005c24 <HAL_I2C_Mem_Read+0x348>

          /* Generate Stop */
          SET_BIT(hi2c->Instance->CR1, I2C_CR1_STOP);
 8005c70:	68fb      	ldr	r3, [r7, #12]
 8005c72:	681b      	ldr	r3, [r3, #0]
 8005c74:	681a      	ldr	r2, [r3, #0]
 8005c76:	68fb      	ldr	r3, [r7, #12]
 8005c78:	681b      	ldr	r3, [r3, #0]
 8005c7a:	f442 7200 	orr.w	r2, r2, #512	; 0x200
 8005c7e:	601a      	str	r2, [r3, #0]

          /* Read data from DR */
          *hi2c->pBuffPtr = (uint8_t)hi2c->Instance->DR;
 8005c80:	68fb      	ldr	r3, [r7, #12]
 8005c82:	681b      	ldr	r3, [r3, #0]
 8005c84:	691a      	ldr	r2, [r3, #16]
 8005c86:	68fb      	ldr	r3, [r7, #12]
 8005c88:	6a5b      	ldr	r3, [r3, #36]	; 0x24
 8005c8a:	b2d2      	uxtb	r2, r2
 8005c8c:	701a      	strb	r2, [r3, #0]

          /* Increment Buffer pointer */
          hi2c->pBuffPtr++;
 8005c8e:	68fb      	ldr	r3, [r7, #12]
 8005c90:	6a5b      	ldr	r3, [r3, #36]	; 0x24
 8005c92:	1c5a      	adds	r2, r3, #1
 8005c94:	68fb      	ldr	r3, [r7, #12]
 8005c96:	625a      	str	r2, [r3, #36]	; 0x24

          /* Update counter */
          hi2c->XferSize--;
 8005c98:	68fb      	ldr	r3, [r7, #12]
 8005c9a:	8d1b      	ldrh	r3, [r3, #40]	; 0x28
 8005c9c:	3b01      	subs	r3, #1
 8005c9e:	b29a      	uxth	r2, r3
 8005ca0:	68fb      	ldr	r3, [r7, #12]
 8005ca2:	851a      	strh	r2, [r3, #40]	; 0x28
          hi2c->XferCount--;
 8005ca4:	68fb      	ldr	r3, [r7, #12]
 8005ca6:	8d5b      	ldrh	r3, [r3, #42]	; 0x2a
 8005ca8:	b29b      	uxth	r3, r3
 8005caa:	3b01      	subs	r3, #1
 8005cac:	b29a      	uxth	r2, r3
 8005cae:	68fb      	ldr	r3, [r7, #12]
 8005cb0:	855a      	strh	r2, [r3, #42]	; 0x2a
  __ASM volatile ("cpsie i" : : : "memory");
 8005cb2:	b662      	cpsie	i
}
 8005cb4:	bf00      	nop

          /* Re-enable IRQs */
          __enable_irq();

          /* Read data from DR */
          *hi2c->pBuffPtr = (uint8_t)hi2c->Instance->DR;
 8005cb6:	68fb      	ldr	r3, [r7, #12]
 8005cb8:	681b      	ldr	r3, [r3, #0]
 8005cba:	691a      	ldr	r2, [r3, #16]
 8005cbc:	68fb      	ldr	r3, [r7, #12]
 8005cbe:	6a5b      	ldr	r3, [r3, #36]	; 0x24
 8005cc0:	b2d2      	uxtb	r2, r2
 8005cc2:	701a      	strb	r2, [r3, #0]

          /* Increment Buffer pointer */
          hi2c->pBuffPtr++;
 8005cc4:	68fb      	ldr	r3, [r7, #12]
 8005cc6:	6a5b      	ldr	r3, [r3, #36]	; 0x24
 8005cc8:	1c5a      	adds	r2, r3, #1
 8005cca:	68fb      	ldr	r3, [r7, #12]
 8005ccc:	625a      	str	r2, [r3, #36]	; 0x24

          /* Update counter */
          hi2c->XferSize--;
 8005cce:	68fb      	ldr	r3, [r7, #12]
 8005cd0:	8d1b      	ldrh	r3, [r3, #40]	; 0x28
 8005cd2:	3b01      	subs	r3, #1
 8005cd4:	b29a      	uxth	r2, r3
 8005cd6:	68fb      	ldr	r3, [r7, #12]
 8005cd8:	851a      	strh	r2, [r3, #40]	; 0x28
          hi2c->XferCount--;
 8005cda:	68fb      	ldr	r3, [r7, #12]
 8005cdc:	8d5b      	ldrh	r3, [r3, #42]	; 0x2a
 8005cde:	b29b      	uxth	r3, r3
 8005ce0:	3b01      	subs	r3, #1
 8005ce2:	b29a      	uxth	r2, r3
 8005ce4:	68fb      	ldr	r3, [r7, #12]
 8005ce6:	855a      	strh	r2, [r3, #42]	; 0x2a
 8005ce8:	e042      	b.n	8005d70 <HAL_I2C_Mem_Read+0x494>
        }
      }
      else
      {
        /* Wait until RXNE flag is set */
        if (I2C_WaitOnRXNEFlagUntilTimeout(hi2c, Timeout, tickstart) != HAL_OK)
 8005cea:	6a7a      	ldr	r2, [r7, #36]	; 0x24
 8005cec:	6bb9      	ldr	r1, [r7, #56]	; 0x38
 8005cee:	68f8      	ldr	r0, [r7, #12]
 8005cf0:	f000 fb84 	bl	80063fc <I2C_WaitOnRXNEFlagUntilTimeout>
 8005cf4:	4603      	mov	r3, r0
 8005cf6:	2b00      	cmp	r3, #0
 8005cf8:	d001      	beq.n	8005cfe <HAL_I2C_Mem_Read+0x422>
        {
          return HAL_ERROR;
 8005cfa:	2301      	movs	r3, #1
 8005cfc:	e04c      	b.n	8005d98 <HAL_I2C_Mem_Read+0x4bc>
        }

        /* Read data from DR */
        *hi2c->pBuffPtr = (uint8_t)hi2c->Instance->DR;
 8005cfe:	68fb      	ldr	r3, [r7, #12]
 8005d00:	681b      	ldr	r3, [r3, #0]
 8005d02:	691a      	ldr	r2, [r3, #16]
 8005d04:	68fb      	ldr	r3, [r7, #12]
 8005d06:	6a5b      	ldr	r3, [r3, #36]	; 0x24
 8005d08:	b2d2      	uxtb	r2, r2
 8005d0a:	701a      	strb	r2, [r3, #0]

        /* Increment Buffer pointer */
        hi2c->pBuffPtr++;
 8005d0c:	68fb      	ldr	r3, [r7, #12]
 8005d0e:	6a5b      	ldr	r3, [r3, #36]	; 0x24
 8005d10:	1c5a      	adds	r2, r3, #1
 8005d12:	68fb      	ldr	r3, [r7, #12]
 8005d14:	625a      	str	r2, [r3, #36]	; 0x24

        /* Update counter */
        hi2c->XferSize--;
 8005d16:	68fb      	ldr	r3, [r7, #12]
 8005d18:	8d1b      	ldrh	r3, [r3, #40]	; 0x28
 8005d1a:	3b01      	subs	r3, #1
 8005d1c:	b29a      	uxth	r2, r3
 8005d1e:	68fb      	ldr	r3, [r7, #12]
 8005d20:	851a      	strh	r2, [r3, #40]	; 0x28
        hi2c->XferCount--;
 8005d22:	68fb      	ldr	r3, [r7, #12]
 8005d24:	8d5b      	ldrh	r3, [r3, #42]	; 0x2a
 8005d26:	b29b      	uxth	r3, r3
 8005d28:	3b01      	subs	r3, #1
 8005d2a:	b29a      	uxth	r2, r3
 8005d2c:	68fb      	ldr	r3, [r7, #12]
 8005d2e:	855a      	strh	r2, [r3, #42]	; 0x2a

        if (__HAL_I2C_GET_FLAG(hi2c, I2C_FLAG_BTF) == SET)
 8005d30:	68fb      	ldr	r3, [r7, #12]
 8005d32:	681b      	ldr	r3, [r3, #0]
 8005d34:	695b      	ldr	r3, [r3, #20]
 8005d36:	f003 0304 	and.w	r3, r3, #4
 8005d3a:	2b04      	cmp	r3, #4
 8005d3c:	d118      	bne.n	8005d70 <HAL_I2C_Mem_Read+0x494>
        {
          /* Read data from DR */
          *hi2c->pBuffPtr = (uint8_t)hi2c->Instance->DR;
 8005d3e:	68fb      	ldr	r3, [r7, #12]
 8005d40:	681b      	ldr	r3, [r3, #0]
 8005d42:	691a      	ldr	r2, [r3, #16]
 8005d44:	68fb      	ldr	r3, [r7, #12]
 8005d46:	6a5b      	ldr	r3, [r3, #36]	; 0x24
 8005d48:	b2d2      	uxtb	r2, r2
 8005d4a:	701a      	strb	r2, [r3, #0]

          /* Increment Buffer pointer */
          hi2c->pBuffPtr++;
 8005d4c:	68fb      	ldr	r3, [r7, #12]
 8005d4e:	6a5b      	ldr	r3, [r3, #36]	; 0x24
 8005d50:	1c5a      	adds	r2, r3, #1
 8005d52:	68fb      	ldr	r3, [r7, #12]
 8005d54:	625a      	str	r2, [r3, #36]	; 0x24

          /* Update counter */
          hi2c->XferSize--;
 8005d56:	68fb      	ldr	r3, [r7, #12]
 8005d58:	8d1b      	ldrh	r3, [r3, #40]	; 0x28
 8005d5a:	3b01      	subs	r3, #1
 8005d5c:	b29a      	uxth	r2, r3
 8005d5e:	68fb      	ldr	r3, [r7, #12]
 8005d60:	851a      	strh	r2, [r3, #40]	; 0x28
          hi2c->XferCount--;
 8005d62:	68fb      	ldr	r3, [r7, #12]
 8005d64:	8d5b      	ldrh	r3, [r3, #42]	; 0x2a
 8005d66:	b29b      	uxth	r3, r3
 8005d68:	3b01      	subs	r3, #1
 8005d6a:	b29a      	uxth	r2, r3
 8005d6c:	68fb      	ldr	r3, [r7, #12]
 8005d6e:	855a      	strh	r2, [r3, #42]	; 0x2a
    while (hi2c->XferSize > 0U)
 8005d70:	68fb      	ldr	r3, [r7, #12]
 8005d72:	8d1b      	ldrh	r3, [r3, #40]	; 0x28
 8005d74:	2b00      	cmp	r3, #0
 8005d76:	f47f ae94 	bne.w	8005aa2 <HAL_I2C_Mem_Read+0x1c6>
        }
      }
    }

    hi2c->State = HAL_I2C_STATE_READY;
 8005d7a:	68fb      	ldr	r3, [r7, #12]
 8005d7c:	2220      	movs	r2, #32
 8005d7e:	f883 203d 	strb.w	r2, [r3, #61]	; 0x3d
    hi2c->Mode = HAL_I2C_MODE_NONE;
 8005d82:	68fb      	ldr	r3, [r7, #12]
 8005d84:	2200      	movs	r2, #0
 8005d86:	f883 203e 	strb.w	r2, [r3, #62]	; 0x3e

    /* Process Unlocked */
    __HAL_UNLOCK(hi2c);
 8005d8a:	68fb      	ldr	r3, [r7, #12]
 8005d8c:	2200      	movs	r2, #0
 8005d8e:	f883 203c 	strb.w	r2, [r3, #60]	; 0x3c

    return HAL_OK;
 8005d92:	2300      	movs	r3, #0
 8005d94:	e000      	b.n	8005d98 <HAL_I2C_Mem_Read+0x4bc>
  }
  else
  {
    return HAL_BUSY;
 8005d96:	2302      	movs	r3, #2
  }
}
 8005d98:	4618      	mov	r0, r3
 8005d9a:	3728      	adds	r7, #40	; 0x28
 8005d9c:	46bd      	mov	sp, r7
 8005d9e:	bd80      	pop	{r7, pc}
 8005da0:	00010004 	.word	0x00010004
 8005da4:	200000ac 	.word	0x200000ac
 8005da8:	14f8b589 	.word	0x14f8b589

08005dac <I2C_RequestMemoryWrite>:
  * @param  Timeout Timeout duration
  * @param  Tickstart Tick start value
  * @retval HAL status
  */
static HAL_StatusTypeDef I2C_RequestMemoryWrite(I2C_HandleTypeDef *hi2c, uint16_t DevAddress, uint16_t MemAddress, uint16_t MemAddSize, uint32_t Timeout, uint32_t Tickstart)
{
 8005dac:	b580      	push	{r7, lr}
 8005dae:	b088      	sub	sp, #32
 8005db0:	af02      	add	r7, sp, #8
 8005db2:	60f8      	str	r0, [r7, #12]
 8005db4:	4608      	mov	r0, r1
 8005db6:	4611      	mov	r1, r2
 8005db8:	461a      	mov	r2, r3
 8005dba:	4603      	mov	r3, r0
 8005dbc:	817b      	strh	r3, [r7, #10]
 8005dbe:	460b      	mov	r3, r1
 8005dc0:	813b      	strh	r3, [r7, #8]
 8005dc2:	4613      	mov	r3, r2
 8005dc4:	80fb      	strh	r3, [r7, #6]
  /* Generate Start */
  SET_BIT(hi2c->Instance->CR1, I2C_CR1_START);
 8005dc6:	68fb      	ldr	r3, [r7, #12]
 8005dc8:	681b      	ldr	r3, [r3, #0]
 8005dca:	681a      	ldr	r2, [r3, #0]
 8005dcc:	68fb      	ldr	r3, [r7, #12]
 8005dce:	681b      	ldr	r3, [r3, #0]
 8005dd0:	f442 7280 	orr.w	r2, r2, #256	; 0x100
 8005dd4:	601a      	str	r2, [r3, #0]

  /* Wait until SB flag is set */
  if (I2C_WaitOnFlagUntilTimeout(hi2c, I2C_FLAG_SB, RESET, Timeout, Tickstart) != HAL_OK)
 8005dd6:	6a7b      	ldr	r3, [r7, #36]	; 0x24
 8005dd8:	9300      	str	r3, [sp, #0]
 8005dda:	6a3b      	ldr	r3, [r7, #32]
 8005ddc:	2200      	movs	r2, #0
 8005dde:	f04f 1101 	mov.w	r1, #65537	; 0x10001
 8005de2:	68f8      	ldr	r0, [r7, #12]
 8005de4:	f000 f960 	bl	80060a8 <I2C_WaitOnFlagUntilTimeout>
 8005de8:	4603      	mov	r3, r0
 8005dea:	2b00      	cmp	r3, #0
 8005dec:	d00d      	beq.n	8005e0a <I2C_RequestMemoryWrite+0x5e>
  {
    if (READ_BIT(hi2c->Instance->CR1, I2C_CR1_START) == I2C_CR1_START)
 8005dee:	68fb      	ldr	r3, [r7, #12]
 8005df0:	681b      	ldr	r3, [r3, #0]
 8005df2:	681b      	ldr	r3, [r3, #0]
 8005df4:	f403 7380 	and.w	r3, r3, #256	; 0x100
 8005df8:	f5b3 7f80 	cmp.w	r3, #256	; 0x100
 8005dfc:	d103      	bne.n	8005e06 <I2C_RequestMemoryWrite+0x5a>
    {
      hi2c->ErrorCode = HAL_I2C_WRONG_START;
 8005dfe:	68fb      	ldr	r3, [r7, #12]
 8005e00:	f44f 7200 	mov.w	r2, #512	; 0x200
 8005e04:	641a      	str	r2, [r3, #64]	; 0x40
    }
    return HAL_TIMEOUT;
 8005e06:	2303      	movs	r3, #3
 8005e08:	e05f      	b.n	8005eca <I2C_RequestMemoryWrite+0x11e>
  }

  /* Send slave address */
  hi2c->Instance->DR = I2C_7BIT_ADD_WRITE(DevAddress);
 8005e0a:	897b      	ldrh	r3, [r7, #10]
 8005e0c:	b2db      	uxtb	r3, r3
 8005e0e:	461a      	mov	r2, r3
 8005e10:	68fb      	ldr	r3, [r7, #12]
 8005e12:	681b      	ldr	r3, [r3, #0]
 8005e14:	f002 02fe 	and.w	r2, r2, #254	; 0xfe
 8005e18:	611a      	str	r2, [r3, #16]

  /* Wait until ADDR flag is set */
  if (I2C_WaitOnMasterAddressFlagUntilTimeout(hi2c, I2C_FLAG_ADDR, Timeout, Tickstart) != HAL_OK)
 8005e1a:	6a7b      	ldr	r3, [r7, #36]	; 0x24
 8005e1c:	6a3a      	ldr	r2, [r7, #32]
 8005e1e:	492d      	ldr	r1, [pc, #180]	; (8005ed4 <I2C_RequestMemoryWrite+0x128>)
 8005e20:	68f8      	ldr	r0, [r7, #12]
 8005e22:	f000 f9bb 	bl	800619c <I2C_WaitOnMasterAddressFlagUntilTimeout>
 8005e26:	4603      	mov	r3, r0
 8005e28:	2b00      	cmp	r3, #0
 8005e2a:	d001      	beq.n	8005e30 <I2C_RequestMemoryWrite+0x84>
  {
    return HAL_ERROR;
 8005e2c:	2301      	movs	r3, #1
 8005e2e:	e04c      	b.n	8005eca <I2C_RequestMemoryWrite+0x11e>
  }

  /* Clear ADDR flag */
  __HAL_I2C_CLEAR_ADDRFLAG(hi2c);
 8005e30:	2300      	movs	r3, #0
 8005e32:	617b      	str	r3, [r7, #20]
 8005e34:	68fb      	ldr	r3, [r7, #12]
 8005e36:	681b      	ldr	r3, [r3, #0]
 8005e38:	695b      	ldr	r3, [r3, #20]
 8005e3a:	617b      	str	r3, [r7, #20]
 8005e3c:	68fb      	ldr	r3, [r7, #12]
 8005e3e:	681b      	ldr	r3, [r3, #0]
 8005e40:	699b      	ldr	r3, [r3, #24]
 8005e42:	617b      	str	r3, [r7, #20]
 8005e44:	697b      	ldr	r3, [r7, #20]

  /* Wait until TXE flag is set */
  if (I2C_WaitOnTXEFlagUntilTimeout(hi2c, Timeout, Tickstart) != HAL_OK)
 8005e46:	6a7a      	ldr	r2, [r7, #36]	; 0x24
 8005e48:	6a39      	ldr	r1, [r7, #32]
 8005e4a:	68f8      	ldr	r0, [r7, #12]
 8005e4c:	f000 fa46 	bl	80062dc <I2C_WaitOnTXEFlagUntilTimeout>
 8005e50:	4603      	mov	r3, r0
 8005e52:	2b00      	cmp	r3, #0
 8005e54:	d00d      	beq.n	8005e72 <I2C_RequestMemoryWrite+0xc6>
  {
    if (hi2c->ErrorCode == HAL_I2C_ERROR_AF)
 8005e56:	68fb      	ldr	r3, [r7, #12]
 8005e58:	6c1b      	ldr	r3, [r3, #64]	; 0x40
 8005e5a:	2b04      	cmp	r3, #4
 8005e5c:	d107      	bne.n	8005e6e <I2C_RequestMemoryWrite+0xc2>
    {
      /* Generate Stop */
      SET_BIT(hi2c->Instance->CR1, I2C_CR1_STOP);
 8005e5e:	68fb      	ldr	r3, [r7, #12]
 8005e60:	681b      	ldr	r3, [r3, #0]
 8005e62:	681a      	ldr	r2, [r3, #0]
 8005e64:	68fb      	ldr	r3, [r7, #12]
 8005e66:	681b      	ldr	r3, [r3, #0]
 8005e68:	f442 7200 	orr.w	r2, r2, #512	; 0x200
 8005e6c:	601a      	str	r2, [r3, #0]
    }
    return HAL_ERROR;
 8005e6e:	2301      	movs	r3, #1
 8005e70:	e02b      	b.n	8005eca <I2C_RequestMemoryWrite+0x11e>
  }

  /* If Memory address size is 8Bit */
  if (MemAddSize == I2C_MEMADD_SIZE_8BIT)
 8005e72:	88fb      	ldrh	r3, [r7, #6]
 8005e74:	2b01      	cmp	r3, #1
 8005e76:	d105      	bne.n	8005e84 <I2C_RequestMemoryWrite+0xd8>
  {
    /* Send Memory Address */
    hi2c->Instance->DR = I2C_MEM_ADD_LSB(MemAddress);
 8005e78:	893b      	ldrh	r3, [r7, #8]
 8005e7a:	b2da      	uxtb	r2, r3
 8005e7c:	68fb      	ldr	r3, [r7, #12]
 8005e7e:	681b      	ldr	r3, [r3, #0]
 8005e80:	611a      	str	r2, [r3, #16]
 8005e82:	e021      	b.n	8005ec8 <I2C_RequestMemoryWrite+0x11c>
  }
  /* If Memory address size is 16Bit */
  else
  {
    /* Send MSB of Memory Address */
    hi2c->Instance->DR = I2C_MEM_ADD_MSB(MemAddress);
 8005e84:	893b      	ldrh	r3, [r7, #8]
 8005e86:	0a1b      	lsrs	r3, r3, #8
 8005e88:	b29b      	uxth	r3, r3
 8005e8a:	b2da      	uxtb	r2, r3
 8005e8c:	68fb      	ldr	r3, [r7, #12]
 8005e8e:	681b      	ldr	r3, [r3, #0]
 8005e90:	611a      	str	r2, [r3, #16]

    /* Wait until TXE flag is set */
    if (I2C_WaitOnTXEFlagUntilTimeout(hi2c, Timeout, Tickstart) != HAL_OK)
 8005e92:	6a7a      	ldr	r2, [r7, #36]	; 0x24
 8005e94:	6a39      	ldr	r1, [r7, #32]
 8005e96:	68f8      	ldr	r0, [r7, #12]
 8005e98:	f000 fa20 	bl	80062dc <I2C_WaitOnTXEFlagUntilTimeout>
 8005e9c:	4603      	mov	r3, r0
 8005e9e:	2b00      	cmp	r3, #0
 8005ea0:	d00d      	beq.n	8005ebe <I2C_RequestMemoryWrite+0x112>
    {
      if (hi2c->ErrorCode == HAL_I2C_ERROR_AF)
 8005ea2:	68fb      	ldr	r3, [r7, #12]
 8005ea4:	6c1b      	ldr	r3, [r3, #64]	; 0x40
 8005ea6:	2b04      	cmp	r3, #4
 8005ea8:	d107      	bne.n	8005eba <I2C_RequestMemoryWrite+0x10e>
      {
        /* Generate Stop */
        SET_BIT(hi2c->Instance->CR1, I2C_CR1_STOP);
 8005eaa:	68fb      	ldr	r3, [r7, #12]
 8005eac:	681b      	ldr	r3, [r3, #0]
 8005eae:	681a      	ldr	r2, [r3, #0]
 8005eb0:	68fb      	ldr	r3, [r7, #12]
 8005eb2:	681b      	ldr	r3, [r3, #0]
 8005eb4:	f442 7200 	orr.w	r2, r2, #512	; 0x200
 8005eb8:	601a      	str	r2, [r3, #0]
      }
      return HAL_ERROR;
 8005eba:	2301      	movs	r3, #1
 8005ebc:	e005      	b.n	8005eca <I2C_RequestMemoryWrite+0x11e>
    }

    /* Send LSB of Memory Address */
    hi2c->Instance->DR = I2C_MEM_ADD_LSB(MemAddress);
 8005ebe:	893b      	ldrh	r3, [r7, #8]
 8005ec0:	b2da      	uxtb	r2, r3
 8005ec2:	68fb      	ldr	r3, [r7, #12]
 8005ec4:	681b      	ldr	r3, [r3, #0]
 8005ec6:	611a      	str	r2, [r3, #16]
  }

  return HAL_OK;
 8005ec8:	2300      	movs	r3, #0
}
 8005eca:	4618      	mov	r0, r3
 8005ecc:	3718      	adds	r7, #24
 8005ece:	46bd      	mov	sp, r7
 8005ed0:	bd80      	pop	{r7, pc}
 8005ed2:	bf00      	nop
 8005ed4:	00010002 	.word	0x00010002

08005ed8 <I2C_RequestMemoryRead>:
  * @param  Timeout Timeout duration
  * @param  Tickstart Tick start value
  * @retval HAL status
  */
static HAL_StatusTypeDef I2C_RequestMemoryRead(I2C_HandleTypeDef *hi2c, uint16_t DevAddress, uint16_t MemAddress, uint16_t MemAddSize, uint32_t Timeout, uint32_t Tickstart)
{
 8005ed8:	b580      	push	{r7, lr}
 8005eda:	b088      	sub	sp, #32
 8005edc:	af02      	add	r7, sp, #8
 8005ede:	60f8      	str	r0, [r7, #12]
 8005ee0:	4608      	mov	r0, r1
 8005ee2:	4611      	mov	r1, r2
 8005ee4:	461a      	mov	r2, r3
 8005ee6:	4603      	mov	r3, r0
 8005ee8:	817b      	strh	r3, [r7, #10]
 8005eea:	460b      	mov	r3, r1
 8005eec:	813b      	strh	r3, [r7, #8]
 8005eee:	4613      	mov	r3, r2
 8005ef0:	80fb      	strh	r3, [r7, #6]
  /* Enable Acknowledge */
  SET_BIT(hi2c->Instance->CR1, I2C_CR1_ACK);
 8005ef2:	68fb      	ldr	r3, [r7, #12]
 8005ef4:	681b      	ldr	r3, [r3, #0]
 8005ef6:	681a      	ldr	r2, [r3, #0]
 8005ef8:	68fb      	ldr	r3, [r7, #12]
 8005efa:	681b      	ldr	r3, [r3, #0]
 8005efc:	f442 6280 	orr.w	r2, r2, #1024	; 0x400
 8005f00:	601a      	str	r2, [r3, #0]

  /* Generate Start */
  SET_BIT(hi2c->Instance->CR1, I2C_CR1_START);
 8005f02:	68fb      	ldr	r3, [r7, #12]
 8005f04:	681b      	ldr	r3, [r3, #0]
 8005f06:	681a      	ldr	r2, [r3, #0]
 8005f08:	68fb      	ldr	r3, [r7, #12]
 8005f0a:	681b      	ldr	r3, [r3, #0]
 8005f0c:	f442 7280 	orr.w	r2, r2, #256	; 0x100
 8005f10:	601a      	str	r2, [r3, #0]

  /* Wait until SB flag is set */
  if (I2C_WaitOnFlagUntilTimeout(hi2c, I2C_FLAG_SB, RESET, Timeout, Tickstart) != HAL_OK)
 8005f12:	6a7b      	ldr	r3, [r7, #36]	; 0x24
 8005f14:	9300      	str	r3, [sp, #0]
 8005f16:	6a3b      	ldr	r3, [r7, #32]
 8005f18:	2200      	movs	r2, #0
 8005f1a:	f04f 1101 	mov.w	r1, #65537	; 0x10001
 8005f1e:	68f8      	ldr	r0, [r7, #12]
 8005f20:	f000 f8c2 	bl	80060a8 <I2C_WaitOnFlagUntilTimeout>
 8005f24:	4603      	mov	r3, r0
 8005f26:	2b00      	cmp	r3, #0
 8005f28:	d00d      	beq.n	8005f46 <I2C_RequestMemoryRead+0x6e>
  {
    if (READ_BIT(hi2c->Instance->CR1, I2C_CR1_START) == I2C_CR1_START)
 8005f2a:	68fb      	ldr	r3, [r7, #12]
 8005f2c:	681b      	ldr	r3, [r3, #0]
 8005f2e:	681b      	ldr	r3, [r3, #0]
 8005f30:	f403 7380 	and.w	r3, r3, #256	; 0x100
 8005f34:	f5b3 7f80 	cmp.w	r3, #256	; 0x100
 8005f38:	d103      	bne.n	8005f42 <I2C_RequestMemoryRead+0x6a>
    {
      hi2c->ErrorCode = HAL_I2C_WRONG_START;
 8005f3a:	68fb      	ldr	r3, [r7, #12]
 8005f3c:	f44f 7200 	mov.w	r2, #512	; 0x200
 8005f40:	641a      	str	r2, [r3, #64]	; 0x40
    }
    return HAL_TIMEOUT;
 8005f42:	2303      	movs	r3, #3
 8005f44:	e0aa      	b.n	800609c <I2C_RequestMemoryRead+0x1c4>
  }

  /* Send slave address */
  hi2c->Instance->DR = I2C_7BIT_ADD_WRITE(DevAddress);
 8005f46:	897b      	ldrh	r3, [r7, #10]
 8005f48:	b2db      	uxtb	r3, r3
 8005f4a:	461a      	mov	r2, r3
 8005f4c:	68fb      	ldr	r3, [r7, #12]
 8005f4e:	681b      	ldr	r3, [r3, #0]
 8005f50:	f002 02fe 	and.w	r2, r2, #254	; 0xfe
 8005f54:	611a      	str	r2, [r3, #16]

  /* Wait until ADDR flag is set */
  if (I2C_WaitOnMasterAddressFlagUntilTimeout(hi2c, I2C_FLAG_ADDR, Timeout, Tickstart) != HAL_OK)
 8005f56:	6a7b      	ldr	r3, [r7, #36]	; 0x24
 8005f58:	6a3a      	ldr	r2, [r7, #32]
 8005f5a:	4952      	ldr	r1, [pc, #328]	; (80060a4 <I2C_RequestMemoryRead+0x1cc>)
 8005f5c:	68f8      	ldr	r0, [r7, #12]
 8005f5e:	f000 f91d 	bl	800619c <I2C_WaitOnMasterAddressFlagUntilTimeout>
 8005f62:	4603      	mov	r3, r0
 8005f64:	2b00      	cmp	r3, #0
 8005f66:	d001      	beq.n	8005f6c <I2C_RequestMemoryRead+0x94>
  {
    return HAL_ERROR;
 8005f68:	2301      	movs	r3, #1
 8005f6a:	e097      	b.n	800609c <I2C_RequestMemoryRead+0x1c4>
  }

  /* Clear ADDR flag */
  __HAL_I2C_CLEAR_ADDRFLAG(hi2c);
 8005f6c:	2300      	movs	r3, #0
 8005f6e:	617b      	str	r3, [r7, #20]
 8005f70:	68fb      	ldr	r3, [r7, #12]
 8005f72:	681b      	ldr	r3, [r3, #0]
 8005f74:	695b      	ldr	r3, [r3, #20]
 8005f76:	617b      	str	r3, [r7, #20]
 8005f78:	68fb      	ldr	r3, [r7, #12]
 8005f7a:	681b      	ldr	r3, [r3, #0]
 8005f7c:	699b      	ldr	r3, [r3, #24]
 8005f7e:	617b      	str	r3, [r7, #20]
 8005f80:	697b      	ldr	r3, [r7, #20]

  /* Wait until TXE flag is set */
  if (I2C_WaitOnTXEFlagUntilTimeout(hi2c, Timeout, Tickstart) != HAL_OK)
 8005f82:	6a7a      	ldr	r2, [r7, #36]	; 0x24
 8005f84:	6a39      	ldr	r1, [r7, #32]
 8005f86:	68f8      	ldr	r0, [r7, #12]
 8005f88:	f000 f9a8 	bl	80062dc <I2C_WaitOnTXEFlagUntilTimeout>
 8005f8c:	4603      	mov	r3, r0
 8005f8e:	2b00      	cmp	r3, #0
 8005f90:	d00d      	beq.n	8005fae <I2C_RequestMemoryRead+0xd6>
  {
    if (hi2c->ErrorCode == HAL_I2C_ERROR_AF)
 8005f92:	68fb      	ldr	r3, [r7, #12]
 8005f94:	6c1b      	ldr	r3, [r3, #64]	; 0x40
 8005f96:	2b04      	cmp	r3, #4
 8005f98:	d107      	bne.n	8005faa <I2C_RequestMemoryRead+0xd2>
    {
      /* Generate Stop */
      SET_BIT(hi2c->Instance->CR1, I2C_CR1_STOP);
 8005f9a:	68fb      	ldr	r3, [r7, #12]
 8005f9c:	681b      	ldr	r3, [r3, #0]
 8005f9e:	681a      	ldr	r2, [r3, #0]
 8005fa0:	68fb      	ldr	r3, [r7, #12]
 8005fa2:	681b      	ldr	r3, [r3, #0]
 8005fa4:	f442 7200 	orr.w	r2, r2, #512	; 0x200
 8005fa8:	601a      	str	r2, [r3, #0]
    }
    return HAL_ERROR;
 8005faa:	2301      	movs	r3, #1
 8005fac:	e076      	b.n	800609c <I2C_RequestMemoryRead+0x1c4>
  }

  /* If Memory address size is 8Bit */
  if (MemAddSize == I2C_MEMADD_SIZE_8BIT)
 8005fae:	88fb      	ldrh	r3, [r7, #6]
 8005fb0:	2b01      	cmp	r3, #1
 8005fb2:	d105      	bne.n	8005fc0 <I2C_RequestMemoryRead+0xe8>
  {
    /* Send Memory Address */
    hi2c->Instance->DR = I2C_MEM_ADD_LSB(MemAddress);
 8005fb4:	893b      	ldrh	r3, [r7, #8]
 8005fb6:	b2da      	uxtb	r2, r3
 8005fb8:	68fb      	ldr	r3, [r7, #12]
 8005fba:	681b      	ldr	r3, [r3, #0]
 8005fbc:	611a      	str	r2, [r3, #16]
 8005fbe:	e021      	b.n	8006004 <I2C_RequestMemoryRead+0x12c>
  }
  /* If Memory address size is 16Bit */
  else
  {
    /* Send MSB of Memory Address */
    hi2c->Instance->DR = I2C_MEM_ADD_MSB(MemAddress);
 8005fc0:	893b      	ldrh	r3, [r7, #8]
 8005fc2:	0a1b      	lsrs	r3, r3, #8
 8005fc4:	b29b      	uxth	r3, r3
 8005fc6:	b2da      	uxtb	r2, r3
 8005fc8:	68fb      	ldr	r3, [r7, #12]
 8005fca:	681b      	ldr	r3, [r3, #0]
 8005fcc:	611a      	str	r2, [r3, #16]

    /* Wait until TXE flag is set */
    if (I2C_WaitOnTXEFlagUntilTimeout(hi2c, Timeout, Tickstart) != HAL_OK)
 8005fce:	6a7a      	ldr	r2, [r7, #36]	; 0x24
 8005fd0:	6a39      	ldr	r1, [r7, #32]
 8005fd2:	68f8      	ldr	r0, [r7, #12]
 8005fd4:	f000 f982 	bl	80062dc <I2C_WaitOnTXEFlagUntilTimeout>
 8005fd8:	4603      	mov	r3, r0
 8005fda:	2b00      	cmp	r3, #0
 8005fdc:	d00d      	beq.n	8005ffa <I2C_RequestMemoryRead+0x122>
    {
      if (hi2c->ErrorCode == HAL_I2C_ERROR_AF)
 8005fde:	68fb      	ldr	r3, [r7, #12]
 8005fe0:	6c1b      	ldr	r3, [r3, #64]	; 0x40
 8005fe2:	2b04      	cmp	r3, #4
 8005fe4:	d107      	bne.n	8005ff6 <I2C_RequestMemoryRead+0x11e>
      {
        /* Generate Stop */
        SET_BIT(hi2c->Instance->CR1, I2C_CR1_STOP);
 8005fe6:	68fb      	ldr	r3, [r7, #12]
 8005fe8:	681b      	ldr	r3, [r3, #0]
 8005fea:	681a      	ldr	r2, [r3, #0]
 8005fec:	68fb      	ldr	r3, [r7, #12]
 8005fee:	681b      	ldr	r3, [r3, #0]
 8005ff0:	f442 7200 	orr.w	r2, r2, #512	; 0x200
 8005ff4:	601a      	str	r2, [r3, #0]
      }
      return HAL_ERROR;
 8005ff6:	2301      	movs	r3, #1
 8005ff8:	e050      	b.n	800609c <I2C_RequestMemoryRead+0x1c4>
    }

    /* Send LSB of Memory Address */
    hi2c->Instance->DR = I2C_MEM_ADD_LSB(MemAddress);
 8005ffa:	893b      	ldrh	r3, [r7, #8]
 8005ffc:	b2da      	uxtb	r2, r3
 8005ffe:	68fb      	ldr	r3, [r7, #12]
 8006000:	681b      	ldr	r3, [r3, #0]
 8006002:	611a      	str	r2, [r3, #16]
  }

  /* Wait until TXE flag is set */
  if (I2C_WaitOnTXEFlagUntilTimeout(hi2c, Timeout, Tickstart) != HAL_OK)
 8006004:	6a7a      	ldr	r2, [r7, #36]	; 0x24
 8006006:	6a39      	ldr	r1, [r7, #32]
 8006008:	68f8      	ldr	r0, [r7, #12]
 800600a:	f000 f967 	bl	80062dc <I2C_WaitOnTXEFlagUntilTimeout>
 800600e:	4603      	mov	r3, r0
 8006010:	2b00      	cmp	r3, #0
 8006012:	d00d      	beq.n	8006030 <I2C_RequestMemoryRead+0x158>
  {
    if (hi2c->ErrorCode == HAL_I2C_ERROR_AF)
 8006014:	68fb      	ldr	r3, [r7, #12]
 8006016:	6c1b      	ldr	r3, [r3, #64]	; 0x40
 8006018:	2b04      	cmp	r3, #4
 800601a:	d107      	bne.n	800602c <I2C_RequestMemoryRead+0x154>
    {
      /* Generate Stop */
      SET_BIT(hi2c->Instance->CR1, I2C_CR1_STOP);
 800601c:	68fb      	ldr	r3, [r7, #12]
 800601e:	681b      	ldr	r3, [r3, #0]
 8006020:	681a      	ldr	r2, [r3, #0]
 8006022:	68fb      	ldr	r3, [r7, #12]
 8006024:	681b      	ldr	r3, [r3, #0]
 8006026:	f442 7200 	orr.w	r2, r2, #512	; 0x200
 800602a:	601a      	str	r2, [r3, #0]
    }
    return HAL_ERROR;
 800602c:	2301      	movs	r3, #1
 800602e:	e035      	b.n	800609c <I2C_RequestMemoryRead+0x1c4>
  }

  /* Generate Restart */
  SET_BIT(hi2c->Instance->CR1, I2C_CR1_START);
 8006030:	68fb      	ldr	r3, [r7, #12]
 8006032:	681b      	ldr	r3, [r3, #0]
 8006034:	681a      	ldr	r2, [r3, #0]
 8006036:	68fb      	ldr	r3, [r7, #12]
 8006038:	681b      	ldr	r3, [r3, #0]
 800603a:	f442 7280 	orr.w	r2, r2, #256	; 0x100
 800603e:	601a      	str	r2, [r3, #0]

  /* Wait until SB flag is set */
  if (I2C_WaitOnFlagUntilTimeout(hi2c, I2C_FLAG_SB, RESET, Timeout, Tickstart) != HAL_OK)
 8006040:	6a7b      	ldr	r3, [r7, #36]	; 0x24
 8006042:	9300      	str	r3, [sp, #0]
 8006044:	6a3b      	ldr	r3, [r7, #32]
 8006046:	2200      	movs	r2, #0
 8006048:	f04f 1101 	mov.w	r1, #65537	; 0x10001
 800604c:	68f8      	ldr	r0, [r7, #12]
 800604e:	f000 f82b 	bl	80060a8 <I2C_WaitOnFlagUntilTimeout>
 8006052:	4603      	mov	r3, r0
 8006054:	2b00      	cmp	r3, #0
 8006056:	d00d      	beq.n	8006074 <I2C_RequestMemoryRead+0x19c>
  {
    if (READ_BIT(hi2c->Instance->CR1, I2C_CR1_START) == I2C_CR1_START)
 8006058:	68fb      	ldr	r3, [r7, #12]
 800605a:	681b      	ldr	r3, [r3, #0]
 800605c:	681b      	ldr	r3, [r3, #0]
 800605e:	f403 7380 	and.w	r3, r3, #256	; 0x100
 8006062:	f5b3 7f80 	cmp.w	r3, #256	; 0x100
 8006066:	d103      	bne.n	8006070 <I2C_RequestMemoryRead+0x198>
    {
      hi2c->ErrorCode = HAL_I2C_WRONG_START;
 8006068:	68fb      	ldr	r3, [r7, #12]
 800606a:	f44f 7200 	mov.w	r2, #512	; 0x200
 800606e:	641a      	str	r2, [r3, #64]	; 0x40
    }
    return HAL_TIMEOUT;
 8006070:	2303      	movs	r3, #3
 8006072:	e013      	b.n	800609c <I2C_RequestMemoryRead+0x1c4>
  }

  /* Send slave address */
  hi2c->Instance->DR = I2C_7BIT_ADD_READ(DevAddress);
 8006074:	897b      	ldrh	r3, [r7, #10]
 8006076:	b2db      	uxtb	r3, r3
 8006078:	f043 0301 	orr.w	r3, r3, #1
 800607c:	b2da      	uxtb	r2, r3
 800607e:	68fb      	ldr	r3, [r7, #12]
 8006080:	681b      	ldr	r3, [r3, #0]
 8006082:	611a      	str	r2, [r3, #16]

  /* Wait until ADDR flag is set */
  if (I2C_WaitOnMasterAddressFlagUntilTimeout(hi2c, I2C_FLAG_ADDR, Timeout, Tickstart) != HAL_OK)
 8006084:	6a7b      	ldr	r3, [r7, #36]	; 0x24
 8006086:	6a3a      	ldr	r2, [r7, #32]
 8006088:	4906      	ldr	r1, [pc, #24]	; (80060a4 <I2C_RequestMemoryRead+0x1cc>)
 800608a:	68f8      	ldr	r0, [r7, #12]
 800608c:	f000 f886 	bl	800619c <I2C_WaitOnMasterAddressFlagUntilTimeout>
 8006090:	4603      	mov	r3, r0
 8006092:	2b00      	cmp	r3, #0
 8006094:	d001      	beq.n	800609a <I2C_RequestMemoryRead+0x1c2>
  {
    return HAL_ERROR;
 8006096:	2301      	movs	r3, #1
 8006098:	e000      	b.n	800609c <I2C_RequestMemoryRead+0x1c4>
  }

  return HAL_OK;
 800609a:	2300      	movs	r3, #0
}
 800609c:	4618      	mov	r0, r3
 800609e:	3718      	adds	r7, #24
 80060a0:	46bd      	mov	sp, r7
 80060a2:	bd80      	pop	{r7, pc}
 80060a4:	00010002 	.word	0x00010002

080060a8 <I2C_WaitOnFlagUntilTimeout>:
  * @param  Timeout Timeout duration
  * @param  Tickstart Tick start value
  * @retval HAL status
  */
static HAL_StatusTypeDef I2C_WaitOnFlagUntilTimeout(I2C_HandleTypeDef *hi2c, uint32_t Flag, FlagStatus Status, uint32_t Timeout, uint32_t Tickstart)
{
 80060a8:	b580      	push	{r7, lr}
 80060aa:	b084      	sub	sp, #16
 80060ac:	af00      	add	r7, sp, #0
 80060ae:	60f8      	str	r0, [r7, #12]
 80060b0:	60b9      	str	r1, [r7, #8]
 80060b2:	603b      	str	r3, [r7, #0]
 80060b4:	4613      	mov	r3, r2
 80060b6:	71fb      	strb	r3, [r7, #7]
  /* Wait until flag is set */
  while (__HAL_I2C_GET_FLAG(hi2c, Flag) == Status)
 80060b8:	e048      	b.n	800614c <I2C_WaitOnFlagUntilTimeout+0xa4>
  {
    /* Check for the Timeout */
    if (Timeout != HAL_MAX_DELAY)
 80060ba:	683b      	ldr	r3, [r7, #0]
 80060bc:	f1b3 3fff 	cmp.w	r3, #4294967295
 80060c0:	d044      	beq.n	800614c <I2C_WaitOnFlagUntilTimeout+0xa4>
    {
      if (((HAL_GetTick() - Tickstart) > Timeout) || (Timeout == 0U))
 80060c2:	f7fe fe67 	bl	8004d94 <HAL_GetTick>
 80060c6:	4602      	mov	r2, r0
 80060c8:	69bb      	ldr	r3, [r7, #24]
 80060ca:	1ad3      	subs	r3, r2, r3
 80060cc:	683a      	ldr	r2, [r7, #0]
 80060ce:	429a      	cmp	r2, r3
 80060d0:	d302      	bcc.n	80060d8 <I2C_WaitOnFlagUntilTimeout+0x30>
 80060d2:	683b      	ldr	r3, [r7, #0]
 80060d4:	2b00      	cmp	r3, #0
 80060d6:	d139      	bne.n	800614c <I2C_WaitOnFlagUntilTimeout+0xa4>
      {
        if ((__HAL_I2C_GET_FLAG(hi2c, Flag) == Status))
 80060d8:	68bb      	ldr	r3, [r7, #8]
 80060da:	0c1b      	lsrs	r3, r3, #16
 80060dc:	b2db      	uxtb	r3, r3
 80060de:	2b01      	cmp	r3, #1
 80060e0:	d10d      	bne.n	80060fe <I2C_WaitOnFlagUntilTimeout+0x56>
 80060e2:	68fb      	ldr	r3, [r7, #12]
 80060e4:	681b      	ldr	r3, [r3, #0]
 80060e6:	695b      	ldr	r3, [r3, #20]
 80060e8:	43da      	mvns	r2, r3
 80060ea:	68bb      	ldr	r3, [r7, #8]
 80060ec:	4013      	ands	r3, r2
 80060ee:	b29b      	uxth	r3, r3
 80060f0:	2b00      	cmp	r3, #0
 80060f2:	bf0c      	ite	eq
 80060f4:	2301      	moveq	r3, #1
 80060f6:	2300      	movne	r3, #0
 80060f8:	b2db      	uxtb	r3, r3
 80060fa:	461a      	mov	r2, r3
 80060fc:	e00c      	b.n	8006118 <I2C_WaitOnFlagUntilTimeout+0x70>
 80060fe:	68fb      	ldr	r3, [r7, #12]
 8006100:	681b      	ldr	r3, [r3, #0]
 8006102:	699b      	ldr	r3, [r3, #24]
 8006104:	43da      	mvns	r2, r3
 8006106:	68bb      	ldr	r3, [r7, #8]
 8006108:	4013      	ands	r3, r2
 800610a:	b29b      	uxth	r3, r3
 800610c:	2b00      	cmp	r3, #0
 800610e:	bf0c      	ite	eq
 8006110:	2301      	moveq	r3, #1
 8006112:	2300      	movne	r3, #0
 8006114:	b2db      	uxtb	r3, r3
 8006116:	461a      	mov	r2, r3
 8006118:	79fb      	ldrb	r3, [r7, #7]
 800611a:	429a      	cmp	r2, r3
 800611c:	d116      	bne.n	800614c <I2C_WaitOnFlagUntilTimeout+0xa4>
        {
          hi2c->PreviousState     = I2C_STATE_NONE;
 800611e:	68fb      	ldr	r3, [r7, #12]
 8006120:	2200      	movs	r2, #0
 8006122:	631a      	str	r2, [r3, #48]	; 0x30
          hi2c->State             = HAL_I2C_STATE_READY;
 8006124:	68fb      	ldr	r3, [r7, #12]
 8006126:	2220      	movs	r2, #32
 8006128:	f883 203d 	strb.w	r2, [r3, #61]	; 0x3d
          hi2c->Mode              = HAL_I2C_MODE_NONE;
 800612c:	68fb      	ldr	r3, [r7, #12]
 800612e:	2200      	movs	r2, #0
 8006130:	f883 203e 	strb.w	r2, [r3, #62]	; 0x3e
          hi2c->ErrorCode         |= HAL_I2C_ERROR_TIMEOUT;
 8006134:	68fb      	ldr	r3, [r7, #12]
 8006136:	6c1b      	ldr	r3, [r3, #64]	; 0x40
 8006138:	f043 0220 	orr.w	r2, r3, #32
 800613c:	68fb      	ldr	r3, [r7, #12]
 800613e:	641a      	str	r2, [r3, #64]	; 0x40

          /* Process Unlocked */
          __HAL_UNLOCK(hi2c);
 8006140:	68fb      	ldr	r3, [r7, #12]
 8006142:	2200      	movs	r2, #0
 8006144:	f883 203c 	strb.w	r2, [r3, #60]	; 0x3c

          return HAL_ERROR;
 8006148:	2301      	movs	r3, #1
 800614a:	e023      	b.n	8006194 <I2C_WaitOnFlagUntilTimeout+0xec>
  while (__HAL_I2C_GET_FLAG(hi2c, Flag) == Status)
 800614c:	68bb      	ldr	r3, [r7, #8]
 800614e:	0c1b      	lsrs	r3, r3, #16
 8006150:	b2db      	uxtb	r3, r3
 8006152:	2b01      	cmp	r3, #1
 8006154:	d10d      	bne.n	8006172 <I2C_WaitOnFlagUntilTimeout+0xca>
 8006156:	68fb      	ldr	r3, [r7, #12]
 8006158:	681b      	ldr	r3, [r3, #0]
 800615a:	695b      	ldr	r3, [r3, #20]
 800615c:	43da      	mvns	r2, r3
 800615e:	68bb      	ldr	r3, [r7, #8]
 8006160:	4013      	ands	r3, r2
 8006162:	b29b      	uxth	r3, r3
 8006164:	2b00      	cmp	r3, #0
 8006166:	bf0c      	ite	eq
 8006168:	2301      	moveq	r3, #1
 800616a:	2300      	movne	r3, #0
 800616c:	b2db      	uxtb	r3, r3
 800616e:	461a      	mov	r2, r3
 8006170:	e00c      	b.n	800618c <I2C_WaitOnFlagUntilTimeout+0xe4>
 8006172:	68fb      	ldr	r3, [r7, #12]
 8006174:	681b      	ldr	r3, [r3, #0]
 8006176:	699b      	ldr	r3, [r3, #24]
 8006178:	43da      	mvns	r2, r3
 800617a:	68bb      	ldr	r3, [r7, #8]
 800617c:	4013      	ands	r3, r2
 800617e:	b29b      	uxth	r3, r3
 8006180:	2b00      	cmp	r3, #0
 8006182:	bf0c      	ite	eq
 8006184:	2301      	moveq	r3, #1
 8006186:	2300      	movne	r3, #0
 8006188:	b2db      	uxtb	r3, r3
 800618a:	461a      	mov	r2, r3
 800618c:	79fb      	ldrb	r3, [r7, #7]
 800618e:	429a      	cmp	r2, r3
 8006190:	d093      	beq.n	80060ba <I2C_WaitOnFlagUntilTimeout+0x12>
        }
      }
    }
  }
  return HAL_OK;
 8006192:	2300      	movs	r3, #0
}
 8006194:	4618      	mov	r0, r3
 8006196:	3710      	adds	r7, #16
 8006198:	46bd      	mov	sp, r7
 800619a:	bd80      	pop	{r7, pc}

0800619c <I2C_WaitOnMasterAddressFlagUntilTimeout>:
  * @param  Timeout Timeout duration
  * @param  Tickstart Tick start value
  * @retval HAL status
  */
static HAL_StatusTypeDef I2C_WaitOnMasterAddressFlagUntilTimeout(I2C_HandleTypeDef *hi2c, uint32_t Flag, uint32_t Timeout, uint32_t Tickstart)
{
 800619c:	b580      	push	{r7, lr}
 800619e:	b084      	sub	sp, #16
 80061a0:	af00      	add	r7, sp, #0
 80061a2:	60f8      	str	r0, [r7, #12]
 80061a4:	60b9      	str	r1, [r7, #8]
 80061a6:	607a      	str	r2, [r7, #4]
 80061a8:	603b      	str	r3, [r7, #0]
  while (__HAL_I2C_GET_FLAG(hi2c, Flag) == RESET)
 80061aa:	e071      	b.n	8006290 <I2C_WaitOnMasterAddressFlagUntilTimeout+0xf4>
  {
    if (__HAL_I2C_GET_FLAG(hi2c, I2C_FLAG_AF) == SET)
 80061ac:	68fb      	ldr	r3, [r7, #12]
 80061ae:	681b      	ldr	r3, [r3, #0]
 80061b0:	695b      	ldr	r3, [r3, #20]
 80061b2:	f403 6380 	and.w	r3, r3, #1024	; 0x400
 80061b6:	f5b3 6f80 	cmp.w	r3, #1024	; 0x400
 80061ba:	d123      	bne.n	8006204 <I2C_WaitOnMasterAddressFlagUntilTimeout+0x68>
    {
      /* Generate Stop */
      SET_BIT(hi2c->Instance->CR1, I2C_CR1_STOP);
 80061bc:	68fb      	ldr	r3, [r7, #12]
 80061be:	681b      	ldr	r3, [r3, #0]
 80061c0:	681a      	ldr	r2, [r3, #0]
 80061c2:	68fb      	ldr	r3, [r7, #12]
 80061c4:	681b      	ldr	r3, [r3, #0]
 80061c6:	f442 7200 	orr.w	r2, r2, #512	; 0x200
 80061ca:	601a      	str	r2, [r3, #0]

      /* Clear AF Flag */
      __HAL_I2C_CLEAR_FLAG(hi2c, I2C_FLAG_AF);
 80061cc:	68fb      	ldr	r3, [r7, #12]
 80061ce:	681b      	ldr	r3, [r3, #0]
 80061d0:	f46f 6280 	mvn.w	r2, #1024	; 0x400
 80061d4:	615a      	str	r2, [r3, #20]

      hi2c->PreviousState       = I2C_STATE_NONE;
 80061d6:	68fb      	ldr	r3, [r7, #12]
 80061d8:	2200      	movs	r2, #0
 80061da:	631a      	str	r2, [r3, #48]	; 0x30
      hi2c->State               = HAL_I2C_STATE_READY;
 80061dc:	68fb      	ldr	r3, [r7, #12]
 80061de:	2220      	movs	r2, #32
 80061e0:	f883 203d 	strb.w	r2, [r3, #61]	; 0x3d
      hi2c->Mode                = HAL_I2C_MODE_NONE;
 80061e4:	68fb      	ldr	r3, [r7, #12]
 80061e6:	2200      	movs	r2, #0
 80061e8:	f883 203e 	strb.w	r2, [r3, #62]	; 0x3e
      hi2c->ErrorCode           |= HAL_I2C_ERROR_AF;
 80061ec:	68fb      	ldr	r3, [r7, #12]
 80061ee:	6c1b      	ldr	r3, [r3, #64]	; 0x40
 80061f0:	f043 0204 	orr.w	r2, r3, #4
 80061f4:	68fb      	ldr	r3, [r7, #12]
 80061f6:	641a      	str	r2, [r3, #64]	; 0x40

      /* Process Unlocked */
      __HAL_UNLOCK(hi2c);
 80061f8:	68fb      	ldr	r3, [r7, #12]
 80061fa:	2200      	movs	r2, #0
 80061fc:	f883 203c 	strb.w	r2, [r3, #60]	; 0x3c

      return HAL_ERROR;
 8006200:	2301      	movs	r3, #1
 8006202:	e067      	b.n	80062d4 <I2C_WaitOnMasterAddressFlagUntilTimeout+0x138>
    }

    /* Check for the Timeout */
    if (Timeout != HAL_MAX_DELAY)
 8006204:	687b      	ldr	r3, [r7, #4]
 8006206:	f1b3 3fff 	cmp.w	r3, #4294967295
 800620a:	d041      	beq.n	8006290 <I2C_WaitOnMasterAddressFlagUntilTimeout+0xf4>
    {
      if (((HAL_GetTick() - Tickstart) > Timeout) || (Timeout == 0U))
 800620c:	f7fe fdc2 	bl	8004d94 <HAL_GetTick>
 8006210:	4602      	mov	r2, r0
 8006212:	683b      	ldr	r3, [r7, #0]
 8006214:	1ad3      	subs	r3, r2, r3
 8006216:	687a      	ldr	r2, [r7, #4]
 8006218:	429a      	cmp	r2, r3
 800621a:	d302      	bcc.n	8006222 <I2C_WaitOnMasterAddressFlagUntilTimeout+0x86>
 800621c:	687b      	ldr	r3, [r7, #4]
 800621e:	2b00      	cmp	r3, #0
 8006220:	d136      	bne.n	8006290 <I2C_WaitOnMasterAddressFlagUntilTimeout+0xf4>
      {
        if ((__HAL_I2C_GET_FLAG(hi2c, Flag) == RESET))
 8006222:	68bb      	ldr	r3, [r7, #8]
 8006224:	0c1b      	lsrs	r3, r3, #16
 8006226:	b2db      	uxtb	r3, r3
 8006228:	2b01      	cmp	r3, #1
 800622a:	d10c      	bne.n	8006246 <I2C_WaitOnMasterAddressFlagUntilTimeout+0xaa>
 800622c:	68fb      	ldr	r3, [r7, #12]
 800622e:	681b      	ldr	r3, [r3, #0]
 8006230:	695b      	ldr	r3, [r3, #20]
 8006232:	43da      	mvns	r2, r3
 8006234:	68bb      	ldr	r3, [r7, #8]
 8006236:	4013      	ands	r3, r2
 8006238:	b29b      	uxth	r3, r3
 800623a:	2b00      	cmp	r3, #0
 800623c:	bf14      	ite	ne
 800623e:	2301      	movne	r3, #1
 8006240:	2300      	moveq	r3, #0
 8006242:	b2db      	uxtb	r3, r3
 8006244:	e00b      	b.n	800625e <I2C_WaitOnMasterAddressFlagUntilTimeout+0xc2>
 8006246:	68fb      	ldr	r3, [r7, #12]
 8006248:	681b      	ldr	r3, [r3, #0]
 800624a:	699b      	ldr	r3, [r3, #24]
 800624c:	43da      	mvns	r2, r3
 800624e:	68bb      	ldr	r3, [r7, #8]
 8006250:	4013      	ands	r3, r2
 8006252:	b29b      	uxth	r3, r3
 8006254:	2b00      	cmp	r3, #0
 8006256:	bf14      	ite	ne
 8006258:	2301      	movne	r3, #1
 800625a:	2300      	moveq	r3, #0
 800625c:	b2db      	uxtb	r3, r3
 800625e:	2b00      	cmp	r3, #0
 8006260:	d016      	beq.n	8006290 <I2C_WaitOnMasterAddressFlagUntilTimeout+0xf4>
        {
          hi2c->PreviousState       = I2C_STATE_NONE;
 8006262:	68fb      	ldr	r3, [r7, #12]
 8006264:	2200      	movs	r2, #0
 8006266:	631a      	str	r2, [r3, #48]	; 0x30
          hi2c->State               = HAL_I2C_STATE_READY;
 8006268:	68fb      	ldr	r3, [r7, #12]
 800626a:	2220      	movs	r2, #32
 800626c:	f883 203d 	strb.w	r2, [r3, #61]	; 0x3d
          hi2c->Mode                = HAL_I2C_MODE_NONE;
 8006270:	68fb      	ldr	r3, [r7, #12]
 8006272:	2200      	movs	r2, #0
 8006274:	f883 203e 	strb.w	r2, [r3, #62]	; 0x3e
          hi2c->ErrorCode           |= HAL_I2C_ERROR_TIMEOUT;
 8006278:	68fb      	ldr	r3, [r7, #12]
 800627a:	6c1b      	ldr	r3, [r3, #64]	; 0x40
 800627c:	f043 0220 	orr.w	r2, r3, #32
 8006280:	68fb      	ldr	r3, [r7, #12]
 8006282:	641a      	str	r2, [r3, #64]	; 0x40

          /* Process Unlocked */
          __HAL_UNLOCK(hi2c);
 8006284:	68fb      	ldr	r3, [r7, #12]
 8006286:	2200      	movs	r2, #0
 8006288:	f883 203c 	strb.w	r2, [r3, #60]	; 0x3c

          return HAL_ERROR;
 800628c:	2301      	movs	r3, #1
 800628e:	e021      	b.n	80062d4 <I2C_WaitOnMasterAddressFlagUntilTimeout+0x138>
  while (__HAL_I2C_GET_FLAG(hi2c, Flag) == RESET)
 8006290:	68bb      	ldr	r3, [r7, #8]
 8006292:	0c1b      	lsrs	r3, r3, #16
 8006294:	b2db      	uxtb	r3, r3
 8006296:	2b01      	cmp	r3, #1
 8006298:	d10c      	bne.n	80062b4 <I2C_WaitOnMasterAddressFlagUntilTimeout+0x118>
 800629a:	68fb      	ldr	r3, [r7, #12]
 800629c:	681b      	ldr	r3, [r3, #0]
 800629e:	695b      	ldr	r3, [r3, #20]
 80062a0:	43da      	mvns	r2, r3
 80062a2:	68bb      	ldr	r3, [r7, #8]
 80062a4:	4013      	ands	r3, r2
 80062a6:	b29b      	uxth	r3, r3
 80062a8:	2b00      	cmp	r3, #0
 80062aa:	bf14      	ite	ne
 80062ac:	2301      	movne	r3, #1
 80062ae:	2300      	moveq	r3, #0
 80062b0:	b2db      	uxtb	r3, r3
 80062b2:	e00b      	b.n	80062cc <I2C_WaitOnMasterAddressFlagUntilTimeout+0x130>
 80062b4:	68fb      	ldr	r3, [r7, #12]
 80062b6:	681b      	ldr	r3, [r3, #0]
 80062b8:	699b      	ldr	r3, [r3, #24]
 80062ba:	43da      	mvns	r2, r3
 80062bc:	68bb      	ldr	r3, [r7, #8]
 80062be:	4013      	ands	r3, r2
 80062c0:	b29b      	uxth	r3, r3
 80062c2:	2b00      	cmp	r3, #0
 80062c4:	bf14      	ite	ne
 80062c6:	2301      	movne	r3, #1
 80062c8:	2300      	moveq	r3, #0
 80062ca:	b2db      	uxtb	r3, r3
 80062cc:	2b00      	cmp	r3, #0
 80062ce:	f47f af6d 	bne.w	80061ac <I2C_WaitOnMasterAddressFlagUntilTimeout+0x10>
        }
      }
    }
  }
  return HAL_OK;
 80062d2:	2300      	movs	r3, #0
}
 80062d4:	4618      	mov	r0, r3
 80062d6:	3710      	adds	r7, #16
 80062d8:	46bd      	mov	sp, r7
 80062da:	bd80      	pop	{r7, pc}

080062dc <I2C_WaitOnTXEFlagUntilTimeout>:
  * @param  Timeout Timeout duration
  * @param  Tickstart Tick start value
  * @retval HAL status
  */
static HAL_StatusTypeDef I2C_WaitOnTXEFlagUntilTimeout(I2C_HandleTypeDef *hi2c, uint32_t Timeout, uint32_t Tickstart)
{
 80062dc:	b580      	push	{r7, lr}
 80062de:	b084      	sub	sp, #16
 80062e0:	af00      	add	r7, sp, #0
 80062e2:	60f8      	str	r0, [r7, #12]
 80062e4:	60b9      	str	r1, [r7, #8]
 80062e6:	607a      	str	r2, [r7, #4]
  while (__HAL_I2C_GET_FLAG(hi2c, I2C_FLAG_TXE) == RESET)
 80062e8:	e034      	b.n	8006354 <I2C_WaitOnTXEFlagUntilTimeout+0x78>
  {
    /* Check if a NACK is detected */
    if (I2C_IsAcknowledgeFailed(hi2c) != HAL_OK)
 80062ea:	68f8      	ldr	r0, [r7, #12]
 80062ec:	f000 f8e3 	bl	80064b6 <I2C_IsAcknowledgeFailed>
 80062f0:	4603      	mov	r3, r0
 80062f2:	2b00      	cmp	r3, #0
 80062f4:	d001      	beq.n	80062fa <I2C_WaitOnTXEFlagUntilTimeout+0x1e>
    {
      return HAL_ERROR;
 80062f6:	2301      	movs	r3, #1
 80062f8:	e034      	b.n	8006364 <I2C_WaitOnTXEFlagUntilTimeout+0x88>
    }

    /* Check for the Timeout */
    if (Timeout != HAL_MAX_DELAY)
 80062fa:	68bb      	ldr	r3, [r7, #8]
 80062fc:	f1b3 3fff 	cmp.w	r3, #4294967295
 8006300:	d028      	beq.n	8006354 <I2C_WaitOnTXEFlagUntilTimeout+0x78>
    {
      if (((HAL_GetTick() - Tickstart) > Timeout) || (Timeout == 0U))
 8006302:	f7fe fd47 	bl	8004d94 <HAL_GetTick>
 8006306:	4602      	mov	r2, r0
 8006308:	687b      	ldr	r3, [r7, #4]
 800630a:	1ad3      	subs	r3, r2, r3
 800630c:	68ba      	ldr	r2, [r7, #8]
 800630e:	429a      	cmp	r2, r3
 8006310:	d302      	bcc.n	8006318 <I2C_WaitOnTXEFlagUntilTimeout+0x3c>
 8006312:	68bb      	ldr	r3, [r7, #8]
 8006314:	2b00      	cmp	r3, #0
 8006316:	d11d      	bne.n	8006354 <I2C_WaitOnTXEFlagUntilTimeout+0x78>
      {
        if ((__HAL_I2C_GET_FLAG(hi2c, I2C_FLAG_TXE) == RESET))
 8006318:	68fb      	ldr	r3, [r7, #12]
 800631a:	681b      	ldr	r3, [r3, #0]
 800631c:	695b      	ldr	r3, [r3, #20]
 800631e:	f003 0380 	and.w	r3, r3, #128	; 0x80
 8006322:	2b80      	cmp	r3, #128	; 0x80
 8006324:	d016      	beq.n	8006354 <I2C_WaitOnTXEFlagUntilTimeout+0x78>
        {
          hi2c->PreviousState       = I2C_STATE_NONE;
 8006326:	68fb      	ldr	r3, [r7, #12]
 8006328:	2200      	movs	r2, #0
 800632a:	631a      	str	r2, [r3, #48]	; 0x30
          hi2c->State               = HAL_I2C_STATE_READY;
 800632c:	68fb      	ldr	r3, [r7, #12]
 800632e:	2220      	movs	r2, #32
 8006330:	f883 203d 	strb.w	r2, [r3, #61]	; 0x3d
          hi2c->Mode                = HAL_I2C_MODE_NONE;
 8006334:	68fb      	ldr	r3, [r7, #12]
 8006336:	2200      	movs	r2, #0
 8006338:	f883 203e 	strb.w	r2, [r3, #62]	; 0x3e
          hi2c->ErrorCode           |= HAL_I2C_ERROR_TIMEOUT;
 800633c:	68fb      	ldr	r3, [r7, #12]
 800633e:	6c1b      	ldr	r3, [r3, #64]	; 0x40
 8006340:	f043 0220 	orr.w	r2, r3, #32
 8006344:	68fb      	ldr	r3, [r7, #12]
 8006346:	641a      	str	r2, [r3, #64]	; 0x40

          /* Process Unlocked */
          __HAL_UNLOCK(hi2c);
 8006348:	68fb      	ldr	r3, [r7, #12]
 800634a:	2200      	movs	r2, #0
 800634c:	f883 203c 	strb.w	r2, [r3, #60]	; 0x3c

          return HAL_ERROR;
 8006350:	2301      	movs	r3, #1
 8006352:	e007      	b.n	8006364 <I2C_WaitOnTXEFlagUntilTimeout+0x88>
  while (__HAL_I2C_GET_FLAG(hi2c, I2C_FLAG_TXE) == RESET)
 8006354:	68fb      	ldr	r3, [r7, #12]
 8006356:	681b      	ldr	r3, [r3, #0]
 8006358:	695b      	ldr	r3, [r3, #20]
 800635a:	f003 0380 	and.w	r3, r3, #128	; 0x80
 800635e:	2b80      	cmp	r3, #128	; 0x80
 8006360:	d1c3      	bne.n	80062ea <I2C_WaitOnTXEFlagUntilTimeout+0xe>
        }
      }
    }
  }
  return HAL_OK;
 8006362:	2300      	movs	r3, #0
}
 8006364:	4618      	mov	r0, r3
 8006366:	3710      	adds	r7, #16
 8006368:	46bd      	mov	sp, r7
 800636a:	bd80      	pop	{r7, pc}

0800636c <I2C_WaitOnBTFFlagUntilTimeout>:
  * @param  Timeout Timeout duration
  * @param  Tickstart Tick start value
  * @retval HAL status
  */
static HAL_StatusTypeDef I2C_WaitOnBTFFlagUntilTimeout(I2C_HandleTypeDef *hi2c, uint32_t Timeout, uint32_t Tickstart)
{
 800636c:	b580      	push	{r7, lr}
 800636e:	b084      	sub	sp, #16
 8006370:	af00      	add	r7, sp, #0
 8006372:	60f8      	str	r0, [r7, #12]
 8006374:	60b9      	str	r1, [r7, #8]
 8006376:	607a      	str	r2, [r7, #4]
  while (__HAL_I2C_GET_FLAG(hi2c, I2C_FLAG_BTF) == RESET)
 8006378:	e034      	b.n	80063e4 <I2C_WaitOnBTFFlagUntilTimeout+0x78>
  {
    /* Check if a NACK is detected */
    if (I2C_IsAcknowledgeFailed(hi2c) != HAL_OK)
 800637a:	68f8      	ldr	r0, [r7, #12]
 800637c:	f000 f89b 	bl	80064b6 <I2C_IsAcknowledgeFailed>
 8006380:	4603      	mov	r3, r0
 8006382:	2b00      	cmp	r3, #0
 8006384:	d001      	beq.n	800638a <I2C_WaitOnBTFFlagUntilTimeout+0x1e>
    {
      return HAL_ERROR;
 8006386:	2301      	movs	r3, #1
 8006388:	e034      	b.n	80063f4 <I2C_WaitOnBTFFlagUntilTimeout+0x88>
    }

    /* Check for the Timeout */
    if (Timeout != HAL_MAX_DELAY)
 800638a:	68bb      	ldr	r3, [r7, #8]
 800638c:	f1b3 3fff 	cmp.w	r3, #4294967295
 8006390:	d028      	beq.n	80063e4 <I2C_WaitOnBTFFlagUntilTimeout+0x78>
    {
      if (((HAL_GetTick() - Tickstart) > Timeout) || (Timeout == 0U))
 8006392:	f7fe fcff 	bl	8004d94 <HAL_GetTick>
 8006396:	4602      	mov	r2, r0
 8006398:	687b      	ldr	r3, [r7, #4]
 800639a:	1ad3      	subs	r3, r2, r3
 800639c:	68ba      	ldr	r2, [r7, #8]
 800639e:	429a      	cmp	r2, r3
 80063a0:	d302      	bcc.n	80063a8 <I2C_WaitOnBTFFlagUntilTimeout+0x3c>
 80063a2:	68bb      	ldr	r3, [r7, #8]
 80063a4:	2b00      	cmp	r3, #0
 80063a6:	d11d      	bne.n	80063e4 <I2C_WaitOnBTFFlagUntilTimeout+0x78>
      {
        if ((__HAL_I2C_GET_FLAG(hi2c, I2C_FLAG_BTF) == RESET))
 80063a8:	68fb      	ldr	r3, [r7, #12]
 80063aa:	681b      	ldr	r3, [r3, #0]
 80063ac:	695b      	ldr	r3, [r3, #20]
 80063ae:	f003 0304 	and.w	r3, r3, #4
 80063b2:	2b04      	cmp	r3, #4
 80063b4:	d016      	beq.n	80063e4 <I2C_WaitOnBTFFlagUntilTimeout+0x78>
        {
          hi2c->PreviousState       = I2C_STATE_NONE;
 80063b6:	68fb      	ldr	r3, [r7, #12]
 80063b8:	2200      	movs	r2, #0
 80063ba:	631a      	str	r2, [r3, #48]	; 0x30
          hi2c->State               = HAL_I2C_STATE_READY;
 80063bc:	68fb      	ldr	r3, [r7, #12]
 80063be:	2220      	movs	r2, #32
 80063c0:	f883 203d 	strb.w	r2, [r3, #61]	; 0x3d
          hi2c->Mode                = HAL_I2C_MODE_NONE;
 80063c4:	68fb      	ldr	r3, [r7, #12]
 80063c6:	2200      	movs	r2, #0
 80063c8:	f883 203e 	strb.w	r2, [r3, #62]	; 0x3e
          hi2c->ErrorCode           |= HAL_I2C_ERROR_TIMEOUT;
 80063cc:	68fb      	ldr	r3, [r7, #12]
 80063ce:	6c1b      	ldr	r3, [r3, #64]	; 0x40
 80063d0:	f043 0220 	orr.w	r2, r3, #32
 80063d4:	68fb      	ldr	r3, [r7, #12]
 80063d6:	641a      	str	r2, [r3, #64]	; 0x40

          /* Process Unlocked */
          __HAL_UNLOCK(hi2c);
 80063d8:	68fb      	ldr	r3, [r7, #12]
 80063da:	2200      	movs	r2, #0
 80063dc:	f883 203c 	strb.w	r2, [r3, #60]	; 0x3c

          return HAL_ERROR;
 80063e0:	2301      	movs	r3, #1
 80063e2:	e007      	b.n	80063f4 <I2C_WaitOnBTFFlagUntilTimeout+0x88>
  while (__HAL_I2C_GET_FLAG(hi2c, I2C_FLAG_BTF) == RESET)
 80063e4:	68fb      	ldr	r3, [r7, #12]
 80063e6:	681b      	ldr	r3, [r3, #0]
 80063e8:	695b      	ldr	r3, [r3, #20]
 80063ea:	f003 0304 	and.w	r3, r3, #4
 80063ee:	2b04      	cmp	r3, #4
 80063f0:	d1c3      	bne.n	800637a <I2C_WaitOnBTFFlagUntilTimeout+0xe>
        }
      }
    }
  }
  return HAL_OK;
 80063f2:	2300      	movs	r3, #0
}
 80063f4:	4618      	mov	r0, r3
 80063f6:	3710      	adds	r7, #16
 80063f8:	46bd      	mov	sp, r7
 80063fa:	bd80      	pop	{r7, pc}

080063fc <I2C_WaitOnRXNEFlagUntilTimeout>:
  * @param  Timeout Timeout duration
  * @param  Tickstart Tick start value
  * @retval HAL status
  */
static HAL_StatusTypeDef I2C_WaitOnRXNEFlagUntilTimeout(I2C_HandleTypeDef *hi2c, uint32_t Timeout, uint32_t Tickstart)
{
 80063fc:	b580      	push	{r7, lr}
 80063fe:	b084      	sub	sp, #16
 8006400:	af00      	add	r7, sp, #0
 8006402:	60f8      	str	r0, [r7, #12]
 8006404:	60b9      	str	r1, [r7, #8]
 8006406:	607a      	str	r2, [r7, #4]

  while (__HAL_I2C_GET_FLAG(hi2c, I2C_FLAG_RXNE) == RESET)
 8006408:	e049      	b.n	800649e <I2C_WaitOnRXNEFlagUntilTimeout+0xa2>
  {
    /* Check if a STOPF is detected */
    if (__HAL_I2C_GET_FLAG(hi2c, I2C_FLAG_STOPF) == SET)
 800640a:	68fb      	ldr	r3, [r7, #12]
 800640c:	681b      	ldr	r3, [r3, #0]
 800640e:	695b      	ldr	r3, [r3, #20]
 8006410:	f003 0310 	and.w	r3, r3, #16
 8006414:	2b10      	cmp	r3, #16
 8006416:	d119      	bne.n	800644c <I2C_WaitOnRXNEFlagUntilTimeout+0x50>
    {
      /* Clear STOP Flag */
      __HAL_I2C_CLEAR_FLAG(hi2c, I2C_FLAG_STOPF);
 8006418:	68fb      	ldr	r3, [r7, #12]
 800641a:	681b      	ldr	r3, [r3, #0]
 800641c:	f06f 0210 	mvn.w	r2, #16
 8006420:	615a      	str	r2, [r3, #20]

      hi2c->PreviousState       = I2C_STATE_NONE;
 8006422:	68fb      	ldr	r3, [r7, #12]
 8006424:	2200      	movs	r2, #0
 8006426:	631a      	str	r2, [r3, #48]	; 0x30
      hi2c->State               = HAL_I2C_STATE_READY;
 8006428:	68fb      	ldr	r3, [r7, #12]
 800642a:	2220      	movs	r2, #32
 800642c:	f883 203d 	strb.w	r2, [r3, #61]	; 0x3d
      hi2c->Mode                = HAL_I2C_MODE_NONE;
 8006430:	68fb      	ldr	r3, [r7, #12]
 8006432:	2200      	movs	r2, #0
 8006434:	f883 203e 	strb.w	r2, [r3, #62]	; 0x3e
      hi2c->ErrorCode           |= HAL_I2C_ERROR_NONE;
 8006438:	68fb      	ldr	r3, [r7, #12]
 800643a:	6c1a      	ldr	r2, [r3, #64]	; 0x40
 800643c:	68fb      	ldr	r3, [r7, #12]
 800643e:	641a      	str	r2, [r3, #64]	; 0x40

      /* Process Unlocked */
      __HAL_UNLOCK(hi2c);
 8006440:	68fb      	ldr	r3, [r7, #12]
 8006442:	2200      	movs	r2, #0
 8006444:	f883 203c 	strb.w	r2, [r3, #60]	; 0x3c

      return HAL_ERROR;
 8006448:	2301      	movs	r3, #1
 800644a:	e030      	b.n	80064ae <I2C_WaitOnRXNEFlagUntilTimeout+0xb2>
    }

    /* Check for the Timeout */
    if (((HAL_GetTick() - Tickstart) > Timeout) || (Timeout == 0U))
 800644c:	f7fe fca2 	bl	8004d94 <HAL_GetTick>
 8006450:	4602      	mov	r2, r0
 8006452:	687b      	ldr	r3, [r7, #4]
 8006454:	1ad3      	subs	r3, r2, r3
 8006456:	68ba      	ldr	r2, [r7, #8]
 8006458:	429a      	cmp	r2, r3
 800645a:	d302      	bcc.n	8006462 <I2C_WaitOnRXNEFlagUntilTimeout+0x66>
 800645c:	68bb      	ldr	r3, [r7, #8]
 800645e:	2b00      	cmp	r3, #0
 8006460:	d11d      	bne.n	800649e <I2C_WaitOnRXNEFlagUntilTimeout+0xa2>
    {
      if ((__HAL_I2C_GET_FLAG(hi2c, I2C_FLAG_RXNE) == RESET))
 8006462:	68fb      	ldr	r3, [r7, #12]
 8006464:	681b      	ldr	r3, [r3, #0]
 8006466:	695b      	ldr	r3, [r3, #20]
 8006468:	f003 0340 	and.w	r3, r3, #64	; 0x40
 800646c:	2b40      	cmp	r3, #64	; 0x40
 800646e:	d016      	beq.n	800649e <I2C_WaitOnRXNEFlagUntilTimeout+0xa2>
      {
        hi2c->PreviousState       = I2C_STATE_NONE;
 8006470:	68fb      	ldr	r3, [r7, #12]
 8006472:	2200      	movs	r2, #0
 8006474:	631a      	str	r2, [r3, #48]	; 0x30
        hi2c->State               = HAL_I2C_STATE_READY;
 8006476:	68fb      	ldr	r3, [r7, #12]
 8006478:	2220      	movs	r2, #32
 800647a:	f883 203d 	strb.w	r2, [r3, #61]	; 0x3d
        hi2c->Mode                = HAL_I2C_MODE_NONE;
 800647e:	68fb      	ldr	r3, [r7, #12]
 8006480:	2200      	movs	r2, #0
 8006482:	f883 203e 	strb.w	r2, [r3, #62]	; 0x3e
        hi2c->ErrorCode           |= HAL_I2C_ERROR_TIMEOUT;
 8006486:	68fb      	ldr	r3, [r7, #12]
 8006488:	6c1b      	ldr	r3, [r3, #64]	; 0x40
 800648a:	f043 0220 	orr.w	r2, r3, #32
 800648e:	68fb      	ldr	r3, [r7, #12]
 8006490:	641a      	str	r2, [r3, #64]	; 0x40

        /* Process Unlocked */
        __HAL_UNLOCK(hi2c);
 8006492:	68fb      	ldr	r3, [r7, #12]
 8006494:	2200      	movs	r2, #0
 8006496:	f883 203c 	strb.w	r2, [r3, #60]	; 0x3c

        return HAL_ERROR;
 800649a:	2301      	movs	r3, #1
 800649c:	e007      	b.n	80064ae <I2C_WaitOnRXNEFlagUntilTimeout+0xb2>
  while (__HAL_I2C_GET_FLAG(hi2c, I2C_FLAG_RXNE) == RESET)
 800649e:	68fb      	ldr	r3, [r7, #12]
 80064a0:	681b      	ldr	r3, [r3, #0]
 80064a2:	695b      	ldr	r3, [r3, #20]
 80064a4:	f003 0340 	and.w	r3, r3, #64	; 0x40
 80064a8:	2b40      	cmp	r3, #64	; 0x40
 80064aa:	d1ae      	bne.n	800640a <I2C_WaitOnRXNEFlagUntilTimeout+0xe>
      }
    }
  }
  return HAL_OK;
 80064ac:	2300      	movs	r3, #0
}
 80064ae:	4618      	mov	r0, r3
 80064b0:	3710      	adds	r7, #16
 80064b2:	46bd      	mov	sp, r7
 80064b4:	bd80      	pop	{r7, pc}

080064b6 <I2C_IsAcknowledgeFailed>:
  * @param  hi2c Pointer to a I2C_HandleTypeDef structure that contains
  *                the configuration information for the specified I2C.
  * @retval HAL status
  */
static HAL_StatusTypeDef I2C_IsAcknowledgeFailed(I2C_HandleTypeDef *hi2c)
{
 80064b6:	b480      	push	{r7}
 80064b8:	b083      	sub	sp, #12
 80064ba:	af00      	add	r7, sp, #0
 80064bc:	6078      	str	r0, [r7, #4]
  if (__HAL_I2C_GET_FLAG(hi2c, I2C_FLAG_AF) == SET)
 80064be:	687b      	ldr	r3, [r7, #4]
 80064c0:	681b      	ldr	r3, [r3, #0]
 80064c2:	695b      	ldr	r3, [r3, #20]
 80064c4:	f403 6380 	and.w	r3, r3, #1024	; 0x400
 80064c8:	f5b3 6f80 	cmp.w	r3, #1024	; 0x400
 80064cc:	d11b      	bne.n	8006506 <I2C_IsAcknowledgeFailed+0x50>
  {
    /* Clear NACKF Flag */
    __HAL_I2C_CLEAR_FLAG(hi2c, I2C_FLAG_AF);
 80064ce:	687b      	ldr	r3, [r7, #4]
 80064d0:	681b      	ldr	r3, [r3, #0]
 80064d2:	f46f 6280 	mvn.w	r2, #1024	; 0x400
 80064d6:	615a      	str	r2, [r3, #20]

    hi2c->PreviousState       = I2C_STATE_NONE;
 80064d8:	687b      	ldr	r3, [r7, #4]
 80064da:	2200      	movs	r2, #0
 80064dc:	631a      	str	r2, [r3, #48]	; 0x30
    hi2c->State               = HAL_I2C_STATE_READY;
 80064de:	687b      	ldr	r3, [r7, #4]
 80064e0:	2220      	movs	r2, #32
 80064e2:	f883 203d 	strb.w	r2, [r3, #61]	; 0x3d
    hi2c->Mode                = HAL_I2C_MODE_NONE;
 80064e6:	687b      	ldr	r3, [r7, #4]
 80064e8:	2200      	movs	r2, #0
 80064ea:	f883 203e 	strb.w	r2, [r3, #62]	; 0x3e
    hi2c->ErrorCode           |= HAL_I2C_ERROR_AF;
 80064ee:	687b      	ldr	r3, [r7, #4]
 80064f0:	6c1b      	ldr	r3, [r3, #64]	; 0x40
 80064f2:	f043 0204 	orr.w	r2, r3, #4
 80064f6:	687b      	ldr	r3, [r7, #4]
 80064f8:	641a      	str	r2, [r3, #64]	; 0x40

    /* Process Unlocked */
    __HAL_UNLOCK(hi2c);
 80064fa:	687b      	ldr	r3, [r7, #4]
 80064fc:	2200      	movs	r2, #0
 80064fe:	f883 203c 	strb.w	r2, [r3, #60]	; 0x3c

    return HAL_ERROR;
 8006502:	2301      	movs	r3, #1
 8006504:	e000      	b.n	8006508 <I2C_IsAcknowledgeFailed+0x52>
  }
  return HAL_OK;
 8006506:	2300      	movs	r3, #0
}
 8006508:	4618      	mov	r0, r3
 800650a:	370c      	adds	r7, #12
 800650c:	46bd      	mov	sp, r7
 800650e:	bc80      	pop	{r7}
 8006510:	4770      	bx	lr
	...

08006514 <HAL_RCC_OscConfig>:
  *         supported by this macro. User should request a transition to HSE Off
  *         first and then HSE On or HSE Bypass.
  * @retval HAL status
  */
HAL_StatusTypeDef HAL_RCC_OscConfig(RCC_OscInitTypeDef  *RCC_OscInitStruct)
{
 8006514:	b580      	push	{r7, lr}
 8006516:	b086      	sub	sp, #24
 8006518:	af00      	add	r7, sp, #0
 800651a:	6078      	str	r0, [r7, #4]
  uint32_t tickstart;
  uint32_t pll_config;

  /* Check Null pointer */
  if (RCC_OscInitStruct == NULL)
 800651c:	687b      	ldr	r3, [r7, #4]
 800651e:	2b00      	cmp	r3, #0
 8006520:	d101      	bne.n	8006526 <HAL_RCC_OscConfig+0x12>
  {
    return HAL_ERROR;
 8006522:	2301      	movs	r3, #1
 8006524:	e272      	b.n	8006a0c <HAL_RCC_OscConfig+0x4f8>

  /* Check the parameters */
  assert_param(IS_RCC_OSCILLATORTYPE(RCC_OscInitStruct->OscillatorType));

  /*------------------------------- HSE Configuration ------------------------*/
  if (((RCC_OscInitStruct->OscillatorType) & RCC_OSCILLATORTYPE_HSE) == RCC_OSCILLATORTYPE_HSE)
 8006526:	687b      	ldr	r3, [r7, #4]
 8006528:	681b      	ldr	r3, [r3, #0]
 800652a:	f003 0301 	and.w	r3, r3, #1
 800652e:	2b00      	cmp	r3, #0
 8006530:	f000 8087 	beq.w	8006642 <HAL_RCC_OscConfig+0x12e>
  {
    /* Check the parameters */
    assert_param(IS_RCC_HSE(RCC_OscInitStruct->HSEState));

    /* When the HSE is used as system clock or clock source for PLL in these cases it is not allowed to be disabled */
    if ((__HAL_RCC_GET_SYSCLK_SOURCE() == RCC_SYSCLKSOURCE_STATUS_HSE)
 8006534:	4b92      	ldr	r3, [pc, #584]	; (8006780 <HAL_RCC_OscConfig+0x26c>)
 8006536:	685b      	ldr	r3, [r3, #4]
 8006538:	f003 030c 	and.w	r3, r3, #12
 800653c:	2b04      	cmp	r3, #4
 800653e:	d00c      	beq.n	800655a <HAL_RCC_OscConfig+0x46>
        || ((__HAL_RCC_GET_SYSCLK_SOURCE() == RCC_SYSCLKSOURCE_STATUS_PLLCLK) && (__HAL_RCC_GET_PLL_OSCSOURCE() == RCC_PLLSOURCE_HSE)))
 8006540:	4b8f      	ldr	r3, [pc, #572]	; (8006780 <HAL_RCC_OscConfig+0x26c>)
 8006542:	685b      	ldr	r3, [r3, #4]
 8006544:	f003 030c 	and.w	r3, r3, #12
 8006548:	2b08      	cmp	r3, #8
 800654a:	d112      	bne.n	8006572 <HAL_RCC_OscConfig+0x5e>
 800654c:	4b8c      	ldr	r3, [pc, #560]	; (8006780 <HAL_RCC_OscConfig+0x26c>)
 800654e:	685b      	ldr	r3, [r3, #4]
 8006550:	f403 3380 	and.w	r3, r3, #65536	; 0x10000
 8006554:	f5b3 3f80 	cmp.w	r3, #65536	; 0x10000
 8006558:	d10b      	bne.n	8006572 <HAL_RCC_OscConfig+0x5e>
    {
      if ((__HAL_RCC_GET_FLAG(RCC_FLAG_HSERDY) != RESET) && (RCC_OscInitStruct->HSEState == RCC_HSE_OFF))
 800655a:	4b89      	ldr	r3, [pc, #548]	; (8006780 <HAL_RCC_OscConfig+0x26c>)
 800655c:	681b      	ldr	r3, [r3, #0]
 800655e:	f403 3300 	and.w	r3, r3, #131072	; 0x20000
 8006562:	2b00      	cmp	r3, #0
 8006564:	d06c      	beq.n	8006640 <HAL_RCC_OscConfig+0x12c>
 8006566:	687b      	ldr	r3, [r7, #4]
 8006568:	685b      	ldr	r3, [r3, #4]
 800656a:	2b00      	cmp	r3, #0
 800656c:	d168      	bne.n	8006640 <HAL_RCC_OscConfig+0x12c>
      {
        return HAL_ERROR;
 800656e:	2301      	movs	r3, #1
 8006570:	e24c      	b.n	8006a0c <HAL_RCC_OscConfig+0x4f8>
      }
    }
    else
    {
      /* Set the new HSE configuration ---------------------------------------*/
      __HAL_RCC_HSE_CONFIG(RCC_OscInitStruct->HSEState);
 8006572:	687b      	ldr	r3, [r7, #4]
 8006574:	685b      	ldr	r3, [r3, #4]
 8006576:	f5b3 3f80 	cmp.w	r3, #65536	; 0x10000
 800657a:	d106      	bne.n	800658a <HAL_RCC_OscConfig+0x76>
 800657c:	4b80      	ldr	r3, [pc, #512]	; (8006780 <HAL_RCC_OscConfig+0x26c>)
 800657e:	681b      	ldr	r3, [r3, #0]
 8006580:	4a7f      	ldr	r2, [pc, #508]	; (8006780 <HAL_RCC_OscConfig+0x26c>)
 8006582:	f443 3380 	orr.w	r3, r3, #65536	; 0x10000
 8006586:	6013      	str	r3, [r2, #0]
 8006588:	e02e      	b.n	80065e8 <HAL_RCC_OscConfig+0xd4>
 800658a:	687b      	ldr	r3, [r7, #4]
 800658c:	685b      	ldr	r3, [r3, #4]
 800658e:	2b00      	cmp	r3, #0
 8006590:	d10c      	bne.n	80065ac <HAL_RCC_OscConfig+0x98>
 8006592:	4b7b      	ldr	r3, [pc, #492]	; (8006780 <HAL_RCC_OscConfig+0x26c>)
 8006594:	681b      	ldr	r3, [r3, #0]
 8006596:	4a7a      	ldr	r2, [pc, #488]	; (8006780 <HAL_RCC_OscConfig+0x26c>)
 8006598:	f423 3380 	bic.w	r3, r3, #65536	; 0x10000
 800659c:	6013      	str	r3, [r2, #0]
 800659e:	4b78      	ldr	r3, [pc, #480]	; (8006780 <HAL_RCC_OscConfig+0x26c>)
 80065a0:	681b      	ldr	r3, [r3, #0]
 80065a2:	4a77      	ldr	r2, [pc, #476]	; (8006780 <HAL_RCC_OscConfig+0x26c>)
 80065a4:	f423 2380 	bic.w	r3, r3, #262144	; 0x40000
 80065a8:	6013      	str	r3, [r2, #0]
 80065aa:	e01d      	b.n	80065e8 <HAL_RCC_OscConfig+0xd4>
 80065ac:	687b      	ldr	r3, [r7, #4]
 80065ae:	685b      	ldr	r3, [r3, #4]
 80065b0:	f5b3 2fa0 	cmp.w	r3, #327680	; 0x50000
 80065b4:	d10c      	bne.n	80065d0 <HAL_RCC_OscConfig+0xbc>
 80065b6:	4b72      	ldr	r3, [pc, #456]	; (8006780 <HAL_RCC_OscConfig+0x26c>)
 80065b8:	681b      	ldr	r3, [r3, #0]
 80065ba:	4a71      	ldr	r2, [pc, #452]	; (8006780 <HAL_RCC_OscConfig+0x26c>)
 80065bc:	f443 2380 	orr.w	r3, r3, #262144	; 0x40000
 80065c0:	6013      	str	r3, [r2, #0]
 80065c2:	4b6f      	ldr	r3, [pc, #444]	; (8006780 <HAL_RCC_OscConfig+0x26c>)
 80065c4:	681b      	ldr	r3, [r3, #0]
 80065c6:	4a6e      	ldr	r2, [pc, #440]	; (8006780 <HAL_RCC_OscConfig+0x26c>)
 80065c8:	f443 3380 	orr.w	r3, r3, #65536	; 0x10000
 80065cc:	6013      	str	r3, [r2, #0]
 80065ce:	e00b      	b.n	80065e8 <HAL_RCC_OscConfig+0xd4>
 80065d0:	4b6b      	ldr	r3, [pc, #428]	; (8006780 <HAL_RCC_OscConfig+0x26c>)
 80065d2:	681b      	ldr	r3, [r3, #0]
 80065d4:	4a6a      	ldr	r2, [pc, #424]	; (8006780 <HAL_RCC_OscConfig+0x26c>)
 80065d6:	f423 3380 	bic.w	r3, r3, #65536	; 0x10000
 80065da:	6013      	str	r3, [r2, #0]
 80065dc:	4b68      	ldr	r3, [pc, #416]	; (8006780 <HAL_RCC_OscConfig+0x26c>)
 80065de:	681b      	ldr	r3, [r3, #0]
 80065e0:	4a67      	ldr	r2, [pc, #412]	; (8006780 <HAL_RCC_OscConfig+0x26c>)
 80065e2:	f423 2380 	bic.w	r3, r3, #262144	; 0x40000
 80065e6:	6013      	str	r3, [r2, #0]


      /* Check the HSE State */
      if (RCC_OscInitStruct->HSEState != RCC_HSE_OFF)
 80065e8:	687b      	ldr	r3, [r7, #4]
 80065ea:	685b      	ldr	r3, [r3, #4]
 80065ec:	2b00      	cmp	r3, #0
 80065ee:	d013      	beq.n	8006618 <HAL_RCC_OscConfig+0x104>
      {
        /* Get Start Tick */
        tickstart = HAL_GetTick();
 80065f0:	f7fe fbd0 	bl	8004d94 <HAL_GetTick>
 80065f4:	6138      	str	r0, [r7, #16]

        /* Wait till HSE is ready */
        while (__HAL_RCC_GET_FLAG(RCC_FLAG_HSERDY) == RESET)
 80065f6:	e008      	b.n	800660a <HAL_RCC_OscConfig+0xf6>
        {
          if ((HAL_GetTick() - tickstart) > HSE_TIMEOUT_VALUE)
 80065f8:	f7fe fbcc 	bl	8004d94 <HAL_GetTick>
 80065fc:	4602      	mov	r2, r0
 80065fe:	693b      	ldr	r3, [r7, #16]
 8006600:	1ad3      	subs	r3, r2, r3
 8006602:	2b64      	cmp	r3, #100	; 0x64
 8006604:	d901      	bls.n	800660a <HAL_RCC_OscConfig+0xf6>
          {
            return HAL_TIMEOUT;
 8006606:	2303      	movs	r3, #3
 8006608:	e200      	b.n	8006a0c <HAL_RCC_OscConfig+0x4f8>
        while (__HAL_RCC_GET_FLAG(RCC_FLAG_HSERDY) == RESET)
 800660a:	4b5d      	ldr	r3, [pc, #372]	; (8006780 <HAL_RCC_OscConfig+0x26c>)
 800660c:	681b      	ldr	r3, [r3, #0]
 800660e:	f403 3300 	and.w	r3, r3, #131072	; 0x20000
 8006612:	2b00      	cmp	r3, #0
 8006614:	d0f0      	beq.n	80065f8 <HAL_RCC_OscConfig+0xe4>
 8006616:	e014      	b.n	8006642 <HAL_RCC_OscConfig+0x12e>
        }
      }
      else
      {
        /* Get Start Tick */
        tickstart = HAL_GetTick();
 8006618:	f7fe fbbc 	bl	8004d94 <HAL_GetTick>
 800661c:	6138      	str	r0, [r7, #16]

        /* Wait till HSE is disabled */
        while (__HAL_RCC_GET_FLAG(RCC_FLAG_HSERDY) != RESET)
 800661e:	e008      	b.n	8006632 <HAL_RCC_OscConfig+0x11e>
        {
          if ((HAL_GetTick() - tickstart) > HSE_TIMEOUT_VALUE)
 8006620:	f7fe fbb8 	bl	8004d94 <HAL_GetTick>
 8006624:	4602      	mov	r2, r0
 8006626:	693b      	ldr	r3, [r7, #16]
 8006628:	1ad3      	subs	r3, r2, r3
 800662a:	2b64      	cmp	r3, #100	; 0x64
 800662c:	d901      	bls.n	8006632 <HAL_RCC_OscConfig+0x11e>
          {
            return HAL_TIMEOUT;
 800662e:	2303      	movs	r3, #3
 8006630:	e1ec      	b.n	8006a0c <HAL_RCC_OscConfig+0x4f8>
        while (__HAL_RCC_GET_FLAG(RCC_FLAG_HSERDY) != RESET)
 8006632:	4b53      	ldr	r3, [pc, #332]	; (8006780 <HAL_RCC_OscConfig+0x26c>)
 8006634:	681b      	ldr	r3, [r3, #0]
 8006636:	f403 3300 	and.w	r3, r3, #131072	; 0x20000
 800663a:	2b00      	cmp	r3, #0
 800663c:	d1f0      	bne.n	8006620 <HAL_RCC_OscConfig+0x10c>
 800663e:	e000      	b.n	8006642 <HAL_RCC_OscConfig+0x12e>
      if ((__HAL_RCC_GET_FLAG(RCC_FLAG_HSERDY) != RESET) && (RCC_OscInitStruct->HSEState == RCC_HSE_OFF))
 8006640:	bf00      	nop
        }
      }
    }
  }
  /*----------------------------- HSI Configuration --------------------------*/
  if (((RCC_OscInitStruct->OscillatorType) & RCC_OSCILLATORTYPE_HSI) == RCC_OSCILLATORTYPE_HSI)
 8006642:	687b      	ldr	r3, [r7, #4]
 8006644:	681b      	ldr	r3, [r3, #0]
 8006646:	f003 0302 	and.w	r3, r3, #2
 800664a:	2b00      	cmp	r3, #0
 800664c:	d063      	beq.n	8006716 <HAL_RCC_OscConfig+0x202>
    /* Check the parameters */
    assert_param(IS_RCC_HSI(RCC_OscInitStruct->HSIState));
    assert_param(IS_RCC_CALIBRATION_VALUE(RCC_OscInitStruct->HSICalibrationValue));

    /* Check if HSI is used as system clock or as PLL source when PLL is selected as system clock */
    if ((__HAL_RCC_GET_SYSCLK_SOURCE() == RCC_SYSCLKSOURCE_STATUS_HSI)
 800664e:	4b4c      	ldr	r3, [pc, #304]	; (8006780 <HAL_RCC_OscConfig+0x26c>)
 8006650:	685b      	ldr	r3, [r3, #4]
 8006652:	f003 030c 	and.w	r3, r3, #12
 8006656:	2b00      	cmp	r3, #0
 8006658:	d00b      	beq.n	8006672 <HAL_RCC_OscConfig+0x15e>
        || ((__HAL_RCC_GET_SYSCLK_SOURCE() == RCC_SYSCLKSOURCE_STATUS_PLLCLK) && (__HAL_RCC_GET_PLL_OSCSOURCE() == RCC_PLLSOURCE_HSI_DIV2)))
 800665a:	4b49      	ldr	r3, [pc, #292]	; (8006780 <HAL_RCC_OscConfig+0x26c>)
 800665c:	685b      	ldr	r3, [r3, #4]
 800665e:	f003 030c 	and.w	r3, r3, #12
 8006662:	2b08      	cmp	r3, #8
 8006664:	d11c      	bne.n	80066a0 <HAL_RCC_OscConfig+0x18c>
 8006666:	4b46      	ldr	r3, [pc, #280]	; (8006780 <HAL_RCC_OscConfig+0x26c>)
 8006668:	685b      	ldr	r3, [r3, #4]
 800666a:	f403 3380 	and.w	r3, r3, #65536	; 0x10000
 800666e:	2b00      	cmp	r3, #0
 8006670:	d116      	bne.n	80066a0 <HAL_RCC_OscConfig+0x18c>
    {
      /* When HSI is used as system clock it will not disabled */
      if ((__HAL_RCC_GET_FLAG(RCC_FLAG_HSIRDY) != RESET) && (RCC_OscInitStruct->HSIState != RCC_HSI_ON))
 8006672:	4b43      	ldr	r3, [pc, #268]	; (8006780 <HAL_RCC_OscConfig+0x26c>)
 8006674:	681b      	ldr	r3, [r3, #0]
 8006676:	f003 0302 	and.w	r3, r3, #2
 800667a:	2b00      	cmp	r3, #0
 800667c:	d005      	beq.n	800668a <HAL_RCC_OscConfig+0x176>
 800667e:	687b      	ldr	r3, [r7, #4]
 8006680:	691b      	ldr	r3, [r3, #16]
 8006682:	2b01      	cmp	r3, #1
 8006684:	d001      	beq.n	800668a <HAL_RCC_OscConfig+0x176>
      {
        return HAL_ERROR;
 8006686:	2301      	movs	r3, #1
 8006688:	e1c0      	b.n	8006a0c <HAL_RCC_OscConfig+0x4f8>
      }
      /* Otherwise, just the calibration is allowed */
      else
      {
        /* Adjusts the Internal High Speed oscillator (HSI) calibration value.*/
        __HAL_RCC_HSI_CALIBRATIONVALUE_ADJUST(RCC_OscInitStruct->HSICalibrationValue);
 800668a:	4b3d      	ldr	r3, [pc, #244]	; (8006780 <HAL_RCC_OscConfig+0x26c>)
 800668c:	681b      	ldr	r3, [r3, #0]
 800668e:	f023 02f8 	bic.w	r2, r3, #248	; 0xf8
 8006692:	687b      	ldr	r3, [r7, #4]
 8006694:	695b      	ldr	r3, [r3, #20]
 8006696:	00db      	lsls	r3, r3, #3
 8006698:	4939      	ldr	r1, [pc, #228]	; (8006780 <HAL_RCC_OscConfig+0x26c>)
 800669a:	4313      	orrs	r3, r2
 800669c:	600b      	str	r3, [r1, #0]
      if ((__HAL_RCC_GET_FLAG(RCC_FLAG_HSIRDY) != RESET) && (RCC_OscInitStruct->HSIState != RCC_HSI_ON))
 800669e:	e03a      	b.n	8006716 <HAL_RCC_OscConfig+0x202>
      }
    }
    else
    {
      /* Check the HSI State */
      if (RCC_OscInitStruct->HSIState != RCC_HSI_OFF)
 80066a0:	687b      	ldr	r3, [r7, #4]
 80066a2:	691b      	ldr	r3, [r3, #16]
 80066a4:	2b00      	cmp	r3, #0
 80066a6:	d020      	beq.n	80066ea <HAL_RCC_OscConfig+0x1d6>
      {
        /* Enable the Internal High Speed oscillator (HSI). */
        __HAL_RCC_HSI_ENABLE();
 80066a8:	4b36      	ldr	r3, [pc, #216]	; (8006784 <HAL_RCC_OscConfig+0x270>)
 80066aa:	2201      	movs	r2, #1
 80066ac:	601a      	str	r2, [r3, #0]

        /* Get Start Tick */
        tickstart = HAL_GetTick();
 80066ae:	f7fe fb71 	bl	8004d94 <HAL_GetTick>
 80066b2:	6138      	str	r0, [r7, #16]

        /* Wait till HSI is ready */
        while (__HAL_RCC_GET_FLAG(RCC_FLAG_HSIRDY) == RESET)
 80066b4:	e008      	b.n	80066c8 <HAL_RCC_OscConfig+0x1b4>
        {
          if ((HAL_GetTick() - tickstart) > HSI_TIMEOUT_VALUE)
 80066b6:	f7fe fb6d 	bl	8004d94 <HAL_GetTick>
 80066ba:	4602      	mov	r2, r0
 80066bc:	693b      	ldr	r3, [r7, #16]
 80066be:	1ad3      	subs	r3, r2, r3
 80066c0:	2b02      	cmp	r3, #2
 80066c2:	d901      	bls.n	80066c8 <HAL_RCC_OscConfig+0x1b4>
          {
            return HAL_TIMEOUT;
 80066c4:	2303      	movs	r3, #3
 80066c6:	e1a1      	b.n	8006a0c <HAL_RCC_OscConfig+0x4f8>
        while (__HAL_RCC_GET_FLAG(RCC_FLAG_HSIRDY) == RESET)
 80066c8:	4b2d      	ldr	r3, [pc, #180]	; (8006780 <HAL_RCC_OscConfig+0x26c>)
 80066ca:	681b      	ldr	r3, [r3, #0]
 80066cc:	f003 0302 	and.w	r3, r3, #2
 80066d0:	2b00      	cmp	r3, #0
 80066d2:	d0f0      	beq.n	80066b6 <HAL_RCC_OscConfig+0x1a2>
          }
        }

        /* Adjusts the Internal High Speed oscillator (HSI) calibration value.*/
        __HAL_RCC_HSI_CALIBRATIONVALUE_ADJUST(RCC_OscInitStruct->HSICalibrationValue);
 80066d4:	4b2a      	ldr	r3, [pc, #168]	; (8006780 <HAL_RCC_OscConfig+0x26c>)
 80066d6:	681b      	ldr	r3, [r3, #0]
 80066d8:	f023 02f8 	bic.w	r2, r3, #248	; 0xf8
 80066dc:	687b      	ldr	r3, [r7, #4]
 80066de:	695b      	ldr	r3, [r3, #20]
 80066e0:	00db      	lsls	r3, r3, #3
 80066e2:	4927      	ldr	r1, [pc, #156]	; (8006780 <HAL_RCC_OscConfig+0x26c>)
 80066e4:	4313      	orrs	r3, r2
 80066e6:	600b      	str	r3, [r1, #0]
 80066e8:	e015      	b.n	8006716 <HAL_RCC_OscConfig+0x202>
      }
      else
      {
        /* Disable the Internal High Speed oscillator (HSI). */
        __HAL_RCC_HSI_DISABLE();
 80066ea:	4b26      	ldr	r3, [pc, #152]	; (8006784 <HAL_RCC_OscConfig+0x270>)
 80066ec:	2200      	movs	r2, #0
 80066ee:	601a      	str	r2, [r3, #0]

        /* Get Start Tick */
        tickstart = HAL_GetTick();
 80066f0:	f7fe fb50 	bl	8004d94 <HAL_GetTick>
 80066f4:	6138      	str	r0, [r7, #16]

        /* Wait till HSI is disabled */
        while (__HAL_RCC_GET_FLAG(RCC_FLAG_HSIRDY) != RESET)
 80066f6:	e008      	b.n	800670a <HAL_RCC_OscConfig+0x1f6>
        {
          if ((HAL_GetTick() - tickstart) > HSI_TIMEOUT_VALUE)
 80066f8:	f7fe fb4c 	bl	8004d94 <HAL_GetTick>
 80066fc:	4602      	mov	r2, r0
 80066fe:	693b      	ldr	r3, [r7, #16]
 8006700:	1ad3      	subs	r3, r2, r3
 8006702:	2b02      	cmp	r3, #2
 8006704:	d901      	bls.n	800670a <HAL_RCC_OscConfig+0x1f6>
          {
            return HAL_TIMEOUT;
 8006706:	2303      	movs	r3, #3
 8006708:	e180      	b.n	8006a0c <HAL_RCC_OscConfig+0x4f8>
        while (__HAL_RCC_GET_FLAG(RCC_FLAG_HSIRDY) != RESET)
 800670a:	4b1d      	ldr	r3, [pc, #116]	; (8006780 <HAL_RCC_OscConfig+0x26c>)
 800670c:	681b      	ldr	r3, [r3, #0]
 800670e:	f003 0302 	and.w	r3, r3, #2
 8006712:	2b00      	cmp	r3, #0
 8006714:	d1f0      	bne.n	80066f8 <HAL_RCC_OscConfig+0x1e4>
        }
      }
    }
  }
  /*------------------------------ LSI Configuration -------------------------*/
  if (((RCC_OscInitStruct->OscillatorType) & RCC_OSCILLATORTYPE_LSI) == RCC_OSCILLATORTYPE_LSI)
 8006716:	687b      	ldr	r3, [r7, #4]
 8006718:	681b      	ldr	r3, [r3, #0]
 800671a:	f003 0308 	and.w	r3, r3, #8
 800671e:	2b00      	cmp	r3, #0
 8006720:	d03a      	beq.n	8006798 <HAL_RCC_OscConfig+0x284>
  {
    /* Check the parameters */
    assert_param(IS_RCC_LSI(RCC_OscInitStruct->LSIState));

    /* Check the LSI State */
    if (RCC_OscInitStruct->LSIState != RCC_LSI_OFF)
 8006722:	687b      	ldr	r3, [r7, #4]
 8006724:	699b      	ldr	r3, [r3, #24]
 8006726:	2b00      	cmp	r3, #0
 8006728:	d019      	beq.n	800675e <HAL_RCC_OscConfig+0x24a>
    {
      /* Enable the Internal Low Speed oscillator (LSI). */
      __HAL_RCC_LSI_ENABLE();
 800672a:	4b17      	ldr	r3, [pc, #92]	; (8006788 <HAL_RCC_OscConfig+0x274>)
 800672c:	2201      	movs	r2, #1
 800672e:	601a      	str	r2, [r3, #0]

      /* Get Start Tick */
      tickstart = HAL_GetTick();
 8006730:	f7fe fb30 	bl	8004d94 <HAL_GetTick>
 8006734:	6138      	str	r0, [r7, #16]

      /* Wait till LSI is ready */
      while (__HAL_RCC_GET_FLAG(RCC_FLAG_LSIRDY) == RESET)
 8006736:	e008      	b.n	800674a <HAL_RCC_OscConfig+0x236>
      {
        if ((HAL_GetTick() - tickstart) > LSI_TIMEOUT_VALUE)
 8006738:	f7fe fb2c 	bl	8004d94 <HAL_GetTick>
 800673c:	4602      	mov	r2, r0
 800673e:	693b      	ldr	r3, [r7, #16]
 8006740:	1ad3      	subs	r3, r2, r3
 8006742:	2b02      	cmp	r3, #2
 8006744:	d901      	bls.n	800674a <HAL_RCC_OscConfig+0x236>
        {
          return HAL_TIMEOUT;
 8006746:	2303      	movs	r3, #3
 8006748:	e160      	b.n	8006a0c <HAL_RCC_OscConfig+0x4f8>
      while (__HAL_RCC_GET_FLAG(RCC_FLAG_LSIRDY) == RESET)
 800674a:	4b0d      	ldr	r3, [pc, #52]	; (8006780 <HAL_RCC_OscConfig+0x26c>)
 800674c:	6a5b      	ldr	r3, [r3, #36]	; 0x24
 800674e:	f003 0302 	and.w	r3, r3, #2
 8006752:	2b00      	cmp	r3, #0
 8006754:	d0f0      	beq.n	8006738 <HAL_RCC_OscConfig+0x224>
        }
      }
      /*  To have a fully stabilized clock in the specified range, a software delay of 1ms
          should be added.*/
      RCC_Delay(1);
 8006756:	2001      	movs	r0, #1
 8006758:	f000 face 	bl	8006cf8 <RCC_Delay>
 800675c:	e01c      	b.n	8006798 <HAL_RCC_OscConfig+0x284>
    }
    else
    {
      /* Disable the Internal Low Speed oscillator (LSI). */
      __HAL_RCC_LSI_DISABLE();
 800675e:	4b0a      	ldr	r3, [pc, #40]	; (8006788 <HAL_RCC_OscConfig+0x274>)
 8006760:	2200      	movs	r2, #0
 8006762:	601a      	str	r2, [r3, #0]

      /* Get Start Tick */
      tickstart = HAL_GetTick();
 8006764:	f7fe fb16 	bl	8004d94 <HAL_GetTick>
 8006768:	6138      	str	r0, [r7, #16]

      /* Wait till LSI is disabled */
      while (__HAL_RCC_GET_FLAG(RCC_FLAG_LSIRDY) != RESET)
 800676a:	e00f      	b.n	800678c <HAL_RCC_OscConfig+0x278>
      {
        if ((HAL_GetTick() - tickstart) > LSI_TIMEOUT_VALUE)
 800676c:	f7fe fb12 	bl	8004d94 <HAL_GetTick>
 8006770:	4602      	mov	r2, r0
 8006772:	693b      	ldr	r3, [r7, #16]
 8006774:	1ad3      	subs	r3, r2, r3
 8006776:	2b02      	cmp	r3, #2
 8006778:	d908      	bls.n	800678c <HAL_RCC_OscConfig+0x278>
        {
          return HAL_TIMEOUT;
 800677a:	2303      	movs	r3, #3
 800677c:	e146      	b.n	8006a0c <HAL_RCC_OscConfig+0x4f8>
 800677e:	bf00      	nop
 8006780:	40021000 	.word	0x40021000
 8006784:	42420000 	.word	0x42420000
 8006788:	42420480 	.word	0x42420480
      while (__HAL_RCC_GET_FLAG(RCC_FLAG_LSIRDY) != RESET)
 800678c:	4b92      	ldr	r3, [pc, #584]	; (80069d8 <HAL_RCC_OscConfig+0x4c4>)
 800678e:	6a5b      	ldr	r3, [r3, #36]	; 0x24
 8006790:	f003 0302 	and.w	r3, r3, #2
 8006794:	2b00      	cmp	r3, #0
 8006796:	d1e9      	bne.n	800676c <HAL_RCC_OscConfig+0x258>
        }
      }
    }
  }
  /*------------------------------ LSE Configuration -------------------------*/
  if (((RCC_OscInitStruct->OscillatorType) & RCC_OSCILLATORTYPE_LSE) == RCC_OSCILLATORTYPE_LSE)
 8006798:	687b      	ldr	r3, [r7, #4]
 800679a:	681b      	ldr	r3, [r3, #0]
 800679c:	f003 0304 	and.w	r3, r3, #4
 80067a0:	2b00      	cmp	r3, #0
 80067a2:	f000 80a6 	beq.w	80068f2 <HAL_RCC_OscConfig+0x3de>
  {
    FlagStatus       pwrclkchanged = RESET;
 80067a6:	2300      	movs	r3, #0
 80067a8:	75fb      	strb	r3, [r7, #23]
    /* Check the parameters */
    assert_param(IS_RCC_LSE(RCC_OscInitStruct->LSEState));

    /* Update LSE configuration in Backup Domain control register    */
    /* Requires to enable write access to Backup Domain of necessary */
    if (__HAL_RCC_PWR_IS_CLK_DISABLED())
 80067aa:	4b8b      	ldr	r3, [pc, #556]	; (80069d8 <HAL_RCC_OscConfig+0x4c4>)
 80067ac:	69db      	ldr	r3, [r3, #28]
 80067ae:	f003 5380 	and.w	r3, r3, #268435456	; 0x10000000
 80067b2:	2b00      	cmp	r3, #0
 80067b4:	d10d      	bne.n	80067d2 <HAL_RCC_OscConfig+0x2be>
    {
      __HAL_RCC_PWR_CLK_ENABLE();
 80067b6:	4b88      	ldr	r3, [pc, #544]	; (80069d8 <HAL_RCC_OscConfig+0x4c4>)
 80067b8:	69db      	ldr	r3, [r3, #28]
 80067ba:	4a87      	ldr	r2, [pc, #540]	; (80069d8 <HAL_RCC_OscConfig+0x4c4>)
 80067bc:	f043 5380 	orr.w	r3, r3, #268435456	; 0x10000000
 80067c0:	61d3      	str	r3, [r2, #28]
 80067c2:	4b85      	ldr	r3, [pc, #532]	; (80069d8 <HAL_RCC_OscConfig+0x4c4>)
 80067c4:	69db      	ldr	r3, [r3, #28]
 80067c6:	f003 5380 	and.w	r3, r3, #268435456	; 0x10000000
 80067ca:	60bb      	str	r3, [r7, #8]
 80067cc:	68bb      	ldr	r3, [r7, #8]
      pwrclkchanged = SET;
 80067ce:	2301      	movs	r3, #1
 80067d0:	75fb      	strb	r3, [r7, #23]
    }

    if (HAL_IS_BIT_CLR(PWR->CR, PWR_CR_DBP))
 80067d2:	4b82      	ldr	r3, [pc, #520]	; (80069dc <HAL_RCC_OscConfig+0x4c8>)
 80067d4:	681b      	ldr	r3, [r3, #0]
 80067d6:	f403 7380 	and.w	r3, r3, #256	; 0x100
 80067da:	2b00      	cmp	r3, #0
 80067dc:	d118      	bne.n	8006810 <HAL_RCC_OscConfig+0x2fc>
    {
      /* Enable write access to Backup domain */
      SET_BIT(PWR->CR, PWR_CR_DBP);
 80067de:	4b7f      	ldr	r3, [pc, #508]	; (80069dc <HAL_RCC_OscConfig+0x4c8>)
 80067e0:	681b      	ldr	r3, [r3, #0]
 80067e2:	4a7e      	ldr	r2, [pc, #504]	; (80069dc <HAL_RCC_OscConfig+0x4c8>)
 80067e4:	f443 7380 	orr.w	r3, r3, #256	; 0x100
 80067e8:	6013      	str	r3, [r2, #0]

      /* Wait for Backup domain Write protection disable */
      tickstart = HAL_GetTick();
 80067ea:	f7fe fad3 	bl	8004d94 <HAL_GetTick>
 80067ee:	6138      	str	r0, [r7, #16]

      while (HAL_IS_BIT_CLR(PWR->CR, PWR_CR_DBP))
 80067f0:	e008      	b.n	8006804 <HAL_RCC_OscConfig+0x2f0>
      {
        if ((HAL_GetTick() - tickstart) > RCC_DBP_TIMEOUT_VALUE)
 80067f2:	f7fe facf 	bl	8004d94 <HAL_GetTick>
 80067f6:	4602      	mov	r2, r0
 80067f8:	693b      	ldr	r3, [r7, #16]
 80067fa:	1ad3      	subs	r3, r2, r3
 80067fc:	2b64      	cmp	r3, #100	; 0x64
 80067fe:	d901      	bls.n	8006804 <HAL_RCC_OscConfig+0x2f0>
        {
          return HAL_TIMEOUT;
 8006800:	2303      	movs	r3, #3
 8006802:	e103      	b.n	8006a0c <HAL_RCC_OscConfig+0x4f8>
      while (HAL_IS_BIT_CLR(PWR->CR, PWR_CR_DBP))
 8006804:	4b75      	ldr	r3, [pc, #468]	; (80069dc <HAL_RCC_OscConfig+0x4c8>)
 8006806:	681b      	ldr	r3, [r3, #0]
 8006808:	f403 7380 	and.w	r3, r3, #256	; 0x100
 800680c:	2b00      	cmp	r3, #0
 800680e:	d0f0      	beq.n	80067f2 <HAL_RCC_OscConfig+0x2de>
        }
      }
    }

    /* Set the new LSE configuration -----------------------------------------*/
    __HAL_RCC_LSE_CONFIG(RCC_OscInitStruct->LSEState);
 8006810:	687b      	ldr	r3, [r7, #4]
 8006812:	68db      	ldr	r3, [r3, #12]
 8006814:	2b01      	cmp	r3, #1
 8006816:	d106      	bne.n	8006826 <HAL_RCC_OscConfig+0x312>
 8006818:	4b6f      	ldr	r3, [pc, #444]	; (80069d8 <HAL_RCC_OscConfig+0x4c4>)
 800681a:	6a1b      	ldr	r3, [r3, #32]
 800681c:	4a6e      	ldr	r2, [pc, #440]	; (80069d8 <HAL_RCC_OscConfig+0x4c4>)
 800681e:	f043 0301 	orr.w	r3, r3, #1
 8006822:	6213      	str	r3, [r2, #32]
 8006824:	e02d      	b.n	8006882 <HAL_RCC_OscConfig+0x36e>
 8006826:	687b      	ldr	r3, [r7, #4]
 8006828:	68db      	ldr	r3, [r3, #12]
 800682a:	2b00      	cmp	r3, #0
 800682c:	d10c      	bne.n	8006848 <HAL_RCC_OscConfig+0x334>
 800682e:	4b6a      	ldr	r3, [pc, #424]	; (80069d8 <HAL_RCC_OscConfig+0x4c4>)
 8006830:	6a1b      	ldr	r3, [r3, #32]
 8006832:	4a69      	ldr	r2, [pc, #420]	; (80069d8 <HAL_RCC_OscConfig+0x4c4>)
 8006834:	f023 0301 	bic.w	r3, r3, #1
 8006838:	6213      	str	r3, [r2, #32]
 800683a:	4b67      	ldr	r3, [pc, #412]	; (80069d8 <HAL_RCC_OscConfig+0x4c4>)
 800683c:	6a1b      	ldr	r3, [r3, #32]
 800683e:	4a66      	ldr	r2, [pc, #408]	; (80069d8 <HAL_RCC_OscConfig+0x4c4>)
 8006840:	f023 0304 	bic.w	r3, r3, #4
 8006844:	6213      	str	r3, [r2, #32]
 8006846:	e01c      	b.n	8006882 <HAL_RCC_OscConfig+0x36e>
 8006848:	687b      	ldr	r3, [r7, #4]
 800684a:	68db      	ldr	r3, [r3, #12]
 800684c:	2b05      	cmp	r3, #5
 800684e:	d10c      	bne.n	800686a <HAL_RCC_OscConfig+0x356>
 8006850:	4b61      	ldr	r3, [pc, #388]	; (80069d8 <HAL_RCC_OscConfig+0x4c4>)
 8006852:	6a1b      	ldr	r3, [r3, #32]
 8006854:	4a60      	ldr	r2, [pc, #384]	; (80069d8 <HAL_RCC_OscConfig+0x4c4>)
 8006856:	f043 0304 	orr.w	r3, r3, #4
 800685a:	6213      	str	r3, [r2, #32]
 800685c:	4b5e      	ldr	r3, [pc, #376]	; (80069d8 <HAL_RCC_OscConfig+0x4c4>)
 800685e:	6a1b      	ldr	r3, [r3, #32]
 8006860:	4a5d      	ldr	r2, [pc, #372]	; (80069d8 <HAL_RCC_OscConfig+0x4c4>)
 8006862:	f043 0301 	orr.w	r3, r3, #1
 8006866:	6213      	str	r3, [r2, #32]
 8006868:	e00b      	b.n	8006882 <HAL_RCC_OscConfig+0x36e>
 800686a:	4b5b      	ldr	r3, [pc, #364]	; (80069d8 <HAL_RCC_OscConfig+0x4c4>)
 800686c:	6a1b      	ldr	r3, [r3, #32]
 800686e:	4a5a      	ldr	r2, [pc, #360]	; (80069d8 <HAL_RCC_OscConfig+0x4c4>)
 8006870:	f023 0301 	bic.w	r3, r3, #1
 8006874:	6213      	str	r3, [r2, #32]
 8006876:	4b58      	ldr	r3, [pc, #352]	; (80069d8 <HAL_RCC_OscConfig+0x4c4>)
 8006878:	6a1b      	ldr	r3, [r3, #32]
 800687a:	4a57      	ldr	r2, [pc, #348]	; (80069d8 <HAL_RCC_OscConfig+0x4c4>)
 800687c:	f023 0304 	bic.w	r3, r3, #4
 8006880:	6213      	str	r3, [r2, #32]
    /* Check the LSE State */
    if (RCC_OscInitStruct->LSEState != RCC_LSE_OFF)
 8006882:	687b      	ldr	r3, [r7, #4]
 8006884:	68db      	ldr	r3, [r3, #12]
 8006886:	2b00      	cmp	r3, #0
 8006888:	d015      	beq.n	80068b6 <HAL_RCC_OscConfig+0x3a2>
    {
      /* Get Start Tick */
      tickstart = HAL_GetTick();
 800688a:	f7fe fa83 	bl	8004d94 <HAL_GetTick>
 800688e:	6138      	str	r0, [r7, #16]

      /* Wait till LSE is ready */
      while (__HAL_RCC_GET_FLAG(RCC_FLAG_LSERDY) == RESET)
 8006890:	e00a      	b.n	80068a8 <HAL_RCC_OscConfig+0x394>
      {
        if ((HAL_GetTick() - tickstart) > RCC_LSE_TIMEOUT_VALUE)
 8006892:	f7fe fa7f 	bl	8004d94 <HAL_GetTick>
 8006896:	4602      	mov	r2, r0
 8006898:	693b      	ldr	r3, [r7, #16]
 800689a:	1ad3      	subs	r3, r2, r3
 800689c:	f241 3288 	movw	r2, #5000	; 0x1388
 80068a0:	4293      	cmp	r3, r2
 80068a2:	d901      	bls.n	80068a8 <HAL_RCC_OscConfig+0x394>
        {
          return HAL_TIMEOUT;
 80068a4:	2303      	movs	r3, #3
 80068a6:	e0b1      	b.n	8006a0c <HAL_RCC_OscConfig+0x4f8>
      while (__HAL_RCC_GET_FLAG(RCC_FLAG_LSERDY) == RESET)
 80068a8:	4b4b      	ldr	r3, [pc, #300]	; (80069d8 <HAL_RCC_OscConfig+0x4c4>)
 80068aa:	6a1b      	ldr	r3, [r3, #32]
 80068ac:	f003 0302 	and.w	r3, r3, #2
 80068b0:	2b00      	cmp	r3, #0
 80068b2:	d0ee      	beq.n	8006892 <HAL_RCC_OscConfig+0x37e>
 80068b4:	e014      	b.n	80068e0 <HAL_RCC_OscConfig+0x3cc>
      }
    }
    else
    {
      /* Get Start Tick */
      tickstart = HAL_GetTick();
 80068b6:	f7fe fa6d 	bl	8004d94 <HAL_GetTick>
 80068ba:	6138      	str	r0, [r7, #16]

      /* Wait till LSE is disabled */
      while (__HAL_RCC_GET_FLAG(RCC_FLAG_LSERDY) != RESET)
 80068bc:	e00a      	b.n	80068d4 <HAL_RCC_OscConfig+0x3c0>
      {
        if ((HAL_GetTick() - tickstart) > RCC_LSE_TIMEOUT_VALUE)
 80068be:	f7fe fa69 	bl	8004d94 <HAL_GetTick>
 80068c2:	4602      	mov	r2, r0
 80068c4:	693b      	ldr	r3, [r7, #16]
 80068c6:	1ad3      	subs	r3, r2, r3
 80068c8:	f241 3288 	movw	r2, #5000	; 0x1388
 80068cc:	4293      	cmp	r3, r2
 80068ce:	d901      	bls.n	80068d4 <HAL_RCC_OscConfig+0x3c0>
        {
          return HAL_TIMEOUT;
 80068d0:	2303      	movs	r3, #3
 80068d2:	e09b      	b.n	8006a0c <HAL_RCC_OscConfig+0x4f8>
      while (__HAL_RCC_GET_FLAG(RCC_FLAG_LSERDY) != RESET)
 80068d4:	4b40      	ldr	r3, [pc, #256]	; (80069d8 <HAL_RCC_OscConfig+0x4c4>)
 80068d6:	6a1b      	ldr	r3, [r3, #32]
 80068d8:	f003 0302 	and.w	r3, r3, #2
 80068dc:	2b00      	cmp	r3, #0
 80068de:	d1ee      	bne.n	80068be <HAL_RCC_OscConfig+0x3aa>
        }
      }
    }

    /* Require to disable power clock if necessary */
    if (pwrclkchanged == SET)
 80068e0:	7dfb      	ldrb	r3, [r7, #23]
 80068e2:	2b01      	cmp	r3, #1
 80068e4:	d105      	bne.n	80068f2 <HAL_RCC_OscConfig+0x3de>
    {
      __HAL_RCC_PWR_CLK_DISABLE();
 80068e6:	4b3c      	ldr	r3, [pc, #240]	; (80069d8 <HAL_RCC_OscConfig+0x4c4>)
 80068e8:	69db      	ldr	r3, [r3, #28]
 80068ea:	4a3b      	ldr	r2, [pc, #236]	; (80069d8 <HAL_RCC_OscConfig+0x4c4>)
 80068ec:	f023 5380 	bic.w	r3, r3, #268435456	; 0x10000000
 80068f0:	61d3      	str	r3, [r2, #28]

#endif /* RCC_CR_PLL2ON */
  /*-------------------------------- PLL Configuration -----------------------*/
  /* Check the parameters */
  assert_param(IS_RCC_PLL(RCC_OscInitStruct->PLL.PLLState));
  if ((RCC_OscInitStruct->PLL.PLLState) != RCC_PLL_NONE)
 80068f2:	687b      	ldr	r3, [r7, #4]
 80068f4:	69db      	ldr	r3, [r3, #28]
 80068f6:	2b00      	cmp	r3, #0
 80068f8:	f000 8087 	beq.w	8006a0a <HAL_RCC_OscConfig+0x4f6>
  {
    /* Check if the PLL is used as system clock or not */
    if (__HAL_RCC_GET_SYSCLK_SOURCE() != RCC_SYSCLKSOURCE_STATUS_PLLCLK)
 80068fc:	4b36      	ldr	r3, [pc, #216]	; (80069d8 <HAL_RCC_OscConfig+0x4c4>)
 80068fe:	685b      	ldr	r3, [r3, #4]
 8006900:	f003 030c 	and.w	r3, r3, #12
 8006904:	2b08      	cmp	r3, #8
 8006906:	d061      	beq.n	80069cc <HAL_RCC_OscConfig+0x4b8>
    {
      if ((RCC_OscInitStruct->PLL.PLLState) == RCC_PLL_ON)
 8006908:	687b      	ldr	r3, [r7, #4]
 800690a:	69db      	ldr	r3, [r3, #28]
 800690c:	2b02      	cmp	r3, #2
 800690e:	d146      	bne.n	800699e <HAL_RCC_OscConfig+0x48a>
        /* Check the parameters */
        assert_param(IS_RCC_PLLSOURCE(RCC_OscInitStruct->PLL.PLLSource));
        assert_param(IS_RCC_PLL_MUL(RCC_OscInitStruct->PLL.PLLMUL));

        /* Disable the main PLL. */
        __HAL_RCC_PLL_DISABLE();
 8006910:	4b33      	ldr	r3, [pc, #204]	; (80069e0 <HAL_RCC_OscConfig+0x4cc>)
 8006912:	2200      	movs	r2, #0
 8006914:	601a      	str	r2, [r3, #0]

        /* Get Start Tick */
        tickstart = HAL_GetTick();
 8006916:	f7fe fa3d 	bl	8004d94 <HAL_GetTick>
 800691a:	6138      	str	r0, [r7, #16]

        /* Wait till PLL is disabled */
        while (__HAL_RCC_GET_FLAG(RCC_FLAG_PLLRDY)  != RESET)
 800691c:	e008      	b.n	8006930 <HAL_RCC_OscConfig+0x41c>
        {
          if ((HAL_GetTick() - tickstart) > PLL_TIMEOUT_VALUE)
 800691e:	f7fe fa39 	bl	8004d94 <HAL_GetTick>
 8006922:	4602      	mov	r2, r0
 8006924:	693b      	ldr	r3, [r7, #16]
 8006926:	1ad3      	subs	r3, r2, r3
 8006928:	2b02      	cmp	r3, #2
 800692a:	d901      	bls.n	8006930 <HAL_RCC_OscConfig+0x41c>
          {
            return HAL_TIMEOUT;
 800692c:	2303      	movs	r3, #3
 800692e:	e06d      	b.n	8006a0c <HAL_RCC_OscConfig+0x4f8>
        while (__HAL_RCC_GET_FLAG(RCC_FLAG_PLLRDY)  != RESET)
 8006930:	4b29      	ldr	r3, [pc, #164]	; (80069d8 <HAL_RCC_OscConfig+0x4c4>)
 8006932:	681b      	ldr	r3, [r3, #0]
 8006934:	f003 7300 	and.w	r3, r3, #33554432	; 0x2000000
 8006938:	2b00      	cmp	r3, #0
 800693a:	d1f0      	bne.n	800691e <HAL_RCC_OscConfig+0x40a>
          }
        }

        /* Configure the HSE prediv factor --------------------------------*/
        /* It can be written only when the PLL is disabled. Not used in PLL source is different than HSE */
        if (RCC_OscInitStruct->PLL.PLLSource == RCC_PLLSOURCE_HSE)
 800693c:	687b      	ldr	r3, [r7, #4]
 800693e:	6a1b      	ldr	r3, [r3, #32]
 8006940:	f5b3 3f80 	cmp.w	r3, #65536	; 0x10000
 8006944:	d108      	bne.n	8006958 <HAL_RCC_OscConfig+0x444>
          /* Set PREDIV1 source */
          SET_BIT(RCC->CFGR2, RCC_OscInitStruct->Prediv1Source);
#endif /* RCC_CFGR2_PREDIV1SRC */

          /* Set PREDIV1 Value */
          __HAL_RCC_HSE_PREDIV_CONFIG(RCC_OscInitStruct->HSEPredivValue);
 8006946:	4b24      	ldr	r3, [pc, #144]	; (80069d8 <HAL_RCC_OscConfig+0x4c4>)
 8006948:	685b      	ldr	r3, [r3, #4]
 800694a:	f423 3200 	bic.w	r2, r3, #131072	; 0x20000
 800694e:	687b      	ldr	r3, [r7, #4]
 8006950:	689b      	ldr	r3, [r3, #8]
 8006952:	4921      	ldr	r1, [pc, #132]	; (80069d8 <HAL_RCC_OscConfig+0x4c4>)
 8006954:	4313      	orrs	r3, r2
 8006956:	604b      	str	r3, [r1, #4]
        }

        /* Configure the main PLL clock source and multiplication factors. */
        __HAL_RCC_PLL_CONFIG(RCC_OscInitStruct->PLL.PLLSource,
 8006958:	4b1f      	ldr	r3, [pc, #124]	; (80069d8 <HAL_RCC_OscConfig+0x4c4>)
 800695a:	685b      	ldr	r3, [r3, #4]
 800695c:	f423 1274 	bic.w	r2, r3, #3997696	; 0x3d0000
 8006960:	687b      	ldr	r3, [r7, #4]
 8006962:	6a19      	ldr	r1, [r3, #32]
 8006964:	687b      	ldr	r3, [r7, #4]
 8006966:	6a5b      	ldr	r3, [r3, #36]	; 0x24
 8006968:	430b      	orrs	r3, r1
 800696a:	491b      	ldr	r1, [pc, #108]	; (80069d8 <HAL_RCC_OscConfig+0x4c4>)
 800696c:	4313      	orrs	r3, r2
 800696e:	604b      	str	r3, [r1, #4]
                             RCC_OscInitStruct->PLL.PLLMUL);
        /* Enable the main PLL. */
        __HAL_RCC_PLL_ENABLE();
 8006970:	4b1b      	ldr	r3, [pc, #108]	; (80069e0 <HAL_RCC_OscConfig+0x4cc>)
 8006972:	2201      	movs	r2, #1
 8006974:	601a      	str	r2, [r3, #0]

        /* Get Start Tick */
        tickstart = HAL_GetTick();
 8006976:	f7fe fa0d 	bl	8004d94 <HAL_GetTick>
 800697a:	6138      	str	r0, [r7, #16]

        /* Wait till PLL is ready */
        while (__HAL_RCC_GET_FLAG(RCC_FLAG_PLLRDY)  == RESET)
 800697c:	e008      	b.n	8006990 <HAL_RCC_OscConfig+0x47c>
        {
          if ((HAL_GetTick() - tickstart) > PLL_TIMEOUT_VALUE)
 800697e:	f7fe fa09 	bl	8004d94 <HAL_GetTick>
 8006982:	4602      	mov	r2, r0
 8006984:	693b      	ldr	r3, [r7, #16]
 8006986:	1ad3      	subs	r3, r2, r3
 8006988:	2b02      	cmp	r3, #2
 800698a:	d901      	bls.n	8006990 <HAL_RCC_OscConfig+0x47c>
          {
            return HAL_TIMEOUT;
 800698c:	2303      	movs	r3, #3
 800698e:	e03d      	b.n	8006a0c <HAL_RCC_OscConfig+0x4f8>
        while (__HAL_RCC_GET_FLAG(RCC_FLAG_PLLRDY)  == RESET)
 8006990:	4b11      	ldr	r3, [pc, #68]	; (80069d8 <HAL_RCC_OscConfig+0x4c4>)
 8006992:	681b      	ldr	r3, [r3, #0]
 8006994:	f003 7300 	and.w	r3, r3, #33554432	; 0x2000000
 8006998:	2b00      	cmp	r3, #0
 800699a:	d0f0      	beq.n	800697e <HAL_RCC_OscConfig+0x46a>
 800699c:	e035      	b.n	8006a0a <HAL_RCC_OscConfig+0x4f6>
        }
      }
      else
      {
        /* Disable the main PLL. */
        __HAL_RCC_PLL_DISABLE();
 800699e:	4b10      	ldr	r3, [pc, #64]	; (80069e0 <HAL_RCC_OscConfig+0x4cc>)
 80069a0:	2200      	movs	r2, #0
 80069a2:	601a      	str	r2, [r3, #0]

        /* Get Start Tick */
        tickstart = HAL_GetTick();
 80069a4:	f7fe f9f6 	bl	8004d94 <HAL_GetTick>
 80069a8:	6138      	str	r0, [r7, #16]

        /* Wait till PLL is disabled */
        while (__HAL_RCC_GET_FLAG(RCC_FLAG_PLLRDY)  != RESET)
 80069aa:	e008      	b.n	80069be <HAL_RCC_OscConfig+0x4aa>
        {
          if ((HAL_GetTick() - tickstart) > PLL_TIMEOUT_VALUE)
 80069ac:	f7fe f9f2 	bl	8004d94 <HAL_GetTick>
 80069b0:	4602      	mov	r2, r0
 80069b2:	693b      	ldr	r3, [r7, #16]
 80069b4:	1ad3      	subs	r3, r2, r3
 80069b6:	2b02      	cmp	r3, #2
 80069b8:	d901      	bls.n	80069be <HAL_RCC_OscConfig+0x4aa>
          {
            return HAL_TIMEOUT;
 80069ba:	2303      	movs	r3, #3
 80069bc:	e026      	b.n	8006a0c <HAL_RCC_OscConfig+0x4f8>
        while (__HAL_RCC_GET_FLAG(RCC_FLAG_PLLRDY)  != RESET)
 80069be:	4b06      	ldr	r3, [pc, #24]	; (80069d8 <HAL_RCC_OscConfig+0x4c4>)
 80069c0:	681b      	ldr	r3, [r3, #0]
 80069c2:	f003 7300 	and.w	r3, r3, #33554432	; 0x2000000
 80069c6:	2b00      	cmp	r3, #0
 80069c8:	d1f0      	bne.n	80069ac <HAL_RCC_OscConfig+0x498>
 80069ca:	e01e      	b.n	8006a0a <HAL_RCC_OscConfig+0x4f6>
      }
    }
    else
    {
      /* Check if there is a request to disable the PLL used as System clock source */
      if ((RCC_OscInitStruct->PLL.PLLState) == RCC_PLL_OFF)
 80069cc:	687b      	ldr	r3, [r7, #4]
 80069ce:	69db      	ldr	r3, [r3, #28]
 80069d0:	2b01      	cmp	r3, #1
 80069d2:	d107      	bne.n	80069e4 <HAL_RCC_OscConfig+0x4d0>
      {
        return HAL_ERROR;
 80069d4:	2301      	movs	r3, #1
 80069d6:	e019      	b.n	8006a0c <HAL_RCC_OscConfig+0x4f8>
 80069d8:	40021000 	.word	0x40021000
 80069dc:	40007000 	.word	0x40007000
 80069e0:	42420060 	.word	0x42420060
      }
      else
      {
        /* Do not return HAL_ERROR if request repeats the current configuration */
        pll_config = RCC->CFGR;
 80069e4:	4b0b      	ldr	r3, [pc, #44]	; (8006a14 <HAL_RCC_OscConfig+0x500>)
 80069e6:	685b      	ldr	r3, [r3, #4]
 80069e8:	60fb      	str	r3, [r7, #12]
        if ((READ_BIT(pll_config, RCC_CFGR_PLLSRC) != RCC_OscInitStruct->PLL.PLLSource) ||
 80069ea:	68fb      	ldr	r3, [r7, #12]
 80069ec:	f403 3280 	and.w	r2, r3, #65536	; 0x10000
 80069f0:	687b      	ldr	r3, [r7, #4]
 80069f2:	6a1b      	ldr	r3, [r3, #32]
 80069f4:	429a      	cmp	r2, r3
 80069f6:	d106      	bne.n	8006a06 <HAL_RCC_OscConfig+0x4f2>
            (READ_BIT(pll_config, RCC_CFGR_PLLMULL) != RCC_OscInitStruct->PLL.PLLMUL))
 80069f8:	68fb      	ldr	r3, [r7, #12]
 80069fa:	f403 1270 	and.w	r2, r3, #3932160	; 0x3c0000
 80069fe:	687b      	ldr	r3, [r7, #4]
 8006a00:	6a5b      	ldr	r3, [r3, #36]	; 0x24
        if ((READ_BIT(pll_config, RCC_CFGR_PLLSRC) != RCC_OscInitStruct->PLL.PLLSource) ||
 8006a02:	429a      	cmp	r2, r3
 8006a04:	d001      	beq.n	8006a0a <HAL_RCC_OscConfig+0x4f6>
        {
          return HAL_ERROR;
 8006a06:	2301      	movs	r3, #1
 8006a08:	e000      	b.n	8006a0c <HAL_RCC_OscConfig+0x4f8>
        }
      }
    }
  }

  return HAL_OK;
 8006a0a:	2300      	movs	r3, #0
}
 8006a0c:	4618      	mov	r0, r3
 8006a0e:	3718      	adds	r7, #24
 8006a10:	46bd      	mov	sp, r7
 8006a12:	bd80      	pop	{r7, pc}
 8006a14:	40021000 	.word	0x40021000

08006a18 <HAL_RCC_ClockConfig>:
  *         You can use @ref HAL_RCC_GetClockConfig() function to know which clock is
  *         currently used as system clock source.
  * @retval HAL status
  */
HAL_StatusTypeDef HAL_RCC_ClockConfig(RCC_ClkInitTypeDef  *RCC_ClkInitStruct, uint32_t FLatency)
{
 8006a18:	b580      	push	{r7, lr}
 8006a1a:	b084      	sub	sp, #16
 8006a1c:	af00      	add	r7, sp, #0
 8006a1e:	6078      	str	r0, [r7, #4]
 8006a20:	6039      	str	r1, [r7, #0]
  uint32_t tickstart;

  /* Check Null pointer */
  if (RCC_ClkInitStruct == NULL)
 8006a22:	687b      	ldr	r3, [r7, #4]
 8006a24:	2b00      	cmp	r3, #0
 8006a26:	d101      	bne.n	8006a2c <HAL_RCC_ClockConfig+0x14>
  {
    return HAL_ERROR;
 8006a28:	2301      	movs	r3, #1
 8006a2a:	e0d0      	b.n	8006bce <HAL_RCC_ClockConfig+0x1b6>
  must be correctly programmed according to the frequency of the CPU clock
    (HCLK) of the device. */

#if defined(FLASH_ACR_LATENCY)
  /* Increasing the number of wait states because of higher CPU frequency */
  if (FLatency > __HAL_FLASH_GET_LATENCY())
 8006a2c:	4b6a      	ldr	r3, [pc, #424]	; (8006bd8 <HAL_RCC_ClockConfig+0x1c0>)
 8006a2e:	681b      	ldr	r3, [r3, #0]
 8006a30:	f003 0307 	and.w	r3, r3, #7
 8006a34:	683a      	ldr	r2, [r7, #0]
 8006a36:	429a      	cmp	r2, r3
 8006a38:	d910      	bls.n	8006a5c <HAL_RCC_ClockConfig+0x44>
  {
    /* Program the new number of wait states to the LATENCY bits in the FLASH_ACR register */
    __HAL_FLASH_SET_LATENCY(FLatency);
 8006a3a:	4b67      	ldr	r3, [pc, #412]	; (8006bd8 <HAL_RCC_ClockConfig+0x1c0>)
 8006a3c:	681b      	ldr	r3, [r3, #0]
 8006a3e:	f023 0207 	bic.w	r2, r3, #7
 8006a42:	4965      	ldr	r1, [pc, #404]	; (8006bd8 <HAL_RCC_ClockConfig+0x1c0>)
 8006a44:	683b      	ldr	r3, [r7, #0]
 8006a46:	4313      	orrs	r3, r2
 8006a48:	600b      	str	r3, [r1, #0]

    /* Check that the new number of wait states is taken into account to access the Flash
    memory by reading the FLASH_ACR register */
    if (__HAL_FLASH_GET_LATENCY() != FLatency)
 8006a4a:	4b63      	ldr	r3, [pc, #396]	; (8006bd8 <HAL_RCC_ClockConfig+0x1c0>)
 8006a4c:	681b      	ldr	r3, [r3, #0]
 8006a4e:	f003 0307 	and.w	r3, r3, #7
 8006a52:	683a      	ldr	r2, [r7, #0]
 8006a54:	429a      	cmp	r2, r3
 8006a56:	d001      	beq.n	8006a5c <HAL_RCC_ClockConfig+0x44>
  {
    return HAL_ERROR;
 8006a58:	2301      	movs	r3, #1
 8006a5a:	e0b8      	b.n	8006bce <HAL_RCC_ClockConfig+0x1b6>
  }
}

#endif /* FLASH_ACR_LATENCY */
/*-------------------------- HCLK Configuration --------------------------*/
if (((RCC_ClkInitStruct->ClockType) & RCC_CLOCKTYPE_HCLK) == RCC_CLOCKTYPE_HCLK)
 8006a5c:	687b      	ldr	r3, [r7, #4]
 8006a5e:	681b      	ldr	r3, [r3, #0]
 8006a60:	f003 0302 	and.w	r3, r3, #2
 8006a64:	2b00      	cmp	r3, #0
 8006a66:	d020      	beq.n	8006aaa <HAL_RCC_ClockConfig+0x92>
  {
    /* Set the highest APBx dividers in order to ensure that we do not go through
    a non-spec phase whatever we decrease or increase HCLK. */
    if (((RCC_ClkInitStruct->ClockType) & RCC_CLOCKTYPE_PCLK1) == RCC_CLOCKTYPE_PCLK1)
 8006a68:	687b      	ldr	r3, [r7, #4]
 8006a6a:	681b      	ldr	r3, [r3, #0]
 8006a6c:	f003 0304 	and.w	r3, r3, #4
 8006a70:	2b00      	cmp	r3, #0
 8006a72:	d005      	beq.n	8006a80 <HAL_RCC_ClockConfig+0x68>
    {
      MODIFY_REG(RCC->CFGR, RCC_CFGR_PPRE1, RCC_HCLK_DIV16);
 8006a74:	4b59      	ldr	r3, [pc, #356]	; (8006bdc <HAL_RCC_ClockConfig+0x1c4>)
 8006a76:	685b      	ldr	r3, [r3, #4]
 8006a78:	4a58      	ldr	r2, [pc, #352]	; (8006bdc <HAL_RCC_ClockConfig+0x1c4>)
 8006a7a:	f443 63e0 	orr.w	r3, r3, #1792	; 0x700
 8006a7e:	6053      	str	r3, [r2, #4]
    }

    if (((RCC_ClkInitStruct->ClockType) & RCC_CLOCKTYPE_PCLK2) == RCC_CLOCKTYPE_PCLK2)
 8006a80:	687b      	ldr	r3, [r7, #4]
 8006a82:	681b      	ldr	r3, [r3, #0]
 8006a84:	f003 0308 	and.w	r3, r3, #8
 8006a88:	2b00      	cmp	r3, #0
 8006a8a:	d005      	beq.n	8006a98 <HAL_RCC_ClockConfig+0x80>
    {
      MODIFY_REG(RCC->CFGR, RCC_CFGR_PPRE2, (RCC_HCLK_DIV16 << 3));
 8006a8c:	4b53      	ldr	r3, [pc, #332]	; (8006bdc <HAL_RCC_ClockConfig+0x1c4>)
 8006a8e:	685b      	ldr	r3, [r3, #4]
 8006a90:	4a52      	ldr	r2, [pc, #328]	; (8006bdc <HAL_RCC_ClockConfig+0x1c4>)
 8006a92:	f443 5360 	orr.w	r3, r3, #14336	; 0x3800
 8006a96:	6053      	str	r3, [r2, #4]
    }

    /* Set the new HCLK clock divider */
    assert_param(IS_RCC_HCLK(RCC_ClkInitStruct->AHBCLKDivider));
    MODIFY_REG(RCC->CFGR, RCC_CFGR_HPRE, RCC_ClkInitStruct->AHBCLKDivider);
 8006a98:	4b50      	ldr	r3, [pc, #320]	; (8006bdc <HAL_RCC_ClockConfig+0x1c4>)
 8006a9a:	685b      	ldr	r3, [r3, #4]
 8006a9c:	f023 02f0 	bic.w	r2, r3, #240	; 0xf0
 8006aa0:	687b      	ldr	r3, [r7, #4]
 8006aa2:	689b      	ldr	r3, [r3, #8]
 8006aa4:	494d      	ldr	r1, [pc, #308]	; (8006bdc <HAL_RCC_ClockConfig+0x1c4>)
 8006aa6:	4313      	orrs	r3, r2
 8006aa8:	604b      	str	r3, [r1, #4]
  }

  /*------------------------- SYSCLK Configuration ---------------------------*/
  if (((RCC_ClkInitStruct->ClockType) & RCC_CLOCKTYPE_SYSCLK) == RCC_CLOCKTYPE_SYSCLK)
 8006aaa:	687b      	ldr	r3, [r7, #4]
 8006aac:	681b      	ldr	r3, [r3, #0]
 8006aae:	f003 0301 	and.w	r3, r3, #1
 8006ab2:	2b00      	cmp	r3, #0
 8006ab4:	d040      	beq.n	8006b38 <HAL_RCC_ClockConfig+0x120>
  {
    assert_param(IS_RCC_SYSCLKSOURCE(RCC_ClkInitStruct->SYSCLKSource));

    /* HSE is selected as System Clock Source */
    if (RCC_ClkInitStruct->SYSCLKSource == RCC_SYSCLKSOURCE_HSE)
 8006ab6:	687b      	ldr	r3, [r7, #4]
 8006ab8:	685b      	ldr	r3, [r3, #4]
 8006aba:	2b01      	cmp	r3, #1
 8006abc:	d107      	bne.n	8006ace <HAL_RCC_ClockConfig+0xb6>
    {
      /* Check the HSE ready flag */
      if (__HAL_RCC_GET_FLAG(RCC_FLAG_HSERDY) == RESET)
 8006abe:	4b47      	ldr	r3, [pc, #284]	; (8006bdc <HAL_RCC_ClockConfig+0x1c4>)
 8006ac0:	681b      	ldr	r3, [r3, #0]
 8006ac2:	f403 3300 	and.w	r3, r3, #131072	; 0x20000
 8006ac6:	2b00      	cmp	r3, #0
 8006ac8:	d115      	bne.n	8006af6 <HAL_RCC_ClockConfig+0xde>
      {
        return HAL_ERROR;
 8006aca:	2301      	movs	r3, #1
 8006acc:	e07f      	b.n	8006bce <HAL_RCC_ClockConfig+0x1b6>
      }
    }
    /* PLL is selected as System Clock Source */
    else if (RCC_ClkInitStruct->SYSCLKSource == RCC_SYSCLKSOURCE_PLLCLK)
 8006ace:	687b      	ldr	r3, [r7, #4]
 8006ad0:	685b      	ldr	r3, [r3, #4]
 8006ad2:	2b02      	cmp	r3, #2
 8006ad4:	d107      	bne.n	8006ae6 <HAL_RCC_ClockConfig+0xce>
    {
      /* Check the PLL ready flag */
      if (__HAL_RCC_GET_FLAG(RCC_FLAG_PLLRDY) == RESET)
 8006ad6:	4b41      	ldr	r3, [pc, #260]	; (8006bdc <HAL_RCC_ClockConfig+0x1c4>)
 8006ad8:	681b      	ldr	r3, [r3, #0]
 8006ada:	f003 7300 	and.w	r3, r3, #33554432	; 0x2000000
 8006ade:	2b00      	cmp	r3, #0
 8006ae0:	d109      	bne.n	8006af6 <HAL_RCC_ClockConfig+0xde>
      {
        return HAL_ERROR;
 8006ae2:	2301      	movs	r3, #1
 8006ae4:	e073      	b.n	8006bce <HAL_RCC_ClockConfig+0x1b6>
    }
    /* HSI is selected as System Clock Source */
    else
    {
      /* Check the HSI ready flag */
      if (__HAL_RCC_GET_FLAG(RCC_FLAG_HSIRDY) == RESET)
 8006ae6:	4b3d      	ldr	r3, [pc, #244]	; (8006bdc <HAL_RCC_ClockConfig+0x1c4>)
 8006ae8:	681b      	ldr	r3, [r3, #0]
 8006aea:	f003 0302 	and.w	r3, r3, #2
 8006aee:	2b00      	cmp	r3, #0
 8006af0:	d101      	bne.n	8006af6 <HAL_RCC_ClockConfig+0xde>
      {
        return HAL_ERROR;
 8006af2:	2301      	movs	r3, #1
 8006af4:	e06b      	b.n	8006bce <HAL_RCC_ClockConfig+0x1b6>
      }
    }
    __HAL_RCC_SYSCLK_CONFIG(RCC_ClkInitStruct->SYSCLKSource);
 8006af6:	4b39      	ldr	r3, [pc, #228]	; (8006bdc <HAL_RCC_ClockConfig+0x1c4>)
 8006af8:	685b      	ldr	r3, [r3, #4]
 8006afa:	f023 0203 	bic.w	r2, r3, #3
 8006afe:	687b      	ldr	r3, [r7, #4]
 8006b00:	685b      	ldr	r3, [r3, #4]
 8006b02:	4936      	ldr	r1, [pc, #216]	; (8006bdc <HAL_RCC_ClockConfig+0x1c4>)
 8006b04:	4313      	orrs	r3, r2
 8006b06:	604b      	str	r3, [r1, #4]

    /* Get Start Tick */
    tickstart = HAL_GetTick();
 8006b08:	f7fe f944 	bl	8004d94 <HAL_GetTick>
 8006b0c:	60f8      	str	r0, [r7, #12]

    while (__HAL_RCC_GET_SYSCLK_SOURCE() != (RCC_ClkInitStruct->SYSCLKSource << RCC_CFGR_SWS_Pos))
 8006b0e:	e00a      	b.n	8006b26 <HAL_RCC_ClockConfig+0x10e>
    {
      if ((HAL_GetTick() - tickstart) > CLOCKSWITCH_TIMEOUT_VALUE)
 8006b10:	f7fe f940 	bl	8004d94 <HAL_GetTick>
 8006b14:	4602      	mov	r2, r0
 8006b16:	68fb      	ldr	r3, [r7, #12]
 8006b18:	1ad3      	subs	r3, r2, r3
 8006b1a:	f241 3288 	movw	r2, #5000	; 0x1388
 8006b1e:	4293      	cmp	r3, r2
 8006b20:	d901      	bls.n	8006b26 <HAL_RCC_ClockConfig+0x10e>
      {
        return HAL_TIMEOUT;
 8006b22:	2303      	movs	r3, #3
 8006b24:	e053      	b.n	8006bce <HAL_RCC_ClockConfig+0x1b6>
    while (__HAL_RCC_GET_SYSCLK_SOURCE() != (RCC_ClkInitStruct->SYSCLKSource << RCC_CFGR_SWS_Pos))
 8006b26:	4b2d      	ldr	r3, [pc, #180]	; (8006bdc <HAL_RCC_ClockConfig+0x1c4>)
 8006b28:	685b      	ldr	r3, [r3, #4]
 8006b2a:	f003 020c 	and.w	r2, r3, #12
 8006b2e:	687b      	ldr	r3, [r7, #4]
 8006b30:	685b      	ldr	r3, [r3, #4]
 8006b32:	009b      	lsls	r3, r3, #2
 8006b34:	429a      	cmp	r2, r3
 8006b36:	d1eb      	bne.n	8006b10 <HAL_RCC_ClockConfig+0xf8>
    }
  }

#if defined(FLASH_ACR_LATENCY)
  /* Decreasing the number of wait states because of lower CPU frequency */
  if (FLatency < __HAL_FLASH_GET_LATENCY())
 8006b38:	4b27      	ldr	r3, [pc, #156]	; (8006bd8 <HAL_RCC_ClockConfig+0x1c0>)
 8006b3a:	681b      	ldr	r3, [r3, #0]
 8006b3c:	f003 0307 	and.w	r3, r3, #7
 8006b40:	683a      	ldr	r2, [r7, #0]
 8006b42:	429a      	cmp	r2, r3
 8006b44:	d210      	bcs.n	8006b68 <HAL_RCC_ClockConfig+0x150>
  {
    /* Program the new number of wait states to the LATENCY bits in the FLASH_ACR register */
    __HAL_FLASH_SET_LATENCY(FLatency);
 8006b46:	4b24      	ldr	r3, [pc, #144]	; (8006bd8 <HAL_RCC_ClockConfig+0x1c0>)
 8006b48:	681b      	ldr	r3, [r3, #0]
 8006b4a:	f023 0207 	bic.w	r2, r3, #7
 8006b4e:	4922      	ldr	r1, [pc, #136]	; (8006bd8 <HAL_RCC_ClockConfig+0x1c0>)
 8006b50:	683b      	ldr	r3, [r7, #0]
 8006b52:	4313      	orrs	r3, r2
 8006b54:	600b      	str	r3, [r1, #0]

    /* Check that the new number of wait states is taken into account to access the Flash
    memory by reading the FLASH_ACR register */
    if (__HAL_FLASH_GET_LATENCY() != FLatency)
 8006b56:	4b20      	ldr	r3, [pc, #128]	; (8006bd8 <HAL_RCC_ClockConfig+0x1c0>)
 8006b58:	681b      	ldr	r3, [r3, #0]
 8006b5a:	f003 0307 	and.w	r3, r3, #7
 8006b5e:	683a      	ldr	r2, [r7, #0]
 8006b60:	429a      	cmp	r2, r3
 8006b62:	d001      	beq.n	8006b68 <HAL_RCC_ClockConfig+0x150>
  {
    return HAL_ERROR;
 8006b64:	2301      	movs	r3, #1
 8006b66:	e032      	b.n	8006bce <HAL_RCC_ClockConfig+0x1b6>
  }
}
#endif /* FLASH_ACR_LATENCY */

/*-------------------------- PCLK1 Configuration ---------------------------*/
if (((RCC_ClkInitStruct->ClockType) & RCC_CLOCKTYPE_PCLK1) == RCC_CLOCKTYPE_PCLK1)
 8006b68:	687b      	ldr	r3, [r7, #4]
 8006b6a:	681b      	ldr	r3, [r3, #0]
 8006b6c:	f003 0304 	and.w	r3, r3, #4
 8006b70:	2b00      	cmp	r3, #0
 8006b72:	d008      	beq.n	8006b86 <HAL_RCC_ClockConfig+0x16e>
  {
    assert_param(IS_RCC_PCLK(RCC_ClkInitStruct->APB1CLKDivider));
    MODIFY_REG(RCC->CFGR, RCC_CFGR_PPRE1, RCC_ClkInitStruct->APB1CLKDivider);
 8006b74:	4b19      	ldr	r3, [pc, #100]	; (8006bdc <HAL_RCC_ClockConfig+0x1c4>)
 8006b76:	685b      	ldr	r3, [r3, #4]
 8006b78:	f423 62e0 	bic.w	r2, r3, #1792	; 0x700
 8006b7c:	687b      	ldr	r3, [r7, #4]
 8006b7e:	68db      	ldr	r3, [r3, #12]
 8006b80:	4916      	ldr	r1, [pc, #88]	; (8006bdc <HAL_RCC_ClockConfig+0x1c4>)
 8006b82:	4313      	orrs	r3, r2
 8006b84:	604b      	str	r3, [r1, #4]
  }

  /*-------------------------- PCLK2 Configuration ---------------------------*/
  if (((RCC_ClkInitStruct->ClockType) & RCC_CLOCKTYPE_PCLK2) == RCC_CLOCKTYPE_PCLK2)
 8006b86:	687b      	ldr	r3, [r7, #4]
 8006b88:	681b      	ldr	r3, [r3, #0]
 8006b8a:	f003 0308 	and.w	r3, r3, #8
 8006b8e:	2b00      	cmp	r3, #0
 8006b90:	d009      	beq.n	8006ba6 <HAL_RCC_ClockConfig+0x18e>
  {
    assert_param(IS_RCC_PCLK(RCC_ClkInitStruct->APB2CLKDivider));
    MODIFY_REG(RCC->CFGR, RCC_CFGR_PPRE2, ((RCC_ClkInitStruct->APB2CLKDivider) << 3));
 8006b92:	4b12      	ldr	r3, [pc, #72]	; (8006bdc <HAL_RCC_ClockConfig+0x1c4>)
 8006b94:	685b      	ldr	r3, [r3, #4]
 8006b96:	f423 5260 	bic.w	r2, r3, #14336	; 0x3800
 8006b9a:	687b      	ldr	r3, [r7, #4]
 8006b9c:	691b      	ldr	r3, [r3, #16]
 8006b9e:	00db      	lsls	r3, r3, #3
 8006ba0:	490e      	ldr	r1, [pc, #56]	; (8006bdc <HAL_RCC_ClockConfig+0x1c4>)
 8006ba2:	4313      	orrs	r3, r2
 8006ba4:	604b      	str	r3, [r1, #4]
  }

  /* Update the SystemCoreClock global variable */
  SystemCoreClock = HAL_RCC_GetSysClockFreq() >> AHBPrescTable[(RCC->CFGR & RCC_CFGR_HPRE) >> RCC_CFGR_HPRE_Pos];
 8006ba6:	f000 f821 	bl	8006bec <HAL_RCC_GetSysClockFreq>
 8006baa:	4602      	mov	r2, r0
 8006bac:	4b0b      	ldr	r3, [pc, #44]	; (8006bdc <HAL_RCC_ClockConfig+0x1c4>)
 8006bae:	685b      	ldr	r3, [r3, #4]
 8006bb0:	091b      	lsrs	r3, r3, #4
 8006bb2:	f003 030f 	and.w	r3, r3, #15
 8006bb6:	490a      	ldr	r1, [pc, #40]	; (8006be0 <HAL_RCC_ClockConfig+0x1c8>)
 8006bb8:	5ccb      	ldrb	r3, [r1, r3]
 8006bba:	fa22 f303 	lsr.w	r3, r2, r3
 8006bbe:	4a09      	ldr	r2, [pc, #36]	; (8006be4 <HAL_RCC_ClockConfig+0x1cc>)
 8006bc0:	6013      	str	r3, [r2, #0]

  /* Configure the source of time base considering new system clocks settings*/
  HAL_InitTick(uwTickPrio);
 8006bc2:	4b09      	ldr	r3, [pc, #36]	; (8006be8 <HAL_RCC_ClockConfig+0x1d0>)
 8006bc4:	681b      	ldr	r3, [r3, #0]
 8006bc6:	4618      	mov	r0, r3
 8006bc8:	f7fe f8a2 	bl	8004d10 <HAL_InitTick>

  return HAL_OK;
 8006bcc:	2300      	movs	r3, #0
}
 8006bce:	4618      	mov	r0, r3
 8006bd0:	3710      	adds	r7, #16
 8006bd2:	46bd      	mov	sp, r7
 8006bd4:	bd80      	pop	{r7, pc}
 8006bd6:	bf00      	nop
 8006bd8:	40022000 	.word	0x40022000
 8006bdc:	40021000 	.word	0x40021000
 8006be0:	08009b50 	.word	0x08009b50
 8006be4:	200000ac 	.word	0x200000ac
 8006be8:	200000b0 	.word	0x200000b0

08006bec <HAL_RCC_GetSysClockFreq>:
  *         right SYSCLK value. Otherwise, any configuration based on this function will be incorrect.
  *
  * @retval SYSCLK frequency
  */
uint32_t HAL_RCC_GetSysClockFreq(void)
{
 8006bec:	b480      	push	{r7}
 8006bee:	b087      	sub	sp, #28
 8006bf0:	af00      	add	r7, sp, #0
#else
  static const uint8_t aPredivFactorTable[2U] = {1, 2};
#endif /*RCC_CFGR2_PREDIV1*/

#endif
  uint32_t tmpreg = 0U, prediv = 0U, pllclk = 0U, pllmul = 0U;
 8006bf2:	2300      	movs	r3, #0
 8006bf4:	60fb      	str	r3, [r7, #12]
 8006bf6:	2300      	movs	r3, #0
 8006bf8:	60bb      	str	r3, [r7, #8]
 8006bfa:	2300      	movs	r3, #0
 8006bfc:	617b      	str	r3, [r7, #20]
 8006bfe:	2300      	movs	r3, #0
 8006c00:	607b      	str	r3, [r7, #4]
  uint32_t sysclockfreq = 0U;
 8006c02:	2300      	movs	r3, #0
 8006c04:	613b      	str	r3, [r7, #16]
#if defined(RCC_CFGR2_PREDIV1SRC)
  uint32_t prediv2 = 0U, pll2mul = 0U;
#endif /*RCC_CFGR2_PREDIV1SRC*/

  tmpreg = RCC->CFGR;
 8006c06:	4b1e      	ldr	r3, [pc, #120]	; (8006c80 <HAL_RCC_GetSysClockFreq+0x94>)
 8006c08:	685b      	ldr	r3, [r3, #4]
 8006c0a:	60fb      	str	r3, [r7, #12]

  /* Get SYSCLK source -------------------------------------------------------*/
  switch (tmpreg & RCC_CFGR_SWS)
 8006c0c:	68fb      	ldr	r3, [r7, #12]
 8006c0e:	f003 030c 	and.w	r3, r3, #12
 8006c12:	2b04      	cmp	r3, #4
 8006c14:	d002      	beq.n	8006c1c <HAL_RCC_GetSysClockFreq+0x30>
 8006c16:	2b08      	cmp	r3, #8
 8006c18:	d003      	beq.n	8006c22 <HAL_RCC_GetSysClockFreq+0x36>
 8006c1a:	e027      	b.n	8006c6c <HAL_RCC_GetSysClockFreq+0x80>
  {
    case RCC_SYSCLKSOURCE_STATUS_HSE:  /* HSE used as system clock */
    {
      sysclockfreq = HSE_VALUE;
 8006c1c:	4b19      	ldr	r3, [pc, #100]	; (8006c84 <HAL_RCC_GetSysClockFreq+0x98>)
 8006c1e:	613b      	str	r3, [r7, #16]
      break;
 8006c20:	e027      	b.n	8006c72 <HAL_RCC_GetSysClockFreq+0x86>
    }
    case RCC_SYSCLKSOURCE_STATUS_PLLCLK:  /* PLL used as system clock */
    {
      pllmul = aPLLMULFactorTable[(uint32_t)(tmpreg & RCC_CFGR_PLLMULL) >> RCC_CFGR_PLLMULL_Pos];
 8006c22:	68fb      	ldr	r3, [r7, #12]
 8006c24:	0c9b      	lsrs	r3, r3, #18
 8006c26:	f003 030f 	and.w	r3, r3, #15
 8006c2a:	4a17      	ldr	r2, [pc, #92]	; (8006c88 <HAL_RCC_GetSysClockFreq+0x9c>)
 8006c2c:	5cd3      	ldrb	r3, [r2, r3]
 8006c2e:	607b      	str	r3, [r7, #4]
      if ((tmpreg & RCC_CFGR_PLLSRC) != RCC_PLLSOURCE_HSI_DIV2)
 8006c30:	68fb      	ldr	r3, [r7, #12]
 8006c32:	f403 3380 	and.w	r3, r3, #65536	; 0x10000
 8006c36:	2b00      	cmp	r3, #0
 8006c38:	d010      	beq.n	8006c5c <HAL_RCC_GetSysClockFreq+0x70>
      {
#if defined(RCC_CFGR2_PREDIV1)
        prediv = aPredivFactorTable[(uint32_t)(RCC->CFGR2 & RCC_CFGR2_PREDIV1) >> RCC_CFGR2_PREDIV1_Pos];
#else
        prediv = aPredivFactorTable[(uint32_t)(RCC->CFGR & RCC_CFGR_PLLXTPRE) >> RCC_CFGR_PLLXTPRE_Pos];
 8006c3a:	4b11      	ldr	r3, [pc, #68]	; (8006c80 <HAL_RCC_GetSysClockFreq+0x94>)
 8006c3c:	685b      	ldr	r3, [r3, #4]
 8006c3e:	0c5b      	lsrs	r3, r3, #17
 8006c40:	f003 0301 	and.w	r3, r3, #1
 8006c44:	4a11      	ldr	r2, [pc, #68]	; (8006c8c <HAL_RCC_GetSysClockFreq+0xa0>)
 8006c46:	5cd3      	ldrb	r3, [r2, r3]
 8006c48:	60bb      	str	r3, [r7, #8]
        {
          pllclk = pllclk / 2;
        }
#else
        /* HSE used as PLL clock source : PLLCLK = HSE/PREDIV1 * PLLMUL */
        pllclk = (uint32_t)((HSE_VALUE  * pllmul) / prediv);
 8006c4a:	687b      	ldr	r3, [r7, #4]
 8006c4c:	4a0d      	ldr	r2, [pc, #52]	; (8006c84 <HAL_RCC_GetSysClockFreq+0x98>)
 8006c4e:	fb03 f202 	mul.w	r2, r3, r2
 8006c52:	68bb      	ldr	r3, [r7, #8]
 8006c54:	fbb2 f3f3 	udiv	r3, r2, r3
 8006c58:	617b      	str	r3, [r7, #20]
 8006c5a:	e004      	b.n	8006c66 <HAL_RCC_GetSysClockFreq+0x7a>
#endif /*RCC_CFGR2_PREDIV1SRC*/
      }
      else
      {
        /* HSI used as PLL clock source : PLLCLK = HSI/2 * PLLMUL */
        pllclk = (uint32_t)((HSI_VALUE >> 1) * pllmul);
 8006c5c:	687b      	ldr	r3, [r7, #4]
 8006c5e:	4a0c      	ldr	r2, [pc, #48]	; (8006c90 <HAL_RCC_GetSysClockFreq+0xa4>)
 8006c60:	fb02 f303 	mul.w	r3, r2, r3
 8006c64:	617b      	str	r3, [r7, #20]
      }
      sysclockfreq = pllclk;
 8006c66:	697b      	ldr	r3, [r7, #20]
 8006c68:	613b      	str	r3, [r7, #16]
      break;
 8006c6a:	e002      	b.n	8006c72 <HAL_RCC_GetSysClockFreq+0x86>
    }
    case RCC_SYSCLKSOURCE_STATUS_HSI:  /* HSI used as system clock source */
    default: /* HSI used as system clock */
    {
      sysclockfreq = HSI_VALUE;
 8006c6c:	4b05      	ldr	r3, [pc, #20]	; (8006c84 <HAL_RCC_GetSysClockFreq+0x98>)
 8006c6e:	613b      	str	r3, [r7, #16]
      break;
 8006c70:	bf00      	nop
    }
  }
  return sysclockfreq;
 8006c72:	693b      	ldr	r3, [r7, #16]
}
 8006c74:	4618      	mov	r0, r3
 8006c76:	371c      	adds	r7, #28
 8006c78:	46bd      	mov	sp, r7
 8006c7a:	bc80      	pop	{r7}
 8006c7c:	4770      	bx	lr
 8006c7e:	bf00      	nop
 8006c80:	40021000 	.word	0x40021000
 8006c84:	007a1200 	.word	0x007a1200
 8006c88:	08009b68 	.word	0x08009b68
 8006c8c:	08009b78 	.word	0x08009b78
 8006c90:	003d0900 	.word	0x003d0900

08006c94 <HAL_RCC_GetHCLKFreq>:
  * @note   The SystemCoreClock CMSIS variable is used to store System Clock Frequency
  *         and updated within this function
  * @retval HCLK frequency
  */
uint32_t HAL_RCC_GetHCLKFreq(void)
{
 8006c94:	b480      	push	{r7}
 8006c96:	af00      	add	r7, sp, #0
  return SystemCoreClock;
 8006c98:	4b02      	ldr	r3, [pc, #8]	; (8006ca4 <HAL_RCC_GetHCLKFreq+0x10>)
 8006c9a:	681b      	ldr	r3, [r3, #0]
}
 8006c9c:	4618      	mov	r0, r3
 8006c9e:	46bd      	mov	sp, r7
 8006ca0:	bc80      	pop	{r7}
 8006ca2:	4770      	bx	lr
 8006ca4:	200000ac 	.word	0x200000ac

08006ca8 <HAL_RCC_GetPCLK1Freq>:
  * @note   Each time PCLK1 changes, this function must be called to update the
  *         right PCLK1 value. Otherwise, any configuration based on this function will be incorrect.
  * @retval PCLK1 frequency
  */
uint32_t HAL_RCC_GetPCLK1Freq(void)
{
 8006ca8:	b580      	push	{r7, lr}
 8006caa:	af00      	add	r7, sp, #0
  /* Get HCLK source and Compute PCLK1 frequency ---------------------------*/
  return (HAL_RCC_GetHCLKFreq() >> APBPrescTable[(RCC->CFGR & RCC_CFGR_PPRE1) >> RCC_CFGR_PPRE1_Pos]);
 8006cac:	f7ff fff2 	bl	8006c94 <HAL_RCC_GetHCLKFreq>
 8006cb0:	4602      	mov	r2, r0
 8006cb2:	4b05      	ldr	r3, [pc, #20]	; (8006cc8 <HAL_RCC_GetPCLK1Freq+0x20>)
 8006cb4:	685b      	ldr	r3, [r3, #4]
 8006cb6:	0a1b      	lsrs	r3, r3, #8
 8006cb8:	f003 0307 	and.w	r3, r3, #7
 8006cbc:	4903      	ldr	r1, [pc, #12]	; (8006ccc <HAL_RCC_GetPCLK1Freq+0x24>)
 8006cbe:	5ccb      	ldrb	r3, [r1, r3]
 8006cc0:	fa22 f303 	lsr.w	r3, r2, r3
}
 8006cc4:	4618      	mov	r0, r3
 8006cc6:	bd80      	pop	{r7, pc}
 8006cc8:	40021000 	.word	0x40021000
 8006ccc:	08009b60 	.word	0x08009b60

08006cd0 <HAL_RCC_GetPCLK2Freq>:
  * @note   Each time PCLK2 changes, this function must be called to update the
  *         right PCLK2 value. Otherwise, any configuration based on this function will be incorrect.
  * @retval PCLK2 frequency
  */
uint32_t HAL_RCC_GetPCLK2Freq(void)
{
 8006cd0:	b580      	push	{r7, lr}
 8006cd2:	af00      	add	r7, sp, #0
  /* Get HCLK source and Compute PCLK2 frequency ---------------------------*/
  return (HAL_RCC_GetHCLKFreq() >> APBPrescTable[(RCC->CFGR & RCC_CFGR_PPRE2) >> RCC_CFGR_PPRE2_Pos]);
 8006cd4:	f7ff ffde 	bl	8006c94 <HAL_RCC_GetHCLKFreq>
 8006cd8:	4602      	mov	r2, r0
 8006cda:	4b05      	ldr	r3, [pc, #20]	; (8006cf0 <HAL_RCC_GetPCLK2Freq+0x20>)
 8006cdc:	685b      	ldr	r3, [r3, #4]
 8006cde:	0adb      	lsrs	r3, r3, #11
 8006ce0:	f003 0307 	and.w	r3, r3, #7
 8006ce4:	4903      	ldr	r1, [pc, #12]	; (8006cf4 <HAL_RCC_GetPCLK2Freq+0x24>)
 8006ce6:	5ccb      	ldrb	r3, [r1, r3]
 8006ce8:	fa22 f303 	lsr.w	r3, r2, r3
}
 8006cec:	4618      	mov	r0, r3
 8006cee:	bd80      	pop	{r7, pc}
 8006cf0:	40021000 	.word	0x40021000
 8006cf4:	08009b60 	.word	0x08009b60

08006cf8 <RCC_Delay>:
  * @brief  This function provides delay (in milliseconds) based on CPU cycles method.
  * @param  mdelay: specifies the delay time length, in milliseconds.
  * @retval None
  */
static void RCC_Delay(uint32_t mdelay)
{
 8006cf8:	b480      	push	{r7}
 8006cfa:	b085      	sub	sp, #20
 8006cfc:	af00      	add	r7, sp, #0
 8006cfe:	6078      	str	r0, [r7, #4]
  __IO uint32_t Delay = mdelay * (SystemCoreClock / 8U / 1000U);
 8006d00:	4b0a      	ldr	r3, [pc, #40]	; (8006d2c <RCC_Delay+0x34>)
 8006d02:	681b      	ldr	r3, [r3, #0]
 8006d04:	4a0a      	ldr	r2, [pc, #40]	; (8006d30 <RCC_Delay+0x38>)
 8006d06:	fba2 2303 	umull	r2, r3, r2, r3
 8006d0a:	0a5b      	lsrs	r3, r3, #9
 8006d0c:	687a      	ldr	r2, [r7, #4]
 8006d0e:	fb02 f303 	mul.w	r3, r2, r3
 8006d12:	60fb      	str	r3, [r7, #12]
  do
  {
    __NOP();
 8006d14:	bf00      	nop
  }
  while (Delay --);
 8006d16:	68fb      	ldr	r3, [r7, #12]
 8006d18:	1e5a      	subs	r2, r3, #1
 8006d1a:	60fa      	str	r2, [r7, #12]
 8006d1c:	2b00      	cmp	r3, #0
 8006d1e:	d1f9      	bne.n	8006d14 <RCC_Delay+0x1c>
}
 8006d20:	bf00      	nop
 8006d22:	bf00      	nop
 8006d24:	3714      	adds	r7, #20
 8006d26:	46bd      	mov	sp, r7
 8006d28:	bc80      	pop	{r7}
 8006d2a:	4770      	bx	lr
 8006d2c:	200000ac 	.word	0x200000ac
 8006d30:	10624dd3 	.word	0x10624dd3

08006d34 <HAL_TIM_Base_Init>:
  *         Ex: call @ref HAL_TIM_Base_DeInit() before HAL_TIM_Base_Init()
  * @param  htim TIM Base handle
  * @retval HAL status
  */
HAL_StatusTypeDef HAL_TIM_Base_Init(TIM_HandleTypeDef *htim)
{
 8006d34:	b580      	push	{r7, lr}
 8006d36:	b082      	sub	sp, #8
 8006d38:	af00      	add	r7, sp, #0
 8006d3a:	6078      	str	r0, [r7, #4]
  /* Check the TIM handle allocation */
  if (htim == NULL)
 8006d3c:	687b      	ldr	r3, [r7, #4]
 8006d3e:	2b00      	cmp	r3, #0
 8006d40:	d101      	bne.n	8006d46 <HAL_TIM_Base_Init+0x12>
  {
    return HAL_ERROR;
 8006d42:	2301      	movs	r3, #1
 8006d44:	e041      	b.n	8006dca <HAL_TIM_Base_Init+0x96>
  assert_param(IS_TIM_COUNTER_MODE(htim->Init.CounterMode));
  assert_param(IS_TIM_CLOCKDIVISION_DIV(htim->Init.ClockDivision));
  assert_param(IS_TIM_PERIOD(htim->Init.Period));
  assert_param(IS_TIM_AUTORELOAD_PRELOAD(htim->Init.AutoReloadPreload));

  if (htim->State == HAL_TIM_STATE_RESET)
 8006d46:	687b      	ldr	r3, [r7, #4]
 8006d48:	f893 303d 	ldrb.w	r3, [r3, #61]	; 0x3d
 8006d4c:	b2db      	uxtb	r3, r3
 8006d4e:	2b00      	cmp	r3, #0
 8006d50:	d106      	bne.n	8006d60 <HAL_TIM_Base_Init+0x2c>
  {
    /* Allocate lock resource and initialize it */
    htim->Lock = HAL_UNLOCKED;
 8006d52:	687b      	ldr	r3, [r7, #4]
 8006d54:	2200      	movs	r2, #0
 8006d56:	f883 203c 	strb.w	r2, [r3, #60]	; 0x3c
    }
    /* Init the low level hardware : GPIO, CLOCK, NVIC */
    htim->Base_MspInitCallback(htim);
#else
    /* Init the low level hardware : GPIO, CLOCK, NVIC */
    HAL_TIM_Base_MspInit(htim);
 8006d5a:	6878      	ldr	r0, [r7, #4]
 8006d5c:	f7fd fe12 	bl	8004984 <HAL_TIM_Base_MspInit>
#endif /* USE_HAL_TIM_REGISTER_CALLBACKS */
  }

  /* Set the TIM state */
  htim->State = HAL_TIM_STATE_BUSY;
 8006d60:	687b      	ldr	r3, [r7, #4]
 8006d62:	2202      	movs	r2, #2
 8006d64:	f883 203d 	strb.w	r2, [r3, #61]	; 0x3d

  /* Set the Time Base configuration */
  TIM_Base_SetConfig(htim->Instance, &htim->Init);
 8006d68:	687b      	ldr	r3, [r7, #4]
 8006d6a:	681a      	ldr	r2, [r3, #0]
 8006d6c:	687b      	ldr	r3, [r7, #4]
 8006d6e:	3304      	adds	r3, #4
 8006d70:	4619      	mov	r1, r3
 8006d72:	4610      	mov	r0, r2
 8006d74:	f000 fc28 	bl	80075c8 <TIM_Base_SetConfig>

  /* Initialize the DMA burst operation state */
  htim->DMABurstState = HAL_DMA_BURST_STATE_READY;
 8006d78:	687b      	ldr	r3, [r7, #4]
 8006d7a:	2201      	movs	r2, #1
 8006d7c:	f883 2046 	strb.w	r2, [r3, #70]	; 0x46

  /* Initialize the TIM channels state */
  TIM_CHANNEL_STATE_SET_ALL(htim, HAL_TIM_CHANNEL_STATE_READY);
 8006d80:	687b      	ldr	r3, [r7, #4]
 8006d82:	2201      	movs	r2, #1
 8006d84:	f883 203e 	strb.w	r2, [r3, #62]	; 0x3e
 8006d88:	687b      	ldr	r3, [r7, #4]
 8006d8a:	2201      	movs	r2, #1
 8006d8c:	f883 203f 	strb.w	r2, [r3, #63]	; 0x3f
 8006d90:	687b      	ldr	r3, [r7, #4]
 8006d92:	2201      	movs	r2, #1
 8006d94:	f883 2040 	strb.w	r2, [r3, #64]	; 0x40
 8006d98:	687b      	ldr	r3, [r7, #4]
 8006d9a:	2201      	movs	r2, #1
 8006d9c:	f883 2041 	strb.w	r2, [r3, #65]	; 0x41
  TIM_CHANNEL_N_STATE_SET_ALL(htim, HAL_TIM_CHANNEL_STATE_READY);
 8006da0:	687b      	ldr	r3, [r7, #4]
 8006da2:	2201      	movs	r2, #1
 8006da4:	f883 2042 	strb.w	r2, [r3, #66]	; 0x42
 8006da8:	687b      	ldr	r3, [r7, #4]
 8006daa:	2201      	movs	r2, #1
 8006dac:	f883 2043 	strb.w	r2, [r3, #67]	; 0x43
 8006db0:	687b      	ldr	r3, [r7, #4]
 8006db2:	2201      	movs	r2, #1
 8006db4:	f883 2044 	strb.w	r2, [r3, #68]	; 0x44
 8006db8:	687b      	ldr	r3, [r7, #4]
 8006dba:	2201      	movs	r2, #1
 8006dbc:	f883 2045 	strb.w	r2, [r3, #69]	; 0x45

  /* Initialize the TIM state*/
  htim->State = HAL_TIM_STATE_READY;
 8006dc0:	687b      	ldr	r3, [r7, #4]
 8006dc2:	2201      	movs	r2, #1
 8006dc4:	f883 203d 	strb.w	r2, [r3, #61]	; 0x3d

  return HAL_OK;
 8006dc8:	2300      	movs	r3, #0
}
 8006dca:	4618      	mov	r0, r3
 8006dcc:	3708      	adds	r7, #8
 8006dce:	46bd      	mov	sp, r7
 8006dd0:	bd80      	pop	{r7, pc}
	...

08006dd4 <HAL_TIM_Base_Start_IT>:
  * @brief  Starts the TIM Base generation in interrupt mode.
  * @param  htim TIM Base handle
  * @retval HAL status
  */
HAL_StatusTypeDef HAL_TIM_Base_Start_IT(TIM_HandleTypeDef *htim)
{
 8006dd4:	b480      	push	{r7}
 8006dd6:	b085      	sub	sp, #20
 8006dd8:	af00      	add	r7, sp, #0
 8006dda:	6078      	str	r0, [r7, #4]

  /* Check the parameters */
  assert_param(IS_TIM_INSTANCE(htim->Instance));

  /* Check the TIM state */
  if (htim->State != HAL_TIM_STATE_READY)
 8006ddc:	687b      	ldr	r3, [r7, #4]
 8006dde:	f893 303d 	ldrb.w	r3, [r3, #61]	; 0x3d
 8006de2:	b2db      	uxtb	r3, r3
 8006de4:	2b01      	cmp	r3, #1
 8006de6:	d001      	beq.n	8006dec <HAL_TIM_Base_Start_IT+0x18>
  {
    return HAL_ERROR;
 8006de8:	2301      	movs	r3, #1
 8006dea:	e03a      	b.n	8006e62 <HAL_TIM_Base_Start_IT+0x8e>
  }

  /* Set the TIM state */
  htim->State = HAL_TIM_STATE_BUSY;
 8006dec:	687b      	ldr	r3, [r7, #4]
 8006dee:	2202      	movs	r2, #2
 8006df0:	f883 203d 	strb.w	r2, [r3, #61]	; 0x3d

  /* Enable the TIM Update interrupt */
  __HAL_TIM_ENABLE_IT(htim, TIM_IT_UPDATE);
 8006df4:	687b      	ldr	r3, [r7, #4]
 8006df6:	681b      	ldr	r3, [r3, #0]
 8006df8:	68da      	ldr	r2, [r3, #12]
 8006dfa:	687b      	ldr	r3, [r7, #4]
 8006dfc:	681b      	ldr	r3, [r3, #0]
 8006dfe:	f042 0201 	orr.w	r2, r2, #1
 8006e02:	60da      	str	r2, [r3, #12]

  /* Enable the Peripheral, except in trigger mode where enable is automatically done with trigger */
  if (IS_TIM_SLAVE_INSTANCE(htim->Instance))
 8006e04:	687b      	ldr	r3, [r7, #4]
 8006e06:	681b      	ldr	r3, [r3, #0]
 8006e08:	4a18      	ldr	r2, [pc, #96]	; (8006e6c <HAL_TIM_Base_Start_IT+0x98>)
 8006e0a:	4293      	cmp	r3, r2
 8006e0c:	d00e      	beq.n	8006e2c <HAL_TIM_Base_Start_IT+0x58>
 8006e0e:	687b      	ldr	r3, [r7, #4]
 8006e10:	681b      	ldr	r3, [r3, #0]
 8006e12:	f1b3 4f80 	cmp.w	r3, #1073741824	; 0x40000000
 8006e16:	d009      	beq.n	8006e2c <HAL_TIM_Base_Start_IT+0x58>
 8006e18:	687b      	ldr	r3, [r7, #4]
 8006e1a:	681b      	ldr	r3, [r3, #0]
 8006e1c:	4a14      	ldr	r2, [pc, #80]	; (8006e70 <HAL_TIM_Base_Start_IT+0x9c>)
 8006e1e:	4293      	cmp	r3, r2
 8006e20:	d004      	beq.n	8006e2c <HAL_TIM_Base_Start_IT+0x58>
 8006e22:	687b      	ldr	r3, [r7, #4]
 8006e24:	681b      	ldr	r3, [r3, #0]
 8006e26:	4a13      	ldr	r2, [pc, #76]	; (8006e74 <HAL_TIM_Base_Start_IT+0xa0>)
 8006e28:	4293      	cmp	r3, r2
 8006e2a:	d111      	bne.n	8006e50 <HAL_TIM_Base_Start_IT+0x7c>
  {
    tmpsmcr = htim->Instance->SMCR & TIM_SMCR_SMS;
 8006e2c:	687b      	ldr	r3, [r7, #4]
 8006e2e:	681b      	ldr	r3, [r3, #0]
 8006e30:	689b      	ldr	r3, [r3, #8]
 8006e32:	f003 0307 	and.w	r3, r3, #7
 8006e36:	60fb      	str	r3, [r7, #12]
    if (!IS_TIM_SLAVEMODE_TRIGGER_ENABLED(tmpsmcr))
 8006e38:	68fb      	ldr	r3, [r7, #12]
 8006e3a:	2b06      	cmp	r3, #6
 8006e3c:	d010      	beq.n	8006e60 <HAL_TIM_Base_Start_IT+0x8c>
    {
      __HAL_TIM_ENABLE(htim);
 8006e3e:	687b      	ldr	r3, [r7, #4]
 8006e40:	681b      	ldr	r3, [r3, #0]
 8006e42:	681a      	ldr	r2, [r3, #0]
 8006e44:	687b      	ldr	r3, [r7, #4]
 8006e46:	681b      	ldr	r3, [r3, #0]
 8006e48:	f042 0201 	orr.w	r2, r2, #1
 8006e4c:	601a      	str	r2, [r3, #0]
    if (!IS_TIM_SLAVEMODE_TRIGGER_ENABLED(tmpsmcr))
 8006e4e:	e007      	b.n	8006e60 <HAL_TIM_Base_Start_IT+0x8c>
    }
  }
  else
  {
    __HAL_TIM_ENABLE(htim);
 8006e50:	687b      	ldr	r3, [r7, #4]
 8006e52:	681b      	ldr	r3, [r3, #0]
 8006e54:	681a      	ldr	r2, [r3, #0]
 8006e56:	687b      	ldr	r3, [r7, #4]
 8006e58:	681b      	ldr	r3, [r3, #0]
 8006e5a:	f042 0201 	orr.w	r2, r2, #1
 8006e5e:	601a      	str	r2, [r3, #0]
  }

  /* Return function status */
  return HAL_OK;
 8006e60:	2300      	movs	r3, #0
}
 8006e62:	4618      	mov	r0, r3
 8006e64:	3714      	adds	r7, #20
 8006e66:	46bd      	mov	sp, r7
 8006e68:	bc80      	pop	{r7}
 8006e6a:	4770      	bx	lr
 8006e6c:	40012c00 	.word	0x40012c00
 8006e70:	40000400 	.word	0x40000400
 8006e74:	40000800 	.word	0x40000800

08006e78 <HAL_TIM_PWM_Init>:
  *         Ex: call @ref HAL_TIM_PWM_DeInit() before HAL_TIM_PWM_Init()
  * @param  htim TIM PWM handle
  * @retval HAL status
  */
HAL_StatusTypeDef HAL_TIM_PWM_Init(TIM_HandleTypeDef *htim)
{
 8006e78:	b580      	push	{r7, lr}
 8006e7a:	b082      	sub	sp, #8
 8006e7c:	af00      	add	r7, sp, #0
 8006e7e:	6078      	str	r0, [r7, #4]
  /* Check the TIM handle allocation */
  if (htim == NULL)
 8006e80:	687b      	ldr	r3, [r7, #4]
 8006e82:	2b00      	cmp	r3, #0
 8006e84:	d101      	bne.n	8006e8a <HAL_TIM_PWM_Init+0x12>
  {
    return HAL_ERROR;
 8006e86:	2301      	movs	r3, #1
 8006e88:	e041      	b.n	8006f0e <HAL_TIM_PWM_Init+0x96>
  assert_param(IS_TIM_COUNTER_MODE(htim->Init.CounterMode));
  assert_param(IS_TIM_CLOCKDIVISION_DIV(htim->Init.ClockDivision));
  assert_param(IS_TIM_PERIOD(htim->Init.Period));
  assert_param(IS_TIM_AUTORELOAD_PRELOAD(htim->Init.AutoReloadPreload));

  if (htim->State == HAL_TIM_STATE_RESET)
 8006e8a:	687b      	ldr	r3, [r7, #4]
 8006e8c:	f893 303d 	ldrb.w	r3, [r3, #61]	; 0x3d
 8006e90:	b2db      	uxtb	r3, r3
 8006e92:	2b00      	cmp	r3, #0
 8006e94:	d106      	bne.n	8006ea4 <HAL_TIM_PWM_Init+0x2c>
  {
    /* Allocate lock resource and initialize it */
    htim->Lock = HAL_UNLOCKED;
 8006e96:	687b      	ldr	r3, [r7, #4]
 8006e98:	2200      	movs	r2, #0
 8006e9a:	f883 203c 	strb.w	r2, [r3, #60]	; 0x3c
    }
    /* Init the low level hardware : GPIO, CLOCK, NVIC */
    htim->PWM_MspInitCallback(htim);
#else
    /* Init the low level hardware : GPIO, CLOCK, NVIC and DMA */
    HAL_TIM_PWM_MspInit(htim);
 8006e9e:	6878      	ldr	r0, [r7, #4]
 8006ea0:	f7fd fd96 	bl	80049d0 <HAL_TIM_PWM_MspInit>
#endif /* USE_HAL_TIM_REGISTER_CALLBACKS */
  }

  /* Set the TIM state */
  htim->State = HAL_TIM_STATE_BUSY;
 8006ea4:	687b      	ldr	r3, [r7, #4]
 8006ea6:	2202      	movs	r2, #2
 8006ea8:	f883 203d 	strb.w	r2, [r3, #61]	; 0x3d

  /* Init the base time for the PWM */
  TIM_Base_SetConfig(htim->Instance, &htim->Init);
 8006eac:	687b      	ldr	r3, [r7, #4]
 8006eae:	681a      	ldr	r2, [r3, #0]
 8006eb0:	687b      	ldr	r3, [r7, #4]
 8006eb2:	3304      	adds	r3, #4
 8006eb4:	4619      	mov	r1, r3
 8006eb6:	4610      	mov	r0, r2
 8006eb8:	f000 fb86 	bl	80075c8 <TIM_Base_SetConfig>

  /* Initialize the DMA burst operation state */
  htim->DMABurstState = HAL_DMA_BURST_STATE_READY;
 8006ebc:	687b      	ldr	r3, [r7, #4]
 8006ebe:	2201      	movs	r2, #1
 8006ec0:	f883 2046 	strb.w	r2, [r3, #70]	; 0x46

  /* Initialize the TIM channels state */
  TIM_CHANNEL_STATE_SET_ALL(htim, HAL_TIM_CHANNEL_STATE_READY);
 8006ec4:	687b      	ldr	r3, [r7, #4]
 8006ec6:	2201      	movs	r2, #1
 8006ec8:	f883 203e 	strb.w	r2, [r3, #62]	; 0x3e
 8006ecc:	687b      	ldr	r3, [r7, #4]
 8006ece:	2201      	movs	r2, #1
 8006ed0:	f883 203f 	strb.w	r2, [r3, #63]	; 0x3f
 8006ed4:	687b      	ldr	r3, [r7, #4]
 8006ed6:	2201      	movs	r2, #1
 8006ed8:	f883 2040 	strb.w	r2, [r3, #64]	; 0x40
 8006edc:	687b      	ldr	r3, [r7, #4]
 8006ede:	2201      	movs	r2, #1
 8006ee0:	f883 2041 	strb.w	r2, [r3, #65]	; 0x41
  TIM_CHANNEL_N_STATE_SET_ALL(htim, HAL_TIM_CHANNEL_STATE_READY);
 8006ee4:	687b      	ldr	r3, [r7, #4]
 8006ee6:	2201      	movs	r2, #1
 8006ee8:	f883 2042 	strb.w	r2, [r3, #66]	; 0x42
 8006eec:	687b      	ldr	r3, [r7, #4]
 8006eee:	2201      	movs	r2, #1
 8006ef0:	f883 2043 	strb.w	r2, [r3, #67]	; 0x43
 8006ef4:	687b      	ldr	r3, [r7, #4]
 8006ef6:	2201      	movs	r2, #1
 8006ef8:	f883 2044 	strb.w	r2, [r3, #68]	; 0x44
 8006efc:	687b      	ldr	r3, [r7, #4]
 8006efe:	2201      	movs	r2, #1
 8006f00:	f883 2045 	strb.w	r2, [r3, #69]	; 0x45

  /* Initialize the TIM state*/
  htim->State = HAL_TIM_STATE_READY;
 8006f04:	687b      	ldr	r3, [r7, #4]
 8006f06:	2201      	movs	r2, #1
 8006f08:	f883 203d 	strb.w	r2, [r3, #61]	; 0x3d

  return HAL_OK;
 8006f0c:	2300      	movs	r3, #0
}
 8006f0e:	4618      	mov	r0, r3
 8006f10:	3708      	adds	r7, #8
 8006f12:	46bd      	mov	sp, r7
 8006f14:	bd80      	pop	{r7, pc}
	...

08006f18 <HAL_TIM_PWM_Start>:
  *            @arg TIM_CHANNEL_3: TIM Channel 3 selected
  *            @arg TIM_CHANNEL_4: TIM Channel 4 selected
  * @retval HAL status
  */
HAL_StatusTypeDef HAL_TIM_PWM_Start(TIM_HandleTypeDef *htim, uint32_t Channel)
{
 8006f18:	b580      	push	{r7, lr}
 8006f1a:	b084      	sub	sp, #16
 8006f1c:	af00      	add	r7, sp, #0
 8006f1e:	6078      	str	r0, [r7, #4]
 8006f20:	6039      	str	r1, [r7, #0]

  /* Check the parameters */
  assert_param(IS_TIM_CCX_INSTANCE(htim->Instance, Channel));

  /* Check the TIM channel state */
  if (TIM_CHANNEL_STATE_GET(htim, Channel) != HAL_TIM_CHANNEL_STATE_READY)
 8006f22:	683b      	ldr	r3, [r7, #0]
 8006f24:	2b00      	cmp	r3, #0
 8006f26:	d109      	bne.n	8006f3c <HAL_TIM_PWM_Start+0x24>
 8006f28:	687b      	ldr	r3, [r7, #4]
 8006f2a:	f893 303e 	ldrb.w	r3, [r3, #62]	; 0x3e
 8006f2e:	b2db      	uxtb	r3, r3
 8006f30:	2b01      	cmp	r3, #1
 8006f32:	bf14      	ite	ne
 8006f34:	2301      	movne	r3, #1
 8006f36:	2300      	moveq	r3, #0
 8006f38:	b2db      	uxtb	r3, r3
 8006f3a:	e022      	b.n	8006f82 <HAL_TIM_PWM_Start+0x6a>
 8006f3c:	683b      	ldr	r3, [r7, #0]
 8006f3e:	2b04      	cmp	r3, #4
 8006f40:	d109      	bne.n	8006f56 <HAL_TIM_PWM_Start+0x3e>
 8006f42:	687b      	ldr	r3, [r7, #4]
 8006f44:	f893 303f 	ldrb.w	r3, [r3, #63]	; 0x3f
 8006f48:	b2db      	uxtb	r3, r3
 8006f4a:	2b01      	cmp	r3, #1
 8006f4c:	bf14      	ite	ne
 8006f4e:	2301      	movne	r3, #1
 8006f50:	2300      	moveq	r3, #0
 8006f52:	b2db      	uxtb	r3, r3
 8006f54:	e015      	b.n	8006f82 <HAL_TIM_PWM_Start+0x6a>
 8006f56:	683b      	ldr	r3, [r7, #0]
 8006f58:	2b08      	cmp	r3, #8
 8006f5a:	d109      	bne.n	8006f70 <HAL_TIM_PWM_Start+0x58>
 8006f5c:	687b      	ldr	r3, [r7, #4]
 8006f5e:	f893 3040 	ldrb.w	r3, [r3, #64]	; 0x40
 8006f62:	b2db      	uxtb	r3, r3
 8006f64:	2b01      	cmp	r3, #1
 8006f66:	bf14      	ite	ne
 8006f68:	2301      	movne	r3, #1
 8006f6a:	2300      	moveq	r3, #0
 8006f6c:	b2db      	uxtb	r3, r3
 8006f6e:	e008      	b.n	8006f82 <HAL_TIM_PWM_Start+0x6a>
 8006f70:	687b      	ldr	r3, [r7, #4]
 8006f72:	f893 3041 	ldrb.w	r3, [r3, #65]	; 0x41
 8006f76:	b2db      	uxtb	r3, r3
 8006f78:	2b01      	cmp	r3, #1
 8006f7a:	bf14      	ite	ne
 8006f7c:	2301      	movne	r3, #1
 8006f7e:	2300      	moveq	r3, #0
 8006f80:	b2db      	uxtb	r3, r3
 8006f82:	2b00      	cmp	r3, #0
 8006f84:	d001      	beq.n	8006f8a <HAL_TIM_PWM_Start+0x72>
  {
    return HAL_ERROR;
 8006f86:	2301      	movs	r3, #1
 8006f88:	e05e      	b.n	8007048 <HAL_TIM_PWM_Start+0x130>
  }

  /* Set the TIM channel state */
  TIM_CHANNEL_STATE_SET(htim, Channel, HAL_TIM_CHANNEL_STATE_BUSY);
 8006f8a:	683b      	ldr	r3, [r7, #0]
 8006f8c:	2b00      	cmp	r3, #0
 8006f8e:	d104      	bne.n	8006f9a <HAL_TIM_PWM_Start+0x82>
 8006f90:	687b      	ldr	r3, [r7, #4]
 8006f92:	2202      	movs	r2, #2
 8006f94:	f883 203e 	strb.w	r2, [r3, #62]	; 0x3e
 8006f98:	e013      	b.n	8006fc2 <HAL_TIM_PWM_Start+0xaa>
 8006f9a:	683b      	ldr	r3, [r7, #0]
 8006f9c:	2b04      	cmp	r3, #4
 8006f9e:	d104      	bne.n	8006faa <HAL_TIM_PWM_Start+0x92>
 8006fa0:	687b      	ldr	r3, [r7, #4]
 8006fa2:	2202      	movs	r2, #2
 8006fa4:	f883 203f 	strb.w	r2, [r3, #63]	; 0x3f
 8006fa8:	e00b      	b.n	8006fc2 <HAL_TIM_PWM_Start+0xaa>
 8006faa:	683b      	ldr	r3, [r7, #0]
 8006fac:	2b08      	cmp	r3, #8
 8006fae:	d104      	bne.n	8006fba <HAL_TIM_PWM_Start+0xa2>
 8006fb0:	687b      	ldr	r3, [r7, #4]
 8006fb2:	2202      	movs	r2, #2
 8006fb4:	f883 2040 	strb.w	r2, [r3, #64]	; 0x40
 8006fb8:	e003      	b.n	8006fc2 <HAL_TIM_PWM_Start+0xaa>
 8006fba:	687b      	ldr	r3, [r7, #4]
 8006fbc:	2202      	movs	r2, #2
 8006fbe:	f883 2041 	strb.w	r2, [r3, #65]	; 0x41

  /* Enable the Capture compare channel */
  TIM_CCxChannelCmd(htim->Instance, Channel, TIM_CCx_ENABLE);
 8006fc2:	687b      	ldr	r3, [r7, #4]
 8006fc4:	681b      	ldr	r3, [r3, #0]
 8006fc6:	2201      	movs	r2, #1
 8006fc8:	6839      	ldr	r1, [r7, #0]
 8006fca:	4618      	mov	r0, r3
 8006fcc:	f000 fd7c 	bl	8007ac8 <TIM_CCxChannelCmd>

  if (IS_TIM_BREAK_INSTANCE(htim->Instance) != RESET)
 8006fd0:	687b      	ldr	r3, [r7, #4]
 8006fd2:	681b      	ldr	r3, [r3, #0]
 8006fd4:	4a1e      	ldr	r2, [pc, #120]	; (8007050 <HAL_TIM_PWM_Start+0x138>)
 8006fd6:	4293      	cmp	r3, r2
 8006fd8:	d107      	bne.n	8006fea <HAL_TIM_PWM_Start+0xd2>
  {
    /* Enable the main output */
    __HAL_TIM_MOE_ENABLE(htim);
 8006fda:	687b      	ldr	r3, [r7, #4]
 8006fdc:	681b      	ldr	r3, [r3, #0]
 8006fde:	6c5a      	ldr	r2, [r3, #68]	; 0x44
 8006fe0:	687b      	ldr	r3, [r7, #4]
 8006fe2:	681b      	ldr	r3, [r3, #0]
 8006fe4:	f442 4200 	orr.w	r2, r2, #32768	; 0x8000
 8006fe8:	645a      	str	r2, [r3, #68]	; 0x44
  }

  /* Enable the Peripheral, except in trigger mode where enable is automatically done with trigger */
  if (IS_TIM_SLAVE_INSTANCE(htim->Instance))
 8006fea:	687b      	ldr	r3, [r7, #4]
 8006fec:	681b      	ldr	r3, [r3, #0]
 8006fee:	4a18      	ldr	r2, [pc, #96]	; (8007050 <HAL_TIM_PWM_Start+0x138>)
 8006ff0:	4293      	cmp	r3, r2
 8006ff2:	d00e      	beq.n	8007012 <HAL_TIM_PWM_Start+0xfa>
 8006ff4:	687b      	ldr	r3, [r7, #4]
 8006ff6:	681b      	ldr	r3, [r3, #0]
 8006ff8:	f1b3 4f80 	cmp.w	r3, #1073741824	; 0x40000000
 8006ffc:	d009      	beq.n	8007012 <HAL_TIM_PWM_Start+0xfa>
 8006ffe:	687b      	ldr	r3, [r7, #4]
 8007000:	681b      	ldr	r3, [r3, #0]
 8007002:	4a14      	ldr	r2, [pc, #80]	; (8007054 <HAL_TIM_PWM_Start+0x13c>)
 8007004:	4293      	cmp	r3, r2
 8007006:	d004      	beq.n	8007012 <HAL_TIM_PWM_Start+0xfa>
 8007008:	687b      	ldr	r3, [r7, #4]
 800700a:	681b      	ldr	r3, [r3, #0]
 800700c:	4a12      	ldr	r2, [pc, #72]	; (8007058 <HAL_TIM_PWM_Start+0x140>)
 800700e:	4293      	cmp	r3, r2
 8007010:	d111      	bne.n	8007036 <HAL_TIM_PWM_Start+0x11e>
  {
    tmpsmcr = htim->Instance->SMCR & TIM_SMCR_SMS;
 8007012:	687b      	ldr	r3, [r7, #4]
 8007014:	681b      	ldr	r3, [r3, #0]
 8007016:	689b      	ldr	r3, [r3, #8]
 8007018:	f003 0307 	and.w	r3, r3, #7
 800701c:	60fb      	str	r3, [r7, #12]
    if (!IS_TIM_SLAVEMODE_TRIGGER_ENABLED(tmpsmcr))
 800701e:	68fb      	ldr	r3, [r7, #12]
 8007020:	2b06      	cmp	r3, #6
 8007022:	d010      	beq.n	8007046 <HAL_TIM_PWM_Start+0x12e>
    {
      __HAL_TIM_ENABLE(htim);
 8007024:	687b      	ldr	r3, [r7, #4]
 8007026:	681b      	ldr	r3, [r3, #0]
 8007028:	681a      	ldr	r2, [r3, #0]
 800702a:	687b      	ldr	r3, [r7, #4]
 800702c:	681b      	ldr	r3, [r3, #0]
 800702e:	f042 0201 	orr.w	r2, r2, #1
 8007032:	601a      	str	r2, [r3, #0]
    if (!IS_TIM_SLAVEMODE_TRIGGER_ENABLED(tmpsmcr))
 8007034:	e007      	b.n	8007046 <HAL_TIM_PWM_Start+0x12e>
    }
  }
  else
  {
    __HAL_TIM_ENABLE(htim);
 8007036:	687b      	ldr	r3, [r7, #4]
 8007038:	681b      	ldr	r3, [r3, #0]
 800703a:	681a      	ldr	r2, [r3, #0]
 800703c:	687b      	ldr	r3, [r7, #4]
 800703e:	681b      	ldr	r3, [r3, #0]
 8007040:	f042 0201 	orr.w	r2, r2, #1
 8007044:	601a      	str	r2, [r3, #0]
  }

  /* Return function status */
  return HAL_OK;
 8007046:	2300      	movs	r3, #0
}
 8007048:	4618      	mov	r0, r3
 800704a:	3710      	adds	r7, #16
 800704c:	46bd      	mov	sp, r7
 800704e:	bd80      	pop	{r7, pc}
 8007050:	40012c00 	.word	0x40012c00
 8007054:	40000400 	.word	0x40000400
 8007058:	40000800 	.word	0x40000800

0800705c <HAL_TIM_IRQHandler>:
  * @brief  This function handles TIM interrupts requests.
  * @param  htim TIM  handle
  * @retval None
  */
void HAL_TIM_IRQHandler(TIM_HandleTypeDef *htim)
{
 800705c:	b580      	push	{r7, lr}
 800705e:	b082      	sub	sp, #8
 8007060:	af00      	add	r7, sp, #0
 8007062:	6078      	str	r0, [r7, #4]
  /* Capture compare 1 event */
  if (__HAL_TIM_GET_FLAG(htim, TIM_FLAG_CC1) != RESET)
 8007064:	687b      	ldr	r3, [r7, #4]
 8007066:	681b      	ldr	r3, [r3, #0]
 8007068:	691b      	ldr	r3, [r3, #16]
 800706a:	f003 0302 	and.w	r3, r3, #2
 800706e:	2b02      	cmp	r3, #2
 8007070:	d122      	bne.n	80070b8 <HAL_TIM_IRQHandler+0x5c>
  {
    if (__HAL_TIM_GET_IT_SOURCE(htim, TIM_IT_CC1) != RESET)
 8007072:	687b      	ldr	r3, [r7, #4]
 8007074:	681b      	ldr	r3, [r3, #0]
 8007076:	68db      	ldr	r3, [r3, #12]
 8007078:	f003 0302 	and.w	r3, r3, #2
 800707c:	2b02      	cmp	r3, #2
 800707e:	d11b      	bne.n	80070b8 <HAL_TIM_IRQHandler+0x5c>
    {
      {
        __HAL_TIM_CLEAR_IT(htim, TIM_IT_CC1);
 8007080:	687b      	ldr	r3, [r7, #4]
 8007082:	681b      	ldr	r3, [r3, #0]
 8007084:	f06f 0202 	mvn.w	r2, #2
 8007088:	611a      	str	r2, [r3, #16]
        htim->Channel = HAL_TIM_ACTIVE_CHANNEL_1;
 800708a:	687b      	ldr	r3, [r7, #4]
 800708c:	2201      	movs	r2, #1
 800708e:	771a      	strb	r2, [r3, #28]

        /* Input capture event */
        if ((htim->Instance->CCMR1 & TIM_CCMR1_CC1S) != 0x00U)
 8007090:	687b      	ldr	r3, [r7, #4]
 8007092:	681b      	ldr	r3, [r3, #0]
 8007094:	699b      	ldr	r3, [r3, #24]
 8007096:	f003 0303 	and.w	r3, r3, #3
 800709a:	2b00      	cmp	r3, #0
 800709c:	d003      	beq.n	80070a6 <HAL_TIM_IRQHandler+0x4a>
        {
#if (USE_HAL_TIM_REGISTER_CALLBACKS == 1)
          htim->IC_CaptureCallback(htim);
#else
          HAL_TIM_IC_CaptureCallback(htim);
 800709e:	6878      	ldr	r0, [r7, #4]
 80070a0:	f000 fa76 	bl	8007590 <HAL_TIM_IC_CaptureCallback>
 80070a4:	e005      	b.n	80070b2 <HAL_TIM_IRQHandler+0x56>
        {
#if (USE_HAL_TIM_REGISTER_CALLBACKS == 1)
          htim->OC_DelayElapsedCallback(htim);
          htim->PWM_PulseFinishedCallback(htim);
#else
          HAL_TIM_OC_DelayElapsedCallback(htim);
 80070a6:	6878      	ldr	r0, [r7, #4]
 80070a8:	f000 fa69 	bl	800757e <HAL_TIM_OC_DelayElapsedCallback>
          HAL_TIM_PWM_PulseFinishedCallback(htim);
 80070ac:	6878      	ldr	r0, [r7, #4]
 80070ae:	f000 fa78 	bl	80075a2 <HAL_TIM_PWM_PulseFinishedCallback>
#endif /* USE_HAL_TIM_REGISTER_CALLBACKS */
        }
        htim->Channel = HAL_TIM_ACTIVE_CHANNEL_CLEARED;
 80070b2:	687b      	ldr	r3, [r7, #4]
 80070b4:	2200      	movs	r2, #0
 80070b6:	771a      	strb	r2, [r3, #28]
      }
    }
  }
  /* Capture compare 2 event */
  if (__HAL_TIM_GET_FLAG(htim, TIM_FLAG_CC2) != RESET)
 80070b8:	687b      	ldr	r3, [r7, #4]
 80070ba:	681b      	ldr	r3, [r3, #0]
 80070bc:	691b      	ldr	r3, [r3, #16]
 80070be:	f003 0304 	and.w	r3, r3, #4
 80070c2:	2b04      	cmp	r3, #4
 80070c4:	d122      	bne.n	800710c <HAL_TIM_IRQHandler+0xb0>
  {
    if (__HAL_TIM_GET_IT_SOURCE(htim, TIM_IT_CC2) != RESET)
 80070c6:	687b      	ldr	r3, [r7, #4]
 80070c8:	681b      	ldr	r3, [r3, #0]
 80070ca:	68db      	ldr	r3, [r3, #12]
 80070cc:	f003 0304 	and.w	r3, r3, #4
 80070d0:	2b04      	cmp	r3, #4
 80070d2:	d11b      	bne.n	800710c <HAL_TIM_IRQHandler+0xb0>
    {
      __HAL_TIM_CLEAR_IT(htim, TIM_IT_CC2);
 80070d4:	687b      	ldr	r3, [r7, #4]
 80070d6:	681b      	ldr	r3, [r3, #0]
 80070d8:	f06f 0204 	mvn.w	r2, #4
 80070dc:	611a      	str	r2, [r3, #16]
      htim->Channel = HAL_TIM_ACTIVE_CHANNEL_2;
 80070de:	687b      	ldr	r3, [r7, #4]
 80070e0:	2202      	movs	r2, #2
 80070e2:	771a      	strb	r2, [r3, #28]
      /* Input capture event */
      if ((htim->Instance->CCMR1 & TIM_CCMR1_CC2S) != 0x00U)
 80070e4:	687b      	ldr	r3, [r7, #4]
 80070e6:	681b      	ldr	r3, [r3, #0]
 80070e8:	699b      	ldr	r3, [r3, #24]
 80070ea:	f403 7340 	and.w	r3, r3, #768	; 0x300
 80070ee:	2b00      	cmp	r3, #0
 80070f0:	d003      	beq.n	80070fa <HAL_TIM_IRQHandler+0x9e>
      {
#if (USE_HAL_TIM_REGISTER_CALLBACKS == 1)
        htim->IC_CaptureCallback(htim);
#else
        HAL_TIM_IC_CaptureCallback(htim);
 80070f2:	6878      	ldr	r0, [r7, #4]
 80070f4:	f000 fa4c 	bl	8007590 <HAL_TIM_IC_CaptureCallback>
 80070f8:	e005      	b.n	8007106 <HAL_TIM_IRQHandler+0xaa>
      {
#if (USE_HAL_TIM_REGISTER_CALLBACKS == 1)
        htim->OC_DelayElapsedCallback(htim);
        htim->PWM_PulseFinishedCallback(htim);
#else
        HAL_TIM_OC_DelayElapsedCallback(htim);
 80070fa:	6878      	ldr	r0, [r7, #4]
 80070fc:	f000 fa3f 	bl	800757e <HAL_TIM_OC_DelayElapsedCallback>
        HAL_TIM_PWM_PulseFinishedCallback(htim);
 8007100:	6878      	ldr	r0, [r7, #4]
 8007102:	f000 fa4e 	bl	80075a2 <HAL_TIM_PWM_PulseFinishedCallback>
#endif /* USE_HAL_TIM_REGISTER_CALLBACKS */
      }
      htim->Channel = HAL_TIM_ACTIVE_CHANNEL_CLEARED;
 8007106:	687b      	ldr	r3, [r7, #4]
 8007108:	2200      	movs	r2, #0
 800710a:	771a      	strb	r2, [r3, #28]
    }
  }
  /* Capture compare 3 event */
  if (__HAL_TIM_GET_FLAG(htim, TIM_FLAG_CC3) != RESET)
 800710c:	687b      	ldr	r3, [r7, #4]
 800710e:	681b      	ldr	r3, [r3, #0]
 8007110:	691b      	ldr	r3, [r3, #16]
 8007112:	f003 0308 	and.w	r3, r3, #8
 8007116:	2b08      	cmp	r3, #8
 8007118:	d122      	bne.n	8007160 <HAL_TIM_IRQHandler+0x104>
  {
    if (__HAL_TIM_GET_IT_SOURCE(htim, TIM_IT_CC3) != RESET)
 800711a:	687b      	ldr	r3, [r7, #4]
 800711c:	681b      	ldr	r3, [r3, #0]
 800711e:	68db      	ldr	r3, [r3, #12]
 8007120:	f003 0308 	and.w	r3, r3, #8
 8007124:	2b08      	cmp	r3, #8
 8007126:	d11b      	bne.n	8007160 <HAL_TIM_IRQHandler+0x104>
    {
      __HAL_TIM_CLEAR_IT(htim, TIM_IT_CC3);
 8007128:	687b      	ldr	r3, [r7, #4]
 800712a:	681b      	ldr	r3, [r3, #0]
 800712c:	f06f 0208 	mvn.w	r2, #8
 8007130:	611a      	str	r2, [r3, #16]
      htim->Channel = HAL_TIM_ACTIVE_CHANNEL_3;
 8007132:	687b      	ldr	r3, [r7, #4]
 8007134:	2204      	movs	r2, #4
 8007136:	771a      	strb	r2, [r3, #28]
      /* Input capture event */
      if ((htim->Instance->CCMR2 & TIM_CCMR2_CC3S) != 0x00U)
 8007138:	687b      	ldr	r3, [r7, #4]
 800713a:	681b      	ldr	r3, [r3, #0]
 800713c:	69db      	ldr	r3, [r3, #28]
 800713e:	f003 0303 	and.w	r3, r3, #3
 8007142:	2b00      	cmp	r3, #0
 8007144:	d003      	beq.n	800714e <HAL_TIM_IRQHandler+0xf2>
      {
#if (USE_HAL_TIM_REGISTER_CALLBACKS == 1)
        htim->IC_CaptureCallback(htim);
#else
        HAL_TIM_IC_CaptureCallback(htim);
 8007146:	6878      	ldr	r0, [r7, #4]
 8007148:	f000 fa22 	bl	8007590 <HAL_TIM_IC_CaptureCallback>
 800714c:	e005      	b.n	800715a <HAL_TIM_IRQHandler+0xfe>
      {
#if (USE_HAL_TIM_REGISTER_CALLBACKS == 1)
        htim->OC_DelayElapsedCallback(htim);
        htim->PWM_PulseFinishedCallback(htim);
#else
        HAL_TIM_OC_DelayElapsedCallback(htim);
 800714e:	6878      	ldr	r0, [r7, #4]
 8007150:	f000 fa15 	bl	800757e <HAL_TIM_OC_DelayElapsedCallback>
        HAL_TIM_PWM_PulseFinishedCallback(htim);
 8007154:	6878      	ldr	r0, [r7, #4]
 8007156:	f000 fa24 	bl	80075a2 <HAL_TIM_PWM_PulseFinishedCallback>
#endif /* USE_HAL_TIM_REGISTER_CALLBACKS */
      }
      htim->Channel = HAL_TIM_ACTIVE_CHANNEL_CLEARED;
 800715a:	687b      	ldr	r3, [r7, #4]
 800715c:	2200      	movs	r2, #0
 800715e:	771a      	strb	r2, [r3, #28]
    }
  }
  /* Capture compare 4 event */
  if (__HAL_TIM_GET_FLAG(htim, TIM_FLAG_CC4) != RESET)
 8007160:	687b      	ldr	r3, [r7, #4]
 8007162:	681b      	ldr	r3, [r3, #0]
 8007164:	691b      	ldr	r3, [r3, #16]
 8007166:	f003 0310 	and.w	r3, r3, #16
 800716a:	2b10      	cmp	r3, #16
 800716c:	d122      	bne.n	80071b4 <HAL_TIM_IRQHandler+0x158>
  {
    if (__HAL_TIM_GET_IT_SOURCE(htim, TIM_IT_CC4) != RESET)
 800716e:	687b      	ldr	r3, [r7, #4]
 8007170:	681b      	ldr	r3, [r3, #0]
 8007172:	68db      	ldr	r3, [r3, #12]
 8007174:	f003 0310 	and.w	r3, r3, #16
 8007178:	2b10      	cmp	r3, #16
 800717a:	d11b      	bne.n	80071b4 <HAL_TIM_IRQHandler+0x158>
    {
      __HAL_TIM_CLEAR_IT(htim, TIM_IT_CC4);
 800717c:	687b      	ldr	r3, [r7, #4]
 800717e:	681b      	ldr	r3, [r3, #0]
 8007180:	f06f 0210 	mvn.w	r2, #16
 8007184:	611a      	str	r2, [r3, #16]
      htim->Channel = HAL_TIM_ACTIVE_CHANNEL_4;
 8007186:	687b      	ldr	r3, [r7, #4]
 8007188:	2208      	movs	r2, #8
 800718a:	771a      	strb	r2, [r3, #28]
      /* Input capture event */
      if ((htim->Instance->CCMR2 & TIM_CCMR2_CC4S) != 0x00U)
 800718c:	687b      	ldr	r3, [r7, #4]
 800718e:	681b      	ldr	r3, [r3, #0]
 8007190:	69db      	ldr	r3, [r3, #28]
 8007192:	f403 7340 	and.w	r3, r3, #768	; 0x300
 8007196:	2b00      	cmp	r3, #0
 8007198:	d003      	beq.n	80071a2 <HAL_TIM_IRQHandler+0x146>
      {
#if (USE_HAL_TIM_REGISTER_CALLBACKS == 1)
        htim->IC_CaptureCallback(htim);
#else
        HAL_TIM_IC_CaptureCallback(htim);
 800719a:	6878      	ldr	r0, [r7, #4]
 800719c:	f000 f9f8 	bl	8007590 <HAL_TIM_IC_CaptureCallback>
 80071a0:	e005      	b.n	80071ae <HAL_TIM_IRQHandler+0x152>
      {
#if (USE_HAL_TIM_REGISTER_CALLBACKS == 1)
        htim->OC_DelayElapsedCallback(htim);
        htim->PWM_PulseFinishedCallback(htim);
#else
        HAL_TIM_OC_DelayElapsedCallback(htim);
 80071a2:	6878      	ldr	r0, [r7, #4]
 80071a4:	f000 f9eb 	bl	800757e <HAL_TIM_OC_DelayElapsedCallback>
        HAL_TIM_PWM_PulseFinishedCallback(htim);
 80071a8:	6878      	ldr	r0, [r7, #4]
 80071aa:	f000 f9fa 	bl	80075a2 <HAL_TIM_PWM_PulseFinishedCallback>
#endif /* USE_HAL_TIM_REGISTER_CALLBACKS */
      }
      htim->Channel = HAL_TIM_ACTIVE_CHANNEL_CLEARED;
 80071ae:	687b      	ldr	r3, [r7, #4]
 80071b0:	2200      	movs	r2, #0
 80071b2:	771a      	strb	r2, [r3, #28]
    }
  }
  /* TIM Update event */
  if (__HAL_TIM_GET_FLAG(htim, TIM_FLAG_UPDATE) != RESET)
 80071b4:	687b      	ldr	r3, [r7, #4]
 80071b6:	681b      	ldr	r3, [r3, #0]
 80071b8:	691b      	ldr	r3, [r3, #16]
 80071ba:	f003 0301 	and.w	r3, r3, #1
 80071be:	2b01      	cmp	r3, #1
 80071c0:	d10e      	bne.n	80071e0 <HAL_TIM_IRQHandler+0x184>
  {
    if (__HAL_TIM_GET_IT_SOURCE(htim, TIM_IT_UPDATE) != RESET)
 80071c2:	687b      	ldr	r3, [r7, #4]
 80071c4:	681b      	ldr	r3, [r3, #0]
 80071c6:	68db      	ldr	r3, [r3, #12]
 80071c8:	f003 0301 	and.w	r3, r3, #1
 80071cc:	2b01      	cmp	r3, #1
 80071ce:	d107      	bne.n	80071e0 <HAL_TIM_IRQHandler+0x184>
    {
      __HAL_TIM_CLEAR_IT(htim, TIM_IT_UPDATE);
 80071d0:	687b      	ldr	r3, [r7, #4]
 80071d2:	681b      	ldr	r3, [r3, #0]
 80071d4:	f06f 0201 	mvn.w	r2, #1
 80071d8:	611a      	str	r2, [r3, #16]
#if (USE_HAL_TIM_REGISTER_CALLBACKS == 1)
      htim->PeriodElapsedCallback(htim);
#else
      HAL_TIM_PeriodElapsedCallback(htim);
 80071da:	6878      	ldr	r0, [r7, #4]
 80071dc:	f7fa f942 	bl	8001464 <HAL_TIM_PeriodElapsedCallback>
#endif /* USE_HAL_TIM_REGISTER_CALLBACKS */
    }
  }
  /* TIM Break input event */
  if (__HAL_TIM_GET_FLAG(htim, TIM_FLAG_BREAK) != RESET)
 80071e0:	687b      	ldr	r3, [r7, #4]
 80071e2:	681b      	ldr	r3, [r3, #0]
 80071e4:	691b      	ldr	r3, [r3, #16]
 80071e6:	f003 0380 	and.w	r3, r3, #128	; 0x80
 80071ea:	2b80      	cmp	r3, #128	; 0x80
 80071ec:	d10e      	bne.n	800720c <HAL_TIM_IRQHandler+0x1b0>
  {
    if (__HAL_TIM_GET_IT_SOURCE(htim, TIM_IT_BREAK) != RESET)
 80071ee:	687b      	ldr	r3, [r7, #4]
 80071f0:	681b      	ldr	r3, [r3, #0]
 80071f2:	68db      	ldr	r3, [r3, #12]
 80071f4:	f003 0380 	and.w	r3, r3, #128	; 0x80
 80071f8:	2b80      	cmp	r3, #128	; 0x80
 80071fa:	d107      	bne.n	800720c <HAL_TIM_IRQHandler+0x1b0>
    {
      __HAL_TIM_CLEAR_IT(htim, TIM_IT_BREAK);
 80071fc:	687b      	ldr	r3, [r7, #4]
 80071fe:	681b      	ldr	r3, [r3, #0]
 8007200:	f06f 0280 	mvn.w	r2, #128	; 0x80
 8007204:	611a      	str	r2, [r3, #16]
#if (USE_HAL_TIM_REGISTER_CALLBACKS == 1)
      htim->BreakCallback(htim);
#else
      HAL_TIMEx_BreakCallback(htim);
 8007206:	6878      	ldr	r0, [r7, #4]
 8007208:	f000 fce9 	bl	8007bde <HAL_TIMEx_BreakCallback>
#endif /* USE_HAL_TIM_REGISTER_CALLBACKS */
    }
  }
  /* TIM Trigger detection event */
  if (__HAL_TIM_GET_FLAG(htim, TIM_FLAG_TRIGGER) != RESET)
 800720c:	687b      	ldr	r3, [r7, #4]
 800720e:	681b      	ldr	r3, [r3, #0]
 8007210:	691b      	ldr	r3, [r3, #16]
 8007212:	f003 0340 	and.w	r3, r3, #64	; 0x40
 8007216:	2b40      	cmp	r3, #64	; 0x40
 8007218:	d10e      	bne.n	8007238 <HAL_TIM_IRQHandler+0x1dc>
  {
    if (__HAL_TIM_GET_IT_SOURCE(htim, TIM_IT_TRIGGER) != RESET)
 800721a:	687b      	ldr	r3, [r7, #4]
 800721c:	681b      	ldr	r3, [r3, #0]
 800721e:	68db      	ldr	r3, [r3, #12]
 8007220:	f003 0340 	and.w	r3, r3, #64	; 0x40
 8007224:	2b40      	cmp	r3, #64	; 0x40
 8007226:	d107      	bne.n	8007238 <HAL_TIM_IRQHandler+0x1dc>
    {
      __HAL_TIM_CLEAR_IT(htim, TIM_IT_TRIGGER);
 8007228:	687b      	ldr	r3, [r7, #4]
 800722a:	681b      	ldr	r3, [r3, #0]
 800722c:	f06f 0240 	mvn.w	r2, #64	; 0x40
 8007230:	611a      	str	r2, [r3, #16]
#if (USE_HAL_TIM_REGISTER_CALLBACKS == 1)
      htim->TriggerCallback(htim);
#else
      HAL_TIM_TriggerCallback(htim);
 8007232:	6878      	ldr	r0, [r7, #4]
 8007234:	f000 f9be 	bl	80075b4 <HAL_TIM_TriggerCallback>
#endif /* USE_HAL_TIM_REGISTER_CALLBACKS */
    }
  }
  /* TIM commutation event */
  if (__HAL_TIM_GET_FLAG(htim, TIM_FLAG_COM) != RESET)
 8007238:	687b      	ldr	r3, [r7, #4]
 800723a:	681b      	ldr	r3, [r3, #0]
 800723c:	691b      	ldr	r3, [r3, #16]
 800723e:	f003 0320 	and.w	r3, r3, #32
 8007242:	2b20      	cmp	r3, #32
 8007244:	d10e      	bne.n	8007264 <HAL_TIM_IRQHandler+0x208>
  {
    if (__HAL_TIM_GET_IT_SOURCE(htim, TIM_IT_COM) != RESET)
 8007246:	687b      	ldr	r3, [r7, #4]
 8007248:	681b      	ldr	r3, [r3, #0]
 800724a:	68db      	ldr	r3, [r3, #12]
 800724c:	f003 0320 	and.w	r3, r3, #32
 8007250:	2b20      	cmp	r3, #32
 8007252:	d107      	bne.n	8007264 <HAL_TIM_IRQHandler+0x208>
    {
      __HAL_TIM_CLEAR_IT(htim, TIM_FLAG_COM);
 8007254:	687b      	ldr	r3, [r7, #4]
 8007256:	681b      	ldr	r3, [r3, #0]
 8007258:	f06f 0220 	mvn.w	r2, #32
 800725c:	611a      	str	r2, [r3, #16]
#if (USE_HAL_TIM_REGISTER_CALLBACKS == 1)
      htim->CommutationCallback(htim);
#else
      HAL_TIMEx_CommutCallback(htim);
 800725e:	6878      	ldr	r0, [r7, #4]
 8007260:	f000 fcb4 	bl	8007bcc <HAL_TIMEx_CommutCallback>
#endif /* USE_HAL_TIM_REGISTER_CALLBACKS */
    }
  }
}
 8007264:	bf00      	nop
 8007266:	3708      	adds	r7, #8
 8007268:	46bd      	mov	sp, r7
 800726a:	bd80      	pop	{r7, pc}

0800726c <HAL_TIM_PWM_ConfigChannel>:
  * @retval HAL status
  */
HAL_StatusTypeDef HAL_TIM_PWM_ConfigChannel(TIM_HandleTypeDef *htim,
                                            const TIM_OC_InitTypeDef *sConfig,
                                            uint32_t Channel)
{
 800726c:	b580      	push	{r7, lr}
 800726e:	b086      	sub	sp, #24
 8007270:	af00      	add	r7, sp, #0
 8007272:	60f8      	str	r0, [r7, #12]
 8007274:	60b9      	str	r1, [r7, #8]
 8007276:	607a      	str	r2, [r7, #4]
  HAL_StatusTypeDef status = HAL_OK;
 8007278:	2300      	movs	r3, #0
 800727a:	75fb      	strb	r3, [r7, #23]
  assert_param(IS_TIM_PWM_MODE(sConfig->OCMode));
  assert_param(IS_TIM_OC_POLARITY(sConfig->OCPolarity));
  assert_param(IS_TIM_FAST_STATE(sConfig->OCFastMode));

  /* Process Locked */
  __HAL_LOCK(htim);
 800727c:	68fb      	ldr	r3, [r7, #12]
 800727e:	f893 303c 	ldrb.w	r3, [r3, #60]	; 0x3c
 8007282:	2b01      	cmp	r3, #1
 8007284:	d101      	bne.n	800728a <HAL_TIM_PWM_ConfigChannel+0x1e>
 8007286:	2302      	movs	r3, #2
 8007288:	e0ae      	b.n	80073e8 <HAL_TIM_PWM_ConfigChannel+0x17c>
 800728a:	68fb      	ldr	r3, [r7, #12]
 800728c:	2201      	movs	r2, #1
 800728e:	f883 203c 	strb.w	r2, [r3, #60]	; 0x3c

  switch (Channel)
 8007292:	687b      	ldr	r3, [r7, #4]
 8007294:	2b0c      	cmp	r3, #12
 8007296:	f200 809f 	bhi.w	80073d8 <HAL_TIM_PWM_ConfigChannel+0x16c>
 800729a:	a201      	add	r2, pc, #4	; (adr r2, 80072a0 <HAL_TIM_PWM_ConfigChannel+0x34>)
 800729c:	f852 f023 	ldr.w	pc, [r2, r3, lsl #2]
 80072a0:	080072d5 	.word	0x080072d5
 80072a4:	080073d9 	.word	0x080073d9
 80072a8:	080073d9 	.word	0x080073d9
 80072ac:	080073d9 	.word	0x080073d9
 80072b0:	08007315 	.word	0x08007315
 80072b4:	080073d9 	.word	0x080073d9
 80072b8:	080073d9 	.word	0x080073d9
 80072bc:	080073d9 	.word	0x080073d9
 80072c0:	08007357 	.word	0x08007357
 80072c4:	080073d9 	.word	0x080073d9
 80072c8:	080073d9 	.word	0x080073d9
 80072cc:	080073d9 	.word	0x080073d9
 80072d0:	08007397 	.word	0x08007397
    {
      /* Check the parameters */
      assert_param(IS_TIM_CC1_INSTANCE(htim->Instance));

      /* Configure the Channel 1 in PWM mode */
      TIM_OC1_SetConfig(htim->Instance, sConfig);
 80072d4:	68fb      	ldr	r3, [r7, #12]
 80072d6:	681b      	ldr	r3, [r3, #0]
 80072d8:	68b9      	ldr	r1, [r7, #8]
 80072da:	4618      	mov	r0, r3
 80072dc:	f000 f9d6 	bl	800768c <TIM_OC1_SetConfig>

      /* Set the Preload enable bit for channel1 */
      htim->Instance->CCMR1 |= TIM_CCMR1_OC1PE;
 80072e0:	68fb      	ldr	r3, [r7, #12]
 80072e2:	681b      	ldr	r3, [r3, #0]
 80072e4:	699a      	ldr	r2, [r3, #24]
 80072e6:	68fb      	ldr	r3, [r7, #12]
 80072e8:	681b      	ldr	r3, [r3, #0]
 80072ea:	f042 0208 	orr.w	r2, r2, #8
 80072ee:	619a      	str	r2, [r3, #24]

      /* Configure the Output Fast mode */
      htim->Instance->CCMR1 &= ~TIM_CCMR1_OC1FE;
 80072f0:	68fb      	ldr	r3, [r7, #12]
 80072f2:	681b      	ldr	r3, [r3, #0]
 80072f4:	699a      	ldr	r2, [r3, #24]
 80072f6:	68fb      	ldr	r3, [r7, #12]
 80072f8:	681b      	ldr	r3, [r3, #0]
 80072fa:	f022 0204 	bic.w	r2, r2, #4
 80072fe:	619a      	str	r2, [r3, #24]
      htim->Instance->CCMR1 |= sConfig->OCFastMode;
 8007300:	68fb      	ldr	r3, [r7, #12]
 8007302:	681b      	ldr	r3, [r3, #0]
 8007304:	6999      	ldr	r1, [r3, #24]
 8007306:	68bb      	ldr	r3, [r7, #8]
 8007308:	691a      	ldr	r2, [r3, #16]
 800730a:	68fb      	ldr	r3, [r7, #12]
 800730c:	681b      	ldr	r3, [r3, #0]
 800730e:	430a      	orrs	r2, r1
 8007310:	619a      	str	r2, [r3, #24]
      break;
 8007312:	e064      	b.n	80073de <HAL_TIM_PWM_ConfigChannel+0x172>
    {
      /* Check the parameters */
      assert_param(IS_TIM_CC2_INSTANCE(htim->Instance));

      /* Configure the Channel 2 in PWM mode */
      TIM_OC2_SetConfig(htim->Instance, sConfig);
 8007314:	68fb      	ldr	r3, [r7, #12]
 8007316:	681b      	ldr	r3, [r3, #0]
 8007318:	68b9      	ldr	r1, [r7, #8]
 800731a:	4618      	mov	r0, r3
 800731c:	f000 fa1c 	bl	8007758 <TIM_OC2_SetConfig>

      /* Set the Preload enable bit for channel2 */
      htim->Instance->CCMR1 |= TIM_CCMR1_OC2PE;
 8007320:	68fb      	ldr	r3, [r7, #12]
 8007322:	681b      	ldr	r3, [r3, #0]
 8007324:	699a      	ldr	r2, [r3, #24]
 8007326:	68fb      	ldr	r3, [r7, #12]
 8007328:	681b      	ldr	r3, [r3, #0]
 800732a:	f442 6200 	orr.w	r2, r2, #2048	; 0x800
 800732e:	619a      	str	r2, [r3, #24]

      /* Configure the Output Fast mode */
      htim->Instance->CCMR1 &= ~TIM_CCMR1_OC2FE;
 8007330:	68fb      	ldr	r3, [r7, #12]
 8007332:	681b      	ldr	r3, [r3, #0]
 8007334:	699a      	ldr	r2, [r3, #24]
 8007336:	68fb      	ldr	r3, [r7, #12]
 8007338:	681b      	ldr	r3, [r3, #0]
 800733a:	f422 6280 	bic.w	r2, r2, #1024	; 0x400
 800733e:	619a      	str	r2, [r3, #24]
      htim->Instance->CCMR1 |= sConfig->OCFastMode << 8U;
 8007340:	68fb      	ldr	r3, [r7, #12]
 8007342:	681b      	ldr	r3, [r3, #0]
 8007344:	6999      	ldr	r1, [r3, #24]
 8007346:	68bb      	ldr	r3, [r7, #8]
 8007348:	691b      	ldr	r3, [r3, #16]
 800734a:	021a      	lsls	r2, r3, #8
 800734c:	68fb      	ldr	r3, [r7, #12]
 800734e:	681b      	ldr	r3, [r3, #0]
 8007350:	430a      	orrs	r2, r1
 8007352:	619a      	str	r2, [r3, #24]
      break;
 8007354:	e043      	b.n	80073de <HAL_TIM_PWM_ConfigChannel+0x172>
    {
      /* Check the parameters */
      assert_param(IS_TIM_CC3_INSTANCE(htim->Instance));

      /* Configure the Channel 3 in PWM mode */
      TIM_OC3_SetConfig(htim->Instance, sConfig);
 8007356:	68fb      	ldr	r3, [r7, #12]
 8007358:	681b      	ldr	r3, [r3, #0]
 800735a:	68b9      	ldr	r1, [r7, #8]
 800735c:	4618      	mov	r0, r3
 800735e:	f000 fa65 	bl	800782c <TIM_OC3_SetConfig>

      /* Set the Preload enable bit for channel3 */
      htim->Instance->CCMR2 |= TIM_CCMR2_OC3PE;
 8007362:	68fb      	ldr	r3, [r7, #12]
 8007364:	681b      	ldr	r3, [r3, #0]
 8007366:	69da      	ldr	r2, [r3, #28]
 8007368:	68fb      	ldr	r3, [r7, #12]
 800736a:	681b      	ldr	r3, [r3, #0]
 800736c:	f042 0208 	orr.w	r2, r2, #8
 8007370:	61da      	str	r2, [r3, #28]

      /* Configure the Output Fast mode */
      htim->Instance->CCMR2 &= ~TIM_CCMR2_OC3FE;
 8007372:	68fb      	ldr	r3, [r7, #12]
 8007374:	681b      	ldr	r3, [r3, #0]
 8007376:	69da      	ldr	r2, [r3, #28]
 8007378:	68fb      	ldr	r3, [r7, #12]
 800737a:	681b      	ldr	r3, [r3, #0]
 800737c:	f022 0204 	bic.w	r2, r2, #4
 8007380:	61da      	str	r2, [r3, #28]
      htim->Instance->CCMR2 |= sConfig->OCFastMode;
 8007382:	68fb      	ldr	r3, [r7, #12]
 8007384:	681b      	ldr	r3, [r3, #0]
 8007386:	69d9      	ldr	r1, [r3, #28]
 8007388:	68bb      	ldr	r3, [r7, #8]
 800738a:	691a      	ldr	r2, [r3, #16]
 800738c:	68fb      	ldr	r3, [r7, #12]
 800738e:	681b      	ldr	r3, [r3, #0]
 8007390:	430a      	orrs	r2, r1
 8007392:	61da      	str	r2, [r3, #28]
      break;
 8007394:	e023      	b.n	80073de <HAL_TIM_PWM_ConfigChannel+0x172>
    {
      /* Check the parameters */
      assert_param(IS_TIM_CC4_INSTANCE(htim->Instance));

      /* Configure the Channel 4 in PWM mode */
      TIM_OC4_SetConfig(htim->Instance, sConfig);
 8007396:	68fb      	ldr	r3, [r7, #12]
 8007398:	681b      	ldr	r3, [r3, #0]
 800739a:	68b9      	ldr	r1, [r7, #8]
 800739c:	4618      	mov	r0, r3
 800739e:	f000 faaf 	bl	8007900 <TIM_OC4_SetConfig>

      /* Set the Preload enable bit for channel4 */
      htim->Instance->CCMR2 |= TIM_CCMR2_OC4PE;
 80073a2:	68fb      	ldr	r3, [r7, #12]
 80073a4:	681b      	ldr	r3, [r3, #0]
 80073a6:	69da      	ldr	r2, [r3, #28]
 80073a8:	68fb      	ldr	r3, [r7, #12]
 80073aa:	681b      	ldr	r3, [r3, #0]
 80073ac:	f442 6200 	orr.w	r2, r2, #2048	; 0x800
 80073b0:	61da      	str	r2, [r3, #28]

      /* Configure the Output Fast mode */
      htim->Instance->CCMR2 &= ~TIM_CCMR2_OC4FE;
 80073b2:	68fb      	ldr	r3, [r7, #12]
 80073b4:	681b      	ldr	r3, [r3, #0]
 80073b6:	69da      	ldr	r2, [r3, #28]
 80073b8:	68fb      	ldr	r3, [r7, #12]
 80073ba:	681b      	ldr	r3, [r3, #0]
 80073bc:	f422 6280 	bic.w	r2, r2, #1024	; 0x400
 80073c0:	61da      	str	r2, [r3, #28]
      htim->Instance->CCMR2 |= sConfig->OCFastMode << 8U;
 80073c2:	68fb      	ldr	r3, [r7, #12]
 80073c4:	681b      	ldr	r3, [r3, #0]
 80073c6:	69d9      	ldr	r1, [r3, #28]
 80073c8:	68bb      	ldr	r3, [r7, #8]
 80073ca:	691b      	ldr	r3, [r3, #16]
 80073cc:	021a      	lsls	r2, r3, #8
 80073ce:	68fb      	ldr	r3, [r7, #12]
 80073d0:	681b      	ldr	r3, [r3, #0]
 80073d2:	430a      	orrs	r2, r1
 80073d4:	61da      	str	r2, [r3, #28]
      break;
 80073d6:	e002      	b.n	80073de <HAL_TIM_PWM_ConfigChannel+0x172>
    }

    default:
      status = HAL_ERROR;
 80073d8:	2301      	movs	r3, #1
 80073da:	75fb      	strb	r3, [r7, #23]
      break;
 80073dc:	bf00      	nop
  }

  __HAL_UNLOCK(htim);
 80073de:	68fb      	ldr	r3, [r7, #12]
 80073e0:	2200      	movs	r2, #0
 80073e2:	f883 203c 	strb.w	r2, [r3, #60]	; 0x3c

  return status;
 80073e6:	7dfb      	ldrb	r3, [r7, #23]
}
 80073e8:	4618      	mov	r0, r3
 80073ea:	3718      	adds	r7, #24
 80073ec:	46bd      	mov	sp, r7
 80073ee:	bd80      	pop	{r7, pc}

080073f0 <HAL_TIM_ConfigClockSource>:
  * @param  sClockSourceConfig pointer to a TIM_ClockConfigTypeDef structure that
  *         contains the clock source information for the TIM peripheral.
  * @retval HAL status
  */
HAL_StatusTypeDef HAL_TIM_ConfigClockSource(TIM_HandleTypeDef *htim, const TIM_ClockConfigTypeDef *sClockSourceConfig)
{
 80073f0:	b580      	push	{r7, lr}
 80073f2:	b084      	sub	sp, #16
 80073f4:	af00      	add	r7, sp, #0
 80073f6:	6078      	str	r0, [r7, #4]
 80073f8:	6039      	str	r1, [r7, #0]
  HAL_StatusTypeDef status = HAL_OK;
 80073fa:	2300      	movs	r3, #0
 80073fc:	73fb      	strb	r3, [r7, #15]
  uint32_t tmpsmcr;

  /* Process Locked */
  __HAL_LOCK(htim);
 80073fe:	687b      	ldr	r3, [r7, #4]
 8007400:	f893 303c 	ldrb.w	r3, [r3, #60]	; 0x3c
 8007404:	2b01      	cmp	r3, #1
 8007406:	d101      	bne.n	800740c <HAL_TIM_ConfigClockSource+0x1c>
 8007408:	2302      	movs	r3, #2
 800740a:	e0b4      	b.n	8007576 <HAL_TIM_ConfigClockSource+0x186>
 800740c:	687b      	ldr	r3, [r7, #4]
 800740e:	2201      	movs	r2, #1
 8007410:	f883 203c 	strb.w	r2, [r3, #60]	; 0x3c

  htim->State = HAL_TIM_STATE_BUSY;
 8007414:	687b      	ldr	r3, [r7, #4]
 8007416:	2202      	movs	r2, #2
 8007418:	f883 203d 	strb.w	r2, [r3, #61]	; 0x3d

  /* Check the parameters */
  assert_param(IS_TIM_CLOCKSOURCE(sClockSourceConfig->ClockSource));

  /* Reset the SMS, TS, ECE, ETPS and ETRF bits */
  tmpsmcr = htim->Instance->SMCR;
 800741c:	687b      	ldr	r3, [r7, #4]
 800741e:	681b      	ldr	r3, [r3, #0]
 8007420:	689b      	ldr	r3, [r3, #8]
 8007422:	60bb      	str	r3, [r7, #8]
  tmpsmcr &= ~(TIM_SMCR_SMS | TIM_SMCR_TS);
 8007424:	68bb      	ldr	r3, [r7, #8]
 8007426:	f023 0377 	bic.w	r3, r3, #119	; 0x77
 800742a:	60bb      	str	r3, [r7, #8]
  tmpsmcr &= ~(TIM_SMCR_ETF | TIM_SMCR_ETPS | TIM_SMCR_ECE | TIM_SMCR_ETP);
 800742c:	68bb      	ldr	r3, [r7, #8]
 800742e:	f423 437f 	bic.w	r3, r3, #65280	; 0xff00
 8007432:	60bb      	str	r3, [r7, #8]
  htim->Instance->SMCR = tmpsmcr;
 8007434:	687b      	ldr	r3, [r7, #4]
 8007436:	681b      	ldr	r3, [r3, #0]
 8007438:	68ba      	ldr	r2, [r7, #8]
 800743a:	609a      	str	r2, [r3, #8]

  switch (sClockSourceConfig->ClockSource)
 800743c:	683b      	ldr	r3, [r7, #0]
 800743e:	681b      	ldr	r3, [r3, #0]
 8007440:	f5b3 5f00 	cmp.w	r3, #8192	; 0x2000
 8007444:	d03e      	beq.n	80074c4 <HAL_TIM_ConfigClockSource+0xd4>
 8007446:	f5b3 5f00 	cmp.w	r3, #8192	; 0x2000
 800744a:	f200 8087 	bhi.w	800755c <HAL_TIM_ConfigClockSource+0x16c>
 800744e:	f5b3 5f80 	cmp.w	r3, #4096	; 0x1000
 8007452:	f000 8086 	beq.w	8007562 <HAL_TIM_ConfigClockSource+0x172>
 8007456:	f5b3 5f80 	cmp.w	r3, #4096	; 0x1000
 800745a:	d87f      	bhi.n	800755c <HAL_TIM_ConfigClockSource+0x16c>
 800745c:	2b70      	cmp	r3, #112	; 0x70
 800745e:	d01a      	beq.n	8007496 <HAL_TIM_ConfigClockSource+0xa6>
 8007460:	2b70      	cmp	r3, #112	; 0x70
 8007462:	d87b      	bhi.n	800755c <HAL_TIM_ConfigClockSource+0x16c>
 8007464:	2b60      	cmp	r3, #96	; 0x60
 8007466:	d050      	beq.n	800750a <HAL_TIM_ConfigClockSource+0x11a>
 8007468:	2b60      	cmp	r3, #96	; 0x60
 800746a:	d877      	bhi.n	800755c <HAL_TIM_ConfigClockSource+0x16c>
 800746c:	2b50      	cmp	r3, #80	; 0x50
 800746e:	d03c      	beq.n	80074ea <HAL_TIM_ConfigClockSource+0xfa>
 8007470:	2b50      	cmp	r3, #80	; 0x50
 8007472:	d873      	bhi.n	800755c <HAL_TIM_ConfigClockSource+0x16c>
 8007474:	2b40      	cmp	r3, #64	; 0x40
 8007476:	d058      	beq.n	800752a <HAL_TIM_ConfigClockSource+0x13a>
 8007478:	2b40      	cmp	r3, #64	; 0x40
 800747a:	d86f      	bhi.n	800755c <HAL_TIM_ConfigClockSource+0x16c>
 800747c:	2b30      	cmp	r3, #48	; 0x30
 800747e:	d064      	beq.n	800754a <HAL_TIM_ConfigClockSource+0x15a>
 8007480:	2b30      	cmp	r3, #48	; 0x30
 8007482:	d86b      	bhi.n	800755c <HAL_TIM_ConfigClockSource+0x16c>
 8007484:	2b20      	cmp	r3, #32
 8007486:	d060      	beq.n	800754a <HAL_TIM_ConfigClockSource+0x15a>
 8007488:	2b20      	cmp	r3, #32
 800748a:	d867      	bhi.n	800755c <HAL_TIM_ConfigClockSource+0x16c>
 800748c:	2b00      	cmp	r3, #0
 800748e:	d05c      	beq.n	800754a <HAL_TIM_ConfigClockSource+0x15a>
 8007490:	2b10      	cmp	r3, #16
 8007492:	d05a      	beq.n	800754a <HAL_TIM_ConfigClockSource+0x15a>
 8007494:	e062      	b.n	800755c <HAL_TIM_ConfigClockSource+0x16c>
      assert_param(IS_TIM_CLOCKPRESCALER(sClockSourceConfig->ClockPrescaler));
      assert_param(IS_TIM_CLOCKPOLARITY(sClockSourceConfig->ClockPolarity));
      assert_param(IS_TIM_CLOCKFILTER(sClockSourceConfig->ClockFilter));

      /* Configure the ETR Clock source */
      TIM_ETR_SetConfig(htim->Instance,
 8007496:	687b      	ldr	r3, [r7, #4]
 8007498:	6818      	ldr	r0, [r3, #0]
                        sClockSourceConfig->ClockPrescaler,
 800749a:	683b      	ldr	r3, [r7, #0]
 800749c:	6899      	ldr	r1, [r3, #8]
                        sClockSourceConfig->ClockPolarity,
 800749e:	683b      	ldr	r3, [r7, #0]
 80074a0:	685a      	ldr	r2, [r3, #4]
                        sClockSourceConfig->ClockFilter);
 80074a2:	683b      	ldr	r3, [r7, #0]
 80074a4:	68db      	ldr	r3, [r3, #12]
      TIM_ETR_SetConfig(htim->Instance,
 80074a6:	f000 faf0 	bl	8007a8a <TIM_ETR_SetConfig>

      /* Select the External clock mode1 and the ETRF trigger */
      tmpsmcr = htim->Instance->SMCR;
 80074aa:	687b      	ldr	r3, [r7, #4]
 80074ac:	681b      	ldr	r3, [r3, #0]
 80074ae:	689b      	ldr	r3, [r3, #8]
 80074b0:	60bb      	str	r3, [r7, #8]
      tmpsmcr |= (TIM_SLAVEMODE_EXTERNAL1 | TIM_CLOCKSOURCE_ETRMODE1);
 80074b2:	68bb      	ldr	r3, [r7, #8]
 80074b4:	f043 0377 	orr.w	r3, r3, #119	; 0x77
 80074b8:	60bb      	str	r3, [r7, #8]
      /* Write to TIMx SMCR */
      htim->Instance->SMCR = tmpsmcr;
 80074ba:	687b      	ldr	r3, [r7, #4]
 80074bc:	681b      	ldr	r3, [r3, #0]
 80074be:	68ba      	ldr	r2, [r7, #8]
 80074c0:	609a      	str	r2, [r3, #8]
      break;
 80074c2:	e04f      	b.n	8007564 <HAL_TIM_ConfigClockSource+0x174>
      assert_param(IS_TIM_CLOCKPRESCALER(sClockSourceConfig->ClockPrescaler));
      assert_param(IS_TIM_CLOCKPOLARITY(sClockSourceConfig->ClockPolarity));
      assert_param(IS_TIM_CLOCKFILTER(sClockSourceConfig->ClockFilter));

      /* Configure the ETR Clock source */
      TIM_ETR_SetConfig(htim->Instance,
 80074c4:	687b      	ldr	r3, [r7, #4]
 80074c6:	6818      	ldr	r0, [r3, #0]
                        sClockSourceConfig->ClockPrescaler,
 80074c8:	683b      	ldr	r3, [r7, #0]
 80074ca:	6899      	ldr	r1, [r3, #8]
                        sClockSourceConfig->ClockPolarity,
 80074cc:	683b      	ldr	r3, [r7, #0]
 80074ce:	685a      	ldr	r2, [r3, #4]
                        sClockSourceConfig->ClockFilter);
 80074d0:	683b      	ldr	r3, [r7, #0]
 80074d2:	68db      	ldr	r3, [r3, #12]
      TIM_ETR_SetConfig(htim->Instance,
 80074d4:	f000 fad9 	bl	8007a8a <TIM_ETR_SetConfig>
      /* Enable the External clock mode2 */
      htim->Instance->SMCR |= TIM_SMCR_ECE;
 80074d8:	687b      	ldr	r3, [r7, #4]
 80074da:	681b      	ldr	r3, [r3, #0]
 80074dc:	689a      	ldr	r2, [r3, #8]
 80074de:	687b      	ldr	r3, [r7, #4]
 80074e0:	681b      	ldr	r3, [r3, #0]
 80074e2:	f442 4280 	orr.w	r2, r2, #16384	; 0x4000
 80074e6:	609a      	str	r2, [r3, #8]
      break;
 80074e8:	e03c      	b.n	8007564 <HAL_TIM_ConfigClockSource+0x174>

      /* Check TI1 input conditioning related parameters */
      assert_param(IS_TIM_CLOCKPOLARITY(sClockSourceConfig->ClockPolarity));
      assert_param(IS_TIM_CLOCKFILTER(sClockSourceConfig->ClockFilter));

      TIM_TI1_ConfigInputStage(htim->Instance,
 80074ea:	687b      	ldr	r3, [r7, #4]
 80074ec:	6818      	ldr	r0, [r3, #0]
                               sClockSourceConfig->ClockPolarity,
 80074ee:	683b      	ldr	r3, [r7, #0]
 80074f0:	6859      	ldr	r1, [r3, #4]
                               sClockSourceConfig->ClockFilter);
 80074f2:	683b      	ldr	r3, [r7, #0]
 80074f4:	68db      	ldr	r3, [r3, #12]
      TIM_TI1_ConfigInputStage(htim->Instance,
 80074f6:	461a      	mov	r2, r3
 80074f8:	f000 fa50 	bl	800799c <TIM_TI1_ConfigInputStage>
      TIM_ITRx_SetConfig(htim->Instance, TIM_CLOCKSOURCE_TI1);
 80074fc:	687b      	ldr	r3, [r7, #4]
 80074fe:	681b      	ldr	r3, [r3, #0]
 8007500:	2150      	movs	r1, #80	; 0x50
 8007502:	4618      	mov	r0, r3
 8007504:	f000 faa7 	bl	8007a56 <TIM_ITRx_SetConfig>
      break;
 8007508:	e02c      	b.n	8007564 <HAL_TIM_ConfigClockSource+0x174>

      /* Check TI2 input conditioning related parameters */
      assert_param(IS_TIM_CLOCKPOLARITY(sClockSourceConfig->ClockPolarity));
      assert_param(IS_TIM_CLOCKFILTER(sClockSourceConfig->ClockFilter));

      TIM_TI2_ConfigInputStage(htim->Instance,
 800750a:	687b      	ldr	r3, [r7, #4]
 800750c:	6818      	ldr	r0, [r3, #0]
                               sClockSourceConfig->ClockPolarity,
 800750e:	683b      	ldr	r3, [r7, #0]
 8007510:	6859      	ldr	r1, [r3, #4]
                               sClockSourceConfig->ClockFilter);
 8007512:	683b      	ldr	r3, [r7, #0]
 8007514:	68db      	ldr	r3, [r3, #12]
      TIM_TI2_ConfigInputStage(htim->Instance,
 8007516:	461a      	mov	r2, r3
 8007518:	f000 fa6e 	bl	80079f8 <TIM_TI2_ConfigInputStage>
      TIM_ITRx_SetConfig(htim->Instance, TIM_CLOCKSOURCE_TI2);
 800751c:	687b      	ldr	r3, [r7, #4]
 800751e:	681b      	ldr	r3, [r3, #0]
 8007520:	2160      	movs	r1, #96	; 0x60
 8007522:	4618      	mov	r0, r3
 8007524:	f000 fa97 	bl	8007a56 <TIM_ITRx_SetConfig>
      break;
 8007528:	e01c      	b.n	8007564 <HAL_TIM_ConfigClockSource+0x174>

      /* Check TI1 input conditioning related parameters */
      assert_param(IS_TIM_CLOCKPOLARITY(sClockSourceConfig->ClockPolarity));
      assert_param(IS_TIM_CLOCKFILTER(sClockSourceConfig->ClockFilter));

      TIM_TI1_ConfigInputStage(htim->Instance,
 800752a:	687b      	ldr	r3, [r7, #4]
 800752c:	6818      	ldr	r0, [r3, #0]
                               sClockSourceConfig->ClockPolarity,
 800752e:	683b      	ldr	r3, [r7, #0]
 8007530:	6859      	ldr	r1, [r3, #4]
                               sClockSourceConfig->ClockFilter);
 8007532:	683b      	ldr	r3, [r7, #0]
 8007534:	68db      	ldr	r3, [r3, #12]
      TIM_TI1_ConfigInputStage(htim->Instance,
 8007536:	461a      	mov	r2, r3
 8007538:	f000 fa30 	bl	800799c <TIM_TI1_ConfigInputStage>
      TIM_ITRx_SetConfig(htim->Instance, TIM_CLOCKSOURCE_TI1ED);
 800753c:	687b      	ldr	r3, [r7, #4]
 800753e:	681b      	ldr	r3, [r3, #0]
 8007540:	2140      	movs	r1, #64	; 0x40
 8007542:	4618      	mov	r0, r3
 8007544:	f000 fa87 	bl	8007a56 <TIM_ITRx_SetConfig>
      break;
 8007548:	e00c      	b.n	8007564 <HAL_TIM_ConfigClockSource+0x174>
    case TIM_CLOCKSOURCE_ITR3:
    {
      /* Check whether or not the timer instance supports internal trigger input */
      assert_param(IS_TIM_CLOCKSOURCE_ITRX_INSTANCE(htim->Instance));

      TIM_ITRx_SetConfig(htim->Instance, sClockSourceConfig->ClockSource);
 800754a:	687b      	ldr	r3, [r7, #4]
 800754c:	681a      	ldr	r2, [r3, #0]
 800754e:	683b      	ldr	r3, [r7, #0]
 8007550:	681b      	ldr	r3, [r3, #0]
 8007552:	4619      	mov	r1, r3
 8007554:	4610      	mov	r0, r2
 8007556:	f000 fa7e 	bl	8007a56 <TIM_ITRx_SetConfig>
      break;
 800755a:	e003      	b.n	8007564 <HAL_TIM_ConfigClockSource+0x174>
    }

    default:
      status = HAL_ERROR;
 800755c:	2301      	movs	r3, #1
 800755e:	73fb      	strb	r3, [r7, #15]
      break;
 8007560:	e000      	b.n	8007564 <HAL_TIM_ConfigClockSource+0x174>
      break;
 8007562:	bf00      	nop
  }
  htim->State = HAL_TIM_STATE_READY;
 8007564:	687b      	ldr	r3, [r7, #4]
 8007566:	2201      	movs	r2, #1
 8007568:	f883 203d 	strb.w	r2, [r3, #61]	; 0x3d

  __HAL_UNLOCK(htim);
 800756c:	687b      	ldr	r3, [r7, #4]
 800756e:	2200      	movs	r2, #0
 8007570:	f883 203c 	strb.w	r2, [r3, #60]	; 0x3c

  return status;
 8007574:	7bfb      	ldrb	r3, [r7, #15]
}
 8007576:	4618      	mov	r0, r3
 8007578:	3710      	adds	r7, #16
 800757a:	46bd      	mov	sp, r7
 800757c:	bd80      	pop	{r7, pc}

0800757e <HAL_TIM_OC_DelayElapsedCallback>:
  * @brief  Output Compare callback in non-blocking mode
  * @param  htim TIM OC handle
  * @retval None
  */
__weak void HAL_TIM_OC_DelayElapsedCallback(TIM_HandleTypeDef *htim)
{
 800757e:	b480      	push	{r7}
 8007580:	b083      	sub	sp, #12
 8007582:	af00      	add	r7, sp, #0
 8007584:	6078      	str	r0, [r7, #4]
  UNUSED(htim);

  /* NOTE : This function should not be modified, when the callback is needed,
            the HAL_TIM_OC_DelayElapsedCallback could be implemented in the user file
   */
}
 8007586:	bf00      	nop
 8007588:	370c      	adds	r7, #12
 800758a:	46bd      	mov	sp, r7
 800758c:	bc80      	pop	{r7}
 800758e:	4770      	bx	lr

08007590 <HAL_TIM_IC_CaptureCallback>:
  * @brief  Input Capture callback in non-blocking mode
  * @param  htim TIM IC handle
  * @retval None
  */
__weak void HAL_TIM_IC_CaptureCallback(TIM_HandleTypeDef *htim)
{
 8007590:	b480      	push	{r7}
 8007592:	b083      	sub	sp, #12
 8007594:	af00      	add	r7, sp, #0
 8007596:	6078      	str	r0, [r7, #4]
  UNUSED(htim);

  /* NOTE : This function should not be modified, when the callback is needed,
            the HAL_TIM_IC_CaptureCallback could be implemented in the user file
   */
}
 8007598:	bf00      	nop
 800759a:	370c      	adds	r7, #12
 800759c:	46bd      	mov	sp, r7
 800759e:	bc80      	pop	{r7}
 80075a0:	4770      	bx	lr

080075a2 <HAL_TIM_PWM_PulseFinishedCallback>:
  * @brief  PWM Pulse finished callback in non-blocking mode
  * @param  htim TIM handle
  * @retval None
  */
__weak void HAL_TIM_PWM_PulseFinishedCallback(TIM_HandleTypeDef *htim)
{
 80075a2:	b480      	push	{r7}
 80075a4:	b083      	sub	sp, #12
 80075a6:	af00      	add	r7, sp, #0
 80075a8:	6078      	str	r0, [r7, #4]
  UNUSED(htim);

  /* NOTE : This function should not be modified, when the callback is needed,
            the HAL_TIM_PWM_PulseFinishedCallback could be implemented in the user file
   */
}
 80075aa:	bf00      	nop
 80075ac:	370c      	adds	r7, #12
 80075ae:	46bd      	mov	sp, r7
 80075b0:	bc80      	pop	{r7}
 80075b2:	4770      	bx	lr

080075b4 <HAL_TIM_TriggerCallback>:
  * @brief  Hall Trigger detection callback in non-blocking mode
  * @param  htim TIM handle
  * @retval None
  */
__weak void HAL_TIM_TriggerCallback(TIM_HandleTypeDef *htim)
{
 80075b4:	b480      	push	{r7}
 80075b6:	b083      	sub	sp, #12
 80075b8:	af00      	add	r7, sp, #0
 80075ba:	6078      	str	r0, [r7, #4]
  UNUSED(htim);

  /* NOTE : This function should not be modified, when the callback is needed,
            the HAL_TIM_TriggerCallback could be implemented in the user file
   */
}
 80075bc:	bf00      	nop
 80075be:	370c      	adds	r7, #12
 80075c0:	46bd      	mov	sp, r7
 80075c2:	bc80      	pop	{r7}
 80075c4:	4770      	bx	lr
	...

080075c8 <TIM_Base_SetConfig>:
  * @param  TIMx TIM peripheral
  * @param  Structure TIM Base configuration structure
  * @retval None
  */
void TIM_Base_SetConfig(TIM_TypeDef *TIMx, const TIM_Base_InitTypeDef *Structure)
{
 80075c8:	b480      	push	{r7}
 80075ca:	b085      	sub	sp, #20
 80075cc:	af00      	add	r7, sp, #0
 80075ce:	6078      	str	r0, [r7, #4]
 80075d0:	6039      	str	r1, [r7, #0]
  uint32_t tmpcr1;
  tmpcr1 = TIMx->CR1;
 80075d2:	687b      	ldr	r3, [r7, #4]
 80075d4:	681b      	ldr	r3, [r3, #0]
 80075d6:	60fb      	str	r3, [r7, #12]

  /* Set TIM Time Base Unit parameters ---------------------------------------*/
  if (IS_TIM_COUNTER_MODE_SELECT_INSTANCE(TIMx))
 80075d8:	687b      	ldr	r3, [r7, #4]
 80075da:	4a29      	ldr	r2, [pc, #164]	; (8007680 <TIM_Base_SetConfig+0xb8>)
 80075dc:	4293      	cmp	r3, r2
 80075de:	d00b      	beq.n	80075f8 <TIM_Base_SetConfig+0x30>
 80075e0:	687b      	ldr	r3, [r7, #4]
 80075e2:	f1b3 4f80 	cmp.w	r3, #1073741824	; 0x40000000
 80075e6:	d007      	beq.n	80075f8 <TIM_Base_SetConfig+0x30>
 80075e8:	687b      	ldr	r3, [r7, #4]
 80075ea:	4a26      	ldr	r2, [pc, #152]	; (8007684 <TIM_Base_SetConfig+0xbc>)
 80075ec:	4293      	cmp	r3, r2
 80075ee:	d003      	beq.n	80075f8 <TIM_Base_SetConfig+0x30>
 80075f0:	687b      	ldr	r3, [r7, #4]
 80075f2:	4a25      	ldr	r2, [pc, #148]	; (8007688 <TIM_Base_SetConfig+0xc0>)
 80075f4:	4293      	cmp	r3, r2
 80075f6:	d108      	bne.n	800760a <TIM_Base_SetConfig+0x42>
  {
    /* Select the Counter Mode */
    tmpcr1 &= ~(TIM_CR1_DIR | TIM_CR1_CMS);
 80075f8:	68fb      	ldr	r3, [r7, #12]
 80075fa:	f023 0370 	bic.w	r3, r3, #112	; 0x70
 80075fe:	60fb      	str	r3, [r7, #12]
    tmpcr1 |= Structure->CounterMode;
 8007600:	683b      	ldr	r3, [r7, #0]
 8007602:	685b      	ldr	r3, [r3, #4]
 8007604:	68fa      	ldr	r2, [r7, #12]
 8007606:	4313      	orrs	r3, r2
 8007608:	60fb      	str	r3, [r7, #12]
  }

  if (IS_TIM_CLOCK_DIVISION_INSTANCE(TIMx))
 800760a:	687b      	ldr	r3, [r7, #4]
 800760c:	4a1c      	ldr	r2, [pc, #112]	; (8007680 <TIM_Base_SetConfig+0xb8>)
 800760e:	4293      	cmp	r3, r2
 8007610:	d00b      	beq.n	800762a <TIM_Base_SetConfig+0x62>
 8007612:	687b      	ldr	r3, [r7, #4]
 8007614:	f1b3 4f80 	cmp.w	r3, #1073741824	; 0x40000000
 8007618:	d007      	beq.n	800762a <TIM_Base_SetConfig+0x62>
 800761a:	687b      	ldr	r3, [r7, #4]
 800761c:	4a19      	ldr	r2, [pc, #100]	; (8007684 <TIM_Base_SetConfig+0xbc>)
 800761e:	4293      	cmp	r3, r2
 8007620:	d003      	beq.n	800762a <TIM_Base_SetConfig+0x62>
 8007622:	687b      	ldr	r3, [r7, #4]
 8007624:	4a18      	ldr	r2, [pc, #96]	; (8007688 <TIM_Base_SetConfig+0xc0>)
 8007626:	4293      	cmp	r3, r2
 8007628:	d108      	bne.n	800763c <TIM_Base_SetConfig+0x74>
  {
    /* Set the clock division */
    tmpcr1 &= ~TIM_CR1_CKD;
 800762a:	68fb      	ldr	r3, [r7, #12]
 800762c:	f423 7340 	bic.w	r3, r3, #768	; 0x300
 8007630:	60fb      	str	r3, [r7, #12]
    tmpcr1 |= (uint32_t)Structure->ClockDivision;
 8007632:	683b      	ldr	r3, [r7, #0]
 8007634:	68db      	ldr	r3, [r3, #12]
 8007636:	68fa      	ldr	r2, [r7, #12]
 8007638:	4313      	orrs	r3, r2
 800763a:	60fb      	str	r3, [r7, #12]
  }

  /* Set the auto-reload preload */
  MODIFY_REG(tmpcr1, TIM_CR1_ARPE, Structure->AutoReloadPreload);
 800763c:	68fb      	ldr	r3, [r7, #12]
 800763e:	f023 0280 	bic.w	r2, r3, #128	; 0x80
 8007642:	683b      	ldr	r3, [r7, #0]
 8007644:	695b      	ldr	r3, [r3, #20]
 8007646:	4313      	orrs	r3, r2
 8007648:	60fb      	str	r3, [r7, #12]

  TIMx->CR1 = tmpcr1;
 800764a:	687b      	ldr	r3, [r7, #4]
 800764c:	68fa      	ldr	r2, [r7, #12]
 800764e:	601a      	str	r2, [r3, #0]

  /* Set the Autoreload value */
  TIMx->ARR = (uint32_t)Structure->Period ;
 8007650:	683b      	ldr	r3, [r7, #0]
 8007652:	689a      	ldr	r2, [r3, #8]
 8007654:	687b      	ldr	r3, [r7, #4]
 8007656:	62da      	str	r2, [r3, #44]	; 0x2c

  /* Set the Prescaler value */
  TIMx->PSC = Structure->Prescaler;
 8007658:	683b      	ldr	r3, [r7, #0]
 800765a:	681a      	ldr	r2, [r3, #0]
 800765c:	687b      	ldr	r3, [r7, #4]
 800765e:	629a      	str	r2, [r3, #40]	; 0x28

  if (IS_TIM_REPETITION_COUNTER_INSTANCE(TIMx))
 8007660:	687b      	ldr	r3, [r7, #4]
 8007662:	4a07      	ldr	r2, [pc, #28]	; (8007680 <TIM_Base_SetConfig+0xb8>)
 8007664:	4293      	cmp	r3, r2
 8007666:	d103      	bne.n	8007670 <TIM_Base_SetConfig+0xa8>
  {
    /* Set the Repetition Counter value */
    TIMx->RCR = Structure->RepetitionCounter;
 8007668:	683b      	ldr	r3, [r7, #0]
 800766a:	691a      	ldr	r2, [r3, #16]
 800766c:	687b      	ldr	r3, [r7, #4]
 800766e:	631a      	str	r2, [r3, #48]	; 0x30
  }

  /* Generate an update event to reload the Prescaler
     and the repetition counter (only for advanced timer) value immediately */
  TIMx->EGR = TIM_EGR_UG;
 8007670:	687b      	ldr	r3, [r7, #4]
 8007672:	2201      	movs	r2, #1
 8007674:	615a      	str	r2, [r3, #20]
}
 8007676:	bf00      	nop
 8007678:	3714      	adds	r7, #20
 800767a:	46bd      	mov	sp, r7
 800767c:	bc80      	pop	{r7}
 800767e:	4770      	bx	lr
 8007680:	40012c00 	.word	0x40012c00
 8007684:	40000400 	.word	0x40000400
 8007688:	40000800 	.word	0x40000800

0800768c <TIM_OC1_SetConfig>:
  * @param  TIMx to select the TIM peripheral
  * @param  OC_Config The output configuration structure
  * @retval None
  */
static void TIM_OC1_SetConfig(TIM_TypeDef *TIMx, const TIM_OC_InitTypeDef *OC_Config)
{
 800768c:	b480      	push	{r7}
 800768e:	b087      	sub	sp, #28
 8007690:	af00      	add	r7, sp, #0
 8007692:	6078      	str	r0, [r7, #4]
 8007694:	6039      	str	r1, [r7, #0]
  uint32_t tmpccmrx;
  uint32_t tmpccer;
  uint32_t tmpcr2;

  /* Get the TIMx CCER register value */
  tmpccer = TIMx->CCER;
 8007696:	687b      	ldr	r3, [r7, #4]
 8007698:	6a1b      	ldr	r3, [r3, #32]
 800769a:	617b      	str	r3, [r7, #20]

  /* Disable the Channel 1: Reset the CC1E Bit */
  TIMx->CCER &= ~TIM_CCER_CC1E;
 800769c:	687b      	ldr	r3, [r7, #4]
 800769e:	6a1b      	ldr	r3, [r3, #32]
 80076a0:	f023 0201 	bic.w	r2, r3, #1
 80076a4:	687b      	ldr	r3, [r7, #4]
 80076a6:	621a      	str	r2, [r3, #32]

  /* Get the TIMx CR2 register value */
  tmpcr2 =  TIMx->CR2;
 80076a8:	687b      	ldr	r3, [r7, #4]
 80076aa:	685b      	ldr	r3, [r3, #4]
 80076ac:	613b      	str	r3, [r7, #16]

  /* Get the TIMx CCMR1 register value */
  tmpccmrx = TIMx->CCMR1;
 80076ae:	687b      	ldr	r3, [r7, #4]
 80076b0:	699b      	ldr	r3, [r3, #24]
 80076b2:	60fb      	str	r3, [r7, #12]

  /* Reset the Output Compare Mode Bits */
  tmpccmrx &= ~TIM_CCMR1_OC1M;
 80076b4:	68fb      	ldr	r3, [r7, #12]
 80076b6:	f023 0370 	bic.w	r3, r3, #112	; 0x70
 80076ba:	60fb      	str	r3, [r7, #12]
  tmpccmrx &= ~TIM_CCMR1_CC1S;
 80076bc:	68fb      	ldr	r3, [r7, #12]
 80076be:	f023 0303 	bic.w	r3, r3, #3
 80076c2:	60fb      	str	r3, [r7, #12]
  /* Select the Output Compare Mode */
  tmpccmrx |= OC_Config->OCMode;
 80076c4:	683b      	ldr	r3, [r7, #0]
 80076c6:	681b      	ldr	r3, [r3, #0]
 80076c8:	68fa      	ldr	r2, [r7, #12]
 80076ca:	4313      	orrs	r3, r2
 80076cc:	60fb      	str	r3, [r7, #12]

  /* Reset the Output Polarity level */
  tmpccer &= ~TIM_CCER_CC1P;
 80076ce:	697b      	ldr	r3, [r7, #20]
 80076d0:	f023 0302 	bic.w	r3, r3, #2
 80076d4:	617b      	str	r3, [r7, #20]
  /* Set the Output Compare Polarity */
  tmpccer |= OC_Config->OCPolarity;
 80076d6:	683b      	ldr	r3, [r7, #0]
 80076d8:	689b      	ldr	r3, [r3, #8]
 80076da:	697a      	ldr	r2, [r7, #20]
 80076dc:	4313      	orrs	r3, r2
 80076de:	617b      	str	r3, [r7, #20]

  if (IS_TIM_CCXN_INSTANCE(TIMx, TIM_CHANNEL_1))
 80076e0:	687b      	ldr	r3, [r7, #4]
 80076e2:	4a1c      	ldr	r2, [pc, #112]	; (8007754 <TIM_OC1_SetConfig+0xc8>)
 80076e4:	4293      	cmp	r3, r2
 80076e6:	d10c      	bne.n	8007702 <TIM_OC1_SetConfig+0x76>
  {
    /* Check parameters */
    assert_param(IS_TIM_OCN_POLARITY(OC_Config->OCNPolarity));

    /* Reset the Output N Polarity level */
    tmpccer &= ~TIM_CCER_CC1NP;
 80076e8:	697b      	ldr	r3, [r7, #20]
 80076ea:	f023 0308 	bic.w	r3, r3, #8
 80076ee:	617b      	str	r3, [r7, #20]
    /* Set the Output N Polarity */
    tmpccer |= OC_Config->OCNPolarity;
 80076f0:	683b      	ldr	r3, [r7, #0]
 80076f2:	68db      	ldr	r3, [r3, #12]
 80076f4:	697a      	ldr	r2, [r7, #20]
 80076f6:	4313      	orrs	r3, r2
 80076f8:	617b      	str	r3, [r7, #20]
    /* Reset the Output N State */
    tmpccer &= ~TIM_CCER_CC1NE;
 80076fa:	697b      	ldr	r3, [r7, #20]
 80076fc:	f023 0304 	bic.w	r3, r3, #4
 8007700:	617b      	str	r3, [r7, #20]
  }

  if (IS_TIM_BREAK_INSTANCE(TIMx))
 8007702:	687b      	ldr	r3, [r7, #4]
 8007704:	4a13      	ldr	r2, [pc, #76]	; (8007754 <TIM_OC1_SetConfig+0xc8>)
 8007706:	4293      	cmp	r3, r2
 8007708:	d111      	bne.n	800772e <TIM_OC1_SetConfig+0xa2>
    /* Check parameters */
    assert_param(IS_TIM_OCNIDLE_STATE(OC_Config->OCNIdleState));
    assert_param(IS_TIM_OCIDLE_STATE(OC_Config->OCIdleState));

    /* Reset the Output Compare and Output Compare N IDLE State */
    tmpcr2 &= ~TIM_CR2_OIS1;
 800770a:	693b      	ldr	r3, [r7, #16]
 800770c:	f423 7380 	bic.w	r3, r3, #256	; 0x100
 8007710:	613b      	str	r3, [r7, #16]
    tmpcr2 &= ~TIM_CR2_OIS1N;
 8007712:	693b      	ldr	r3, [r7, #16]
 8007714:	f423 7300 	bic.w	r3, r3, #512	; 0x200
 8007718:	613b      	str	r3, [r7, #16]
    /* Set the Output Idle state */
    tmpcr2 |= OC_Config->OCIdleState;
 800771a:	683b      	ldr	r3, [r7, #0]
 800771c:	695b      	ldr	r3, [r3, #20]
 800771e:	693a      	ldr	r2, [r7, #16]
 8007720:	4313      	orrs	r3, r2
 8007722:	613b      	str	r3, [r7, #16]
    /* Set the Output N Idle state */
    tmpcr2 |= OC_Config->OCNIdleState;
 8007724:	683b      	ldr	r3, [r7, #0]
 8007726:	699b      	ldr	r3, [r3, #24]
 8007728:	693a      	ldr	r2, [r7, #16]
 800772a:	4313      	orrs	r3, r2
 800772c:	613b      	str	r3, [r7, #16]
  }

  /* Write to TIMx CR2 */
  TIMx->CR2 = tmpcr2;
 800772e:	687b      	ldr	r3, [r7, #4]
 8007730:	693a      	ldr	r2, [r7, #16]
 8007732:	605a      	str	r2, [r3, #4]

  /* Write to TIMx CCMR1 */
  TIMx->CCMR1 = tmpccmrx;
 8007734:	687b      	ldr	r3, [r7, #4]
 8007736:	68fa      	ldr	r2, [r7, #12]
 8007738:	619a      	str	r2, [r3, #24]

  /* Set the Capture Compare Register value */
  TIMx->CCR1 = OC_Config->Pulse;
 800773a:	683b      	ldr	r3, [r7, #0]
 800773c:	685a      	ldr	r2, [r3, #4]
 800773e:	687b      	ldr	r3, [r7, #4]
 8007740:	635a      	str	r2, [r3, #52]	; 0x34

  /* Write to TIMx CCER */
  TIMx->CCER = tmpccer;
 8007742:	687b      	ldr	r3, [r7, #4]
 8007744:	697a      	ldr	r2, [r7, #20]
 8007746:	621a      	str	r2, [r3, #32]
}
 8007748:	bf00      	nop
 800774a:	371c      	adds	r7, #28
 800774c:	46bd      	mov	sp, r7
 800774e:	bc80      	pop	{r7}
 8007750:	4770      	bx	lr
 8007752:	bf00      	nop
 8007754:	40012c00 	.word	0x40012c00

08007758 <TIM_OC2_SetConfig>:
  * @param  TIMx to select the TIM peripheral
  * @param  OC_Config The output configuration structure
  * @retval None
  */
void TIM_OC2_SetConfig(TIM_TypeDef *TIMx, const TIM_OC_InitTypeDef *OC_Config)
{
 8007758:	b480      	push	{r7}
 800775a:	b087      	sub	sp, #28
 800775c:	af00      	add	r7, sp, #0
 800775e:	6078      	str	r0, [r7, #4]
 8007760:	6039      	str	r1, [r7, #0]
  uint32_t tmpccmrx;
  uint32_t tmpccer;
  uint32_t tmpcr2;

  /* Get the TIMx CCER register value */
  tmpccer = TIMx->CCER;
 8007762:	687b      	ldr	r3, [r7, #4]
 8007764:	6a1b      	ldr	r3, [r3, #32]
 8007766:	617b      	str	r3, [r7, #20]

  /* Disable the Channel 2: Reset the CC2E Bit */
  TIMx->CCER &= ~TIM_CCER_CC2E;
 8007768:	687b      	ldr	r3, [r7, #4]
 800776a:	6a1b      	ldr	r3, [r3, #32]
 800776c:	f023 0210 	bic.w	r2, r3, #16
 8007770:	687b      	ldr	r3, [r7, #4]
 8007772:	621a      	str	r2, [r3, #32]

  /* Get the TIMx CR2 register value */
  tmpcr2 =  TIMx->CR2;
 8007774:	687b      	ldr	r3, [r7, #4]
 8007776:	685b      	ldr	r3, [r3, #4]
 8007778:	613b      	str	r3, [r7, #16]

  /* Get the TIMx CCMR1 register value */
  tmpccmrx = TIMx->CCMR1;
 800777a:	687b      	ldr	r3, [r7, #4]
 800777c:	699b      	ldr	r3, [r3, #24]
 800777e:	60fb      	str	r3, [r7, #12]

  /* Reset the Output Compare mode and Capture/Compare selection Bits */
  tmpccmrx &= ~TIM_CCMR1_OC2M;
 8007780:	68fb      	ldr	r3, [r7, #12]
 8007782:	f423 43e0 	bic.w	r3, r3, #28672	; 0x7000
 8007786:	60fb      	str	r3, [r7, #12]
  tmpccmrx &= ~TIM_CCMR1_CC2S;
 8007788:	68fb      	ldr	r3, [r7, #12]
 800778a:	f423 7340 	bic.w	r3, r3, #768	; 0x300
 800778e:	60fb      	str	r3, [r7, #12]

  /* Select the Output Compare Mode */
  tmpccmrx |= (OC_Config->OCMode << 8U);
 8007790:	683b      	ldr	r3, [r7, #0]
 8007792:	681b      	ldr	r3, [r3, #0]
 8007794:	021b      	lsls	r3, r3, #8
 8007796:	68fa      	ldr	r2, [r7, #12]
 8007798:	4313      	orrs	r3, r2
 800779a:	60fb      	str	r3, [r7, #12]

  /* Reset the Output Polarity level */
  tmpccer &= ~TIM_CCER_CC2P;
 800779c:	697b      	ldr	r3, [r7, #20]
 800779e:	f023 0320 	bic.w	r3, r3, #32
 80077a2:	617b      	str	r3, [r7, #20]
  /* Set the Output Compare Polarity */
  tmpccer |= (OC_Config->OCPolarity << 4U);
 80077a4:	683b      	ldr	r3, [r7, #0]
 80077a6:	689b      	ldr	r3, [r3, #8]
 80077a8:	011b      	lsls	r3, r3, #4
 80077aa:	697a      	ldr	r2, [r7, #20]
 80077ac:	4313      	orrs	r3, r2
 80077ae:	617b      	str	r3, [r7, #20]

  if (IS_TIM_CCXN_INSTANCE(TIMx, TIM_CHANNEL_2))
 80077b0:	687b      	ldr	r3, [r7, #4]
 80077b2:	4a1d      	ldr	r2, [pc, #116]	; (8007828 <TIM_OC2_SetConfig+0xd0>)
 80077b4:	4293      	cmp	r3, r2
 80077b6:	d10d      	bne.n	80077d4 <TIM_OC2_SetConfig+0x7c>
  {
    assert_param(IS_TIM_OCN_POLARITY(OC_Config->OCNPolarity));

    /* Reset the Output N Polarity level */
    tmpccer &= ~TIM_CCER_CC2NP;
 80077b8:	697b      	ldr	r3, [r7, #20]
 80077ba:	f023 0380 	bic.w	r3, r3, #128	; 0x80
 80077be:	617b      	str	r3, [r7, #20]
    /* Set the Output N Polarity */
    tmpccer |= (OC_Config->OCNPolarity << 4U);
 80077c0:	683b      	ldr	r3, [r7, #0]
 80077c2:	68db      	ldr	r3, [r3, #12]
 80077c4:	011b      	lsls	r3, r3, #4
 80077c6:	697a      	ldr	r2, [r7, #20]
 80077c8:	4313      	orrs	r3, r2
 80077ca:	617b      	str	r3, [r7, #20]
    /* Reset the Output N State */
    tmpccer &= ~TIM_CCER_CC2NE;
 80077cc:	697b      	ldr	r3, [r7, #20]
 80077ce:	f023 0340 	bic.w	r3, r3, #64	; 0x40
 80077d2:	617b      	str	r3, [r7, #20]

  }

  if (IS_TIM_BREAK_INSTANCE(TIMx))
 80077d4:	687b      	ldr	r3, [r7, #4]
 80077d6:	4a14      	ldr	r2, [pc, #80]	; (8007828 <TIM_OC2_SetConfig+0xd0>)
 80077d8:	4293      	cmp	r3, r2
 80077da:	d113      	bne.n	8007804 <TIM_OC2_SetConfig+0xac>
    /* Check parameters */
    assert_param(IS_TIM_OCNIDLE_STATE(OC_Config->OCNIdleState));
    assert_param(IS_TIM_OCIDLE_STATE(OC_Config->OCIdleState));

    /* Reset the Output Compare and Output Compare N IDLE State */
    tmpcr2 &= ~TIM_CR2_OIS2;
 80077dc:	693b      	ldr	r3, [r7, #16]
 80077de:	f423 6380 	bic.w	r3, r3, #1024	; 0x400
 80077e2:	613b      	str	r3, [r7, #16]
    tmpcr2 &= ~TIM_CR2_OIS2N;
 80077e4:	693b      	ldr	r3, [r7, #16]
 80077e6:	f423 6300 	bic.w	r3, r3, #2048	; 0x800
 80077ea:	613b      	str	r3, [r7, #16]
    /* Set the Output Idle state */
    tmpcr2 |= (OC_Config->OCIdleState << 2U);
 80077ec:	683b      	ldr	r3, [r7, #0]
 80077ee:	695b      	ldr	r3, [r3, #20]
 80077f0:	009b      	lsls	r3, r3, #2
 80077f2:	693a      	ldr	r2, [r7, #16]
 80077f4:	4313      	orrs	r3, r2
 80077f6:	613b      	str	r3, [r7, #16]
    /* Set the Output N Idle state */
    tmpcr2 |= (OC_Config->OCNIdleState << 2U);
 80077f8:	683b      	ldr	r3, [r7, #0]
 80077fa:	699b      	ldr	r3, [r3, #24]
 80077fc:	009b      	lsls	r3, r3, #2
 80077fe:	693a      	ldr	r2, [r7, #16]
 8007800:	4313      	orrs	r3, r2
 8007802:	613b      	str	r3, [r7, #16]
  }

  /* Write to TIMx CR2 */
  TIMx->CR2 = tmpcr2;
 8007804:	687b      	ldr	r3, [r7, #4]
 8007806:	693a      	ldr	r2, [r7, #16]
 8007808:	605a      	str	r2, [r3, #4]

  /* Write to TIMx CCMR1 */
  TIMx->CCMR1 = tmpccmrx;
 800780a:	687b      	ldr	r3, [r7, #4]
 800780c:	68fa      	ldr	r2, [r7, #12]
 800780e:	619a      	str	r2, [r3, #24]

  /* Set the Capture Compare Register value */
  TIMx->CCR2 = OC_Config->Pulse;
 8007810:	683b      	ldr	r3, [r7, #0]
 8007812:	685a      	ldr	r2, [r3, #4]
 8007814:	687b      	ldr	r3, [r7, #4]
 8007816:	639a      	str	r2, [r3, #56]	; 0x38

  /* Write to TIMx CCER */
  TIMx->CCER = tmpccer;
 8007818:	687b      	ldr	r3, [r7, #4]
 800781a:	697a      	ldr	r2, [r7, #20]
 800781c:	621a      	str	r2, [r3, #32]
}
 800781e:	bf00      	nop
 8007820:	371c      	adds	r7, #28
 8007822:	46bd      	mov	sp, r7
 8007824:	bc80      	pop	{r7}
 8007826:	4770      	bx	lr
 8007828:	40012c00 	.word	0x40012c00

0800782c <TIM_OC3_SetConfig>:
  * @param  TIMx to select the TIM peripheral
  * @param  OC_Config The output configuration structure
  * @retval None
  */
static void TIM_OC3_SetConfig(TIM_TypeDef *TIMx, const TIM_OC_InitTypeDef *OC_Config)
{
 800782c:	b480      	push	{r7}
 800782e:	b087      	sub	sp, #28
 8007830:	af00      	add	r7, sp, #0
 8007832:	6078      	str	r0, [r7, #4]
 8007834:	6039      	str	r1, [r7, #0]
  uint32_t tmpccmrx;
  uint32_t tmpccer;
  uint32_t tmpcr2;

  /* Get the TIMx CCER register value */
  tmpccer = TIMx->CCER;
 8007836:	687b      	ldr	r3, [r7, #4]
 8007838:	6a1b      	ldr	r3, [r3, #32]
 800783a:	617b      	str	r3, [r7, #20]

  /* Disable the Channel 3: Reset the CC2E Bit */
  TIMx->CCER &= ~TIM_CCER_CC3E;
 800783c:	687b      	ldr	r3, [r7, #4]
 800783e:	6a1b      	ldr	r3, [r3, #32]
 8007840:	f423 7280 	bic.w	r2, r3, #256	; 0x100
 8007844:	687b      	ldr	r3, [r7, #4]
 8007846:	621a      	str	r2, [r3, #32]

  /* Get the TIMx CR2 register value */
  tmpcr2 =  TIMx->CR2;
 8007848:	687b      	ldr	r3, [r7, #4]
 800784a:	685b      	ldr	r3, [r3, #4]
 800784c:	613b      	str	r3, [r7, #16]

  /* Get the TIMx CCMR2 register value */
  tmpccmrx = TIMx->CCMR2;
 800784e:	687b      	ldr	r3, [r7, #4]
 8007850:	69db      	ldr	r3, [r3, #28]
 8007852:	60fb      	str	r3, [r7, #12]

  /* Reset the Output Compare mode and Capture/Compare selection Bits */
  tmpccmrx &= ~TIM_CCMR2_OC3M;
 8007854:	68fb      	ldr	r3, [r7, #12]
 8007856:	f023 0370 	bic.w	r3, r3, #112	; 0x70
 800785a:	60fb      	str	r3, [r7, #12]
  tmpccmrx &= ~TIM_CCMR2_CC3S;
 800785c:	68fb      	ldr	r3, [r7, #12]
 800785e:	f023 0303 	bic.w	r3, r3, #3
 8007862:	60fb      	str	r3, [r7, #12]
  /* Select the Output Compare Mode */
  tmpccmrx |= OC_Config->OCMode;
 8007864:	683b      	ldr	r3, [r7, #0]
 8007866:	681b      	ldr	r3, [r3, #0]
 8007868:	68fa      	ldr	r2, [r7, #12]
 800786a:	4313      	orrs	r3, r2
 800786c:	60fb      	str	r3, [r7, #12]

  /* Reset the Output Polarity level */
  tmpccer &= ~TIM_CCER_CC3P;
 800786e:	697b      	ldr	r3, [r7, #20]
 8007870:	f423 7300 	bic.w	r3, r3, #512	; 0x200
 8007874:	617b      	str	r3, [r7, #20]
  /* Set the Output Compare Polarity */
  tmpccer |= (OC_Config->OCPolarity << 8U);
 8007876:	683b      	ldr	r3, [r7, #0]
 8007878:	689b      	ldr	r3, [r3, #8]
 800787a:	021b      	lsls	r3, r3, #8
 800787c:	697a      	ldr	r2, [r7, #20]
 800787e:	4313      	orrs	r3, r2
 8007880:	617b      	str	r3, [r7, #20]

  if (IS_TIM_CCXN_INSTANCE(TIMx, TIM_CHANNEL_3))
 8007882:	687b      	ldr	r3, [r7, #4]
 8007884:	4a1d      	ldr	r2, [pc, #116]	; (80078fc <TIM_OC3_SetConfig+0xd0>)
 8007886:	4293      	cmp	r3, r2
 8007888:	d10d      	bne.n	80078a6 <TIM_OC3_SetConfig+0x7a>
  {
    assert_param(IS_TIM_OCN_POLARITY(OC_Config->OCNPolarity));

    /* Reset the Output N Polarity level */
    tmpccer &= ~TIM_CCER_CC3NP;
 800788a:	697b      	ldr	r3, [r7, #20]
 800788c:	f423 6300 	bic.w	r3, r3, #2048	; 0x800
 8007890:	617b      	str	r3, [r7, #20]
    /* Set the Output N Polarity */
    tmpccer |= (OC_Config->OCNPolarity << 8U);
 8007892:	683b      	ldr	r3, [r7, #0]
 8007894:	68db      	ldr	r3, [r3, #12]
 8007896:	021b      	lsls	r3, r3, #8
 8007898:	697a      	ldr	r2, [r7, #20]
 800789a:	4313      	orrs	r3, r2
 800789c:	617b      	str	r3, [r7, #20]
    /* Reset the Output N State */
    tmpccer &= ~TIM_CCER_CC3NE;
 800789e:	697b      	ldr	r3, [r7, #20]
 80078a0:	f423 6380 	bic.w	r3, r3, #1024	; 0x400
 80078a4:	617b      	str	r3, [r7, #20]
  }

  if (IS_TIM_BREAK_INSTANCE(TIMx))
 80078a6:	687b      	ldr	r3, [r7, #4]
 80078a8:	4a14      	ldr	r2, [pc, #80]	; (80078fc <TIM_OC3_SetConfig+0xd0>)
 80078aa:	4293      	cmp	r3, r2
 80078ac:	d113      	bne.n	80078d6 <TIM_OC3_SetConfig+0xaa>
    /* Check parameters */
    assert_param(IS_TIM_OCNIDLE_STATE(OC_Config->OCNIdleState));
    assert_param(IS_TIM_OCIDLE_STATE(OC_Config->OCIdleState));

    /* Reset the Output Compare and Output Compare N IDLE State */
    tmpcr2 &= ~TIM_CR2_OIS3;
 80078ae:	693b      	ldr	r3, [r7, #16]
 80078b0:	f423 5380 	bic.w	r3, r3, #4096	; 0x1000
 80078b4:	613b      	str	r3, [r7, #16]
    tmpcr2 &= ~TIM_CR2_OIS3N;
 80078b6:	693b      	ldr	r3, [r7, #16]
 80078b8:	f423 5300 	bic.w	r3, r3, #8192	; 0x2000
 80078bc:	613b      	str	r3, [r7, #16]
    /* Set the Output Idle state */
    tmpcr2 |= (OC_Config->OCIdleState << 4U);
 80078be:	683b      	ldr	r3, [r7, #0]
 80078c0:	695b      	ldr	r3, [r3, #20]
 80078c2:	011b      	lsls	r3, r3, #4
 80078c4:	693a      	ldr	r2, [r7, #16]
 80078c6:	4313      	orrs	r3, r2
 80078c8:	613b      	str	r3, [r7, #16]
    /* Set the Output N Idle state */
    tmpcr2 |= (OC_Config->OCNIdleState << 4U);
 80078ca:	683b      	ldr	r3, [r7, #0]
 80078cc:	699b      	ldr	r3, [r3, #24]
 80078ce:	011b      	lsls	r3, r3, #4
 80078d0:	693a      	ldr	r2, [r7, #16]
 80078d2:	4313      	orrs	r3, r2
 80078d4:	613b      	str	r3, [r7, #16]
  }

  /* Write to TIMx CR2 */
  TIMx->CR2 = tmpcr2;
 80078d6:	687b      	ldr	r3, [r7, #4]
 80078d8:	693a      	ldr	r2, [r7, #16]
 80078da:	605a      	str	r2, [r3, #4]

  /* Write to TIMx CCMR2 */
  TIMx->CCMR2 = tmpccmrx;
 80078dc:	687b      	ldr	r3, [r7, #4]
 80078de:	68fa      	ldr	r2, [r7, #12]
 80078e0:	61da      	str	r2, [r3, #28]

  /* Set the Capture Compare Register value */
  TIMx->CCR3 = OC_Config->Pulse;
 80078e2:	683b      	ldr	r3, [r7, #0]
 80078e4:	685a      	ldr	r2, [r3, #4]
 80078e6:	687b      	ldr	r3, [r7, #4]
 80078e8:	63da      	str	r2, [r3, #60]	; 0x3c

  /* Write to TIMx CCER */
  TIMx->CCER = tmpccer;
 80078ea:	687b      	ldr	r3, [r7, #4]
 80078ec:	697a      	ldr	r2, [r7, #20]
 80078ee:	621a      	str	r2, [r3, #32]
}
 80078f0:	bf00      	nop
 80078f2:	371c      	adds	r7, #28
 80078f4:	46bd      	mov	sp, r7
 80078f6:	bc80      	pop	{r7}
 80078f8:	4770      	bx	lr
 80078fa:	bf00      	nop
 80078fc:	40012c00 	.word	0x40012c00

08007900 <TIM_OC4_SetConfig>:
  * @param  TIMx to select the TIM peripheral
  * @param  OC_Config The output configuration structure
  * @retval None
  */
static void TIM_OC4_SetConfig(TIM_TypeDef *TIMx, const TIM_OC_InitTypeDef *OC_Config)
{
 8007900:	b480      	push	{r7}
 8007902:	b087      	sub	sp, #28
 8007904:	af00      	add	r7, sp, #0
 8007906:	6078      	str	r0, [r7, #4]
 8007908:	6039      	str	r1, [r7, #0]
  uint32_t tmpccmrx;
  uint32_t tmpccer;
  uint32_t tmpcr2;

  /* Get the TIMx CCER register value */
  tmpccer = TIMx->CCER;
 800790a:	687b      	ldr	r3, [r7, #4]
 800790c:	6a1b      	ldr	r3, [r3, #32]
 800790e:	613b      	str	r3, [r7, #16]

  /* Disable the Channel 4: Reset the CC4E Bit */
  TIMx->CCER &= ~TIM_CCER_CC4E;
 8007910:	687b      	ldr	r3, [r7, #4]
 8007912:	6a1b      	ldr	r3, [r3, #32]
 8007914:	f423 5280 	bic.w	r2, r3, #4096	; 0x1000
 8007918:	687b      	ldr	r3, [r7, #4]
 800791a:	621a      	str	r2, [r3, #32]

  /* Get the TIMx CR2 register value */
  tmpcr2 =  TIMx->CR2;
 800791c:	687b      	ldr	r3, [r7, #4]
 800791e:	685b      	ldr	r3, [r3, #4]
 8007920:	617b      	str	r3, [r7, #20]

  /* Get the TIMx CCMR2 register value */
  tmpccmrx = TIMx->CCMR2;
 8007922:	687b      	ldr	r3, [r7, #4]
 8007924:	69db      	ldr	r3, [r3, #28]
 8007926:	60fb      	str	r3, [r7, #12]

  /* Reset the Output Compare mode and Capture/Compare selection Bits */
  tmpccmrx &= ~TIM_CCMR2_OC4M;
 8007928:	68fb      	ldr	r3, [r7, #12]
 800792a:	f423 43e0 	bic.w	r3, r3, #28672	; 0x7000
 800792e:	60fb      	str	r3, [r7, #12]
  tmpccmrx &= ~TIM_CCMR2_CC4S;
 8007930:	68fb      	ldr	r3, [r7, #12]
 8007932:	f423 7340 	bic.w	r3, r3, #768	; 0x300
 8007936:	60fb      	str	r3, [r7, #12]

  /* Select the Output Compare Mode */
  tmpccmrx |= (OC_Config->OCMode << 8U);
 8007938:	683b      	ldr	r3, [r7, #0]
 800793a:	681b      	ldr	r3, [r3, #0]
 800793c:	021b      	lsls	r3, r3, #8
 800793e:	68fa      	ldr	r2, [r7, #12]
 8007940:	4313      	orrs	r3, r2
 8007942:	60fb      	str	r3, [r7, #12]

  /* Reset the Output Polarity level */
  tmpccer &= ~TIM_CCER_CC4P;
 8007944:	693b      	ldr	r3, [r7, #16]
 8007946:	f423 5300 	bic.w	r3, r3, #8192	; 0x2000
 800794a:	613b      	str	r3, [r7, #16]
  /* Set the Output Compare Polarity */
  tmpccer |= (OC_Config->OCPolarity << 12U);
 800794c:	683b      	ldr	r3, [r7, #0]
 800794e:	689b      	ldr	r3, [r3, #8]
 8007950:	031b      	lsls	r3, r3, #12
 8007952:	693a      	ldr	r2, [r7, #16]
 8007954:	4313      	orrs	r3, r2
 8007956:	613b      	str	r3, [r7, #16]

  if (IS_TIM_BREAK_INSTANCE(TIMx))
 8007958:	687b      	ldr	r3, [r7, #4]
 800795a:	4a0f      	ldr	r2, [pc, #60]	; (8007998 <TIM_OC4_SetConfig+0x98>)
 800795c:	4293      	cmp	r3, r2
 800795e:	d109      	bne.n	8007974 <TIM_OC4_SetConfig+0x74>
  {
    /* Check parameters */
    assert_param(IS_TIM_OCIDLE_STATE(OC_Config->OCIdleState));

    /* Reset the Output Compare IDLE State */
    tmpcr2 &= ~TIM_CR2_OIS4;
 8007960:	697b      	ldr	r3, [r7, #20]
 8007962:	f423 4380 	bic.w	r3, r3, #16384	; 0x4000
 8007966:	617b      	str	r3, [r7, #20]

    /* Set the Output Idle state */
    tmpcr2 |= (OC_Config->OCIdleState << 6U);
 8007968:	683b      	ldr	r3, [r7, #0]
 800796a:	695b      	ldr	r3, [r3, #20]
 800796c:	019b      	lsls	r3, r3, #6
 800796e:	697a      	ldr	r2, [r7, #20]
 8007970:	4313      	orrs	r3, r2
 8007972:	617b      	str	r3, [r7, #20]
  }

  /* Write to TIMx CR2 */
  TIMx->CR2 = tmpcr2;
 8007974:	687b      	ldr	r3, [r7, #4]
 8007976:	697a      	ldr	r2, [r7, #20]
 8007978:	605a      	str	r2, [r3, #4]

  /* Write to TIMx CCMR2 */
  TIMx->CCMR2 = tmpccmrx;
 800797a:	687b      	ldr	r3, [r7, #4]
 800797c:	68fa      	ldr	r2, [r7, #12]
 800797e:	61da      	str	r2, [r3, #28]

  /* Set the Capture Compare Register value */
  TIMx->CCR4 = OC_Config->Pulse;
 8007980:	683b      	ldr	r3, [r7, #0]
 8007982:	685a      	ldr	r2, [r3, #4]
 8007984:	687b      	ldr	r3, [r7, #4]
 8007986:	641a      	str	r2, [r3, #64]	; 0x40

  /* Write to TIMx CCER */
  TIMx->CCER = tmpccer;
 8007988:	687b      	ldr	r3, [r7, #4]
 800798a:	693a      	ldr	r2, [r7, #16]
 800798c:	621a      	str	r2, [r3, #32]
}
 800798e:	bf00      	nop
 8007990:	371c      	adds	r7, #28
 8007992:	46bd      	mov	sp, r7
 8007994:	bc80      	pop	{r7}
 8007996:	4770      	bx	lr
 8007998:	40012c00 	.word	0x40012c00

0800799c <TIM_TI1_ConfigInputStage>:
  * @param  TIM_ICFilter Specifies the Input Capture Filter.
  *          This parameter must be a value between 0x00 and 0x0F.
  * @retval None
  */
static void TIM_TI1_ConfigInputStage(TIM_TypeDef *TIMx, uint32_t TIM_ICPolarity, uint32_t TIM_ICFilter)
{
 800799c:	b480      	push	{r7}
 800799e:	b087      	sub	sp, #28
 80079a0:	af00      	add	r7, sp, #0
 80079a2:	60f8      	str	r0, [r7, #12]
 80079a4:	60b9      	str	r1, [r7, #8]
 80079a6:	607a      	str	r2, [r7, #4]
  uint32_t tmpccmr1;
  uint32_t tmpccer;

  /* Disable the Channel 1: Reset the CC1E Bit */
  tmpccer = TIMx->CCER;
 80079a8:	68fb      	ldr	r3, [r7, #12]
 80079aa:	6a1b      	ldr	r3, [r3, #32]
 80079ac:	617b      	str	r3, [r7, #20]
  TIMx->CCER &= ~TIM_CCER_CC1E;
 80079ae:	68fb      	ldr	r3, [r7, #12]
 80079b0:	6a1b      	ldr	r3, [r3, #32]
 80079b2:	f023 0201 	bic.w	r2, r3, #1
 80079b6:	68fb      	ldr	r3, [r7, #12]
 80079b8:	621a      	str	r2, [r3, #32]
  tmpccmr1 = TIMx->CCMR1;
 80079ba:	68fb      	ldr	r3, [r7, #12]
 80079bc:	699b      	ldr	r3, [r3, #24]
 80079be:	613b      	str	r3, [r7, #16]

  /* Set the filter */
  tmpccmr1 &= ~TIM_CCMR1_IC1F;
 80079c0:	693b      	ldr	r3, [r7, #16]
 80079c2:	f023 03f0 	bic.w	r3, r3, #240	; 0xf0
 80079c6:	613b      	str	r3, [r7, #16]
  tmpccmr1 |= (TIM_ICFilter << 4U);
 80079c8:	687b      	ldr	r3, [r7, #4]
 80079ca:	011b      	lsls	r3, r3, #4
 80079cc:	693a      	ldr	r2, [r7, #16]
 80079ce:	4313      	orrs	r3, r2
 80079d0:	613b      	str	r3, [r7, #16]

  /* Select the Polarity and set the CC1E Bit */
  tmpccer &= ~(TIM_CCER_CC1P | TIM_CCER_CC1NP);
 80079d2:	697b      	ldr	r3, [r7, #20]
 80079d4:	f023 030a 	bic.w	r3, r3, #10
 80079d8:	617b      	str	r3, [r7, #20]
  tmpccer |= TIM_ICPolarity;
 80079da:	697a      	ldr	r2, [r7, #20]
 80079dc:	68bb      	ldr	r3, [r7, #8]
 80079de:	4313      	orrs	r3, r2
 80079e0:	617b      	str	r3, [r7, #20]

  /* Write to TIMx CCMR1 and CCER registers */
  TIMx->CCMR1 = tmpccmr1;
 80079e2:	68fb      	ldr	r3, [r7, #12]
 80079e4:	693a      	ldr	r2, [r7, #16]
 80079e6:	619a      	str	r2, [r3, #24]
  TIMx->CCER = tmpccer;
 80079e8:	68fb      	ldr	r3, [r7, #12]
 80079ea:	697a      	ldr	r2, [r7, #20]
 80079ec:	621a      	str	r2, [r3, #32]
}
 80079ee:	bf00      	nop
 80079f0:	371c      	adds	r7, #28
 80079f2:	46bd      	mov	sp, r7
 80079f4:	bc80      	pop	{r7}
 80079f6:	4770      	bx	lr

080079f8 <TIM_TI2_ConfigInputStage>:
  * @param  TIM_ICFilter Specifies the Input Capture Filter.
  *          This parameter must be a value between 0x00 and 0x0F.
  * @retval None
  */
static void TIM_TI2_ConfigInputStage(TIM_TypeDef *TIMx, uint32_t TIM_ICPolarity, uint32_t TIM_ICFilter)
{
 80079f8:	b480      	push	{r7}
 80079fa:	b087      	sub	sp, #28
 80079fc:	af00      	add	r7, sp, #0
 80079fe:	60f8      	str	r0, [r7, #12]
 8007a00:	60b9      	str	r1, [r7, #8]
 8007a02:	607a      	str	r2, [r7, #4]
  uint32_t tmpccmr1;
  uint32_t tmpccer;

  /* Disable the Channel 2: Reset the CC2E Bit */
  tmpccer = TIMx->CCER;
 8007a04:	68fb      	ldr	r3, [r7, #12]
 8007a06:	6a1b      	ldr	r3, [r3, #32]
 8007a08:	617b      	str	r3, [r7, #20]
  TIMx->CCER &= ~TIM_CCER_CC2E;
 8007a0a:	68fb      	ldr	r3, [r7, #12]
 8007a0c:	6a1b      	ldr	r3, [r3, #32]
 8007a0e:	f023 0210 	bic.w	r2, r3, #16
 8007a12:	68fb      	ldr	r3, [r7, #12]
 8007a14:	621a      	str	r2, [r3, #32]
  tmpccmr1 = TIMx->CCMR1;
 8007a16:	68fb      	ldr	r3, [r7, #12]
 8007a18:	699b      	ldr	r3, [r3, #24]
 8007a1a:	613b      	str	r3, [r7, #16]

  /* Set the filter */
  tmpccmr1 &= ~TIM_CCMR1_IC2F;
 8007a1c:	693b      	ldr	r3, [r7, #16]
 8007a1e:	f423 4370 	bic.w	r3, r3, #61440	; 0xf000
 8007a22:	613b      	str	r3, [r7, #16]
  tmpccmr1 |= (TIM_ICFilter << 12U);
 8007a24:	687b      	ldr	r3, [r7, #4]
 8007a26:	031b      	lsls	r3, r3, #12
 8007a28:	693a      	ldr	r2, [r7, #16]
 8007a2a:	4313      	orrs	r3, r2
 8007a2c:	613b      	str	r3, [r7, #16]

  /* Select the Polarity and set the CC2E Bit */
  tmpccer &= ~(TIM_CCER_CC2P | TIM_CCER_CC2NP);
 8007a2e:	697b      	ldr	r3, [r7, #20]
 8007a30:	f023 03a0 	bic.w	r3, r3, #160	; 0xa0
 8007a34:	617b      	str	r3, [r7, #20]
  tmpccer |= (TIM_ICPolarity << 4U);
 8007a36:	68bb      	ldr	r3, [r7, #8]
 8007a38:	011b      	lsls	r3, r3, #4
 8007a3a:	697a      	ldr	r2, [r7, #20]
 8007a3c:	4313      	orrs	r3, r2
 8007a3e:	617b      	str	r3, [r7, #20]

  /* Write to TIMx CCMR1 and CCER registers */
  TIMx->CCMR1 = tmpccmr1 ;
 8007a40:	68fb      	ldr	r3, [r7, #12]
 8007a42:	693a      	ldr	r2, [r7, #16]
 8007a44:	619a      	str	r2, [r3, #24]
  TIMx->CCER = tmpccer;
 8007a46:	68fb      	ldr	r3, [r7, #12]
 8007a48:	697a      	ldr	r2, [r7, #20]
 8007a4a:	621a      	str	r2, [r3, #32]
}
 8007a4c:	bf00      	nop
 8007a4e:	371c      	adds	r7, #28
 8007a50:	46bd      	mov	sp, r7
 8007a52:	bc80      	pop	{r7}
 8007a54:	4770      	bx	lr

08007a56 <TIM_ITRx_SetConfig>:
  *            @arg TIM_TS_TI2FP2: Filtered Timer Input 2
  *            @arg TIM_TS_ETRF: External Trigger input
  * @retval None
  */
static void TIM_ITRx_SetConfig(TIM_TypeDef *TIMx, uint32_t InputTriggerSource)
{
 8007a56:	b480      	push	{r7}
 8007a58:	b085      	sub	sp, #20
 8007a5a:	af00      	add	r7, sp, #0
 8007a5c:	6078      	str	r0, [r7, #4]
 8007a5e:	6039      	str	r1, [r7, #0]
  uint32_t tmpsmcr;

  /* Get the TIMx SMCR register value */
  tmpsmcr = TIMx->SMCR;
 8007a60:	687b      	ldr	r3, [r7, #4]
 8007a62:	689b      	ldr	r3, [r3, #8]
 8007a64:	60fb      	str	r3, [r7, #12]
  /* Reset the TS Bits */
  tmpsmcr &= ~TIM_SMCR_TS;
 8007a66:	68fb      	ldr	r3, [r7, #12]
 8007a68:	f023 0370 	bic.w	r3, r3, #112	; 0x70
 8007a6c:	60fb      	str	r3, [r7, #12]
  /* Set the Input Trigger source and the slave mode*/
  tmpsmcr |= (InputTriggerSource | TIM_SLAVEMODE_EXTERNAL1);
 8007a6e:	683a      	ldr	r2, [r7, #0]
 8007a70:	68fb      	ldr	r3, [r7, #12]
 8007a72:	4313      	orrs	r3, r2
 8007a74:	f043 0307 	orr.w	r3, r3, #7
 8007a78:	60fb      	str	r3, [r7, #12]
  /* Write to TIMx SMCR */
  TIMx->SMCR = tmpsmcr;
 8007a7a:	687b      	ldr	r3, [r7, #4]
 8007a7c:	68fa      	ldr	r2, [r7, #12]
 8007a7e:	609a      	str	r2, [r3, #8]
}
 8007a80:	bf00      	nop
 8007a82:	3714      	adds	r7, #20
 8007a84:	46bd      	mov	sp, r7
 8007a86:	bc80      	pop	{r7}
 8007a88:	4770      	bx	lr

08007a8a <TIM_ETR_SetConfig>:
  *          This parameter must be a value between 0x00 and 0x0F
  * @retval None
  */
void TIM_ETR_SetConfig(TIM_TypeDef *TIMx, uint32_t TIM_ExtTRGPrescaler,
                       uint32_t TIM_ExtTRGPolarity, uint32_t ExtTRGFilter)
{
 8007a8a:	b480      	push	{r7}
 8007a8c:	b087      	sub	sp, #28
 8007a8e:	af00      	add	r7, sp, #0
 8007a90:	60f8      	str	r0, [r7, #12]
 8007a92:	60b9      	str	r1, [r7, #8]
 8007a94:	607a      	str	r2, [r7, #4]
 8007a96:	603b      	str	r3, [r7, #0]
  uint32_t tmpsmcr;

  tmpsmcr = TIMx->SMCR;
 8007a98:	68fb      	ldr	r3, [r7, #12]
 8007a9a:	689b      	ldr	r3, [r3, #8]
 8007a9c:	617b      	str	r3, [r7, #20]

  /* Reset the ETR Bits */
  tmpsmcr &= ~(TIM_SMCR_ETF | TIM_SMCR_ETPS | TIM_SMCR_ECE | TIM_SMCR_ETP);
 8007a9e:	697b      	ldr	r3, [r7, #20]
 8007aa0:	f423 437f 	bic.w	r3, r3, #65280	; 0xff00
 8007aa4:	617b      	str	r3, [r7, #20]

  /* Set the Prescaler, the Filter value and the Polarity */
  tmpsmcr |= (uint32_t)(TIM_ExtTRGPrescaler | (TIM_ExtTRGPolarity | (ExtTRGFilter << 8U)));
 8007aa6:	683b      	ldr	r3, [r7, #0]
 8007aa8:	021a      	lsls	r2, r3, #8
 8007aaa:	687b      	ldr	r3, [r7, #4]
 8007aac:	431a      	orrs	r2, r3
 8007aae:	68bb      	ldr	r3, [r7, #8]
 8007ab0:	4313      	orrs	r3, r2
 8007ab2:	697a      	ldr	r2, [r7, #20]
 8007ab4:	4313      	orrs	r3, r2
 8007ab6:	617b      	str	r3, [r7, #20]

  /* Write to TIMx SMCR */
  TIMx->SMCR = tmpsmcr;
 8007ab8:	68fb      	ldr	r3, [r7, #12]
 8007aba:	697a      	ldr	r2, [r7, #20]
 8007abc:	609a      	str	r2, [r3, #8]
}
 8007abe:	bf00      	nop
 8007ac0:	371c      	adds	r7, #28
 8007ac2:	46bd      	mov	sp, r7
 8007ac4:	bc80      	pop	{r7}
 8007ac6:	4770      	bx	lr

08007ac8 <TIM_CCxChannelCmd>:
  * @param  ChannelState specifies the TIM Channel CCxE bit new state.
  *          This parameter can be: TIM_CCx_ENABLE or TIM_CCx_DISABLE.
  * @retval None
  */
void TIM_CCxChannelCmd(TIM_TypeDef *TIMx, uint32_t Channel, uint32_t ChannelState)
{
 8007ac8:	b480      	push	{r7}
 8007aca:	b087      	sub	sp, #28
 8007acc:	af00      	add	r7, sp, #0
 8007ace:	60f8      	str	r0, [r7, #12]
 8007ad0:	60b9      	str	r1, [r7, #8]
 8007ad2:	607a      	str	r2, [r7, #4]

  /* Check the parameters */
  assert_param(IS_TIM_CC1_INSTANCE(TIMx));
  assert_param(IS_TIM_CHANNELS(Channel));

  tmp = TIM_CCER_CC1E << (Channel & 0x1FU); /* 0x1FU = 31 bits max shift */
 8007ad4:	68bb      	ldr	r3, [r7, #8]
 8007ad6:	f003 031f 	and.w	r3, r3, #31
 8007ada:	2201      	movs	r2, #1
 8007adc:	fa02 f303 	lsl.w	r3, r2, r3
 8007ae0:	617b      	str	r3, [r7, #20]

  /* Reset the CCxE Bit */
  TIMx->CCER &= ~tmp;
 8007ae2:	68fb      	ldr	r3, [r7, #12]
 8007ae4:	6a1a      	ldr	r2, [r3, #32]
 8007ae6:	697b      	ldr	r3, [r7, #20]
 8007ae8:	43db      	mvns	r3, r3
 8007aea:	401a      	ands	r2, r3
 8007aec:	68fb      	ldr	r3, [r7, #12]
 8007aee:	621a      	str	r2, [r3, #32]

  /* Set or reset the CCxE Bit */
  TIMx->CCER |= (uint32_t)(ChannelState << (Channel & 0x1FU)); /* 0x1FU = 31 bits max shift */
 8007af0:	68fb      	ldr	r3, [r7, #12]
 8007af2:	6a1a      	ldr	r2, [r3, #32]
 8007af4:	68bb      	ldr	r3, [r7, #8]
 8007af6:	f003 031f 	and.w	r3, r3, #31
 8007afa:	6879      	ldr	r1, [r7, #4]
 8007afc:	fa01 f303 	lsl.w	r3, r1, r3
 8007b00:	431a      	orrs	r2, r3
 8007b02:	68fb      	ldr	r3, [r7, #12]
 8007b04:	621a      	str	r2, [r3, #32]
}
 8007b06:	bf00      	nop
 8007b08:	371c      	adds	r7, #28
 8007b0a:	46bd      	mov	sp, r7
 8007b0c:	bc80      	pop	{r7}
 8007b0e:	4770      	bx	lr

08007b10 <HAL_TIMEx_MasterConfigSynchronization>:
  *         mode.
  * @retval HAL status
  */
HAL_StatusTypeDef HAL_TIMEx_MasterConfigSynchronization(TIM_HandleTypeDef *htim,
                                                        const TIM_MasterConfigTypeDef *sMasterConfig)
{
 8007b10:	b480      	push	{r7}
 8007b12:	b085      	sub	sp, #20
 8007b14:	af00      	add	r7, sp, #0
 8007b16:	6078      	str	r0, [r7, #4]
 8007b18:	6039      	str	r1, [r7, #0]
  assert_param(IS_TIM_MASTER_INSTANCE(htim->Instance));
  assert_param(IS_TIM_TRGO_SOURCE(sMasterConfig->MasterOutputTrigger));
  assert_param(IS_TIM_MSM_STATE(sMasterConfig->MasterSlaveMode));

  /* Check input state */
  __HAL_LOCK(htim);
 8007b1a:	687b      	ldr	r3, [r7, #4]
 8007b1c:	f893 303c 	ldrb.w	r3, [r3, #60]	; 0x3c
 8007b20:	2b01      	cmp	r3, #1
 8007b22:	d101      	bne.n	8007b28 <HAL_TIMEx_MasterConfigSynchronization+0x18>
 8007b24:	2302      	movs	r3, #2
 8007b26:	e046      	b.n	8007bb6 <HAL_TIMEx_MasterConfigSynchronization+0xa6>
 8007b28:	687b      	ldr	r3, [r7, #4]
 8007b2a:	2201      	movs	r2, #1
 8007b2c:	f883 203c 	strb.w	r2, [r3, #60]	; 0x3c

  /* Change the handler state */
  htim->State = HAL_TIM_STATE_BUSY;
 8007b30:	687b      	ldr	r3, [r7, #4]
 8007b32:	2202      	movs	r2, #2
 8007b34:	f883 203d 	strb.w	r2, [r3, #61]	; 0x3d

  /* Get the TIMx CR2 register value */
  tmpcr2 = htim->Instance->CR2;
 8007b38:	687b      	ldr	r3, [r7, #4]
 8007b3a:	681b      	ldr	r3, [r3, #0]
 8007b3c:	685b      	ldr	r3, [r3, #4]
 8007b3e:	60fb      	str	r3, [r7, #12]

  /* Get the TIMx SMCR register value */
  tmpsmcr = htim->Instance->SMCR;
 8007b40:	687b      	ldr	r3, [r7, #4]
 8007b42:	681b      	ldr	r3, [r3, #0]
 8007b44:	689b      	ldr	r3, [r3, #8]
 8007b46:	60bb      	str	r3, [r7, #8]

  /* Reset the MMS Bits */
  tmpcr2 &= ~TIM_CR2_MMS;
 8007b48:	68fb      	ldr	r3, [r7, #12]
 8007b4a:	f023 0370 	bic.w	r3, r3, #112	; 0x70
 8007b4e:	60fb      	str	r3, [r7, #12]
  /* Select the TRGO source */
  tmpcr2 |=  sMasterConfig->MasterOutputTrigger;
 8007b50:	683b      	ldr	r3, [r7, #0]
 8007b52:	681b      	ldr	r3, [r3, #0]
 8007b54:	68fa      	ldr	r2, [r7, #12]
 8007b56:	4313      	orrs	r3, r2
 8007b58:	60fb      	str	r3, [r7, #12]

  /* Update TIMx CR2 */
  htim->Instance->CR2 = tmpcr2;
 8007b5a:	687b      	ldr	r3, [r7, #4]
 8007b5c:	681b      	ldr	r3, [r3, #0]
 8007b5e:	68fa      	ldr	r2, [r7, #12]
 8007b60:	605a      	str	r2, [r3, #4]

  if (IS_TIM_SLAVE_INSTANCE(htim->Instance))
 8007b62:	687b      	ldr	r3, [r7, #4]
 8007b64:	681b      	ldr	r3, [r3, #0]
 8007b66:	4a16      	ldr	r2, [pc, #88]	; (8007bc0 <HAL_TIMEx_MasterConfigSynchronization+0xb0>)
 8007b68:	4293      	cmp	r3, r2
 8007b6a:	d00e      	beq.n	8007b8a <HAL_TIMEx_MasterConfigSynchronization+0x7a>
 8007b6c:	687b      	ldr	r3, [r7, #4]
 8007b6e:	681b      	ldr	r3, [r3, #0]
 8007b70:	f1b3 4f80 	cmp.w	r3, #1073741824	; 0x40000000
 8007b74:	d009      	beq.n	8007b8a <HAL_TIMEx_MasterConfigSynchronization+0x7a>
 8007b76:	687b      	ldr	r3, [r7, #4]
 8007b78:	681b      	ldr	r3, [r3, #0]
 8007b7a:	4a12      	ldr	r2, [pc, #72]	; (8007bc4 <HAL_TIMEx_MasterConfigSynchronization+0xb4>)
 8007b7c:	4293      	cmp	r3, r2
 8007b7e:	d004      	beq.n	8007b8a <HAL_TIMEx_MasterConfigSynchronization+0x7a>
 8007b80:	687b      	ldr	r3, [r7, #4]
 8007b82:	681b      	ldr	r3, [r3, #0]
 8007b84:	4a10      	ldr	r2, [pc, #64]	; (8007bc8 <HAL_TIMEx_MasterConfigSynchronization+0xb8>)
 8007b86:	4293      	cmp	r3, r2
 8007b88:	d10c      	bne.n	8007ba4 <HAL_TIMEx_MasterConfigSynchronization+0x94>
  {
    /* Reset the MSM Bit */
    tmpsmcr &= ~TIM_SMCR_MSM;
 8007b8a:	68bb      	ldr	r3, [r7, #8]
 8007b8c:	f023 0380 	bic.w	r3, r3, #128	; 0x80
 8007b90:	60bb      	str	r3, [r7, #8]
    /* Set master mode */
    tmpsmcr |= sMasterConfig->MasterSlaveMode;
 8007b92:	683b      	ldr	r3, [r7, #0]
 8007b94:	685b      	ldr	r3, [r3, #4]
 8007b96:	68ba      	ldr	r2, [r7, #8]
 8007b98:	4313      	orrs	r3, r2
 8007b9a:	60bb      	str	r3, [r7, #8]

    /* Update TIMx SMCR */
    htim->Instance->SMCR = tmpsmcr;
 8007b9c:	687b      	ldr	r3, [r7, #4]
 8007b9e:	681b      	ldr	r3, [r3, #0]
 8007ba0:	68ba      	ldr	r2, [r7, #8]
 8007ba2:	609a      	str	r2, [r3, #8]
  }

  /* Change the htim state */
  htim->State = HAL_TIM_STATE_READY;
 8007ba4:	687b      	ldr	r3, [r7, #4]
 8007ba6:	2201      	movs	r2, #1
 8007ba8:	f883 203d 	strb.w	r2, [r3, #61]	; 0x3d

  __HAL_UNLOCK(htim);
 8007bac:	687b      	ldr	r3, [r7, #4]
 8007bae:	2200      	movs	r2, #0
 8007bb0:	f883 203c 	strb.w	r2, [r3, #60]	; 0x3c

  return HAL_OK;
 8007bb4:	2300      	movs	r3, #0
}
 8007bb6:	4618      	mov	r0, r3
 8007bb8:	3714      	adds	r7, #20
 8007bba:	46bd      	mov	sp, r7
 8007bbc:	bc80      	pop	{r7}
 8007bbe:	4770      	bx	lr
 8007bc0:	40012c00 	.word	0x40012c00
 8007bc4:	40000400 	.word	0x40000400
 8007bc8:	40000800 	.word	0x40000800

08007bcc <HAL_TIMEx_CommutCallback>:
  * @brief  Hall commutation changed callback in non-blocking mode
  * @param  htim TIM handle
  * @retval None
  */
__weak void HAL_TIMEx_CommutCallback(TIM_HandleTypeDef *htim)
{
 8007bcc:	b480      	push	{r7}
 8007bce:	b083      	sub	sp, #12
 8007bd0:	af00      	add	r7, sp, #0
 8007bd2:	6078      	str	r0, [r7, #4]
  UNUSED(htim);

  /* NOTE : This function should not be modified, when the callback is needed,
            the HAL_TIMEx_CommutCallback could be implemented in the user file
   */
}
 8007bd4:	bf00      	nop
 8007bd6:	370c      	adds	r7, #12
 8007bd8:	46bd      	mov	sp, r7
 8007bda:	bc80      	pop	{r7}
 8007bdc:	4770      	bx	lr

08007bde <HAL_TIMEx_BreakCallback>:
  * @brief  Hall Break detection callback in non-blocking mode
  * @param  htim TIM handle
  * @retval None
  */
__weak void HAL_TIMEx_BreakCallback(TIM_HandleTypeDef *htim)
{
 8007bde:	b480      	push	{r7}
 8007be0:	b083      	sub	sp, #12
 8007be2:	af00      	add	r7, sp, #0
 8007be4:	6078      	str	r0, [r7, #4]
  UNUSED(htim);

  /* NOTE : This function should not be modified, when the callback is needed,
            the HAL_TIMEx_BreakCallback could be implemented in the user file
   */
}
 8007be6:	bf00      	nop
 8007be8:	370c      	adds	r7, #12
 8007bea:	46bd      	mov	sp, r7
 8007bec:	bc80      	pop	{r7}
 8007bee:	4770      	bx	lr

08007bf0 <HAL_UART_Init>:
  * @param  huart  Pointer to a UART_HandleTypeDef structure that contains
  *                the configuration information for the specified UART module.
  * @retval HAL status
  */
HAL_StatusTypeDef HAL_UART_Init(UART_HandleTypeDef *huart)
{
 8007bf0:	b580      	push	{r7, lr}
 8007bf2:	b082      	sub	sp, #8
 8007bf4:	af00      	add	r7, sp, #0
 8007bf6:	6078      	str	r0, [r7, #4]
  /* Check the UART handle allocation */
  if (huart == NULL)
 8007bf8:	687b      	ldr	r3, [r7, #4]
 8007bfa:	2b00      	cmp	r3, #0
 8007bfc:	d101      	bne.n	8007c02 <HAL_UART_Init+0x12>
  {
    return HAL_ERROR;
 8007bfe:	2301      	movs	r3, #1
 8007c00:	e042      	b.n	8007c88 <HAL_UART_Init+0x98>
  assert_param(IS_UART_WORD_LENGTH(huart->Init.WordLength));
#if defined(USART_CR1_OVER8)
  assert_param(IS_UART_OVERSAMPLING(huart->Init.OverSampling));
#endif /* USART_CR1_OVER8 */

  if (huart->gState == HAL_UART_STATE_RESET)
 8007c02:	687b      	ldr	r3, [r7, #4]
 8007c04:	f893 3041 	ldrb.w	r3, [r3, #65]	; 0x41
 8007c08:	b2db      	uxtb	r3, r3
 8007c0a:	2b00      	cmp	r3, #0
 8007c0c:	d106      	bne.n	8007c1c <HAL_UART_Init+0x2c>
  {
    /* Allocate lock resource and initialize it */
    huart->Lock = HAL_UNLOCKED;
 8007c0e:	687b      	ldr	r3, [r7, #4]
 8007c10:	2200      	movs	r2, #0
 8007c12:	f883 2040 	strb.w	r2, [r3, #64]	; 0x40

    /* Init the low level hardware */
    huart->MspInitCallback(huart);
#else
    /* Init the low level hardware : GPIO, CLOCK */
    HAL_UART_MspInit(huart);
 8007c16:	6878      	ldr	r0, [r7, #4]
 8007c18:	f7fc ff72 	bl	8004b00 <HAL_UART_MspInit>
#endif /* (USE_HAL_UART_REGISTER_CALLBACKS) */
  }

  huart->gState = HAL_UART_STATE_BUSY;
 8007c1c:	687b      	ldr	r3, [r7, #4]
 8007c1e:	2224      	movs	r2, #36	; 0x24
 8007c20:	f883 2041 	strb.w	r2, [r3, #65]	; 0x41

  /* Disable the peripheral */
  __HAL_UART_DISABLE(huart);
 8007c24:	687b      	ldr	r3, [r7, #4]
 8007c26:	681b      	ldr	r3, [r3, #0]
 8007c28:	68da      	ldr	r2, [r3, #12]
 8007c2a:	687b      	ldr	r3, [r7, #4]
 8007c2c:	681b      	ldr	r3, [r3, #0]
 8007c2e:	f422 5200 	bic.w	r2, r2, #8192	; 0x2000
 8007c32:	60da      	str	r2, [r3, #12]

  /* Set the UART Communication parameters */
  UART_SetConfig(huart);
 8007c34:	6878      	ldr	r0, [r7, #4]
 8007c36:	f000 fd71 	bl	800871c <UART_SetConfig>

  /* In asynchronous mode, the following bits must be kept cleared:
     - LINEN and CLKEN bits in the USART_CR2 register,
     - SCEN, HDSEL and IREN  bits in the USART_CR3 register.*/
  CLEAR_BIT(huart->Instance->CR2, (USART_CR2_LINEN | USART_CR2_CLKEN));
 8007c3a:	687b      	ldr	r3, [r7, #4]
 8007c3c:	681b      	ldr	r3, [r3, #0]
 8007c3e:	691a      	ldr	r2, [r3, #16]
 8007c40:	687b      	ldr	r3, [r7, #4]
 8007c42:	681b      	ldr	r3, [r3, #0]
 8007c44:	f422 4290 	bic.w	r2, r2, #18432	; 0x4800
 8007c48:	611a      	str	r2, [r3, #16]
  CLEAR_BIT(huart->Instance->CR3, (USART_CR3_SCEN | USART_CR3_HDSEL | USART_CR3_IREN));
 8007c4a:	687b      	ldr	r3, [r7, #4]
 8007c4c:	681b      	ldr	r3, [r3, #0]
 8007c4e:	695a      	ldr	r2, [r3, #20]
 8007c50:	687b      	ldr	r3, [r7, #4]
 8007c52:	681b      	ldr	r3, [r3, #0]
 8007c54:	f022 022a 	bic.w	r2, r2, #42	; 0x2a
 8007c58:	615a      	str	r2, [r3, #20]

  /* Enable the peripheral */
  __HAL_UART_ENABLE(huart);
 8007c5a:	687b      	ldr	r3, [r7, #4]
 8007c5c:	681b      	ldr	r3, [r3, #0]
 8007c5e:	68da      	ldr	r2, [r3, #12]
 8007c60:	687b      	ldr	r3, [r7, #4]
 8007c62:	681b      	ldr	r3, [r3, #0]
 8007c64:	f442 5200 	orr.w	r2, r2, #8192	; 0x2000
 8007c68:	60da      	str	r2, [r3, #12]

  /* Initialize the UART state */
  huart->ErrorCode = HAL_UART_ERROR_NONE;
 8007c6a:	687b      	ldr	r3, [r7, #4]
 8007c6c:	2200      	movs	r2, #0
 8007c6e:	645a      	str	r2, [r3, #68]	; 0x44
  huart->gState = HAL_UART_STATE_READY;
 8007c70:	687b      	ldr	r3, [r7, #4]
 8007c72:	2220      	movs	r2, #32
 8007c74:	f883 2041 	strb.w	r2, [r3, #65]	; 0x41
  huart->RxState = HAL_UART_STATE_READY;
 8007c78:	687b      	ldr	r3, [r7, #4]
 8007c7a:	2220      	movs	r2, #32
 8007c7c:	f883 2042 	strb.w	r2, [r3, #66]	; 0x42
  huart->RxEventType = HAL_UART_RXEVENT_TC;
 8007c80:	687b      	ldr	r3, [r7, #4]
 8007c82:	2200      	movs	r2, #0
 8007c84:	635a      	str	r2, [r3, #52]	; 0x34

  return HAL_OK;
 8007c86:	2300      	movs	r3, #0
}
 8007c88:	4618      	mov	r0, r3
 8007c8a:	3708      	adds	r7, #8
 8007c8c:	46bd      	mov	sp, r7
 8007c8e:	bd80      	pop	{r7, pc}

08007c90 <HAL_UART_Transmit>:
  * @param  Size  Amount of data elements (u8 or u16) to be sent
  * @param  Timeout Timeout duration
  * @retval HAL status
  */
HAL_StatusTypeDef HAL_UART_Transmit(UART_HandleTypeDef *huart, const uint8_t *pData, uint16_t Size, uint32_t Timeout)
{
 8007c90:	b580      	push	{r7, lr}
 8007c92:	b08a      	sub	sp, #40	; 0x28
 8007c94:	af02      	add	r7, sp, #8
 8007c96:	60f8      	str	r0, [r7, #12]
 8007c98:	60b9      	str	r1, [r7, #8]
 8007c9a:	603b      	str	r3, [r7, #0]
 8007c9c:	4613      	mov	r3, r2
 8007c9e:	80fb      	strh	r3, [r7, #6]
  const uint8_t  *pdata8bits;
  const uint16_t *pdata16bits;
  uint32_t tickstart = 0U;
 8007ca0:	2300      	movs	r3, #0
 8007ca2:	617b      	str	r3, [r7, #20]

  /* Check that a Tx process is not already ongoing */
  if (huart->gState == HAL_UART_STATE_READY)
 8007ca4:	68fb      	ldr	r3, [r7, #12]
 8007ca6:	f893 3041 	ldrb.w	r3, [r3, #65]	; 0x41
 8007caa:	b2db      	uxtb	r3, r3
 8007cac:	2b20      	cmp	r3, #32
 8007cae:	d16d      	bne.n	8007d8c <HAL_UART_Transmit+0xfc>
  {
    if ((pData == NULL) || (Size == 0U))
 8007cb0:	68bb      	ldr	r3, [r7, #8]
 8007cb2:	2b00      	cmp	r3, #0
 8007cb4:	d002      	beq.n	8007cbc <HAL_UART_Transmit+0x2c>
 8007cb6:	88fb      	ldrh	r3, [r7, #6]
 8007cb8:	2b00      	cmp	r3, #0
 8007cba:	d101      	bne.n	8007cc0 <HAL_UART_Transmit+0x30>
    {
      return  HAL_ERROR;
 8007cbc:	2301      	movs	r3, #1
 8007cbe:	e066      	b.n	8007d8e <HAL_UART_Transmit+0xfe>
    }

    huart->ErrorCode = HAL_UART_ERROR_NONE;
 8007cc0:	68fb      	ldr	r3, [r7, #12]
 8007cc2:	2200      	movs	r2, #0
 8007cc4:	645a      	str	r2, [r3, #68]	; 0x44
    huart->gState = HAL_UART_STATE_BUSY_TX;
 8007cc6:	68fb      	ldr	r3, [r7, #12]
 8007cc8:	2221      	movs	r2, #33	; 0x21
 8007cca:	f883 2041 	strb.w	r2, [r3, #65]	; 0x41

    /* Init tickstart for timeout management */
    tickstart = HAL_GetTick();
 8007cce:	f7fd f861 	bl	8004d94 <HAL_GetTick>
 8007cd2:	6178      	str	r0, [r7, #20]

    huart->TxXferSize = Size;
 8007cd4:	68fb      	ldr	r3, [r7, #12]
 8007cd6:	88fa      	ldrh	r2, [r7, #6]
 8007cd8:	849a      	strh	r2, [r3, #36]	; 0x24
    huart->TxXferCount = Size;
 8007cda:	68fb      	ldr	r3, [r7, #12]
 8007cdc:	88fa      	ldrh	r2, [r7, #6]
 8007cde:	84da      	strh	r2, [r3, #38]	; 0x26

    /* In case of 9bits/No Parity transfer, pData needs to be handled as a uint16_t pointer */
    if ((huart->Init.WordLength == UART_WORDLENGTH_9B) && (huart->Init.Parity == UART_PARITY_NONE))
 8007ce0:	68fb      	ldr	r3, [r7, #12]
 8007ce2:	689b      	ldr	r3, [r3, #8]
 8007ce4:	f5b3 5f80 	cmp.w	r3, #4096	; 0x1000
 8007ce8:	d108      	bne.n	8007cfc <HAL_UART_Transmit+0x6c>
 8007cea:	68fb      	ldr	r3, [r7, #12]
 8007cec:	691b      	ldr	r3, [r3, #16]
 8007cee:	2b00      	cmp	r3, #0
 8007cf0:	d104      	bne.n	8007cfc <HAL_UART_Transmit+0x6c>
    {
      pdata8bits  = NULL;
 8007cf2:	2300      	movs	r3, #0
 8007cf4:	61fb      	str	r3, [r7, #28]
      pdata16bits = (const uint16_t *) pData;
 8007cf6:	68bb      	ldr	r3, [r7, #8]
 8007cf8:	61bb      	str	r3, [r7, #24]
 8007cfa:	e003      	b.n	8007d04 <HAL_UART_Transmit+0x74>
    }
    else
    {
      pdata8bits  = pData;
 8007cfc:	68bb      	ldr	r3, [r7, #8]
 8007cfe:	61fb      	str	r3, [r7, #28]
      pdata16bits = NULL;
 8007d00:	2300      	movs	r3, #0
 8007d02:	61bb      	str	r3, [r7, #24]
    }

    while (huart->TxXferCount > 0U)
 8007d04:	e02a      	b.n	8007d5c <HAL_UART_Transmit+0xcc>
    {
      if (UART_WaitOnFlagUntilTimeout(huart, UART_FLAG_TXE, RESET, tickstart, Timeout) != HAL_OK)
 8007d06:	683b      	ldr	r3, [r7, #0]
 8007d08:	9300      	str	r3, [sp, #0]
 8007d0a:	697b      	ldr	r3, [r7, #20]
 8007d0c:	2200      	movs	r2, #0
 8007d0e:	2180      	movs	r1, #128	; 0x80
 8007d10:	68f8      	ldr	r0, [r7, #12]
 8007d12:	f000 faf9 	bl	8008308 <UART_WaitOnFlagUntilTimeout>
 8007d16:	4603      	mov	r3, r0
 8007d18:	2b00      	cmp	r3, #0
 8007d1a:	d001      	beq.n	8007d20 <HAL_UART_Transmit+0x90>
      {
        return HAL_TIMEOUT;
 8007d1c:	2303      	movs	r3, #3
 8007d1e:	e036      	b.n	8007d8e <HAL_UART_Transmit+0xfe>
      }
      if (pdata8bits == NULL)
 8007d20:	69fb      	ldr	r3, [r7, #28]
 8007d22:	2b00      	cmp	r3, #0
 8007d24:	d10b      	bne.n	8007d3e <HAL_UART_Transmit+0xae>
      {
        huart->Instance->DR = (uint16_t)(*pdata16bits & 0x01FFU);
 8007d26:	69bb      	ldr	r3, [r7, #24]
 8007d28:	881b      	ldrh	r3, [r3, #0]
 8007d2a:	461a      	mov	r2, r3
 8007d2c:	68fb      	ldr	r3, [r7, #12]
 8007d2e:	681b      	ldr	r3, [r3, #0]
 8007d30:	f3c2 0208 	ubfx	r2, r2, #0, #9
 8007d34:	605a      	str	r2, [r3, #4]
        pdata16bits++;
 8007d36:	69bb      	ldr	r3, [r7, #24]
 8007d38:	3302      	adds	r3, #2
 8007d3a:	61bb      	str	r3, [r7, #24]
 8007d3c:	e007      	b.n	8007d4e <HAL_UART_Transmit+0xbe>
      }
      else
      {
        huart->Instance->DR = (uint8_t)(*pdata8bits & 0xFFU);
 8007d3e:	69fb      	ldr	r3, [r7, #28]
 8007d40:	781a      	ldrb	r2, [r3, #0]
 8007d42:	68fb      	ldr	r3, [r7, #12]
 8007d44:	681b      	ldr	r3, [r3, #0]
 8007d46:	605a      	str	r2, [r3, #4]
        pdata8bits++;
 8007d48:	69fb      	ldr	r3, [r7, #28]
 8007d4a:	3301      	adds	r3, #1
 8007d4c:	61fb      	str	r3, [r7, #28]
      }
      huart->TxXferCount--;
 8007d4e:	68fb      	ldr	r3, [r7, #12]
 8007d50:	8cdb      	ldrh	r3, [r3, #38]	; 0x26
 8007d52:	b29b      	uxth	r3, r3
 8007d54:	3b01      	subs	r3, #1
 8007d56:	b29a      	uxth	r2, r3
 8007d58:	68fb      	ldr	r3, [r7, #12]
 8007d5a:	84da      	strh	r2, [r3, #38]	; 0x26
    while (huart->TxXferCount > 0U)
 8007d5c:	68fb      	ldr	r3, [r7, #12]
 8007d5e:	8cdb      	ldrh	r3, [r3, #38]	; 0x26
 8007d60:	b29b      	uxth	r3, r3
 8007d62:	2b00      	cmp	r3, #0
 8007d64:	d1cf      	bne.n	8007d06 <HAL_UART_Transmit+0x76>
    }

    if (UART_WaitOnFlagUntilTimeout(huart, UART_FLAG_TC, RESET, tickstart, Timeout) != HAL_OK)
 8007d66:	683b      	ldr	r3, [r7, #0]
 8007d68:	9300      	str	r3, [sp, #0]
 8007d6a:	697b      	ldr	r3, [r7, #20]
 8007d6c:	2200      	movs	r2, #0
 8007d6e:	2140      	movs	r1, #64	; 0x40
 8007d70:	68f8      	ldr	r0, [r7, #12]
 8007d72:	f000 fac9 	bl	8008308 <UART_WaitOnFlagUntilTimeout>
 8007d76:	4603      	mov	r3, r0
 8007d78:	2b00      	cmp	r3, #0
 8007d7a:	d001      	beq.n	8007d80 <HAL_UART_Transmit+0xf0>
    {
      return HAL_TIMEOUT;
 8007d7c:	2303      	movs	r3, #3
 8007d7e:	e006      	b.n	8007d8e <HAL_UART_Transmit+0xfe>
    }

    /* At end of Tx process, restore huart->gState to Ready */
    huart->gState = HAL_UART_STATE_READY;
 8007d80:	68fb      	ldr	r3, [r7, #12]
 8007d82:	2220      	movs	r2, #32
 8007d84:	f883 2041 	strb.w	r2, [r3, #65]	; 0x41

    return HAL_OK;
 8007d88:	2300      	movs	r3, #0
 8007d8a:	e000      	b.n	8007d8e <HAL_UART_Transmit+0xfe>
  }
  else
  {
    return HAL_BUSY;
 8007d8c:	2302      	movs	r3, #2
  }
}
 8007d8e:	4618      	mov	r0, r3
 8007d90:	3720      	adds	r7, #32
 8007d92:	46bd      	mov	sp, r7
 8007d94:	bd80      	pop	{r7, pc}
	...

08007d98 <HAL_UART_IRQHandler>:
  * @param  huart  Pointer to a UART_HandleTypeDef structure that contains
  *                the configuration information for the specified UART module.
  * @retval None
  */
void HAL_UART_IRQHandler(UART_HandleTypeDef *huart)
{
 8007d98:	b580      	push	{r7, lr}
 8007d9a:	b0ba      	sub	sp, #232	; 0xe8
 8007d9c:	af00      	add	r7, sp, #0
 8007d9e:	6078      	str	r0, [r7, #4]
  uint32_t isrflags   = READ_REG(huart->Instance->SR);
 8007da0:	687b      	ldr	r3, [r7, #4]
 8007da2:	681b      	ldr	r3, [r3, #0]
 8007da4:	681b      	ldr	r3, [r3, #0]
 8007da6:	f8c7 30e4 	str.w	r3, [r7, #228]	; 0xe4
  uint32_t cr1its     = READ_REG(huart->Instance->CR1);
 8007daa:	687b      	ldr	r3, [r7, #4]
 8007dac:	681b      	ldr	r3, [r3, #0]
 8007dae:	68db      	ldr	r3, [r3, #12]
 8007db0:	f8c7 30e0 	str.w	r3, [r7, #224]	; 0xe0
  uint32_t cr3its     = READ_REG(huart->Instance->CR3);
 8007db4:	687b      	ldr	r3, [r7, #4]
 8007db6:	681b      	ldr	r3, [r3, #0]
 8007db8:	695b      	ldr	r3, [r3, #20]
 8007dba:	f8c7 30dc 	str.w	r3, [r7, #220]	; 0xdc
  uint32_t errorflags = 0x00U;
 8007dbe:	2300      	movs	r3, #0
 8007dc0:	f8c7 30d8 	str.w	r3, [r7, #216]	; 0xd8
  uint32_t dmarequest = 0x00U;
 8007dc4:	2300      	movs	r3, #0
 8007dc6:	f8c7 30d4 	str.w	r3, [r7, #212]	; 0xd4

  /* If no error occurs */
  errorflags = (isrflags & (uint32_t)(USART_SR_PE | USART_SR_FE | USART_SR_ORE | USART_SR_NE));
 8007dca:	f8d7 30e4 	ldr.w	r3, [r7, #228]	; 0xe4
 8007dce:	f003 030f 	and.w	r3, r3, #15
 8007dd2:	f8c7 30d8 	str.w	r3, [r7, #216]	; 0xd8
  if (errorflags == RESET)
 8007dd6:	f8d7 30d8 	ldr.w	r3, [r7, #216]	; 0xd8
 8007dda:	2b00      	cmp	r3, #0
 8007ddc:	d10f      	bne.n	8007dfe <HAL_UART_IRQHandler+0x66>
  {
    /* UART in mode Receiver -------------------------------------------------*/
    if (((isrflags & USART_SR_RXNE) != RESET) && ((cr1its & USART_CR1_RXNEIE) != RESET))
 8007dde:	f8d7 30e4 	ldr.w	r3, [r7, #228]	; 0xe4
 8007de2:	f003 0320 	and.w	r3, r3, #32
 8007de6:	2b00      	cmp	r3, #0
 8007de8:	d009      	beq.n	8007dfe <HAL_UART_IRQHandler+0x66>
 8007dea:	f8d7 30e0 	ldr.w	r3, [r7, #224]	; 0xe0
 8007dee:	f003 0320 	and.w	r3, r3, #32
 8007df2:	2b00      	cmp	r3, #0
 8007df4:	d003      	beq.n	8007dfe <HAL_UART_IRQHandler+0x66>
    {
      UART_Receive_IT(huart);
 8007df6:	6878      	ldr	r0, [r7, #4]
 8007df8:	f000 fbd1 	bl	800859e <UART_Receive_IT>
      return;
 8007dfc:	e25b      	b.n	80082b6 <HAL_UART_IRQHandler+0x51e>
    }
  }

  /* If some errors occur */
  if ((errorflags != RESET) && (((cr3its & USART_CR3_EIE) != RESET)
 8007dfe:	f8d7 30d8 	ldr.w	r3, [r7, #216]	; 0xd8
 8007e02:	2b00      	cmp	r3, #0
 8007e04:	f000 80de 	beq.w	8007fc4 <HAL_UART_IRQHandler+0x22c>
 8007e08:	f8d7 30dc 	ldr.w	r3, [r7, #220]	; 0xdc
 8007e0c:	f003 0301 	and.w	r3, r3, #1
 8007e10:	2b00      	cmp	r3, #0
 8007e12:	d106      	bne.n	8007e22 <HAL_UART_IRQHandler+0x8a>
                                || ((cr1its & (USART_CR1_RXNEIE | USART_CR1_PEIE)) != RESET)))
 8007e14:	f8d7 30e0 	ldr.w	r3, [r7, #224]	; 0xe0
 8007e18:	f403 7390 	and.w	r3, r3, #288	; 0x120
 8007e1c:	2b00      	cmp	r3, #0
 8007e1e:	f000 80d1 	beq.w	8007fc4 <HAL_UART_IRQHandler+0x22c>
  {
    /* UART parity error interrupt occurred ----------------------------------*/
    if (((isrflags & USART_SR_PE) != RESET) && ((cr1its & USART_CR1_PEIE) != RESET))
 8007e22:	f8d7 30e4 	ldr.w	r3, [r7, #228]	; 0xe4
 8007e26:	f003 0301 	and.w	r3, r3, #1
 8007e2a:	2b00      	cmp	r3, #0
 8007e2c:	d00b      	beq.n	8007e46 <HAL_UART_IRQHandler+0xae>
 8007e2e:	f8d7 30e0 	ldr.w	r3, [r7, #224]	; 0xe0
 8007e32:	f403 7380 	and.w	r3, r3, #256	; 0x100
 8007e36:	2b00      	cmp	r3, #0
 8007e38:	d005      	beq.n	8007e46 <HAL_UART_IRQHandler+0xae>
    {
      huart->ErrorCode |= HAL_UART_ERROR_PE;
 8007e3a:	687b      	ldr	r3, [r7, #4]
 8007e3c:	6c5b      	ldr	r3, [r3, #68]	; 0x44
 8007e3e:	f043 0201 	orr.w	r2, r3, #1
 8007e42:	687b      	ldr	r3, [r7, #4]
 8007e44:	645a      	str	r2, [r3, #68]	; 0x44
    }

    /* UART noise error interrupt occurred -----------------------------------*/
    if (((isrflags & USART_SR_NE) != RESET) && ((cr3its & USART_CR3_EIE) != RESET))
 8007e46:	f8d7 30e4 	ldr.w	r3, [r7, #228]	; 0xe4
 8007e4a:	f003 0304 	and.w	r3, r3, #4
 8007e4e:	2b00      	cmp	r3, #0
 8007e50:	d00b      	beq.n	8007e6a <HAL_UART_IRQHandler+0xd2>
 8007e52:	f8d7 30dc 	ldr.w	r3, [r7, #220]	; 0xdc
 8007e56:	f003 0301 	and.w	r3, r3, #1
 8007e5a:	2b00      	cmp	r3, #0
 8007e5c:	d005      	beq.n	8007e6a <HAL_UART_IRQHandler+0xd2>
    {
      huart->ErrorCode |= HAL_UART_ERROR_NE;
 8007e5e:	687b      	ldr	r3, [r7, #4]
 8007e60:	6c5b      	ldr	r3, [r3, #68]	; 0x44
 8007e62:	f043 0202 	orr.w	r2, r3, #2
 8007e66:	687b      	ldr	r3, [r7, #4]
 8007e68:	645a      	str	r2, [r3, #68]	; 0x44
    }

    /* UART frame error interrupt occurred -----------------------------------*/
    if (((isrflags & USART_SR_FE) != RESET) && ((cr3its & USART_CR3_EIE) != RESET))
 8007e6a:	f8d7 30e4 	ldr.w	r3, [r7, #228]	; 0xe4
 8007e6e:	f003 0302 	and.w	r3, r3, #2
 8007e72:	2b00      	cmp	r3, #0
 8007e74:	d00b      	beq.n	8007e8e <HAL_UART_IRQHandler+0xf6>
 8007e76:	f8d7 30dc 	ldr.w	r3, [r7, #220]	; 0xdc
 8007e7a:	f003 0301 	and.w	r3, r3, #1
 8007e7e:	2b00      	cmp	r3, #0
 8007e80:	d005      	beq.n	8007e8e <HAL_UART_IRQHandler+0xf6>
    {
      huart->ErrorCode |= HAL_UART_ERROR_FE;
 8007e82:	687b      	ldr	r3, [r7, #4]
 8007e84:	6c5b      	ldr	r3, [r3, #68]	; 0x44
 8007e86:	f043 0204 	orr.w	r2, r3, #4
 8007e8a:	687b      	ldr	r3, [r7, #4]
 8007e8c:	645a      	str	r2, [r3, #68]	; 0x44
    }

    /* UART Over-Run interrupt occurred --------------------------------------*/
    if (((isrflags & USART_SR_ORE) != RESET) && (((cr1its & USART_CR1_RXNEIE) != RESET)
 8007e8e:	f8d7 30e4 	ldr.w	r3, [r7, #228]	; 0xe4
 8007e92:	f003 0308 	and.w	r3, r3, #8
 8007e96:	2b00      	cmp	r3, #0
 8007e98:	d011      	beq.n	8007ebe <HAL_UART_IRQHandler+0x126>
 8007e9a:	f8d7 30e0 	ldr.w	r3, [r7, #224]	; 0xe0
 8007e9e:	f003 0320 	and.w	r3, r3, #32
 8007ea2:	2b00      	cmp	r3, #0
 8007ea4:	d105      	bne.n	8007eb2 <HAL_UART_IRQHandler+0x11a>
                                                 || ((cr3its & USART_CR3_EIE) != RESET)))
 8007ea6:	f8d7 30dc 	ldr.w	r3, [r7, #220]	; 0xdc
 8007eaa:	f003 0301 	and.w	r3, r3, #1
 8007eae:	2b00      	cmp	r3, #0
 8007eb0:	d005      	beq.n	8007ebe <HAL_UART_IRQHandler+0x126>
    {
      huart->ErrorCode |= HAL_UART_ERROR_ORE;
 8007eb2:	687b      	ldr	r3, [r7, #4]
 8007eb4:	6c5b      	ldr	r3, [r3, #68]	; 0x44
 8007eb6:	f043 0208 	orr.w	r2, r3, #8
 8007eba:	687b      	ldr	r3, [r7, #4]
 8007ebc:	645a      	str	r2, [r3, #68]	; 0x44
    }

    /* Call UART Error Call back function if need be --------------------------*/
    if (huart->ErrorCode != HAL_UART_ERROR_NONE)
 8007ebe:	687b      	ldr	r3, [r7, #4]
 8007ec0:	6c5b      	ldr	r3, [r3, #68]	; 0x44
 8007ec2:	2b00      	cmp	r3, #0
 8007ec4:	f000 81f2 	beq.w	80082ac <HAL_UART_IRQHandler+0x514>
    {
      /* UART in mode Receiver -----------------------------------------------*/
      if (((isrflags & USART_SR_RXNE) != RESET) && ((cr1its & USART_CR1_RXNEIE) != RESET))
 8007ec8:	f8d7 30e4 	ldr.w	r3, [r7, #228]	; 0xe4
 8007ecc:	f003 0320 	and.w	r3, r3, #32
 8007ed0:	2b00      	cmp	r3, #0
 8007ed2:	d008      	beq.n	8007ee6 <HAL_UART_IRQHandler+0x14e>
 8007ed4:	f8d7 30e0 	ldr.w	r3, [r7, #224]	; 0xe0
 8007ed8:	f003 0320 	and.w	r3, r3, #32
 8007edc:	2b00      	cmp	r3, #0
 8007ede:	d002      	beq.n	8007ee6 <HAL_UART_IRQHandler+0x14e>
      {
        UART_Receive_IT(huart);
 8007ee0:	6878      	ldr	r0, [r7, #4]
 8007ee2:	f000 fb5c 	bl	800859e <UART_Receive_IT>
      }

      /* If Overrun error occurs, or if any error occurs in DMA mode reception,
         consider error as blocking */
      dmarequest = HAL_IS_BIT_SET(huart->Instance->CR3, USART_CR3_DMAR);
 8007ee6:	687b      	ldr	r3, [r7, #4]
 8007ee8:	681b      	ldr	r3, [r3, #0]
 8007eea:	695b      	ldr	r3, [r3, #20]
 8007eec:	f003 0340 	and.w	r3, r3, #64	; 0x40
 8007ef0:	2b00      	cmp	r3, #0
 8007ef2:	bf14      	ite	ne
 8007ef4:	2301      	movne	r3, #1
 8007ef6:	2300      	moveq	r3, #0
 8007ef8:	b2db      	uxtb	r3, r3
 8007efa:	f8c7 30d4 	str.w	r3, [r7, #212]	; 0xd4
      if (((huart->ErrorCode & HAL_UART_ERROR_ORE) != RESET) || dmarequest)
 8007efe:	687b      	ldr	r3, [r7, #4]
 8007f00:	6c5b      	ldr	r3, [r3, #68]	; 0x44
 8007f02:	f003 0308 	and.w	r3, r3, #8
 8007f06:	2b00      	cmp	r3, #0
 8007f08:	d103      	bne.n	8007f12 <HAL_UART_IRQHandler+0x17a>
 8007f0a:	f8d7 30d4 	ldr.w	r3, [r7, #212]	; 0xd4
 8007f0e:	2b00      	cmp	r3, #0
 8007f10:	d04f      	beq.n	8007fb2 <HAL_UART_IRQHandler+0x21a>
      {
        /* Blocking error : transfer is aborted
           Set the UART state ready to be able to start again the process,
           Disable Rx Interrupts, and disable Rx DMA request, if ongoing */
        UART_EndRxTransfer(huart);
 8007f12:	6878      	ldr	r0, [r7, #4]
 8007f14:	f000 fa66 	bl	80083e4 <UART_EndRxTransfer>

        /* Disable the UART DMA Rx request if enabled */
        if (HAL_IS_BIT_SET(huart->Instance->CR3, USART_CR3_DMAR))
 8007f18:	687b      	ldr	r3, [r7, #4]
 8007f1a:	681b      	ldr	r3, [r3, #0]
 8007f1c:	695b      	ldr	r3, [r3, #20]
 8007f1e:	f003 0340 	and.w	r3, r3, #64	; 0x40
 8007f22:	2b00      	cmp	r3, #0
 8007f24:	d041      	beq.n	8007faa <HAL_UART_IRQHandler+0x212>
        {
          ATOMIC_CLEAR_BIT(huart->Instance->CR3, USART_CR3_DMAR);
 8007f26:	687b      	ldr	r3, [r7, #4]
 8007f28:	681b      	ldr	r3, [r3, #0]
 8007f2a:	3314      	adds	r3, #20
 8007f2c:	f8c7 309c 	str.w	r3, [r7, #156]	; 0x9c
 */
__STATIC_FORCEINLINE uint32_t __LDREXW(volatile uint32_t *addr)
{
    uint32_t result;

   __ASM volatile ("ldrex %0, %1" : "=r" (result) : "Q" (*addr) );
 8007f30:	f8d7 309c 	ldr.w	r3, [r7, #156]	; 0x9c
 8007f34:	e853 3f00 	ldrex	r3, [r3]
 8007f38:	f8c7 3098 	str.w	r3, [r7, #152]	; 0x98
   return(result);
 8007f3c:	f8d7 3098 	ldr.w	r3, [r7, #152]	; 0x98
 8007f40:	f023 0340 	bic.w	r3, r3, #64	; 0x40
 8007f44:	f8c7 30d0 	str.w	r3, [r7, #208]	; 0xd0
 8007f48:	687b      	ldr	r3, [r7, #4]
 8007f4a:	681b      	ldr	r3, [r3, #0]
 8007f4c:	3314      	adds	r3, #20
 8007f4e:	f8d7 20d0 	ldr.w	r2, [r7, #208]	; 0xd0
 8007f52:	f8c7 20a8 	str.w	r2, [r7, #168]	; 0xa8
 8007f56:	f8c7 30a4 	str.w	r3, [r7, #164]	; 0xa4
 */
__STATIC_FORCEINLINE uint32_t __STREXW(uint32_t value, volatile uint32_t *addr)
{
   uint32_t result;

   __ASM volatile ("strex %0, %2, %1" : "=&r" (result), "=Q" (*addr) : "r" (value) );
 8007f5a:	f8d7 10a4 	ldr.w	r1, [r7, #164]	; 0xa4
 8007f5e:	f8d7 20a8 	ldr.w	r2, [r7, #168]	; 0xa8
 8007f62:	e841 2300 	strex	r3, r2, [r1]
 8007f66:	f8c7 30a0 	str.w	r3, [r7, #160]	; 0xa0
   return(result);
 8007f6a:	f8d7 30a0 	ldr.w	r3, [r7, #160]	; 0xa0
 8007f6e:	2b00      	cmp	r3, #0
 8007f70:	d1d9      	bne.n	8007f26 <HAL_UART_IRQHandler+0x18e>

          /* Abort the UART DMA Rx channel */
          if (huart->hdmarx != NULL)
 8007f72:	687b      	ldr	r3, [r7, #4]
 8007f74:	6bdb      	ldr	r3, [r3, #60]	; 0x3c
 8007f76:	2b00      	cmp	r3, #0
 8007f78:	d013      	beq.n	8007fa2 <HAL_UART_IRQHandler+0x20a>
          {
            /* Set the UART DMA Abort callback :
               will lead to call HAL_UART_ErrorCallback() at end of DMA abort procedure */
            huart->hdmarx->XferAbortCallback = UART_DMAAbortOnError;
 8007f7a:	687b      	ldr	r3, [r7, #4]
 8007f7c:	6bdb      	ldr	r3, [r3, #60]	; 0x3c
 8007f7e:	4a7e      	ldr	r2, [pc, #504]	; (8008178 <HAL_UART_IRQHandler+0x3e0>)
 8007f80:	635a      	str	r2, [r3, #52]	; 0x34
            if (HAL_DMA_Abort_IT(huart->hdmarx) != HAL_OK)
 8007f82:	687b      	ldr	r3, [r7, #4]
 8007f84:	6bdb      	ldr	r3, [r3, #60]	; 0x3c
 8007f86:	4618      	mov	r0, r3
 8007f88:	f7fd f856 	bl	8005038 <HAL_DMA_Abort_IT>
 8007f8c:	4603      	mov	r3, r0
 8007f8e:	2b00      	cmp	r3, #0
 8007f90:	d016      	beq.n	8007fc0 <HAL_UART_IRQHandler+0x228>
            {
              /* Call Directly XferAbortCallback function in case of error */
              huart->hdmarx->XferAbortCallback(huart->hdmarx);
 8007f92:	687b      	ldr	r3, [r7, #4]
 8007f94:	6bdb      	ldr	r3, [r3, #60]	; 0x3c
 8007f96:	6b5b      	ldr	r3, [r3, #52]	; 0x34
 8007f98:	687a      	ldr	r2, [r7, #4]
 8007f9a:	6bd2      	ldr	r2, [r2, #60]	; 0x3c
 8007f9c:	4610      	mov	r0, r2
 8007f9e:	4798      	blx	r3
        if (HAL_IS_BIT_SET(huart->Instance->CR3, USART_CR3_DMAR))
 8007fa0:	e00e      	b.n	8007fc0 <HAL_UART_IRQHandler+0x228>
#if (USE_HAL_UART_REGISTER_CALLBACKS == 1)
            /*Call registered error callback*/
            huart->ErrorCallback(huart);
#else
            /*Call legacy weak error callback*/
            HAL_UART_ErrorCallback(huart);
 8007fa2:	6878      	ldr	r0, [r7, #4]
 8007fa4:	f000 f99c 	bl	80082e0 <HAL_UART_ErrorCallback>
        if (HAL_IS_BIT_SET(huart->Instance->CR3, USART_CR3_DMAR))
 8007fa8:	e00a      	b.n	8007fc0 <HAL_UART_IRQHandler+0x228>
#if (USE_HAL_UART_REGISTER_CALLBACKS == 1)
          /*Call registered error callback*/
          huart->ErrorCallback(huart);
#else
          /*Call legacy weak error callback*/
          HAL_UART_ErrorCallback(huart);
 8007faa:	6878      	ldr	r0, [r7, #4]
 8007fac:	f000 f998 	bl	80082e0 <HAL_UART_ErrorCallback>
        if (HAL_IS_BIT_SET(huart->Instance->CR3, USART_CR3_DMAR))
 8007fb0:	e006      	b.n	8007fc0 <HAL_UART_IRQHandler+0x228>
#if (USE_HAL_UART_REGISTER_CALLBACKS == 1)
        /*Call registered error callback*/
        huart->ErrorCallback(huart);
#else
        /*Call legacy weak error callback*/
        HAL_UART_ErrorCallback(huart);
 8007fb2:	6878      	ldr	r0, [r7, #4]
 8007fb4:	f000 f994 	bl	80082e0 <HAL_UART_ErrorCallback>
#endif /* USE_HAL_UART_REGISTER_CALLBACKS */

        huart->ErrorCode = HAL_UART_ERROR_NONE;
 8007fb8:	687b      	ldr	r3, [r7, #4]
 8007fba:	2200      	movs	r2, #0
 8007fbc:	645a      	str	r2, [r3, #68]	; 0x44
      }
    }
    return;
 8007fbe:	e175      	b.n	80082ac <HAL_UART_IRQHandler+0x514>
        if (HAL_IS_BIT_SET(huart->Instance->CR3, USART_CR3_DMAR))
 8007fc0:	bf00      	nop
    return;
 8007fc2:	e173      	b.n	80082ac <HAL_UART_IRQHandler+0x514>
  } /* End if some error occurs */

  /* Check current reception Mode :
     If Reception till IDLE event has been selected : */
  if ((huart->ReceptionType == HAL_UART_RECEPTION_TOIDLE)
 8007fc4:	687b      	ldr	r3, [r7, #4]
 8007fc6:	6b1b      	ldr	r3, [r3, #48]	; 0x30
 8007fc8:	2b01      	cmp	r3, #1
 8007fca:	f040 814f 	bne.w	800826c <HAL_UART_IRQHandler+0x4d4>
      && ((isrflags & USART_SR_IDLE) != 0U)
 8007fce:	f8d7 30e4 	ldr.w	r3, [r7, #228]	; 0xe4
 8007fd2:	f003 0310 	and.w	r3, r3, #16
 8007fd6:	2b00      	cmp	r3, #0
 8007fd8:	f000 8148 	beq.w	800826c <HAL_UART_IRQHandler+0x4d4>
      && ((cr1its & USART_SR_IDLE) != 0U))
 8007fdc:	f8d7 30e0 	ldr.w	r3, [r7, #224]	; 0xe0
 8007fe0:	f003 0310 	and.w	r3, r3, #16
 8007fe4:	2b00      	cmp	r3, #0
 8007fe6:	f000 8141 	beq.w	800826c <HAL_UART_IRQHandler+0x4d4>
  {
    __HAL_UART_CLEAR_IDLEFLAG(huart);
 8007fea:	2300      	movs	r3, #0
 8007fec:	60bb      	str	r3, [r7, #8]
 8007fee:	687b      	ldr	r3, [r7, #4]
 8007ff0:	681b      	ldr	r3, [r3, #0]
 8007ff2:	681b      	ldr	r3, [r3, #0]
 8007ff4:	60bb      	str	r3, [r7, #8]
 8007ff6:	687b      	ldr	r3, [r7, #4]
 8007ff8:	681b      	ldr	r3, [r3, #0]
 8007ffa:	685b      	ldr	r3, [r3, #4]
 8007ffc:	60bb      	str	r3, [r7, #8]
 8007ffe:	68bb      	ldr	r3, [r7, #8]

    /* Check if DMA mode is enabled in UART */
    if (HAL_IS_BIT_SET(huart->Instance->CR3, USART_CR3_DMAR))
 8008000:	687b      	ldr	r3, [r7, #4]
 8008002:	681b      	ldr	r3, [r3, #0]
 8008004:	695b      	ldr	r3, [r3, #20]
 8008006:	f003 0340 	and.w	r3, r3, #64	; 0x40
 800800a:	2b00      	cmp	r3, #0
 800800c:	f000 80b6 	beq.w	800817c <HAL_UART_IRQHandler+0x3e4>
    {
      /* DMA mode enabled */
      /* Check received length : If all expected data are received, do nothing,
         (DMA cplt callback will be called).
         Otherwise, if at least one data has already been received, IDLE event is to be notified to user */
      uint16_t nb_remaining_rx_data = (uint16_t) __HAL_DMA_GET_COUNTER(huart->hdmarx);
 8008010:	687b      	ldr	r3, [r7, #4]
 8008012:	6bdb      	ldr	r3, [r3, #60]	; 0x3c
 8008014:	681b      	ldr	r3, [r3, #0]
 8008016:	685b      	ldr	r3, [r3, #4]
 8008018:	f8a7 30be 	strh.w	r3, [r7, #190]	; 0xbe
      if ((nb_remaining_rx_data > 0U)
 800801c:	f8b7 30be 	ldrh.w	r3, [r7, #190]	; 0xbe
 8008020:	2b00      	cmp	r3, #0
 8008022:	f000 8145 	beq.w	80082b0 <HAL_UART_IRQHandler+0x518>
          && (nb_remaining_rx_data < huart->RxXferSize))
 8008026:	687b      	ldr	r3, [r7, #4]
 8008028:	8d9b      	ldrh	r3, [r3, #44]	; 0x2c
 800802a:	f8b7 20be 	ldrh.w	r2, [r7, #190]	; 0xbe
 800802e:	429a      	cmp	r2, r3
 8008030:	f080 813e 	bcs.w	80082b0 <HAL_UART_IRQHandler+0x518>
      {
        /* Reception is not complete */
        huart->RxXferCount = nb_remaining_rx_data;
 8008034:	687b      	ldr	r3, [r7, #4]
 8008036:	f8b7 20be 	ldrh.w	r2, [r7, #190]	; 0xbe
 800803a:	85da      	strh	r2, [r3, #46]	; 0x2e

        /* In Normal mode, end DMA xfer and HAL UART Rx process*/
        if (huart->hdmarx->Init.Mode != DMA_CIRCULAR)
 800803c:	687b      	ldr	r3, [r7, #4]
 800803e:	6bdb      	ldr	r3, [r3, #60]	; 0x3c
 8008040:	699b      	ldr	r3, [r3, #24]
 8008042:	2b20      	cmp	r3, #32
 8008044:	f000 8088 	beq.w	8008158 <HAL_UART_IRQHandler+0x3c0>
        {
          /* Disable PE and ERR (Frame error, noise error, overrun error) interrupts */
          ATOMIC_CLEAR_BIT(huart->Instance->CR1, USART_CR1_PEIE);
 8008048:	687b      	ldr	r3, [r7, #4]
 800804a:	681b      	ldr	r3, [r3, #0]
 800804c:	330c      	adds	r3, #12
 800804e:	f8c7 3088 	str.w	r3, [r7, #136]	; 0x88
   __ASM volatile ("ldrex %0, %1" : "=r" (result) : "Q" (*addr) );
 8008052:	f8d7 3088 	ldr.w	r3, [r7, #136]	; 0x88
 8008056:	e853 3f00 	ldrex	r3, [r3]
 800805a:	f8c7 3084 	str.w	r3, [r7, #132]	; 0x84
   return(result);
 800805e:	f8d7 3084 	ldr.w	r3, [r7, #132]	; 0x84
 8008062:	f423 7380 	bic.w	r3, r3, #256	; 0x100
 8008066:	f8c7 30b8 	str.w	r3, [r7, #184]	; 0xb8
 800806a:	687b      	ldr	r3, [r7, #4]
 800806c:	681b      	ldr	r3, [r3, #0]
 800806e:	330c      	adds	r3, #12
 8008070:	f8d7 20b8 	ldr.w	r2, [r7, #184]	; 0xb8
 8008074:	f8c7 2094 	str.w	r2, [r7, #148]	; 0x94
 8008078:	f8c7 3090 	str.w	r3, [r7, #144]	; 0x90
   __ASM volatile ("strex %0, %2, %1" : "=&r" (result), "=Q" (*addr) : "r" (value) );
 800807c:	f8d7 1090 	ldr.w	r1, [r7, #144]	; 0x90
 8008080:	f8d7 2094 	ldr.w	r2, [r7, #148]	; 0x94
 8008084:	e841 2300 	strex	r3, r2, [r1]
 8008088:	f8c7 308c 	str.w	r3, [r7, #140]	; 0x8c
   return(result);
 800808c:	f8d7 308c 	ldr.w	r3, [r7, #140]	; 0x8c
 8008090:	2b00      	cmp	r3, #0
 8008092:	d1d9      	bne.n	8008048 <HAL_UART_IRQHandler+0x2b0>
          ATOMIC_CLEAR_BIT(huart->Instance->CR3, USART_CR3_EIE);
 8008094:	687b      	ldr	r3, [r7, #4]
 8008096:	681b      	ldr	r3, [r3, #0]
 8008098:	3314      	adds	r3, #20
 800809a:	677b      	str	r3, [r7, #116]	; 0x74
   __ASM volatile ("ldrex %0, %1" : "=r" (result) : "Q" (*addr) );
 800809c:	6f7b      	ldr	r3, [r7, #116]	; 0x74
 800809e:	e853 3f00 	ldrex	r3, [r3]
 80080a2:	673b      	str	r3, [r7, #112]	; 0x70
   return(result);
 80080a4:	6f3b      	ldr	r3, [r7, #112]	; 0x70
 80080a6:	f023 0301 	bic.w	r3, r3, #1
 80080aa:	f8c7 30b4 	str.w	r3, [r7, #180]	; 0xb4
 80080ae:	687b      	ldr	r3, [r7, #4]
 80080b0:	681b      	ldr	r3, [r3, #0]
 80080b2:	3314      	adds	r3, #20
 80080b4:	f8d7 20b4 	ldr.w	r2, [r7, #180]	; 0xb4
 80080b8:	f8c7 2080 	str.w	r2, [r7, #128]	; 0x80
 80080bc:	67fb      	str	r3, [r7, #124]	; 0x7c
   __ASM volatile ("strex %0, %2, %1" : "=&r" (result), "=Q" (*addr) : "r" (value) );
 80080be:	6ff9      	ldr	r1, [r7, #124]	; 0x7c
 80080c0:	f8d7 2080 	ldr.w	r2, [r7, #128]	; 0x80
 80080c4:	e841 2300 	strex	r3, r2, [r1]
 80080c8:	67bb      	str	r3, [r7, #120]	; 0x78
   return(result);
 80080ca:	6fbb      	ldr	r3, [r7, #120]	; 0x78
 80080cc:	2b00      	cmp	r3, #0
 80080ce:	d1e1      	bne.n	8008094 <HAL_UART_IRQHandler+0x2fc>

          /* Disable the DMA transfer for the receiver request by resetting the DMAR bit
             in the UART CR3 register */
          ATOMIC_CLEAR_BIT(huart->Instance->CR3, USART_CR3_DMAR);
 80080d0:	687b      	ldr	r3, [r7, #4]
 80080d2:	681b      	ldr	r3, [r3, #0]
 80080d4:	3314      	adds	r3, #20
 80080d6:	663b      	str	r3, [r7, #96]	; 0x60
   __ASM volatile ("ldrex %0, %1" : "=r" (result) : "Q" (*addr) );
 80080d8:	6e3b      	ldr	r3, [r7, #96]	; 0x60
 80080da:	e853 3f00 	ldrex	r3, [r3]
 80080de:	65fb      	str	r3, [r7, #92]	; 0x5c
   return(result);
 80080e0:	6dfb      	ldr	r3, [r7, #92]	; 0x5c
 80080e2:	f023 0340 	bic.w	r3, r3, #64	; 0x40
 80080e6:	f8c7 30b0 	str.w	r3, [r7, #176]	; 0xb0
 80080ea:	687b      	ldr	r3, [r7, #4]
 80080ec:	681b      	ldr	r3, [r3, #0]
 80080ee:	3314      	adds	r3, #20
 80080f0:	f8d7 20b0 	ldr.w	r2, [r7, #176]	; 0xb0
 80080f4:	66fa      	str	r2, [r7, #108]	; 0x6c
 80080f6:	66bb      	str	r3, [r7, #104]	; 0x68
   __ASM volatile ("strex %0, %2, %1" : "=&r" (result), "=Q" (*addr) : "r" (value) );
 80080f8:	6eb9      	ldr	r1, [r7, #104]	; 0x68
 80080fa:	6efa      	ldr	r2, [r7, #108]	; 0x6c
 80080fc:	e841 2300 	strex	r3, r2, [r1]
 8008100:	667b      	str	r3, [r7, #100]	; 0x64
   return(result);
 8008102:	6e7b      	ldr	r3, [r7, #100]	; 0x64
 8008104:	2b00      	cmp	r3, #0
 8008106:	d1e3      	bne.n	80080d0 <HAL_UART_IRQHandler+0x338>

          /* At end of Rx process, restore huart->RxState to Ready */
          huart->RxState = HAL_UART_STATE_READY;
 8008108:	687b      	ldr	r3, [r7, #4]
 800810a:	2220      	movs	r2, #32
 800810c:	f883 2042 	strb.w	r2, [r3, #66]	; 0x42
          huart->ReceptionType = HAL_UART_RECEPTION_STANDARD;
 8008110:	687b      	ldr	r3, [r7, #4]
 8008112:	2200      	movs	r2, #0
 8008114:	631a      	str	r2, [r3, #48]	; 0x30

          ATOMIC_CLEAR_BIT(huart->Instance->CR1, USART_CR1_IDLEIE);
 8008116:	687b      	ldr	r3, [r7, #4]
 8008118:	681b      	ldr	r3, [r3, #0]
 800811a:	330c      	adds	r3, #12
 800811c:	64fb      	str	r3, [r7, #76]	; 0x4c
   __ASM volatile ("ldrex %0, %1" : "=r" (result) : "Q" (*addr) );
 800811e:	6cfb      	ldr	r3, [r7, #76]	; 0x4c
 8008120:	e853 3f00 	ldrex	r3, [r3]
 8008124:	64bb      	str	r3, [r7, #72]	; 0x48
   return(result);
 8008126:	6cbb      	ldr	r3, [r7, #72]	; 0x48
 8008128:	f023 0310 	bic.w	r3, r3, #16
 800812c:	f8c7 30ac 	str.w	r3, [r7, #172]	; 0xac
 8008130:	687b      	ldr	r3, [r7, #4]
 8008132:	681b      	ldr	r3, [r3, #0]
 8008134:	330c      	adds	r3, #12
 8008136:	f8d7 20ac 	ldr.w	r2, [r7, #172]	; 0xac
 800813a:	65ba      	str	r2, [r7, #88]	; 0x58
 800813c:	657b      	str	r3, [r7, #84]	; 0x54
   __ASM volatile ("strex %0, %2, %1" : "=&r" (result), "=Q" (*addr) : "r" (value) );
 800813e:	6d79      	ldr	r1, [r7, #84]	; 0x54
 8008140:	6dba      	ldr	r2, [r7, #88]	; 0x58
 8008142:	e841 2300 	strex	r3, r2, [r1]
 8008146:	653b      	str	r3, [r7, #80]	; 0x50
   return(result);
 8008148:	6d3b      	ldr	r3, [r7, #80]	; 0x50
 800814a:	2b00      	cmp	r3, #0
 800814c:	d1e3      	bne.n	8008116 <HAL_UART_IRQHandler+0x37e>

          /* Last bytes received, so no need as the abort is immediate */
          (void)HAL_DMA_Abort(huart->hdmarx);
 800814e:	687b      	ldr	r3, [r7, #4]
 8008150:	6bdb      	ldr	r3, [r3, #60]	; 0x3c
 8008152:	4618      	mov	r0, r3
 8008154:	f7fc ff35 	bl	8004fc2 <HAL_DMA_Abort>
        }

        /* Initialize type of RxEvent that correspond to RxEvent callback execution;
        In this case, Rx Event type is Idle Event */
        huart->RxEventType = HAL_UART_RXEVENT_IDLE;
 8008158:	687b      	ldr	r3, [r7, #4]
 800815a:	2202      	movs	r2, #2
 800815c:	635a      	str	r2, [r3, #52]	; 0x34
#if (USE_HAL_UART_REGISTER_CALLBACKS == 1)
        /*Call registered Rx Event callback*/
        huart->RxEventCallback(huart, (huart->RxXferSize - huart->RxXferCount));
#else
        /*Call legacy weak Rx Event callback*/
        HAL_UARTEx_RxEventCallback(huart, (huart->RxXferSize - huart->RxXferCount));
 800815e:	687b      	ldr	r3, [r7, #4]
 8008160:	8d9a      	ldrh	r2, [r3, #44]	; 0x2c
 8008162:	687b      	ldr	r3, [r7, #4]
 8008164:	8ddb      	ldrh	r3, [r3, #46]	; 0x2e
 8008166:	b29b      	uxth	r3, r3
 8008168:	1ad3      	subs	r3, r2, r3
 800816a:	b29b      	uxth	r3, r3
 800816c:	4619      	mov	r1, r3
 800816e:	6878      	ldr	r0, [r7, #4]
 8008170:	f000 f8bf 	bl	80082f2 <HAL_UARTEx_RxEventCallback>
#endif /* USE_HAL_UART_REGISTER_CALLBACKS */
      }
      return;
 8008174:	e09c      	b.n	80082b0 <HAL_UART_IRQHandler+0x518>
 8008176:	bf00      	nop
 8008178:	080084a9 	.word	0x080084a9
    else
    {
      /* DMA mode not enabled */
      /* Check received length : If all expected data are received, do nothing.
         Otherwise, if at least one data has already been received, IDLE event is to be notified to user */
      uint16_t nb_rx_data = huart->RxXferSize - huart->RxXferCount;
 800817c:	687b      	ldr	r3, [r7, #4]
 800817e:	8d9a      	ldrh	r2, [r3, #44]	; 0x2c
 8008180:	687b      	ldr	r3, [r7, #4]
 8008182:	8ddb      	ldrh	r3, [r3, #46]	; 0x2e
 8008184:	b29b      	uxth	r3, r3
 8008186:	1ad3      	subs	r3, r2, r3
 8008188:	f8a7 30ce 	strh.w	r3, [r7, #206]	; 0xce
      if ((huart->RxXferCount > 0U)
 800818c:	687b      	ldr	r3, [r7, #4]
 800818e:	8ddb      	ldrh	r3, [r3, #46]	; 0x2e
 8008190:	b29b      	uxth	r3, r3
 8008192:	2b00      	cmp	r3, #0
 8008194:	f000 808e 	beq.w	80082b4 <HAL_UART_IRQHandler+0x51c>
          && (nb_rx_data > 0U))
 8008198:	f8b7 30ce 	ldrh.w	r3, [r7, #206]	; 0xce
 800819c:	2b00      	cmp	r3, #0
 800819e:	f000 8089 	beq.w	80082b4 <HAL_UART_IRQHandler+0x51c>
      {
        /* Disable the UART Parity Error Interrupt and RXNE interrupts */
        ATOMIC_CLEAR_BIT(huart->Instance->CR1, (USART_CR1_RXNEIE | USART_CR1_PEIE));
 80081a2:	687b      	ldr	r3, [r7, #4]
 80081a4:	681b      	ldr	r3, [r3, #0]
 80081a6:	330c      	adds	r3, #12
 80081a8:	63bb      	str	r3, [r7, #56]	; 0x38
   __ASM volatile ("ldrex %0, %1" : "=r" (result) : "Q" (*addr) );
 80081aa:	6bbb      	ldr	r3, [r7, #56]	; 0x38
 80081ac:	e853 3f00 	ldrex	r3, [r3]
 80081b0:	637b      	str	r3, [r7, #52]	; 0x34
   return(result);
 80081b2:	6b7b      	ldr	r3, [r7, #52]	; 0x34
 80081b4:	f423 7390 	bic.w	r3, r3, #288	; 0x120
 80081b8:	f8c7 30c8 	str.w	r3, [r7, #200]	; 0xc8
 80081bc:	687b      	ldr	r3, [r7, #4]
 80081be:	681b      	ldr	r3, [r3, #0]
 80081c0:	330c      	adds	r3, #12
 80081c2:	f8d7 20c8 	ldr.w	r2, [r7, #200]	; 0xc8
 80081c6:	647a      	str	r2, [r7, #68]	; 0x44
 80081c8:	643b      	str	r3, [r7, #64]	; 0x40
   __ASM volatile ("strex %0, %2, %1" : "=&r" (result), "=Q" (*addr) : "r" (value) );
 80081ca:	6c39      	ldr	r1, [r7, #64]	; 0x40
 80081cc:	6c7a      	ldr	r2, [r7, #68]	; 0x44
 80081ce:	e841 2300 	strex	r3, r2, [r1]
 80081d2:	63fb      	str	r3, [r7, #60]	; 0x3c
   return(result);
 80081d4:	6bfb      	ldr	r3, [r7, #60]	; 0x3c
 80081d6:	2b00      	cmp	r3, #0
 80081d8:	d1e3      	bne.n	80081a2 <HAL_UART_IRQHandler+0x40a>

        /* Disable the UART Error Interrupt: (Frame error, noise error, overrun error) */
        ATOMIC_CLEAR_BIT(huart->Instance->CR3, USART_CR3_EIE);
 80081da:	687b      	ldr	r3, [r7, #4]
 80081dc:	681b      	ldr	r3, [r3, #0]
 80081de:	3314      	adds	r3, #20
 80081e0:	627b      	str	r3, [r7, #36]	; 0x24
   __ASM volatile ("ldrex %0, %1" : "=r" (result) : "Q" (*addr) );
 80081e2:	6a7b      	ldr	r3, [r7, #36]	; 0x24
 80081e4:	e853 3f00 	ldrex	r3, [r3]
 80081e8:	623b      	str	r3, [r7, #32]
   return(result);
 80081ea:	6a3b      	ldr	r3, [r7, #32]
 80081ec:	f023 0301 	bic.w	r3, r3, #1
 80081f0:	f8c7 30c4 	str.w	r3, [r7, #196]	; 0xc4
 80081f4:	687b      	ldr	r3, [r7, #4]
 80081f6:	681b      	ldr	r3, [r3, #0]
 80081f8:	3314      	adds	r3, #20
 80081fa:	f8d7 20c4 	ldr.w	r2, [r7, #196]	; 0xc4
 80081fe:	633a      	str	r2, [r7, #48]	; 0x30
 8008200:	62fb      	str	r3, [r7, #44]	; 0x2c
   __ASM volatile ("strex %0, %2, %1" : "=&r" (result), "=Q" (*addr) : "r" (value) );
 8008202:	6af9      	ldr	r1, [r7, #44]	; 0x2c
 8008204:	6b3a      	ldr	r2, [r7, #48]	; 0x30
 8008206:	e841 2300 	strex	r3, r2, [r1]
 800820a:	62bb      	str	r3, [r7, #40]	; 0x28
   return(result);
 800820c:	6abb      	ldr	r3, [r7, #40]	; 0x28
 800820e:	2b00      	cmp	r3, #0
 8008210:	d1e3      	bne.n	80081da <HAL_UART_IRQHandler+0x442>

        /* Rx process is completed, restore huart->RxState to Ready */
        huart->RxState = HAL_UART_STATE_READY;
 8008212:	687b      	ldr	r3, [r7, #4]
 8008214:	2220      	movs	r2, #32
 8008216:	f883 2042 	strb.w	r2, [r3, #66]	; 0x42
        huart->ReceptionType = HAL_UART_RECEPTION_STANDARD;
 800821a:	687b      	ldr	r3, [r7, #4]
 800821c:	2200      	movs	r2, #0
 800821e:	631a      	str	r2, [r3, #48]	; 0x30

        ATOMIC_CLEAR_BIT(huart->Instance->CR1, USART_CR1_IDLEIE);
 8008220:	687b      	ldr	r3, [r7, #4]
 8008222:	681b      	ldr	r3, [r3, #0]
 8008224:	330c      	adds	r3, #12
 8008226:	613b      	str	r3, [r7, #16]
   __ASM volatile ("ldrex %0, %1" : "=r" (result) : "Q" (*addr) );
 8008228:	693b      	ldr	r3, [r7, #16]
 800822a:	e853 3f00 	ldrex	r3, [r3]
 800822e:	60fb      	str	r3, [r7, #12]
   return(result);
 8008230:	68fb      	ldr	r3, [r7, #12]
 8008232:	f023 0310 	bic.w	r3, r3, #16
 8008236:	f8c7 30c0 	str.w	r3, [r7, #192]	; 0xc0
 800823a:	687b      	ldr	r3, [r7, #4]
 800823c:	681b      	ldr	r3, [r3, #0]
 800823e:	330c      	adds	r3, #12
 8008240:	f8d7 20c0 	ldr.w	r2, [r7, #192]	; 0xc0
 8008244:	61fa      	str	r2, [r7, #28]
 8008246:	61bb      	str	r3, [r7, #24]
   __ASM volatile ("strex %0, %2, %1" : "=&r" (result), "=Q" (*addr) : "r" (value) );
 8008248:	69b9      	ldr	r1, [r7, #24]
 800824a:	69fa      	ldr	r2, [r7, #28]
 800824c:	e841 2300 	strex	r3, r2, [r1]
 8008250:	617b      	str	r3, [r7, #20]
   return(result);
 8008252:	697b      	ldr	r3, [r7, #20]
 8008254:	2b00      	cmp	r3, #0
 8008256:	d1e3      	bne.n	8008220 <HAL_UART_IRQHandler+0x488>

        /* Initialize type of RxEvent that correspond to RxEvent callback execution;
           In this case, Rx Event type is Idle Event */
        huart->RxEventType = HAL_UART_RXEVENT_IDLE;
 8008258:	687b      	ldr	r3, [r7, #4]
 800825a:	2202      	movs	r2, #2
 800825c:	635a      	str	r2, [r3, #52]	; 0x34
#if (USE_HAL_UART_REGISTER_CALLBACKS == 1)
        /*Call registered Rx complete callback*/
        huart->RxEventCallback(huart, nb_rx_data);
#else
        /*Call legacy weak Rx Event callback*/
        HAL_UARTEx_RxEventCallback(huart, nb_rx_data);
 800825e:	f8b7 30ce 	ldrh.w	r3, [r7, #206]	; 0xce
 8008262:	4619      	mov	r1, r3
 8008264:	6878      	ldr	r0, [r7, #4]
 8008266:	f000 f844 	bl	80082f2 <HAL_UARTEx_RxEventCallback>
#endif /* USE_HAL_UART_REGISTER_CALLBACKS */
      }
      return;
 800826a:	e023      	b.n	80082b4 <HAL_UART_IRQHandler+0x51c>
    }
  }

  /* UART in mode Transmitter ------------------------------------------------*/
  if (((isrflags & USART_SR_TXE) != RESET) && ((cr1its & USART_CR1_TXEIE) != RESET))
 800826c:	f8d7 30e4 	ldr.w	r3, [r7, #228]	; 0xe4
 8008270:	f003 0380 	and.w	r3, r3, #128	; 0x80
 8008274:	2b00      	cmp	r3, #0
 8008276:	d009      	beq.n	800828c <HAL_UART_IRQHandler+0x4f4>
 8008278:	f8d7 30e0 	ldr.w	r3, [r7, #224]	; 0xe0
 800827c:	f003 0380 	and.w	r3, r3, #128	; 0x80
 8008280:	2b00      	cmp	r3, #0
 8008282:	d003      	beq.n	800828c <HAL_UART_IRQHandler+0x4f4>
  {
    UART_Transmit_IT(huart);
 8008284:	6878      	ldr	r0, [r7, #4]
 8008286:	f000 f923 	bl	80084d0 <UART_Transmit_IT>
    return;
 800828a:	e014      	b.n	80082b6 <HAL_UART_IRQHandler+0x51e>
  }

  /* UART in mode Transmitter end --------------------------------------------*/
  if (((isrflags & USART_SR_TC) != RESET) && ((cr1its & USART_CR1_TCIE) != RESET))
 800828c:	f8d7 30e4 	ldr.w	r3, [r7, #228]	; 0xe4
 8008290:	f003 0340 	and.w	r3, r3, #64	; 0x40
 8008294:	2b00      	cmp	r3, #0
 8008296:	d00e      	beq.n	80082b6 <HAL_UART_IRQHandler+0x51e>
 8008298:	f8d7 30e0 	ldr.w	r3, [r7, #224]	; 0xe0
 800829c:	f003 0340 	and.w	r3, r3, #64	; 0x40
 80082a0:	2b00      	cmp	r3, #0
 80082a2:	d008      	beq.n	80082b6 <HAL_UART_IRQHandler+0x51e>
  {
    UART_EndTransmit_IT(huart);
 80082a4:	6878      	ldr	r0, [r7, #4]
 80082a6:	f000 f962 	bl	800856e <UART_EndTransmit_IT>
    return;
 80082aa:	e004      	b.n	80082b6 <HAL_UART_IRQHandler+0x51e>
    return;
 80082ac:	bf00      	nop
 80082ae:	e002      	b.n	80082b6 <HAL_UART_IRQHandler+0x51e>
      return;
 80082b0:	bf00      	nop
 80082b2:	e000      	b.n	80082b6 <HAL_UART_IRQHandler+0x51e>
      return;
 80082b4:	bf00      	nop
  }
}
 80082b6:	37e8      	adds	r7, #232	; 0xe8
 80082b8:	46bd      	mov	sp, r7
 80082ba:	bd80      	pop	{r7, pc}

080082bc <HAL_UART_TxCpltCallback>:
  * @param  huart  Pointer to a UART_HandleTypeDef structure that contains
  *                the configuration information for the specified UART module.
  * @retval None
  */
__weak void HAL_UART_TxCpltCallback(UART_HandleTypeDef *huart)
{
 80082bc:	b480      	push	{r7}
 80082be:	b083      	sub	sp, #12
 80082c0:	af00      	add	r7, sp, #0
 80082c2:	6078      	str	r0, [r7, #4]
  /* Prevent unused argument(s) compilation warning */
  UNUSED(huart);
  /* NOTE: This function should not be modified, when the callback is needed,
           the HAL_UART_TxCpltCallback could be implemented in the user file
   */
}
 80082c4:	bf00      	nop
 80082c6:	370c      	adds	r7, #12
 80082c8:	46bd      	mov	sp, r7
 80082ca:	bc80      	pop	{r7}
 80082cc:	4770      	bx	lr

080082ce <HAL_UART_RxCpltCallback>:
  * @param  huart  Pointer to a UART_HandleTypeDef structure that contains
  *                the configuration information for the specified UART module.
  * @retval None
  */
__weak void HAL_UART_RxCpltCallback(UART_HandleTypeDef *huart)
{
 80082ce:	b480      	push	{r7}
 80082d0:	b083      	sub	sp, #12
 80082d2:	af00      	add	r7, sp, #0
 80082d4:	6078      	str	r0, [r7, #4]
  /* Prevent unused argument(s) compilation warning */
  UNUSED(huart);
  /* NOTE: This function should not be modified, when the callback is needed,
           the HAL_UART_RxCpltCallback could be implemented in the user file
   */
}
 80082d6:	bf00      	nop
 80082d8:	370c      	adds	r7, #12
 80082da:	46bd      	mov	sp, r7
 80082dc:	bc80      	pop	{r7}
 80082de:	4770      	bx	lr

080082e0 <HAL_UART_ErrorCallback>:
  * @param  huart  Pointer to a UART_HandleTypeDef structure that contains
  *                the configuration information for the specified UART module.
  * @retval None
  */
__weak void HAL_UART_ErrorCallback(UART_HandleTypeDef *huart)
{
 80082e0:	b480      	push	{r7}
 80082e2:	b083      	sub	sp, #12
 80082e4:	af00      	add	r7, sp, #0
 80082e6:	6078      	str	r0, [r7, #4]
  /* Prevent unused argument(s) compilation warning */
  UNUSED(huart);
  /* NOTE: This function should not be modified, when the callback is needed,
           the HAL_UART_ErrorCallback could be implemented in the user file
   */
}
 80082e8:	bf00      	nop
 80082ea:	370c      	adds	r7, #12
 80082ec:	46bd      	mov	sp, r7
 80082ee:	bc80      	pop	{r7}
 80082f0:	4770      	bx	lr

080082f2 <HAL_UARTEx_RxEventCallback>:
  * @param  Size  Number of data available in application reception buffer (indicates a position in
  *               reception buffer until which, data are available)
  * @retval None
  */
__weak void HAL_UARTEx_RxEventCallback(UART_HandleTypeDef *huart, uint16_t Size)
{
 80082f2:	b480      	push	{r7}
 80082f4:	b083      	sub	sp, #12
 80082f6:	af00      	add	r7, sp, #0
 80082f8:	6078      	str	r0, [r7, #4]
 80082fa:	460b      	mov	r3, r1
 80082fc:	807b      	strh	r3, [r7, #2]
  UNUSED(Size);

  /* NOTE : This function should not be modified, when the callback is needed,
            the HAL_UARTEx_RxEventCallback can be implemented in the user file.
   */
}
 80082fe:	bf00      	nop
 8008300:	370c      	adds	r7, #12
 8008302:	46bd      	mov	sp, r7
 8008304:	bc80      	pop	{r7}
 8008306:	4770      	bx	lr

08008308 <UART_WaitOnFlagUntilTimeout>:
  * @param  Timeout Timeout duration
  * @retval HAL status
  */
static HAL_StatusTypeDef UART_WaitOnFlagUntilTimeout(UART_HandleTypeDef *huart, uint32_t Flag, FlagStatus Status,
                                                     uint32_t Tickstart, uint32_t Timeout)
{
 8008308:	b580      	push	{r7, lr}
 800830a:	b090      	sub	sp, #64	; 0x40
 800830c:	af00      	add	r7, sp, #0
 800830e:	60f8      	str	r0, [r7, #12]
 8008310:	60b9      	str	r1, [r7, #8]
 8008312:	603b      	str	r3, [r7, #0]
 8008314:	4613      	mov	r3, r2
 8008316:	71fb      	strb	r3, [r7, #7]
  /* Wait until flag is set */
  while ((__HAL_UART_GET_FLAG(huart, Flag) ? SET : RESET) == Status)
 8008318:	e050      	b.n	80083bc <UART_WaitOnFlagUntilTimeout+0xb4>
  {
    /* Check for the Timeout */
    if (Timeout != HAL_MAX_DELAY)
 800831a:	6cbb      	ldr	r3, [r7, #72]	; 0x48
 800831c:	f1b3 3fff 	cmp.w	r3, #4294967295
 8008320:	d04c      	beq.n	80083bc <UART_WaitOnFlagUntilTimeout+0xb4>
    {
      if ((Timeout == 0U) || ((HAL_GetTick() - Tickstart) > Timeout))
 8008322:	6cbb      	ldr	r3, [r7, #72]	; 0x48
 8008324:	2b00      	cmp	r3, #0
 8008326:	d007      	beq.n	8008338 <UART_WaitOnFlagUntilTimeout+0x30>
 8008328:	f7fc fd34 	bl	8004d94 <HAL_GetTick>
 800832c:	4602      	mov	r2, r0
 800832e:	683b      	ldr	r3, [r7, #0]
 8008330:	1ad3      	subs	r3, r2, r3
 8008332:	6cba      	ldr	r2, [r7, #72]	; 0x48
 8008334:	429a      	cmp	r2, r3
 8008336:	d241      	bcs.n	80083bc <UART_WaitOnFlagUntilTimeout+0xb4>
      {
        /* Disable TXE, RXNE, PE and ERR (Frame error, noise error, overrun error) interrupts for the interrupt process */
        ATOMIC_CLEAR_BIT(huart->Instance->CR1, (USART_CR1_RXNEIE | USART_CR1_PEIE | USART_CR1_TXEIE));
 8008338:	68fb      	ldr	r3, [r7, #12]
 800833a:	681b      	ldr	r3, [r3, #0]
 800833c:	330c      	adds	r3, #12
 800833e:	62bb      	str	r3, [r7, #40]	; 0x28
   __ASM volatile ("ldrex %0, %1" : "=r" (result) : "Q" (*addr) );
 8008340:	6abb      	ldr	r3, [r7, #40]	; 0x28
 8008342:	e853 3f00 	ldrex	r3, [r3]
 8008346:	627b      	str	r3, [r7, #36]	; 0x24
   return(result);
 8008348:	6a7b      	ldr	r3, [r7, #36]	; 0x24
 800834a:	f423 73d0 	bic.w	r3, r3, #416	; 0x1a0
 800834e:	63fb      	str	r3, [r7, #60]	; 0x3c
 8008350:	68fb      	ldr	r3, [r7, #12]
 8008352:	681b      	ldr	r3, [r3, #0]
 8008354:	330c      	adds	r3, #12
 8008356:	6bfa      	ldr	r2, [r7, #60]	; 0x3c
 8008358:	637a      	str	r2, [r7, #52]	; 0x34
 800835a:	633b      	str	r3, [r7, #48]	; 0x30
   __ASM volatile ("strex %0, %2, %1" : "=&r" (result), "=Q" (*addr) : "r" (value) );
 800835c:	6b39      	ldr	r1, [r7, #48]	; 0x30
 800835e:	6b7a      	ldr	r2, [r7, #52]	; 0x34
 8008360:	e841 2300 	strex	r3, r2, [r1]
 8008364:	62fb      	str	r3, [r7, #44]	; 0x2c
   return(result);
 8008366:	6afb      	ldr	r3, [r7, #44]	; 0x2c
 8008368:	2b00      	cmp	r3, #0
 800836a:	d1e5      	bne.n	8008338 <UART_WaitOnFlagUntilTimeout+0x30>
        ATOMIC_CLEAR_BIT(huart->Instance->CR3, USART_CR3_EIE);
 800836c:	68fb      	ldr	r3, [r7, #12]
 800836e:	681b      	ldr	r3, [r3, #0]
 8008370:	3314      	adds	r3, #20
 8008372:	617b      	str	r3, [r7, #20]
   __ASM volatile ("ldrex %0, %1" : "=r" (result) : "Q" (*addr) );
 8008374:	697b      	ldr	r3, [r7, #20]
 8008376:	e853 3f00 	ldrex	r3, [r3]
 800837a:	613b      	str	r3, [r7, #16]
   return(result);
 800837c:	693b      	ldr	r3, [r7, #16]
 800837e:	f023 0301 	bic.w	r3, r3, #1
 8008382:	63bb      	str	r3, [r7, #56]	; 0x38
 8008384:	68fb      	ldr	r3, [r7, #12]
 8008386:	681b      	ldr	r3, [r3, #0]
 8008388:	3314      	adds	r3, #20
 800838a:	6bba      	ldr	r2, [r7, #56]	; 0x38
 800838c:	623a      	str	r2, [r7, #32]
 800838e:	61fb      	str	r3, [r7, #28]
   __ASM volatile ("strex %0, %2, %1" : "=&r" (result), "=Q" (*addr) : "r" (value) );
 8008390:	69f9      	ldr	r1, [r7, #28]
 8008392:	6a3a      	ldr	r2, [r7, #32]
 8008394:	e841 2300 	strex	r3, r2, [r1]
 8008398:	61bb      	str	r3, [r7, #24]
   return(result);
 800839a:	69bb      	ldr	r3, [r7, #24]
 800839c:	2b00      	cmp	r3, #0
 800839e:	d1e5      	bne.n	800836c <UART_WaitOnFlagUntilTimeout+0x64>

        huart->gState  = HAL_UART_STATE_READY;
 80083a0:	68fb      	ldr	r3, [r7, #12]
 80083a2:	2220      	movs	r2, #32
 80083a4:	f883 2041 	strb.w	r2, [r3, #65]	; 0x41
        huart->RxState = HAL_UART_STATE_READY;
 80083a8:	68fb      	ldr	r3, [r7, #12]
 80083aa:	2220      	movs	r2, #32
 80083ac:	f883 2042 	strb.w	r2, [r3, #66]	; 0x42

        /* Process Unlocked */
        __HAL_UNLOCK(huart);
 80083b0:	68fb      	ldr	r3, [r7, #12]
 80083b2:	2200      	movs	r2, #0
 80083b4:	f883 2040 	strb.w	r2, [r3, #64]	; 0x40

        return HAL_TIMEOUT;
 80083b8:	2303      	movs	r3, #3
 80083ba:	e00f      	b.n	80083dc <UART_WaitOnFlagUntilTimeout+0xd4>
  while ((__HAL_UART_GET_FLAG(huart, Flag) ? SET : RESET) == Status)
 80083bc:	68fb      	ldr	r3, [r7, #12]
 80083be:	681b      	ldr	r3, [r3, #0]
 80083c0:	681a      	ldr	r2, [r3, #0]
 80083c2:	68bb      	ldr	r3, [r7, #8]
 80083c4:	4013      	ands	r3, r2
 80083c6:	68ba      	ldr	r2, [r7, #8]
 80083c8:	429a      	cmp	r2, r3
 80083ca:	bf0c      	ite	eq
 80083cc:	2301      	moveq	r3, #1
 80083ce:	2300      	movne	r3, #0
 80083d0:	b2db      	uxtb	r3, r3
 80083d2:	461a      	mov	r2, r3
 80083d4:	79fb      	ldrb	r3, [r7, #7]
 80083d6:	429a      	cmp	r2, r3
 80083d8:	d09f      	beq.n	800831a <UART_WaitOnFlagUntilTimeout+0x12>
      }
    }
  }
  return HAL_OK;
 80083da:	2300      	movs	r3, #0
}
 80083dc:	4618      	mov	r0, r3
 80083de:	3740      	adds	r7, #64	; 0x40
 80083e0:	46bd      	mov	sp, r7
 80083e2:	bd80      	pop	{r7, pc}

080083e4 <UART_EndRxTransfer>:
  * @brief  End ongoing Rx transfer on UART peripheral (following error detection or Reception completion).
  * @param  huart UART handle.
  * @retval None
  */
static void UART_EndRxTransfer(UART_HandleTypeDef *huart)
{
 80083e4:	b480      	push	{r7}
 80083e6:	b095      	sub	sp, #84	; 0x54
 80083e8:	af00      	add	r7, sp, #0
 80083ea:	6078      	str	r0, [r7, #4]
  /* Disable RXNE, PE and ERR (Frame error, noise error, overrun error) interrupts */
  ATOMIC_CLEAR_BIT(huart->Instance->CR1, (USART_CR1_RXNEIE | USART_CR1_PEIE));
 80083ec:	687b      	ldr	r3, [r7, #4]
 80083ee:	681b      	ldr	r3, [r3, #0]
 80083f0:	330c      	adds	r3, #12
 80083f2:	637b      	str	r3, [r7, #52]	; 0x34
   __ASM volatile ("ldrex %0, %1" : "=r" (result) : "Q" (*addr) );
 80083f4:	6b7b      	ldr	r3, [r7, #52]	; 0x34
 80083f6:	e853 3f00 	ldrex	r3, [r3]
 80083fa:	633b      	str	r3, [r7, #48]	; 0x30
   return(result);
 80083fc:	6b3b      	ldr	r3, [r7, #48]	; 0x30
 80083fe:	f423 7390 	bic.w	r3, r3, #288	; 0x120
 8008402:	64fb      	str	r3, [r7, #76]	; 0x4c
 8008404:	687b      	ldr	r3, [r7, #4]
 8008406:	681b      	ldr	r3, [r3, #0]
 8008408:	330c      	adds	r3, #12
 800840a:	6cfa      	ldr	r2, [r7, #76]	; 0x4c
 800840c:	643a      	str	r2, [r7, #64]	; 0x40
 800840e:	63fb      	str	r3, [r7, #60]	; 0x3c
   __ASM volatile ("strex %0, %2, %1" : "=&r" (result), "=Q" (*addr) : "r" (value) );
 8008410:	6bf9      	ldr	r1, [r7, #60]	; 0x3c
 8008412:	6c3a      	ldr	r2, [r7, #64]	; 0x40
 8008414:	e841 2300 	strex	r3, r2, [r1]
 8008418:	63bb      	str	r3, [r7, #56]	; 0x38
   return(result);
 800841a:	6bbb      	ldr	r3, [r7, #56]	; 0x38
 800841c:	2b00      	cmp	r3, #0
 800841e:	d1e5      	bne.n	80083ec <UART_EndRxTransfer+0x8>
  ATOMIC_CLEAR_BIT(huart->Instance->CR3, USART_CR3_EIE);
 8008420:	687b      	ldr	r3, [r7, #4]
 8008422:	681b      	ldr	r3, [r3, #0]
 8008424:	3314      	adds	r3, #20
 8008426:	623b      	str	r3, [r7, #32]
   __ASM volatile ("ldrex %0, %1" : "=r" (result) : "Q" (*addr) );
 8008428:	6a3b      	ldr	r3, [r7, #32]
 800842a:	e853 3f00 	ldrex	r3, [r3]
 800842e:	61fb      	str	r3, [r7, #28]
   return(result);
 8008430:	69fb      	ldr	r3, [r7, #28]
 8008432:	f023 0301 	bic.w	r3, r3, #1
 8008436:	64bb      	str	r3, [r7, #72]	; 0x48
 8008438:	687b      	ldr	r3, [r7, #4]
 800843a:	681b      	ldr	r3, [r3, #0]
 800843c:	3314      	adds	r3, #20
 800843e:	6cba      	ldr	r2, [r7, #72]	; 0x48
 8008440:	62fa      	str	r2, [r7, #44]	; 0x2c
 8008442:	62bb      	str	r3, [r7, #40]	; 0x28
   __ASM volatile ("strex %0, %2, %1" : "=&r" (result), "=Q" (*addr) : "r" (value) );
 8008444:	6ab9      	ldr	r1, [r7, #40]	; 0x28
 8008446:	6afa      	ldr	r2, [r7, #44]	; 0x2c
 8008448:	e841 2300 	strex	r3, r2, [r1]
 800844c:	627b      	str	r3, [r7, #36]	; 0x24
   return(result);
 800844e:	6a7b      	ldr	r3, [r7, #36]	; 0x24
 8008450:	2b00      	cmp	r3, #0
 8008452:	d1e5      	bne.n	8008420 <UART_EndRxTransfer+0x3c>

  /* In case of reception waiting for IDLE event, disable also the IDLE IE interrupt source */
  if (huart->ReceptionType == HAL_UART_RECEPTION_TOIDLE)
 8008454:	687b      	ldr	r3, [r7, #4]
 8008456:	6b1b      	ldr	r3, [r3, #48]	; 0x30
 8008458:	2b01      	cmp	r3, #1
 800845a:	d119      	bne.n	8008490 <UART_EndRxTransfer+0xac>
  {
    ATOMIC_CLEAR_BIT(huart->Instance->CR1, USART_CR1_IDLEIE);
 800845c:	687b      	ldr	r3, [r7, #4]
 800845e:	681b      	ldr	r3, [r3, #0]
 8008460:	330c      	adds	r3, #12
 8008462:	60fb      	str	r3, [r7, #12]
   __ASM volatile ("ldrex %0, %1" : "=r" (result) : "Q" (*addr) );
 8008464:	68fb      	ldr	r3, [r7, #12]
 8008466:	e853 3f00 	ldrex	r3, [r3]
 800846a:	60bb      	str	r3, [r7, #8]
   return(result);
 800846c:	68bb      	ldr	r3, [r7, #8]
 800846e:	f023 0310 	bic.w	r3, r3, #16
 8008472:	647b      	str	r3, [r7, #68]	; 0x44
 8008474:	687b      	ldr	r3, [r7, #4]
 8008476:	681b      	ldr	r3, [r3, #0]
 8008478:	330c      	adds	r3, #12
 800847a:	6c7a      	ldr	r2, [r7, #68]	; 0x44
 800847c:	61ba      	str	r2, [r7, #24]
 800847e:	617b      	str	r3, [r7, #20]
   __ASM volatile ("strex %0, %2, %1" : "=&r" (result), "=Q" (*addr) : "r" (value) );
 8008480:	6979      	ldr	r1, [r7, #20]
 8008482:	69ba      	ldr	r2, [r7, #24]
 8008484:	e841 2300 	strex	r3, r2, [r1]
 8008488:	613b      	str	r3, [r7, #16]
   return(result);
 800848a:	693b      	ldr	r3, [r7, #16]
 800848c:	2b00      	cmp	r3, #0
 800848e:	d1e5      	bne.n	800845c <UART_EndRxTransfer+0x78>
  }

  /* At end of Rx process, restore huart->RxState to Ready */
  huart->RxState = HAL_UART_STATE_READY;
 8008490:	687b      	ldr	r3, [r7, #4]
 8008492:	2220      	movs	r2, #32
 8008494:	f883 2042 	strb.w	r2, [r3, #66]	; 0x42
  huart->ReceptionType = HAL_UART_RECEPTION_STANDARD;
 8008498:	687b      	ldr	r3, [r7, #4]
 800849a:	2200      	movs	r2, #0
 800849c:	631a      	str	r2, [r3, #48]	; 0x30
}
 800849e:	bf00      	nop
 80084a0:	3754      	adds	r7, #84	; 0x54
 80084a2:	46bd      	mov	sp, r7
 80084a4:	bc80      	pop	{r7}
 80084a6:	4770      	bx	lr

080084a8 <UART_DMAAbortOnError>:
  * @param  hdma  Pointer to a DMA_HandleTypeDef structure that contains
  *               the configuration information for the specified DMA module.
  * @retval None
  */
static void UART_DMAAbortOnError(DMA_HandleTypeDef *hdma)
{
 80084a8:	b580      	push	{r7, lr}
 80084aa:	b084      	sub	sp, #16
 80084ac:	af00      	add	r7, sp, #0
 80084ae:	6078      	str	r0, [r7, #4]
  UART_HandleTypeDef *huart = (UART_HandleTypeDef *)((DMA_HandleTypeDef *)hdma)->Parent;
 80084b0:	687b      	ldr	r3, [r7, #4]
 80084b2:	6a5b      	ldr	r3, [r3, #36]	; 0x24
 80084b4:	60fb      	str	r3, [r7, #12]
  huart->RxXferCount = 0x00U;
 80084b6:	68fb      	ldr	r3, [r7, #12]
 80084b8:	2200      	movs	r2, #0
 80084ba:	85da      	strh	r2, [r3, #46]	; 0x2e
  huart->TxXferCount = 0x00U;
 80084bc:	68fb      	ldr	r3, [r7, #12]
 80084be:	2200      	movs	r2, #0
 80084c0:	84da      	strh	r2, [r3, #38]	; 0x26
#if (USE_HAL_UART_REGISTER_CALLBACKS == 1)
  /*Call registered error callback*/
  huart->ErrorCallback(huart);
#else
  /*Call legacy weak error callback*/
  HAL_UART_ErrorCallback(huart);
 80084c2:	68f8      	ldr	r0, [r7, #12]
 80084c4:	f7ff ff0c 	bl	80082e0 <HAL_UART_ErrorCallback>
#endif /* USE_HAL_UART_REGISTER_CALLBACKS */
}
 80084c8:	bf00      	nop
 80084ca:	3710      	adds	r7, #16
 80084cc:	46bd      	mov	sp, r7
 80084ce:	bd80      	pop	{r7, pc}

080084d0 <UART_Transmit_IT>:
  * @param  huart  Pointer to a UART_HandleTypeDef structure that contains
  *                the configuration information for the specified UART module.
  * @retval HAL status
  */
static HAL_StatusTypeDef UART_Transmit_IT(UART_HandleTypeDef *huart)
{
 80084d0:	b480      	push	{r7}
 80084d2:	b085      	sub	sp, #20
 80084d4:	af00      	add	r7, sp, #0
 80084d6:	6078      	str	r0, [r7, #4]
  const uint16_t *tmp;

  /* Check that a Tx process is ongoing */
  if (huart->gState == HAL_UART_STATE_BUSY_TX)
 80084d8:	687b      	ldr	r3, [r7, #4]
 80084da:	f893 3041 	ldrb.w	r3, [r3, #65]	; 0x41
 80084de:	b2db      	uxtb	r3, r3
 80084e0:	2b21      	cmp	r3, #33	; 0x21
 80084e2:	d13e      	bne.n	8008562 <UART_Transmit_IT+0x92>
  {
    if ((huart->Init.WordLength == UART_WORDLENGTH_9B) && (huart->Init.Parity == UART_PARITY_NONE))
 80084e4:	687b      	ldr	r3, [r7, #4]
 80084e6:	689b      	ldr	r3, [r3, #8]
 80084e8:	f5b3 5f80 	cmp.w	r3, #4096	; 0x1000
 80084ec:	d114      	bne.n	8008518 <UART_Transmit_IT+0x48>
 80084ee:	687b      	ldr	r3, [r7, #4]
 80084f0:	691b      	ldr	r3, [r3, #16]
 80084f2:	2b00      	cmp	r3, #0
 80084f4:	d110      	bne.n	8008518 <UART_Transmit_IT+0x48>
    {
      tmp = (const uint16_t *) huart->pTxBuffPtr;
 80084f6:	687b      	ldr	r3, [r7, #4]
 80084f8:	6a1b      	ldr	r3, [r3, #32]
 80084fa:	60fb      	str	r3, [r7, #12]
      huart->Instance->DR = (uint16_t)(*tmp & (uint16_t)0x01FF);
 80084fc:	68fb      	ldr	r3, [r7, #12]
 80084fe:	881b      	ldrh	r3, [r3, #0]
 8008500:	461a      	mov	r2, r3
 8008502:	687b      	ldr	r3, [r7, #4]
 8008504:	681b      	ldr	r3, [r3, #0]
 8008506:	f3c2 0208 	ubfx	r2, r2, #0, #9
 800850a:	605a      	str	r2, [r3, #4]
      huart->pTxBuffPtr += 2U;
 800850c:	687b      	ldr	r3, [r7, #4]
 800850e:	6a1b      	ldr	r3, [r3, #32]
 8008510:	1c9a      	adds	r2, r3, #2
 8008512:	687b      	ldr	r3, [r7, #4]
 8008514:	621a      	str	r2, [r3, #32]
 8008516:	e008      	b.n	800852a <UART_Transmit_IT+0x5a>
    }
    else
    {
      huart->Instance->DR = (uint8_t)(*huart->pTxBuffPtr++ & (uint8_t)0x00FF);
 8008518:	687b      	ldr	r3, [r7, #4]
 800851a:	6a1b      	ldr	r3, [r3, #32]
 800851c:	1c59      	adds	r1, r3, #1
 800851e:	687a      	ldr	r2, [r7, #4]
 8008520:	6211      	str	r1, [r2, #32]
 8008522:	781a      	ldrb	r2, [r3, #0]
 8008524:	687b      	ldr	r3, [r7, #4]
 8008526:	681b      	ldr	r3, [r3, #0]
 8008528:	605a      	str	r2, [r3, #4]
    }

    if (--huart->TxXferCount == 0U)
 800852a:	687b      	ldr	r3, [r7, #4]
 800852c:	8cdb      	ldrh	r3, [r3, #38]	; 0x26
 800852e:	b29b      	uxth	r3, r3
 8008530:	3b01      	subs	r3, #1
 8008532:	b29b      	uxth	r3, r3
 8008534:	687a      	ldr	r2, [r7, #4]
 8008536:	4619      	mov	r1, r3
 8008538:	84d1      	strh	r1, [r2, #38]	; 0x26
 800853a:	2b00      	cmp	r3, #0
 800853c:	d10f      	bne.n	800855e <UART_Transmit_IT+0x8e>
    {
      /* Disable the UART Transmit Data Register Empty Interrupt */
      __HAL_UART_DISABLE_IT(huart, UART_IT_TXE);
 800853e:	687b      	ldr	r3, [r7, #4]
 8008540:	681b      	ldr	r3, [r3, #0]
 8008542:	68da      	ldr	r2, [r3, #12]
 8008544:	687b      	ldr	r3, [r7, #4]
 8008546:	681b      	ldr	r3, [r3, #0]
 8008548:	f022 0280 	bic.w	r2, r2, #128	; 0x80
 800854c:	60da      	str	r2, [r3, #12]

      /* Enable the UART Transmit Complete Interrupt */
      __HAL_UART_ENABLE_IT(huart, UART_IT_TC);
 800854e:	687b      	ldr	r3, [r7, #4]
 8008550:	681b      	ldr	r3, [r3, #0]
 8008552:	68da      	ldr	r2, [r3, #12]
 8008554:	687b      	ldr	r3, [r7, #4]
 8008556:	681b      	ldr	r3, [r3, #0]
 8008558:	f042 0240 	orr.w	r2, r2, #64	; 0x40
 800855c:	60da      	str	r2, [r3, #12]
    }
    return HAL_OK;
 800855e:	2300      	movs	r3, #0
 8008560:	e000      	b.n	8008564 <UART_Transmit_IT+0x94>
  }
  else
  {
    return HAL_BUSY;
 8008562:	2302      	movs	r3, #2
  }
}
 8008564:	4618      	mov	r0, r3
 8008566:	3714      	adds	r7, #20
 8008568:	46bd      	mov	sp, r7
 800856a:	bc80      	pop	{r7}
 800856c:	4770      	bx	lr

0800856e <UART_EndTransmit_IT>:
  * @param  huart  Pointer to a UART_HandleTypeDef structure that contains
  *                the configuration information for the specified UART module.
  * @retval HAL status
  */
static HAL_StatusTypeDef UART_EndTransmit_IT(UART_HandleTypeDef *huart)
{
 800856e:	b580      	push	{r7, lr}
 8008570:	b082      	sub	sp, #8
 8008572:	af00      	add	r7, sp, #0
 8008574:	6078      	str	r0, [r7, #4]
  /* Disable the UART Transmit Complete Interrupt */
  __HAL_UART_DISABLE_IT(huart, UART_IT_TC);
 8008576:	687b      	ldr	r3, [r7, #4]
 8008578:	681b      	ldr	r3, [r3, #0]
 800857a:	68da      	ldr	r2, [r3, #12]
 800857c:	687b      	ldr	r3, [r7, #4]
 800857e:	681b      	ldr	r3, [r3, #0]
 8008580:	f022 0240 	bic.w	r2, r2, #64	; 0x40
 8008584:	60da      	str	r2, [r3, #12]

  /* Tx process is ended, restore huart->gState to Ready */
  huart->gState = HAL_UART_STATE_READY;
 8008586:	687b      	ldr	r3, [r7, #4]
 8008588:	2220      	movs	r2, #32
 800858a:	f883 2041 	strb.w	r2, [r3, #65]	; 0x41
#if (USE_HAL_UART_REGISTER_CALLBACKS == 1)
  /*Call registered Tx complete callback*/
  huart->TxCpltCallback(huart);
#else
  /*Call legacy weak Tx complete callback*/
  HAL_UART_TxCpltCallback(huart);
 800858e:	6878      	ldr	r0, [r7, #4]
 8008590:	f7ff fe94 	bl	80082bc <HAL_UART_TxCpltCallback>
#endif /* USE_HAL_UART_REGISTER_CALLBACKS */

  return HAL_OK;
 8008594:	2300      	movs	r3, #0
}
 8008596:	4618      	mov	r0, r3
 8008598:	3708      	adds	r7, #8
 800859a:	46bd      	mov	sp, r7
 800859c:	bd80      	pop	{r7, pc}

0800859e <UART_Receive_IT>:
  * @param  huart  Pointer to a UART_HandleTypeDef structure that contains
  *                the configuration information for the specified UART module.
  * @retval HAL status
  */
static HAL_StatusTypeDef UART_Receive_IT(UART_HandleTypeDef *huart)
{
 800859e:	b580      	push	{r7, lr}
 80085a0:	b08c      	sub	sp, #48	; 0x30
 80085a2:	af00      	add	r7, sp, #0
 80085a4:	6078      	str	r0, [r7, #4]
  uint8_t  *pdata8bits;
  uint16_t *pdata16bits;

  /* Check that a Rx process is ongoing */
  if (huart->RxState == HAL_UART_STATE_BUSY_RX)
 80085a6:	687b      	ldr	r3, [r7, #4]
 80085a8:	f893 3042 	ldrb.w	r3, [r3, #66]	; 0x42
 80085ac:	b2db      	uxtb	r3, r3
 80085ae:	2b22      	cmp	r3, #34	; 0x22
 80085b0:	f040 80ae 	bne.w	8008710 <UART_Receive_IT+0x172>
  {
    if ((huart->Init.WordLength == UART_WORDLENGTH_9B) && (huart->Init.Parity == UART_PARITY_NONE))
 80085b4:	687b      	ldr	r3, [r7, #4]
 80085b6:	689b      	ldr	r3, [r3, #8]
 80085b8:	f5b3 5f80 	cmp.w	r3, #4096	; 0x1000
 80085bc:	d117      	bne.n	80085ee <UART_Receive_IT+0x50>
 80085be:	687b      	ldr	r3, [r7, #4]
 80085c0:	691b      	ldr	r3, [r3, #16]
 80085c2:	2b00      	cmp	r3, #0
 80085c4:	d113      	bne.n	80085ee <UART_Receive_IT+0x50>
    {
      pdata8bits  = NULL;
 80085c6:	2300      	movs	r3, #0
 80085c8:	62fb      	str	r3, [r7, #44]	; 0x2c
      pdata16bits = (uint16_t *) huart->pRxBuffPtr;
 80085ca:	687b      	ldr	r3, [r7, #4]
 80085cc:	6a9b      	ldr	r3, [r3, #40]	; 0x28
 80085ce:	62bb      	str	r3, [r7, #40]	; 0x28
      *pdata16bits = (uint16_t)(huart->Instance->DR & (uint16_t)0x01FF);
 80085d0:	687b      	ldr	r3, [r7, #4]
 80085d2:	681b      	ldr	r3, [r3, #0]
 80085d4:	685b      	ldr	r3, [r3, #4]
 80085d6:	b29b      	uxth	r3, r3
 80085d8:	f3c3 0308 	ubfx	r3, r3, #0, #9
 80085dc:	b29a      	uxth	r2, r3
 80085de:	6abb      	ldr	r3, [r7, #40]	; 0x28
 80085e0:	801a      	strh	r2, [r3, #0]
      huart->pRxBuffPtr += 2U;
 80085e2:	687b      	ldr	r3, [r7, #4]
 80085e4:	6a9b      	ldr	r3, [r3, #40]	; 0x28
 80085e6:	1c9a      	adds	r2, r3, #2
 80085e8:	687b      	ldr	r3, [r7, #4]
 80085ea:	629a      	str	r2, [r3, #40]	; 0x28
 80085ec:	e026      	b.n	800863c <UART_Receive_IT+0x9e>
    }
    else
    {
      pdata8bits = (uint8_t *) huart->pRxBuffPtr;
 80085ee:	687b      	ldr	r3, [r7, #4]
 80085f0:	6a9b      	ldr	r3, [r3, #40]	; 0x28
 80085f2:	62fb      	str	r3, [r7, #44]	; 0x2c
      pdata16bits  = NULL;
 80085f4:	2300      	movs	r3, #0
 80085f6:	62bb      	str	r3, [r7, #40]	; 0x28

      if ((huart->Init.WordLength == UART_WORDLENGTH_9B) || ((huart->Init.WordLength == UART_WORDLENGTH_8B) && (huart->Init.Parity == UART_PARITY_NONE)))
 80085f8:	687b      	ldr	r3, [r7, #4]
 80085fa:	689b      	ldr	r3, [r3, #8]
 80085fc:	f5b3 5f80 	cmp.w	r3, #4096	; 0x1000
 8008600:	d007      	beq.n	8008612 <UART_Receive_IT+0x74>
 8008602:	687b      	ldr	r3, [r7, #4]
 8008604:	689b      	ldr	r3, [r3, #8]
 8008606:	2b00      	cmp	r3, #0
 8008608:	d10a      	bne.n	8008620 <UART_Receive_IT+0x82>
 800860a:	687b      	ldr	r3, [r7, #4]
 800860c:	691b      	ldr	r3, [r3, #16]
 800860e:	2b00      	cmp	r3, #0
 8008610:	d106      	bne.n	8008620 <UART_Receive_IT+0x82>
      {
        *pdata8bits = (uint8_t)(huart->Instance->DR & (uint8_t)0x00FF);
 8008612:	687b      	ldr	r3, [r7, #4]
 8008614:	681b      	ldr	r3, [r3, #0]
 8008616:	685b      	ldr	r3, [r3, #4]
 8008618:	b2da      	uxtb	r2, r3
 800861a:	6afb      	ldr	r3, [r7, #44]	; 0x2c
 800861c:	701a      	strb	r2, [r3, #0]
 800861e:	e008      	b.n	8008632 <UART_Receive_IT+0x94>
      }
      else
      {
        *pdata8bits = (uint8_t)(huart->Instance->DR & (uint8_t)0x007F);
 8008620:	687b      	ldr	r3, [r7, #4]
 8008622:	681b      	ldr	r3, [r3, #0]
 8008624:	685b      	ldr	r3, [r3, #4]
 8008626:	b2db      	uxtb	r3, r3
 8008628:	f003 037f 	and.w	r3, r3, #127	; 0x7f
 800862c:	b2da      	uxtb	r2, r3
 800862e:	6afb      	ldr	r3, [r7, #44]	; 0x2c
 8008630:	701a      	strb	r2, [r3, #0]
      }
      huart->pRxBuffPtr += 1U;
 8008632:	687b      	ldr	r3, [r7, #4]
 8008634:	6a9b      	ldr	r3, [r3, #40]	; 0x28
 8008636:	1c5a      	adds	r2, r3, #1
 8008638:	687b      	ldr	r3, [r7, #4]
 800863a:	629a      	str	r2, [r3, #40]	; 0x28
    }

    if (--huart->RxXferCount == 0U)
 800863c:	687b      	ldr	r3, [r7, #4]
 800863e:	8ddb      	ldrh	r3, [r3, #46]	; 0x2e
 8008640:	b29b      	uxth	r3, r3
 8008642:	3b01      	subs	r3, #1
 8008644:	b29b      	uxth	r3, r3
 8008646:	687a      	ldr	r2, [r7, #4]
 8008648:	4619      	mov	r1, r3
 800864a:	85d1      	strh	r1, [r2, #46]	; 0x2e
 800864c:	2b00      	cmp	r3, #0
 800864e:	d15d      	bne.n	800870c <UART_Receive_IT+0x16e>
    {
      /* Disable the UART Data Register not empty Interrupt */
      __HAL_UART_DISABLE_IT(huart, UART_IT_RXNE);
 8008650:	687b      	ldr	r3, [r7, #4]
 8008652:	681b      	ldr	r3, [r3, #0]
 8008654:	68da      	ldr	r2, [r3, #12]
 8008656:	687b      	ldr	r3, [r7, #4]
 8008658:	681b      	ldr	r3, [r3, #0]
 800865a:	f022 0220 	bic.w	r2, r2, #32
 800865e:	60da      	str	r2, [r3, #12]

      /* Disable the UART Parity Error Interrupt */
      __HAL_UART_DISABLE_IT(huart, UART_IT_PE);
 8008660:	687b      	ldr	r3, [r7, #4]
 8008662:	681b      	ldr	r3, [r3, #0]
 8008664:	68da      	ldr	r2, [r3, #12]
 8008666:	687b      	ldr	r3, [r7, #4]
 8008668:	681b      	ldr	r3, [r3, #0]
 800866a:	f422 7280 	bic.w	r2, r2, #256	; 0x100
 800866e:	60da      	str	r2, [r3, #12]

      /* Disable the UART Error Interrupt: (Frame error, noise error, overrun error) */
      __HAL_UART_DISABLE_IT(huart, UART_IT_ERR);
 8008670:	687b      	ldr	r3, [r7, #4]
 8008672:	681b      	ldr	r3, [r3, #0]
 8008674:	695a      	ldr	r2, [r3, #20]
 8008676:	687b      	ldr	r3, [r7, #4]
 8008678:	681b      	ldr	r3, [r3, #0]
 800867a:	f022 0201 	bic.w	r2, r2, #1
 800867e:	615a      	str	r2, [r3, #20]

      /* Rx process is completed, restore huart->RxState to Ready */
      huart->RxState = HAL_UART_STATE_READY;
 8008680:	687b      	ldr	r3, [r7, #4]
 8008682:	2220      	movs	r2, #32
 8008684:	f883 2042 	strb.w	r2, [r3, #66]	; 0x42

      /* Initialize type of RxEvent to Transfer Complete */
      huart->RxEventType = HAL_UART_RXEVENT_TC;
 8008688:	687b      	ldr	r3, [r7, #4]
 800868a:	2200      	movs	r2, #0
 800868c:	635a      	str	r2, [r3, #52]	; 0x34

      /* Check current reception Mode :
         If Reception till IDLE event has been selected : */
      if (huart->ReceptionType == HAL_UART_RECEPTION_TOIDLE)
 800868e:	687b      	ldr	r3, [r7, #4]
 8008690:	6b1b      	ldr	r3, [r3, #48]	; 0x30
 8008692:	2b01      	cmp	r3, #1
 8008694:	d135      	bne.n	8008702 <UART_Receive_IT+0x164>
      {
        /* Set reception type to Standard */
        huart->ReceptionType = HAL_UART_RECEPTION_STANDARD;
 8008696:	687b      	ldr	r3, [r7, #4]
 8008698:	2200      	movs	r2, #0
 800869a:	631a      	str	r2, [r3, #48]	; 0x30

        /* Disable IDLE interrupt */
        ATOMIC_CLEAR_BIT(huart->Instance->CR1, USART_CR1_IDLEIE);
 800869c:	687b      	ldr	r3, [r7, #4]
 800869e:	681b      	ldr	r3, [r3, #0]
 80086a0:	330c      	adds	r3, #12
 80086a2:	617b      	str	r3, [r7, #20]
   __ASM volatile ("ldrex %0, %1" : "=r" (result) : "Q" (*addr) );
 80086a4:	697b      	ldr	r3, [r7, #20]
 80086a6:	e853 3f00 	ldrex	r3, [r3]
 80086aa:	613b      	str	r3, [r7, #16]
   return(result);
 80086ac:	693b      	ldr	r3, [r7, #16]
 80086ae:	f023 0310 	bic.w	r3, r3, #16
 80086b2:	627b      	str	r3, [r7, #36]	; 0x24
 80086b4:	687b      	ldr	r3, [r7, #4]
 80086b6:	681b      	ldr	r3, [r3, #0]
 80086b8:	330c      	adds	r3, #12
 80086ba:	6a7a      	ldr	r2, [r7, #36]	; 0x24
 80086bc:	623a      	str	r2, [r7, #32]
 80086be:	61fb      	str	r3, [r7, #28]
   __ASM volatile ("strex %0, %2, %1" : "=&r" (result), "=Q" (*addr) : "r" (value) );
 80086c0:	69f9      	ldr	r1, [r7, #28]
 80086c2:	6a3a      	ldr	r2, [r7, #32]
 80086c4:	e841 2300 	strex	r3, r2, [r1]
 80086c8:	61bb      	str	r3, [r7, #24]
   return(result);
 80086ca:	69bb      	ldr	r3, [r7, #24]
 80086cc:	2b00      	cmp	r3, #0
 80086ce:	d1e5      	bne.n	800869c <UART_Receive_IT+0xfe>

        /* Check if IDLE flag is set */
        if (__HAL_UART_GET_FLAG(huart, UART_FLAG_IDLE))
 80086d0:	687b      	ldr	r3, [r7, #4]
 80086d2:	681b      	ldr	r3, [r3, #0]
 80086d4:	681b      	ldr	r3, [r3, #0]
 80086d6:	f003 0310 	and.w	r3, r3, #16
 80086da:	2b10      	cmp	r3, #16
 80086dc:	d10a      	bne.n	80086f4 <UART_Receive_IT+0x156>
        {
          /* Clear IDLE flag in ISR */
          __HAL_UART_CLEAR_IDLEFLAG(huart);
 80086de:	2300      	movs	r3, #0
 80086e0:	60fb      	str	r3, [r7, #12]
 80086e2:	687b      	ldr	r3, [r7, #4]
 80086e4:	681b      	ldr	r3, [r3, #0]
 80086e6:	681b      	ldr	r3, [r3, #0]
 80086e8:	60fb      	str	r3, [r7, #12]
 80086ea:	687b      	ldr	r3, [r7, #4]
 80086ec:	681b      	ldr	r3, [r3, #0]
 80086ee:	685b      	ldr	r3, [r3, #4]
 80086f0:	60fb      	str	r3, [r7, #12]
 80086f2:	68fb      	ldr	r3, [r7, #12]
#if (USE_HAL_UART_REGISTER_CALLBACKS == 1)
        /*Call registered Rx Event callback*/
        huart->RxEventCallback(huart, huart->RxXferSize);
#else
        /*Call legacy weak Rx Event callback*/
        HAL_UARTEx_RxEventCallback(huart, huart->RxXferSize);
 80086f4:	687b      	ldr	r3, [r7, #4]
 80086f6:	8d9b      	ldrh	r3, [r3, #44]	; 0x2c
 80086f8:	4619      	mov	r1, r3
 80086fa:	6878      	ldr	r0, [r7, #4]
 80086fc:	f7ff fdf9 	bl	80082f2 <HAL_UARTEx_RxEventCallback>
 8008700:	e002      	b.n	8008708 <UART_Receive_IT+0x16a>
#if (USE_HAL_UART_REGISTER_CALLBACKS == 1)
        /*Call registered Rx complete callback*/
        huart->RxCpltCallback(huart);
#else
        /*Call legacy weak Rx complete callback*/
        HAL_UART_RxCpltCallback(huart);
 8008702:	6878      	ldr	r0, [r7, #4]
 8008704:	f7ff fde3 	bl	80082ce <HAL_UART_RxCpltCallback>
#endif /* USE_HAL_UART_REGISTER_CALLBACKS */
      }

      return HAL_OK;
 8008708:	2300      	movs	r3, #0
 800870a:	e002      	b.n	8008712 <UART_Receive_IT+0x174>
    }
    return HAL_OK;
 800870c:	2300      	movs	r3, #0
 800870e:	e000      	b.n	8008712 <UART_Receive_IT+0x174>
  }
  else
  {
    return HAL_BUSY;
 8008710:	2302      	movs	r3, #2
  }
}
 8008712:	4618      	mov	r0, r3
 8008714:	3730      	adds	r7, #48	; 0x30
 8008716:	46bd      	mov	sp, r7
 8008718:	bd80      	pop	{r7, pc}
	...

0800871c <UART_SetConfig>:
  * @param  huart  Pointer to a UART_HandleTypeDef structure that contains
  *                the configuration information for the specified UART module.
  * @retval None
  */
static void UART_SetConfig(UART_HandleTypeDef *huart)
{
 800871c:	b580      	push	{r7, lr}
 800871e:	b084      	sub	sp, #16
 8008720:	af00      	add	r7, sp, #0
 8008722:	6078      	str	r0, [r7, #4]
  assert_param(IS_UART_MODE(huart->Init.Mode));

  /*-------------------------- USART CR2 Configuration -----------------------*/
  /* Configure the UART Stop Bits: Set STOP[13:12] bits
     according to huart->Init.StopBits value */
  MODIFY_REG(huart->Instance->CR2, USART_CR2_STOP, huart->Init.StopBits);
 8008724:	687b      	ldr	r3, [r7, #4]
 8008726:	681b      	ldr	r3, [r3, #0]
 8008728:	691b      	ldr	r3, [r3, #16]
 800872a:	f423 5140 	bic.w	r1, r3, #12288	; 0x3000
 800872e:	687b      	ldr	r3, [r7, #4]
 8008730:	68da      	ldr	r2, [r3, #12]
 8008732:	687b      	ldr	r3, [r7, #4]
 8008734:	681b      	ldr	r3, [r3, #0]
 8008736:	430a      	orrs	r2, r1
 8008738:	611a      	str	r2, [r3, #16]
  tmpreg = (uint32_t)huart->Init.WordLength | huart->Init.Parity | huart->Init.Mode | huart->Init.OverSampling;
  MODIFY_REG(huart->Instance->CR1,
             (uint32_t)(USART_CR1_M | USART_CR1_PCE | USART_CR1_PS | USART_CR1_TE | USART_CR1_RE | USART_CR1_OVER8),
             tmpreg);
#else
  tmpreg = (uint32_t)huart->Init.WordLength | huart->Init.Parity | huart->Init.Mode;
 800873a:	687b      	ldr	r3, [r7, #4]
 800873c:	689a      	ldr	r2, [r3, #8]
 800873e:	687b      	ldr	r3, [r7, #4]
 8008740:	691b      	ldr	r3, [r3, #16]
 8008742:	431a      	orrs	r2, r3
 8008744:	687b      	ldr	r3, [r7, #4]
 8008746:	695b      	ldr	r3, [r3, #20]
 8008748:	4313      	orrs	r3, r2
 800874a:	60bb      	str	r3, [r7, #8]
  MODIFY_REG(huart->Instance->CR1,
 800874c:	687b      	ldr	r3, [r7, #4]
 800874e:	681b      	ldr	r3, [r3, #0]
 8008750:	68db      	ldr	r3, [r3, #12]
 8008752:	f423 53b0 	bic.w	r3, r3, #5632	; 0x1600
 8008756:	f023 030c 	bic.w	r3, r3, #12
 800875a:	687a      	ldr	r2, [r7, #4]
 800875c:	6812      	ldr	r2, [r2, #0]
 800875e:	68b9      	ldr	r1, [r7, #8]
 8008760:	430b      	orrs	r3, r1
 8008762:	60d3      	str	r3, [r2, #12]
             tmpreg);
#endif /* USART_CR1_OVER8 */

  /*-------------------------- USART CR3 Configuration -----------------------*/
  /* Configure the UART HFC: Set CTSE and RTSE bits according to huart->Init.HwFlowCtl value */
  MODIFY_REG(huart->Instance->CR3, (USART_CR3_RTSE | USART_CR3_CTSE), huart->Init.HwFlowCtl);
 8008764:	687b      	ldr	r3, [r7, #4]
 8008766:	681b      	ldr	r3, [r3, #0]
 8008768:	695b      	ldr	r3, [r3, #20]
 800876a:	f423 7140 	bic.w	r1, r3, #768	; 0x300
 800876e:	687b      	ldr	r3, [r7, #4]
 8008770:	699a      	ldr	r2, [r3, #24]
 8008772:	687b      	ldr	r3, [r7, #4]
 8008774:	681b      	ldr	r3, [r3, #0]
 8008776:	430a      	orrs	r2, r1
 8008778:	615a      	str	r2, [r3, #20]


  if(huart->Instance == USART1)
 800877a:	687b      	ldr	r3, [r7, #4]
 800877c:	681b      	ldr	r3, [r3, #0]
 800877e:	4a2c      	ldr	r2, [pc, #176]	; (8008830 <UART_SetConfig+0x114>)
 8008780:	4293      	cmp	r3, r2
 8008782:	d103      	bne.n	800878c <UART_SetConfig+0x70>
  {
    pclk = HAL_RCC_GetPCLK2Freq();
 8008784:	f7fe faa4 	bl	8006cd0 <HAL_RCC_GetPCLK2Freq>
 8008788:	60f8      	str	r0, [r7, #12]
 800878a:	e002      	b.n	8008792 <UART_SetConfig+0x76>
  }
  else
  {
    pclk = HAL_RCC_GetPCLK1Freq();
 800878c:	f7fe fa8c 	bl	8006ca8 <HAL_RCC_GetPCLK1Freq>
 8008790:	60f8      	str	r0, [r7, #12]
  else
  {
    huart->Instance->BRR = UART_BRR_SAMPLING16(pclk, huart->Init.BaudRate);
  }
#else
  huart->Instance->BRR = UART_BRR_SAMPLING16(pclk, huart->Init.BaudRate);
 8008792:	68fa      	ldr	r2, [r7, #12]
 8008794:	4613      	mov	r3, r2
 8008796:	009b      	lsls	r3, r3, #2
 8008798:	4413      	add	r3, r2
 800879a:	009a      	lsls	r2, r3, #2
 800879c:	441a      	add	r2, r3
 800879e:	687b      	ldr	r3, [r7, #4]
 80087a0:	685b      	ldr	r3, [r3, #4]
 80087a2:	009b      	lsls	r3, r3, #2
 80087a4:	fbb2 f3f3 	udiv	r3, r2, r3
 80087a8:	4a22      	ldr	r2, [pc, #136]	; (8008834 <UART_SetConfig+0x118>)
 80087aa:	fba2 2303 	umull	r2, r3, r2, r3
 80087ae:	095b      	lsrs	r3, r3, #5
 80087b0:	0119      	lsls	r1, r3, #4
 80087b2:	68fa      	ldr	r2, [r7, #12]
 80087b4:	4613      	mov	r3, r2
 80087b6:	009b      	lsls	r3, r3, #2
 80087b8:	4413      	add	r3, r2
 80087ba:	009a      	lsls	r2, r3, #2
 80087bc:	441a      	add	r2, r3
 80087be:	687b      	ldr	r3, [r7, #4]
 80087c0:	685b      	ldr	r3, [r3, #4]
 80087c2:	009b      	lsls	r3, r3, #2
 80087c4:	fbb2 f2f3 	udiv	r2, r2, r3
 80087c8:	4b1a      	ldr	r3, [pc, #104]	; (8008834 <UART_SetConfig+0x118>)
 80087ca:	fba3 0302 	umull	r0, r3, r3, r2
 80087ce:	095b      	lsrs	r3, r3, #5
 80087d0:	2064      	movs	r0, #100	; 0x64
 80087d2:	fb00 f303 	mul.w	r3, r0, r3
 80087d6:	1ad3      	subs	r3, r2, r3
 80087d8:	011b      	lsls	r3, r3, #4
 80087da:	3332      	adds	r3, #50	; 0x32
 80087dc:	4a15      	ldr	r2, [pc, #84]	; (8008834 <UART_SetConfig+0x118>)
 80087de:	fba2 2303 	umull	r2, r3, r2, r3
 80087e2:	095b      	lsrs	r3, r3, #5
 80087e4:	f003 03f0 	and.w	r3, r3, #240	; 0xf0
 80087e8:	4419      	add	r1, r3
 80087ea:	68fa      	ldr	r2, [r7, #12]
 80087ec:	4613      	mov	r3, r2
 80087ee:	009b      	lsls	r3, r3, #2
 80087f0:	4413      	add	r3, r2
 80087f2:	009a      	lsls	r2, r3, #2
 80087f4:	441a      	add	r2, r3
 80087f6:	687b      	ldr	r3, [r7, #4]
 80087f8:	685b      	ldr	r3, [r3, #4]
 80087fa:	009b      	lsls	r3, r3, #2
 80087fc:	fbb2 f2f3 	udiv	r2, r2, r3
 8008800:	4b0c      	ldr	r3, [pc, #48]	; (8008834 <UART_SetConfig+0x118>)
 8008802:	fba3 0302 	umull	r0, r3, r3, r2
 8008806:	095b      	lsrs	r3, r3, #5
 8008808:	2064      	movs	r0, #100	; 0x64
 800880a:	fb00 f303 	mul.w	r3, r0, r3
 800880e:	1ad3      	subs	r3, r2, r3
 8008810:	011b      	lsls	r3, r3, #4
 8008812:	3332      	adds	r3, #50	; 0x32
 8008814:	4a07      	ldr	r2, [pc, #28]	; (8008834 <UART_SetConfig+0x118>)
 8008816:	fba2 2303 	umull	r2, r3, r2, r3
 800881a:	095b      	lsrs	r3, r3, #5
 800881c:	f003 020f 	and.w	r2, r3, #15
 8008820:	687b      	ldr	r3, [r7, #4]
 8008822:	681b      	ldr	r3, [r3, #0]
 8008824:	440a      	add	r2, r1
 8008826:	609a      	str	r2, [r3, #8]
#endif /* USART_CR1_OVER8 */
}
 8008828:	bf00      	nop
 800882a:	3710      	adds	r7, #16
 800882c:	46bd      	mov	sp, r7
 800882e:	bd80      	pop	{r7, pc}
 8008830:	40013800 	.word	0x40013800
 8008834:	51eb851f 	.word	0x51eb851f

08008838 <siprintf>:
 8008838:	b40e      	push	{r1, r2, r3}
 800883a:	f06f 4100 	mvn.w	r1, #2147483648	; 0x80000000
 800883e:	b500      	push	{lr}
 8008840:	b09c      	sub	sp, #112	; 0x70
 8008842:	ab1d      	add	r3, sp, #116	; 0x74
 8008844:	9002      	str	r0, [sp, #8]
 8008846:	9006      	str	r0, [sp, #24]
 8008848:	9107      	str	r1, [sp, #28]
 800884a:	9104      	str	r1, [sp, #16]
 800884c:	4808      	ldr	r0, [pc, #32]	; (8008870 <siprintf+0x38>)
 800884e:	4909      	ldr	r1, [pc, #36]	; (8008874 <siprintf+0x3c>)
 8008850:	f853 2b04 	ldr.w	r2, [r3], #4
 8008854:	9105      	str	r1, [sp, #20]
 8008856:	6800      	ldr	r0, [r0, #0]
 8008858:	a902      	add	r1, sp, #8
 800885a:	9301      	str	r3, [sp, #4]
 800885c:	f000 f98e 	bl	8008b7c <_svfiprintf_r>
 8008860:	2200      	movs	r2, #0
 8008862:	9b02      	ldr	r3, [sp, #8]
 8008864:	701a      	strb	r2, [r3, #0]
 8008866:	b01c      	add	sp, #112	; 0x70
 8008868:	f85d eb04 	ldr.w	lr, [sp], #4
 800886c:	b003      	add	sp, #12
 800886e:	4770      	bx	lr
 8008870:	20000104 	.word	0x20000104
 8008874:	ffff0208 	.word	0xffff0208

08008878 <memset>:
 8008878:	4603      	mov	r3, r0
 800887a:	4402      	add	r2, r0
 800887c:	4293      	cmp	r3, r2
 800887e:	d100      	bne.n	8008882 <memset+0xa>
 8008880:	4770      	bx	lr
 8008882:	f803 1b01 	strb.w	r1, [r3], #1
 8008886:	e7f9      	b.n	800887c <memset+0x4>

08008888 <__errno>:
 8008888:	4b01      	ldr	r3, [pc, #4]	; (8008890 <__errno+0x8>)
 800888a:	6818      	ldr	r0, [r3, #0]
 800888c:	4770      	bx	lr
 800888e:	bf00      	nop
 8008890:	20000104 	.word	0x20000104

08008894 <__libc_init_array>:
 8008894:	b570      	push	{r4, r5, r6, lr}
 8008896:	2600      	movs	r6, #0
 8008898:	4d0c      	ldr	r5, [pc, #48]	; (80088cc <__libc_init_array+0x38>)
 800889a:	4c0d      	ldr	r4, [pc, #52]	; (80088d0 <__libc_init_array+0x3c>)
 800889c:	1b64      	subs	r4, r4, r5
 800889e:	10a4      	asrs	r4, r4, #2
 80088a0:	42a6      	cmp	r6, r4
 80088a2:	d109      	bne.n	80088b8 <__libc_init_array+0x24>
 80088a4:	f000 ffd6 	bl	8009854 <_init>
 80088a8:	2600      	movs	r6, #0
 80088aa:	4d0a      	ldr	r5, [pc, #40]	; (80088d4 <__libc_init_array+0x40>)
 80088ac:	4c0a      	ldr	r4, [pc, #40]	; (80088d8 <__libc_init_array+0x44>)
 80088ae:	1b64      	subs	r4, r4, r5
 80088b0:	10a4      	asrs	r4, r4, #2
 80088b2:	42a6      	cmp	r6, r4
 80088b4:	d105      	bne.n	80088c2 <__libc_init_array+0x2e>
 80088b6:	bd70      	pop	{r4, r5, r6, pc}
 80088b8:	f855 3b04 	ldr.w	r3, [r5], #4
 80088bc:	4798      	blx	r3
 80088be:	3601      	adds	r6, #1
 80088c0:	e7ee      	b.n	80088a0 <__libc_init_array+0xc>
 80088c2:	f855 3b04 	ldr.w	r3, [r5], #4
 80088c6:	4798      	blx	r3
 80088c8:	3601      	adds	r6, #1
 80088ca:	e7f2      	b.n	80088b2 <__libc_init_array+0x1e>
 80088cc:	08009c20 	.word	0x08009c20
 80088d0:	08009c20 	.word	0x08009c20
 80088d4:	08009c20 	.word	0x08009c20
 80088d8:	08009c24 	.word	0x08009c24

080088dc <__retarget_lock_acquire_recursive>:
 80088dc:	4770      	bx	lr

080088de <__retarget_lock_release_recursive>:
 80088de:	4770      	bx	lr

080088e0 <_free_r>:
 80088e0:	b538      	push	{r3, r4, r5, lr}
 80088e2:	4605      	mov	r5, r0
 80088e4:	2900      	cmp	r1, #0
 80088e6:	d040      	beq.n	800896a <_free_r+0x8a>
 80088e8:	f851 3c04 	ldr.w	r3, [r1, #-4]
 80088ec:	1f0c      	subs	r4, r1, #4
 80088ee:	2b00      	cmp	r3, #0
 80088f0:	bfb8      	it	lt
 80088f2:	18e4      	addlt	r4, r4, r3
 80088f4:	f000 f8dc 	bl	8008ab0 <__malloc_lock>
 80088f8:	4a1c      	ldr	r2, [pc, #112]	; (800896c <_free_r+0x8c>)
 80088fa:	6813      	ldr	r3, [r2, #0]
 80088fc:	b933      	cbnz	r3, 800890c <_free_r+0x2c>
 80088fe:	6063      	str	r3, [r4, #4]
 8008900:	6014      	str	r4, [r2, #0]
 8008902:	4628      	mov	r0, r5
 8008904:	e8bd 4038 	ldmia.w	sp!, {r3, r4, r5, lr}
 8008908:	f000 b8d8 	b.w	8008abc <__malloc_unlock>
 800890c:	42a3      	cmp	r3, r4
 800890e:	d908      	bls.n	8008922 <_free_r+0x42>
 8008910:	6820      	ldr	r0, [r4, #0]
 8008912:	1821      	adds	r1, r4, r0
 8008914:	428b      	cmp	r3, r1
 8008916:	bf01      	itttt	eq
 8008918:	6819      	ldreq	r1, [r3, #0]
 800891a:	685b      	ldreq	r3, [r3, #4]
 800891c:	1809      	addeq	r1, r1, r0
 800891e:	6021      	streq	r1, [r4, #0]
 8008920:	e7ed      	b.n	80088fe <_free_r+0x1e>
 8008922:	461a      	mov	r2, r3
 8008924:	685b      	ldr	r3, [r3, #4]
 8008926:	b10b      	cbz	r3, 800892c <_free_r+0x4c>
 8008928:	42a3      	cmp	r3, r4
 800892a:	d9fa      	bls.n	8008922 <_free_r+0x42>
 800892c:	6811      	ldr	r1, [r2, #0]
 800892e:	1850      	adds	r0, r2, r1
 8008930:	42a0      	cmp	r0, r4
 8008932:	d10b      	bne.n	800894c <_free_r+0x6c>
 8008934:	6820      	ldr	r0, [r4, #0]
 8008936:	4401      	add	r1, r0
 8008938:	1850      	adds	r0, r2, r1
 800893a:	4283      	cmp	r3, r0
 800893c:	6011      	str	r1, [r2, #0]
 800893e:	d1e0      	bne.n	8008902 <_free_r+0x22>
 8008940:	6818      	ldr	r0, [r3, #0]
 8008942:	685b      	ldr	r3, [r3, #4]
 8008944:	4408      	add	r0, r1
 8008946:	6010      	str	r0, [r2, #0]
 8008948:	6053      	str	r3, [r2, #4]
 800894a:	e7da      	b.n	8008902 <_free_r+0x22>
 800894c:	d902      	bls.n	8008954 <_free_r+0x74>
 800894e:	230c      	movs	r3, #12
 8008950:	602b      	str	r3, [r5, #0]
 8008952:	e7d6      	b.n	8008902 <_free_r+0x22>
 8008954:	6820      	ldr	r0, [r4, #0]
 8008956:	1821      	adds	r1, r4, r0
 8008958:	428b      	cmp	r3, r1
 800895a:	bf01      	itttt	eq
 800895c:	6819      	ldreq	r1, [r3, #0]
 800895e:	685b      	ldreq	r3, [r3, #4]
 8008960:	1809      	addeq	r1, r1, r0
 8008962:	6021      	streq	r1, [r4, #0]
 8008964:	6063      	str	r3, [r4, #4]
 8008966:	6054      	str	r4, [r2, #4]
 8008968:	e7cb      	b.n	8008902 <_free_r+0x22>
 800896a:	bd38      	pop	{r3, r4, r5, pc}
 800896c:	20000734 	.word	0x20000734

08008970 <sbrk_aligned>:
 8008970:	b570      	push	{r4, r5, r6, lr}
 8008972:	4e0e      	ldr	r6, [pc, #56]	; (80089ac <sbrk_aligned+0x3c>)
 8008974:	460c      	mov	r4, r1
 8008976:	6831      	ldr	r1, [r6, #0]
 8008978:	4605      	mov	r5, r0
 800897a:	b911      	cbnz	r1, 8008982 <sbrk_aligned+0x12>
 800897c:	f000 fbaa 	bl	80090d4 <_sbrk_r>
 8008980:	6030      	str	r0, [r6, #0]
 8008982:	4621      	mov	r1, r4
 8008984:	4628      	mov	r0, r5
 8008986:	f000 fba5 	bl	80090d4 <_sbrk_r>
 800898a:	1c43      	adds	r3, r0, #1
 800898c:	d00a      	beq.n	80089a4 <sbrk_aligned+0x34>
 800898e:	1cc4      	adds	r4, r0, #3
 8008990:	f024 0403 	bic.w	r4, r4, #3
 8008994:	42a0      	cmp	r0, r4
 8008996:	d007      	beq.n	80089a8 <sbrk_aligned+0x38>
 8008998:	1a21      	subs	r1, r4, r0
 800899a:	4628      	mov	r0, r5
 800899c:	f000 fb9a 	bl	80090d4 <_sbrk_r>
 80089a0:	3001      	adds	r0, #1
 80089a2:	d101      	bne.n	80089a8 <sbrk_aligned+0x38>
 80089a4:	f04f 34ff 	mov.w	r4, #4294967295
 80089a8:	4620      	mov	r0, r4
 80089aa:	bd70      	pop	{r4, r5, r6, pc}
 80089ac:	20000738 	.word	0x20000738

080089b0 <_malloc_r>:
 80089b0:	e92d 43f8 	stmdb	sp!, {r3, r4, r5, r6, r7, r8, r9, lr}
 80089b4:	1ccd      	adds	r5, r1, #3
 80089b6:	f025 0503 	bic.w	r5, r5, #3
 80089ba:	3508      	adds	r5, #8
 80089bc:	2d0c      	cmp	r5, #12
 80089be:	bf38      	it	cc
 80089c0:	250c      	movcc	r5, #12
 80089c2:	2d00      	cmp	r5, #0
 80089c4:	4607      	mov	r7, r0
 80089c6:	db01      	blt.n	80089cc <_malloc_r+0x1c>
 80089c8:	42a9      	cmp	r1, r5
 80089ca:	d905      	bls.n	80089d8 <_malloc_r+0x28>
 80089cc:	230c      	movs	r3, #12
 80089ce:	2600      	movs	r6, #0
 80089d0:	603b      	str	r3, [r7, #0]
 80089d2:	4630      	mov	r0, r6
 80089d4:	e8bd 83f8 	ldmia.w	sp!, {r3, r4, r5, r6, r7, r8, r9, pc}
 80089d8:	f8df 80d0 	ldr.w	r8, [pc, #208]	; 8008aac <_malloc_r+0xfc>
 80089dc:	f000 f868 	bl	8008ab0 <__malloc_lock>
 80089e0:	f8d8 3000 	ldr.w	r3, [r8]
 80089e4:	461c      	mov	r4, r3
 80089e6:	bb5c      	cbnz	r4, 8008a40 <_malloc_r+0x90>
 80089e8:	4629      	mov	r1, r5
 80089ea:	4638      	mov	r0, r7
 80089ec:	f7ff ffc0 	bl	8008970 <sbrk_aligned>
 80089f0:	1c43      	adds	r3, r0, #1
 80089f2:	4604      	mov	r4, r0
 80089f4:	d155      	bne.n	8008aa2 <_malloc_r+0xf2>
 80089f6:	f8d8 4000 	ldr.w	r4, [r8]
 80089fa:	4626      	mov	r6, r4
 80089fc:	2e00      	cmp	r6, #0
 80089fe:	d145      	bne.n	8008a8c <_malloc_r+0xdc>
 8008a00:	2c00      	cmp	r4, #0
 8008a02:	d048      	beq.n	8008a96 <_malloc_r+0xe6>
 8008a04:	6823      	ldr	r3, [r4, #0]
 8008a06:	4631      	mov	r1, r6
 8008a08:	4638      	mov	r0, r7
 8008a0a:	eb04 0903 	add.w	r9, r4, r3
 8008a0e:	f000 fb61 	bl	80090d4 <_sbrk_r>
 8008a12:	4581      	cmp	r9, r0
 8008a14:	d13f      	bne.n	8008a96 <_malloc_r+0xe6>
 8008a16:	6821      	ldr	r1, [r4, #0]
 8008a18:	4638      	mov	r0, r7
 8008a1a:	1a6d      	subs	r5, r5, r1
 8008a1c:	4629      	mov	r1, r5
 8008a1e:	f7ff ffa7 	bl	8008970 <sbrk_aligned>
 8008a22:	3001      	adds	r0, #1
 8008a24:	d037      	beq.n	8008a96 <_malloc_r+0xe6>
 8008a26:	6823      	ldr	r3, [r4, #0]
 8008a28:	442b      	add	r3, r5
 8008a2a:	6023      	str	r3, [r4, #0]
 8008a2c:	f8d8 3000 	ldr.w	r3, [r8]
 8008a30:	2b00      	cmp	r3, #0
 8008a32:	d038      	beq.n	8008aa6 <_malloc_r+0xf6>
 8008a34:	685a      	ldr	r2, [r3, #4]
 8008a36:	42a2      	cmp	r2, r4
 8008a38:	d12b      	bne.n	8008a92 <_malloc_r+0xe2>
 8008a3a:	2200      	movs	r2, #0
 8008a3c:	605a      	str	r2, [r3, #4]
 8008a3e:	e00f      	b.n	8008a60 <_malloc_r+0xb0>
 8008a40:	6822      	ldr	r2, [r4, #0]
 8008a42:	1b52      	subs	r2, r2, r5
 8008a44:	d41f      	bmi.n	8008a86 <_malloc_r+0xd6>
 8008a46:	2a0b      	cmp	r2, #11
 8008a48:	d917      	bls.n	8008a7a <_malloc_r+0xca>
 8008a4a:	1961      	adds	r1, r4, r5
 8008a4c:	42a3      	cmp	r3, r4
 8008a4e:	6025      	str	r5, [r4, #0]
 8008a50:	bf18      	it	ne
 8008a52:	6059      	strne	r1, [r3, #4]
 8008a54:	6863      	ldr	r3, [r4, #4]
 8008a56:	bf08      	it	eq
 8008a58:	f8c8 1000 	streq.w	r1, [r8]
 8008a5c:	5162      	str	r2, [r4, r5]
 8008a5e:	604b      	str	r3, [r1, #4]
 8008a60:	4638      	mov	r0, r7
 8008a62:	f104 060b 	add.w	r6, r4, #11
 8008a66:	f000 f829 	bl	8008abc <__malloc_unlock>
 8008a6a:	f026 0607 	bic.w	r6, r6, #7
 8008a6e:	1d23      	adds	r3, r4, #4
 8008a70:	1af2      	subs	r2, r6, r3
 8008a72:	d0ae      	beq.n	80089d2 <_malloc_r+0x22>
 8008a74:	1b9b      	subs	r3, r3, r6
 8008a76:	50a3      	str	r3, [r4, r2]
 8008a78:	e7ab      	b.n	80089d2 <_malloc_r+0x22>
 8008a7a:	42a3      	cmp	r3, r4
 8008a7c:	6862      	ldr	r2, [r4, #4]
 8008a7e:	d1dd      	bne.n	8008a3c <_malloc_r+0x8c>
 8008a80:	f8c8 2000 	str.w	r2, [r8]
 8008a84:	e7ec      	b.n	8008a60 <_malloc_r+0xb0>
 8008a86:	4623      	mov	r3, r4
 8008a88:	6864      	ldr	r4, [r4, #4]
 8008a8a:	e7ac      	b.n	80089e6 <_malloc_r+0x36>
 8008a8c:	4634      	mov	r4, r6
 8008a8e:	6876      	ldr	r6, [r6, #4]
 8008a90:	e7b4      	b.n	80089fc <_malloc_r+0x4c>
 8008a92:	4613      	mov	r3, r2
 8008a94:	e7cc      	b.n	8008a30 <_malloc_r+0x80>
 8008a96:	230c      	movs	r3, #12
 8008a98:	4638      	mov	r0, r7
 8008a9a:	603b      	str	r3, [r7, #0]
 8008a9c:	f000 f80e 	bl	8008abc <__malloc_unlock>
 8008aa0:	e797      	b.n	80089d2 <_malloc_r+0x22>
 8008aa2:	6025      	str	r5, [r4, #0]
 8008aa4:	e7dc      	b.n	8008a60 <_malloc_r+0xb0>
 8008aa6:	605b      	str	r3, [r3, #4]
 8008aa8:	deff      	udf	#255	; 0xff
 8008aaa:	bf00      	nop
 8008aac:	20000734 	.word	0x20000734

08008ab0 <__malloc_lock>:
 8008ab0:	4801      	ldr	r0, [pc, #4]	; (8008ab8 <__malloc_lock+0x8>)
 8008ab2:	f7ff bf13 	b.w	80088dc <__retarget_lock_acquire_recursive>
 8008ab6:	bf00      	nop
 8008ab8:	20000730 	.word	0x20000730

08008abc <__malloc_unlock>:
 8008abc:	4801      	ldr	r0, [pc, #4]	; (8008ac4 <__malloc_unlock+0x8>)
 8008abe:	f7ff bf0e 	b.w	80088de <__retarget_lock_release_recursive>
 8008ac2:	bf00      	nop
 8008ac4:	20000730 	.word	0x20000730

08008ac8 <__ssputs_r>:
 8008ac8:	e92d 47f0 	stmdb	sp!, {r4, r5, r6, r7, r8, r9, sl, lr}
 8008acc:	461f      	mov	r7, r3
 8008ace:	688e      	ldr	r6, [r1, #8]
 8008ad0:	4682      	mov	sl, r0
 8008ad2:	42be      	cmp	r6, r7
 8008ad4:	460c      	mov	r4, r1
 8008ad6:	4690      	mov	r8, r2
 8008ad8:	680b      	ldr	r3, [r1, #0]
 8008ada:	d82c      	bhi.n	8008b36 <__ssputs_r+0x6e>
 8008adc:	898a      	ldrh	r2, [r1, #12]
 8008ade:	f412 6f90 	tst.w	r2, #1152	; 0x480
 8008ae2:	d026      	beq.n	8008b32 <__ssputs_r+0x6a>
 8008ae4:	6965      	ldr	r5, [r4, #20]
 8008ae6:	6909      	ldr	r1, [r1, #16]
 8008ae8:	eb05 0545 	add.w	r5, r5, r5, lsl #1
 8008aec:	eba3 0901 	sub.w	r9, r3, r1
 8008af0:	eb05 75d5 	add.w	r5, r5, r5, lsr #31
 8008af4:	1c7b      	adds	r3, r7, #1
 8008af6:	444b      	add	r3, r9
 8008af8:	106d      	asrs	r5, r5, #1
 8008afa:	429d      	cmp	r5, r3
 8008afc:	bf38      	it	cc
 8008afe:	461d      	movcc	r5, r3
 8008b00:	0553      	lsls	r3, r2, #21
 8008b02:	d527      	bpl.n	8008b54 <__ssputs_r+0x8c>
 8008b04:	4629      	mov	r1, r5
 8008b06:	f7ff ff53 	bl	80089b0 <_malloc_r>
 8008b0a:	4606      	mov	r6, r0
 8008b0c:	b360      	cbz	r0, 8008b68 <__ssputs_r+0xa0>
 8008b0e:	464a      	mov	r2, r9
 8008b10:	6921      	ldr	r1, [r4, #16]
 8008b12:	f000 fafd 	bl	8009110 <memcpy>
 8008b16:	89a3      	ldrh	r3, [r4, #12]
 8008b18:	f423 6390 	bic.w	r3, r3, #1152	; 0x480
 8008b1c:	f043 0380 	orr.w	r3, r3, #128	; 0x80
 8008b20:	81a3      	strh	r3, [r4, #12]
 8008b22:	6126      	str	r6, [r4, #16]
 8008b24:	444e      	add	r6, r9
 8008b26:	6026      	str	r6, [r4, #0]
 8008b28:	463e      	mov	r6, r7
 8008b2a:	6165      	str	r5, [r4, #20]
 8008b2c:	eba5 0509 	sub.w	r5, r5, r9
 8008b30:	60a5      	str	r5, [r4, #8]
 8008b32:	42be      	cmp	r6, r7
 8008b34:	d900      	bls.n	8008b38 <__ssputs_r+0x70>
 8008b36:	463e      	mov	r6, r7
 8008b38:	4632      	mov	r2, r6
 8008b3a:	4641      	mov	r1, r8
 8008b3c:	6820      	ldr	r0, [r4, #0]
 8008b3e:	f000 faaf 	bl	80090a0 <memmove>
 8008b42:	2000      	movs	r0, #0
 8008b44:	68a3      	ldr	r3, [r4, #8]
 8008b46:	1b9b      	subs	r3, r3, r6
 8008b48:	60a3      	str	r3, [r4, #8]
 8008b4a:	6823      	ldr	r3, [r4, #0]
 8008b4c:	4433      	add	r3, r6
 8008b4e:	6023      	str	r3, [r4, #0]
 8008b50:	e8bd 87f0 	ldmia.w	sp!, {r4, r5, r6, r7, r8, r9, sl, pc}
 8008b54:	462a      	mov	r2, r5
 8008b56:	f000 fae9 	bl	800912c <_realloc_r>
 8008b5a:	4606      	mov	r6, r0
 8008b5c:	2800      	cmp	r0, #0
 8008b5e:	d1e0      	bne.n	8008b22 <__ssputs_r+0x5a>
 8008b60:	4650      	mov	r0, sl
 8008b62:	6921      	ldr	r1, [r4, #16]
 8008b64:	f7ff febc 	bl	80088e0 <_free_r>
 8008b68:	230c      	movs	r3, #12
 8008b6a:	f8ca 3000 	str.w	r3, [sl]
 8008b6e:	89a3      	ldrh	r3, [r4, #12]
 8008b70:	f04f 30ff 	mov.w	r0, #4294967295
 8008b74:	f043 0340 	orr.w	r3, r3, #64	; 0x40
 8008b78:	81a3      	strh	r3, [r4, #12]
 8008b7a:	e7e9      	b.n	8008b50 <__ssputs_r+0x88>

08008b7c <_svfiprintf_r>:
 8008b7c:	e92d 4ff0 	stmdb	sp!, {r4, r5, r6, r7, r8, r9, sl, fp, lr}
 8008b80:	4698      	mov	r8, r3
 8008b82:	898b      	ldrh	r3, [r1, #12]
 8008b84:	4607      	mov	r7, r0
 8008b86:	061b      	lsls	r3, r3, #24
 8008b88:	460d      	mov	r5, r1
 8008b8a:	4614      	mov	r4, r2
 8008b8c:	b09d      	sub	sp, #116	; 0x74
 8008b8e:	d50e      	bpl.n	8008bae <_svfiprintf_r+0x32>
 8008b90:	690b      	ldr	r3, [r1, #16]
 8008b92:	b963      	cbnz	r3, 8008bae <_svfiprintf_r+0x32>
 8008b94:	2140      	movs	r1, #64	; 0x40
 8008b96:	f7ff ff0b 	bl	80089b0 <_malloc_r>
 8008b9a:	6028      	str	r0, [r5, #0]
 8008b9c:	6128      	str	r0, [r5, #16]
 8008b9e:	b920      	cbnz	r0, 8008baa <_svfiprintf_r+0x2e>
 8008ba0:	230c      	movs	r3, #12
 8008ba2:	603b      	str	r3, [r7, #0]
 8008ba4:	f04f 30ff 	mov.w	r0, #4294967295
 8008ba8:	e0d0      	b.n	8008d4c <_svfiprintf_r+0x1d0>
 8008baa:	2340      	movs	r3, #64	; 0x40
 8008bac:	616b      	str	r3, [r5, #20]
 8008bae:	2300      	movs	r3, #0
 8008bb0:	9309      	str	r3, [sp, #36]	; 0x24
 8008bb2:	2320      	movs	r3, #32
 8008bb4:	f88d 3029 	strb.w	r3, [sp, #41]	; 0x29
 8008bb8:	2330      	movs	r3, #48	; 0x30
 8008bba:	f04f 0901 	mov.w	r9, #1
 8008bbe:	f8cd 800c 	str.w	r8, [sp, #12]
 8008bc2:	f8df 81a0 	ldr.w	r8, [pc, #416]	; 8008d64 <_svfiprintf_r+0x1e8>
 8008bc6:	f88d 302a 	strb.w	r3, [sp, #42]	; 0x2a
 8008bca:	4623      	mov	r3, r4
 8008bcc:	469a      	mov	sl, r3
 8008bce:	f813 2b01 	ldrb.w	r2, [r3], #1
 8008bd2:	b10a      	cbz	r2, 8008bd8 <_svfiprintf_r+0x5c>
 8008bd4:	2a25      	cmp	r2, #37	; 0x25
 8008bd6:	d1f9      	bne.n	8008bcc <_svfiprintf_r+0x50>
 8008bd8:	ebba 0b04 	subs.w	fp, sl, r4
 8008bdc:	d00b      	beq.n	8008bf6 <_svfiprintf_r+0x7a>
 8008bde:	465b      	mov	r3, fp
 8008be0:	4622      	mov	r2, r4
 8008be2:	4629      	mov	r1, r5
 8008be4:	4638      	mov	r0, r7
 8008be6:	f7ff ff6f 	bl	8008ac8 <__ssputs_r>
 8008bea:	3001      	adds	r0, #1
 8008bec:	f000 80a9 	beq.w	8008d42 <_svfiprintf_r+0x1c6>
 8008bf0:	9a09      	ldr	r2, [sp, #36]	; 0x24
 8008bf2:	445a      	add	r2, fp
 8008bf4:	9209      	str	r2, [sp, #36]	; 0x24
 8008bf6:	f89a 3000 	ldrb.w	r3, [sl]
 8008bfa:	2b00      	cmp	r3, #0
 8008bfc:	f000 80a1 	beq.w	8008d42 <_svfiprintf_r+0x1c6>
 8008c00:	2300      	movs	r3, #0
 8008c02:	f04f 32ff 	mov.w	r2, #4294967295
 8008c06:	e9cd 2305 	strd	r2, r3, [sp, #20]
 8008c0a:	f10a 0a01 	add.w	sl, sl, #1
 8008c0e:	9304      	str	r3, [sp, #16]
 8008c10:	9307      	str	r3, [sp, #28]
 8008c12:	f88d 3053 	strb.w	r3, [sp, #83]	; 0x53
 8008c16:	931a      	str	r3, [sp, #104]	; 0x68
 8008c18:	4654      	mov	r4, sl
 8008c1a:	2205      	movs	r2, #5
 8008c1c:	f814 1b01 	ldrb.w	r1, [r4], #1
 8008c20:	4850      	ldr	r0, [pc, #320]	; (8008d64 <_svfiprintf_r+0x1e8>)
 8008c22:	f000 fa67 	bl	80090f4 <memchr>
 8008c26:	9a04      	ldr	r2, [sp, #16]
 8008c28:	b9d8      	cbnz	r0, 8008c62 <_svfiprintf_r+0xe6>
 8008c2a:	06d0      	lsls	r0, r2, #27
 8008c2c:	bf44      	itt	mi
 8008c2e:	2320      	movmi	r3, #32
 8008c30:	f88d 3053 	strbmi.w	r3, [sp, #83]	; 0x53
 8008c34:	0711      	lsls	r1, r2, #28
 8008c36:	bf44      	itt	mi
 8008c38:	232b      	movmi	r3, #43	; 0x2b
 8008c3a:	f88d 3053 	strbmi.w	r3, [sp, #83]	; 0x53
 8008c3e:	f89a 3000 	ldrb.w	r3, [sl]
 8008c42:	2b2a      	cmp	r3, #42	; 0x2a
 8008c44:	d015      	beq.n	8008c72 <_svfiprintf_r+0xf6>
 8008c46:	4654      	mov	r4, sl
 8008c48:	2000      	movs	r0, #0
 8008c4a:	f04f 0c0a 	mov.w	ip, #10
 8008c4e:	9a07      	ldr	r2, [sp, #28]
 8008c50:	4621      	mov	r1, r4
 8008c52:	f811 3b01 	ldrb.w	r3, [r1], #1
 8008c56:	3b30      	subs	r3, #48	; 0x30
 8008c58:	2b09      	cmp	r3, #9
 8008c5a:	d94d      	bls.n	8008cf8 <_svfiprintf_r+0x17c>
 8008c5c:	b1b0      	cbz	r0, 8008c8c <_svfiprintf_r+0x110>
 8008c5e:	9207      	str	r2, [sp, #28]
 8008c60:	e014      	b.n	8008c8c <_svfiprintf_r+0x110>
 8008c62:	eba0 0308 	sub.w	r3, r0, r8
 8008c66:	fa09 f303 	lsl.w	r3, r9, r3
 8008c6a:	4313      	orrs	r3, r2
 8008c6c:	46a2      	mov	sl, r4
 8008c6e:	9304      	str	r3, [sp, #16]
 8008c70:	e7d2      	b.n	8008c18 <_svfiprintf_r+0x9c>
 8008c72:	9b03      	ldr	r3, [sp, #12]
 8008c74:	1d19      	adds	r1, r3, #4
 8008c76:	681b      	ldr	r3, [r3, #0]
 8008c78:	9103      	str	r1, [sp, #12]
 8008c7a:	2b00      	cmp	r3, #0
 8008c7c:	bfbb      	ittet	lt
 8008c7e:	425b      	neglt	r3, r3
 8008c80:	f042 0202 	orrlt.w	r2, r2, #2
 8008c84:	9307      	strge	r3, [sp, #28]
 8008c86:	9307      	strlt	r3, [sp, #28]
 8008c88:	bfb8      	it	lt
 8008c8a:	9204      	strlt	r2, [sp, #16]
 8008c8c:	7823      	ldrb	r3, [r4, #0]
 8008c8e:	2b2e      	cmp	r3, #46	; 0x2e
 8008c90:	d10c      	bne.n	8008cac <_svfiprintf_r+0x130>
 8008c92:	7863      	ldrb	r3, [r4, #1]
 8008c94:	2b2a      	cmp	r3, #42	; 0x2a
 8008c96:	d134      	bne.n	8008d02 <_svfiprintf_r+0x186>
 8008c98:	9b03      	ldr	r3, [sp, #12]
 8008c9a:	3402      	adds	r4, #2
 8008c9c:	1d1a      	adds	r2, r3, #4
 8008c9e:	681b      	ldr	r3, [r3, #0]
 8008ca0:	9203      	str	r2, [sp, #12]
 8008ca2:	2b00      	cmp	r3, #0
 8008ca4:	bfb8      	it	lt
 8008ca6:	f04f 33ff 	movlt.w	r3, #4294967295
 8008caa:	9305      	str	r3, [sp, #20]
 8008cac:	f8df a0b8 	ldr.w	sl, [pc, #184]	; 8008d68 <_svfiprintf_r+0x1ec>
 8008cb0:	2203      	movs	r2, #3
 8008cb2:	4650      	mov	r0, sl
 8008cb4:	7821      	ldrb	r1, [r4, #0]
 8008cb6:	f000 fa1d 	bl	80090f4 <memchr>
 8008cba:	b138      	cbz	r0, 8008ccc <_svfiprintf_r+0x150>
 8008cbc:	2240      	movs	r2, #64	; 0x40
 8008cbe:	9b04      	ldr	r3, [sp, #16]
 8008cc0:	eba0 000a 	sub.w	r0, r0, sl
 8008cc4:	4082      	lsls	r2, r0
 8008cc6:	4313      	orrs	r3, r2
 8008cc8:	3401      	adds	r4, #1
 8008cca:	9304      	str	r3, [sp, #16]
 8008ccc:	f814 1b01 	ldrb.w	r1, [r4], #1
 8008cd0:	2206      	movs	r2, #6
 8008cd2:	4826      	ldr	r0, [pc, #152]	; (8008d6c <_svfiprintf_r+0x1f0>)
 8008cd4:	f88d 1028 	strb.w	r1, [sp, #40]	; 0x28
 8008cd8:	f000 fa0c 	bl	80090f4 <memchr>
 8008cdc:	2800      	cmp	r0, #0
 8008cde:	d038      	beq.n	8008d52 <_svfiprintf_r+0x1d6>
 8008ce0:	4b23      	ldr	r3, [pc, #140]	; (8008d70 <_svfiprintf_r+0x1f4>)
 8008ce2:	bb1b      	cbnz	r3, 8008d2c <_svfiprintf_r+0x1b0>
 8008ce4:	9b03      	ldr	r3, [sp, #12]
 8008ce6:	3307      	adds	r3, #7
 8008ce8:	f023 0307 	bic.w	r3, r3, #7
 8008cec:	3308      	adds	r3, #8
 8008cee:	9303      	str	r3, [sp, #12]
 8008cf0:	9b09      	ldr	r3, [sp, #36]	; 0x24
 8008cf2:	4433      	add	r3, r6
 8008cf4:	9309      	str	r3, [sp, #36]	; 0x24
 8008cf6:	e768      	b.n	8008bca <_svfiprintf_r+0x4e>
 8008cf8:	460c      	mov	r4, r1
 8008cfa:	2001      	movs	r0, #1
 8008cfc:	fb0c 3202 	mla	r2, ip, r2, r3
 8008d00:	e7a6      	b.n	8008c50 <_svfiprintf_r+0xd4>
 8008d02:	2300      	movs	r3, #0
 8008d04:	f04f 0c0a 	mov.w	ip, #10
 8008d08:	4619      	mov	r1, r3
 8008d0a:	3401      	adds	r4, #1
 8008d0c:	9305      	str	r3, [sp, #20]
 8008d0e:	4620      	mov	r0, r4
 8008d10:	f810 2b01 	ldrb.w	r2, [r0], #1
 8008d14:	3a30      	subs	r2, #48	; 0x30
 8008d16:	2a09      	cmp	r2, #9
 8008d18:	d903      	bls.n	8008d22 <_svfiprintf_r+0x1a6>
 8008d1a:	2b00      	cmp	r3, #0
 8008d1c:	d0c6      	beq.n	8008cac <_svfiprintf_r+0x130>
 8008d1e:	9105      	str	r1, [sp, #20]
 8008d20:	e7c4      	b.n	8008cac <_svfiprintf_r+0x130>
 8008d22:	4604      	mov	r4, r0
 8008d24:	2301      	movs	r3, #1
 8008d26:	fb0c 2101 	mla	r1, ip, r1, r2
 8008d2a:	e7f0      	b.n	8008d0e <_svfiprintf_r+0x192>
 8008d2c:	ab03      	add	r3, sp, #12
 8008d2e:	9300      	str	r3, [sp, #0]
 8008d30:	462a      	mov	r2, r5
 8008d32:	4638      	mov	r0, r7
 8008d34:	4b0f      	ldr	r3, [pc, #60]	; (8008d74 <_svfiprintf_r+0x1f8>)
 8008d36:	a904      	add	r1, sp, #16
 8008d38:	f3af 8000 	nop.w
 8008d3c:	1c42      	adds	r2, r0, #1
 8008d3e:	4606      	mov	r6, r0
 8008d40:	d1d6      	bne.n	8008cf0 <_svfiprintf_r+0x174>
 8008d42:	89ab      	ldrh	r3, [r5, #12]
 8008d44:	065b      	lsls	r3, r3, #25
 8008d46:	f53f af2d 	bmi.w	8008ba4 <_svfiprintf_r+0x28>
 8008d4a:	9809      	ldr	r0, [sp, #36]	; 0x24
 8008d4c:	b01d      	add	sp, #116	; 0x74
 8008d4e:	e8bd 8ff0 	ldmia.w	sp!, {r4, r5, r6, r7, r8, r9, sl, fp, pc}
 8008d52:	ab03      	add	r3, sp, #12
 8008d54:	9300      	str	r3, [sp, #0]
 8008d56:	462a      	mov	r2, r5
 8008d58:	4638      	mov	r0, r7
 8008d5a:	4b06      	ldr	r3, [pc, #24]	; (8008d74 <_svfiprintf_r+0x1f8>)
 8008d5c:	a904      	add	r1, sp, #16
 8008d5e:	f000 f87d 	bl	8008e5c <_printf_i>
 8008d62:	e7eb      	b.n	8008d3c <_svfiprintf_r+0x1c0>
 8008d64:	08009b7a 	.word	0x08009b7a
 8008d68:	08009b80 	.word	0x08009b80
 8008d6c:	08009b84 	.word	0x08009b84
 8008d70:	00000000 	.word	0x00000000
 8008d74:	08008ac9 	.word	0x08008ac9

08008d78 <_printf_common>:
 8008d78:	e92d 47f0 	stmdb	sp!, {r4, r5, r6, r7, r8, r9, sl, lr}
 8008d7c:	4616      	mov	r6, r2
 8008d7e:	4699      	mov	r9, r3
 8008d80:	688a      	ldr	r2, [r1, #8]
 8008d82:	690b      	ldr	r3, [r1, #16]
 8008d84:	4607      	mov	r7, r0
 8008d86:	4293      	cmp	r3, r2
 8008d88:	bfb8      	it	lt
 8008d8a:	4613      	movlt	r3, r2
 8008d8c:	6033      	str	r3, [r6, #0]
 8008d8e:	f891 2043 	ldrb.w	r2, [r1, #67]	; 0x43
 8008d92:	460c      	mov	r4, r1
 8008d94:	f8dd 8020 	ldr.w	r8, [sp, #32]
 8008d98:	b10a      	cbz	r2, 8008d9e <_printf_common+0x26>
 8008d9a:	3301      	adds	r3, #1
 8008d9c:	6033      	str	r3, [r6, #0]
 8008d9e:	6823      	ldr	r3, [r4, #0]
 8008da0:	0699      	lsls	r1, r3, #26
 8008da2:	bf42      	ittt	mi
 8008da4:	6833      	ldrmi	r3, [r6, #0]
 8008da6:	3302      	addmi	r3, #2
 8008da8:	6033      	strmi	r3, [r6, #0]
 8008daa:	6825      	ldr	r5, [r4, #0]
 8008dac:	f015 0506 	ands.w	r5, r5, #6
 8008db0:	d106      	bne.n	8008dc0 <_printf_common+0x48>
 8008db2:	f104 0a19 	add.w	sl, r4, #25
 8008db6:	68e3      	ldr	r3, [r4, #12]
 8008db8:	6832      	ldr	r2, [r6, #0]
 8008dba:	1a9b      	subs	r3, r3, r2
 8008dbc:	42ab      	cmp	r3, r5
 8008dbe:	dc2b      	bgt.n	8008e18 <_printf_common+0xa0>
 8008dc0:	f894 2043 	ldrb.w	r2, [r4, #67]	; 0x43
 8008dc4:	1e13      	subs	r3, r2, #0
 8008dc6:	6822      	ldr	r2, [r4, #0]
 8008dc8:	bf18      	it	ne
 8008dca:	2301      	movne	r3, #1
 8008dcc:	0692      	lsls	r2, r2, #26
 8008dce:	d430      	bmi.n	8008e32 <_printf_common+0xba>
 8008dd0:	4649      	mov	r1, r9
 8008dd2:	4638      	mov	r0, r7
 8008dd4:	f104 0243 	add.w	r2, r4, #67	; 0x43
 8008dd8:	47c0      	blx	r8
 8008dda:	3001      	adds	r0, #1
 8008ddc:	d023      	beq.n	8008e26 <_printf_common+0xae>
 8008dde:	6823      	ldr	r3, [r4, #0]
 8008de0:	6922      	ldr	r2, [r4, #16]
 8008de2:	f003 0306 	and.w	r3, r3, #6
 8008de6:	2b04      	cmp	r3, #4
 8008de8:	bf14      	ite	ne
 8008dea:	2500      	movne	r5, #0
 8008dec:	6833      	ldreq	r3, [r6, #0]
 8008dee:	f04f 0600 	mov.w	r6, #0
 8008df2:	bf08      	it	eq
 8008df4:	68e5      	ldreq	r5, [r4, #12]
 8008df6:	f104 041a 	add.w	r4, r4, #26
 8008dfa:	bf08      	it	eq
 8008dfc:	1aed      	subeq	r5, r5, r3
 8008dfe:	f854 3c12 	ldr.w	r3, [r4, #-18]
 8008e02:	bf08      	it	eq
 8008e04:	ea25 75e5 	biceq.w	r5, r5, r5, asr #31
 8008e08:	4293      	cmp	r3, r2
 8008e0a:	bfc4      	itt	gt
 8008e0c:	1a9b      	subgt	r3, r3, r2
 8008e0e:	18ed      	addgt	r5, r5, r3
 8008e10:	42b5      	cmp	r5, r6
 8008e12:	d11a      	bne.n	8008e4a <_printf_common+0xd2>
 8008e14:	2000      	movs	r0, #0
 8008e16:	e008      	b.n	8008e2a <_printf_common+0xb2>
 8008e18:	2301      	movs	r3, #1
 8008e1a:	4652      	mov	r2, sl
 8008e1c:	4649      	mov	r1, r9
 8008e1e:	4638      	mov	r0, r7
 8008e20:	47c0      	blx	r8
 8008e22:	3001      	adds	r0, #1
 8008e24:	d103      	bne.n	8008e2e <_printf_common+0xb6>
 8008e26:	f04f 30ff 	mov.w	r0, #4294967295
 8008e2a:	e8bd 87f0 	ldmia.w	sp!, {r4, r5, r6, r7, r8, r9, sl, pc}
 8008e2e:	3501      	adds	r5, #1
 8008e30:	e7c1      	b.n	8008db6 <_printf_common+0x3e>
 8008e32:	2030      	movs	r0, #48	; 0x30
 8008e34:	18e1      	adds	r1, r4, r3
 8008e36:	f881 0043 	strb.w	r0, [r1, #67]	; 0x43
 8008e3a:	1c5a      	adds	r2, r3, #1
 8008e3c:	f894 1045 	ldrb.w	r1, [r4, #69]	; 0x45
 8008e40:	4422      	add	r2, r4
 8008e42:	3302      	adds	r3, #2
 8008e44:	f882 1043 	strb.w	r1, [r2, #67]	; 0x43
 8008e48:	e7c2      	b.n	8008dd0 <_printf_common+0x58>
 8008e4a:	2301      	movs	r3, #1
 8008e4c:	4622      	mov	r2, r4
 8008e4e:	4649      	mov	r1, r9
 8008e50:	4638      	mov	r0, r7
 8008e52:	47c0      	blx	r8
 8008e54:	3001      	adds	r0, #1
 8008e56:	d0e6      	beq.n	8008e26 <_printf_common+0xae>
 8008e58:	3601      	adds	r6, #1
 8008e5a:	e7d9      	b.n	8008e10 <_printf_common+0x98>

08008e5c <_printf_i>:
 8008e5c:	e92d 47ff 	stmdb	sp!, {r0, r1, r2, r3, r4, r5, r6, r7, r8, r9, sl, lr}
 8008e60:	7e0f      	ldrb	r7, [r1, #24]
 8008e62:	4691      	mov	r9, r2
 8008e64:	2f78      	cmp	r7, #120	; 0x78
 8008e66:	4680      	mov	r8, r0
 8008e68:	460c      	mov	r4, r1
 8008e6a:	469a      	mov	sl, r3
 8008e6c:	9d0c      	ldr	r5, [sp, #48]	; 0x30
 8008e6e:	f101 0243 	add.w	r2, r1, #67	; 0x43
 8008e72:	d807      	bhi.n	8008e84 <_printf_i+0x28>
 8008e74:	2f62      	cmp	r7, #98	; 0x62
 8008e76:	d80a      	bhi.n	8008e8e <_printf_i+0x32>
 8008e78:	2f00      	cmp	r7, #0
 8008e7a:	f000 80d5 	beq.w	8009028 <_printf_i+0x1cc>
 8008e7e:	2f58      	cmp	r7, #88	; 0x58
 8008e80:	f000 80c1 	beq.w	8009006 <_printf_i+0x1aa>
 8008e84:	f104 0542 	add.w	r5, r4, #66	; 0x42
 8008e88:	f884 7042 	strb.w	r7, [r4, #66]	; 0x42
 8008e8c:	e03a      	b.n	8008f04 <_printf_i+0xa8>
 8008e8e:	f1a7 0363 	sub.w	r3, r7, #99	; 0x63
 8008e92:	2b15      	cmp	r3, #21
 8008e94:	d8f6      	bhi.n	8008e84 <_printf_i+0x28>
 8008e96:	a101      	add	r1, pc, #4	; (adr r1, 8008e9c <_printf_i+0x40>)
 8008e98:	f851 f023 	ldr.w	pc, [r1, r3, lsl #2]
 8008e9c:	08008ef5 	.word	0x08008ef5
 8008ea0:	08008f09 	.word	0x08008f09
 8008ea4:	08008e85 	.word	0x08008e85
 8008ea8:	08008e85 	.word	0x08008e85
 8008eac:	08008e85 	.word	0x08008e85
 8008eb0:	08008e85 	.word	0x08008e85
 8008eb4:	08008f09 	.word	0x08008f09
 8008eb8:	08008e85 	.word	0x08008e85
 8008ebc:	08008e85 	.word	0x08008e85
 8008ec0:	08008e85 	.word	0x08008e85
 8008ec4:	08008e85 	.word	0x08008e85
 8008ec8:	0800900f 	.word	0x0800900f
 8008ecc:	08008f35 	.word	0x08008f35
 8008ed0:	08008fc9 	.word	0x08008fc9
 8008ed4:	08008e85 	.word	0x08008e85
 8008ed8:	08008e85 	.word	0x08008e85
 8008edc:	08009031 	.word	0x08009031
 8008ee0:	08008e85 	.word	0x08008e85
 8008ee4:	08008f35 	.word	0x08008f35
 8008ee8:	08008e85 	.word	0x08008e85
 8008eec:	08008e85 	.word	0x08008e85
 8008ef0:	08008fd1 	.word	0x08008fd1
 8008ef4:	682b      	ldr	r3, [r5, #0]
 8008ef6:	1d1a      	adds	r2, r3, #4
 8008ef8:	681b      	ldr	r3, [r3, #0]
 8008efa:	602a      	str	r2, [r5, #0]
 8008efc:	f104 0542 	add.w	r5, r4, #66	; 0x42
 8008f00:	f884 3042 	strb.w	r3, [r4, #66]	; 0x42
 8008f04:	2301      	movs	r3, #1
 8008f06:	e0a0      	b.n	800904a <_printf_i+0x1ee>
 8008f08:	6820      	ldr	r0, [r4, #0]
 8008f0a:	682b      	ldr	r3, [r5, #0]
 8008f0c:	0607      	lsls	r7, r0, #24
 8008f0e:	f103 0104 	add.w	r1, r3, #4
 8008f12:	6029      	str	r1, [r5, #0]
 8008f14:	d501      	bpl.n	8008f1a <_printf_i+0xbe>
 8008f16:	681e      	ldr	r6, [r3, #0]
 8008f18:	e003      	b.n	8008f22 <_printf_i+0xc6>
 8008f1a:	0646      	lsls	r6, r0, #25
 8008f1c:	d5fb      	bpl.n	8008f16 <_printf_i+0xba>
 8008f1e:	f9b3 6000 	ldrsh.w	r6, [r3]
 8008f22:	2e00      	cmp	r6, #0
 8008f24:	da03      	bge.n	8008f2e <_printf_i+0xd2>
 8008f26:	232d      	movs	r3, #45	; 0x2d
 8008f28:	4276      	negs	r6, r6
 8008f2a:	f884 3043 	strb.w	r3, [r4, #67]	; 0x43
 8008f2e:	230a      	movs	r3, #10
 8008f30:	4859      	ldr	r0, [pc, #356]	; (8009098 <_printf_i+0x23c>)
 8008f32:	e012      	b.n	8008f5a <_printf_i+0xfe>
 8008f34:	682b      	ldr	r3, [r5, #0]
 8008f36:	6820      	ldr	r0, [r4, #0]
 8008f38:	1d19      	adds	r1, r3, #4
 8008f3a:	6029      	str	r1, [r5, #0]
 8008f3c:	0605      	lsls	r5, r0, #24
 8008f3e:	d501      	bpl.n	8008f44 <_printf_i+0xe8>
 8008f40:	681e      	ldr	r6, [r3, #0]
 8008f42:	e002      	b.n	8008f4a <_printf_i+0xee>
 8008f44:	0641      	lsls	r1, r0, #25
 8008f46:	d5fb      	bpl.n	8008f40 <_printf_i+0xe4>
 8008f48:	881e      	ldrh	r6, [r3, #0]
 8008f4a:	2f6f      	cmp	r7, #111	; 0x6f
 8008f4c:	bf0c      	ite	eq
 8008f4e:	2308      	moveq	r3, #8
 8008f50:	230a      	movne	r3, #10
 8008f52:	4851      	ldr	r0, [pc, #324]	; (8009098 <_printf_i+0x23c>)
 8008f54:	2100      	movs	r1, #0
 8008f56:	f884 1043 	strb.w	r1, [r4, #67]	; 0x43
 8008f5a:	6865      	ldr	r5, [r4, #4]
 8008f5c:	2d00      	cmp	r5, #0
 8008f5e:	bfa8      	it	ge
 8008f60:	6821      	ldrge	r1, [r4, #0]
 8008f62:	60a5      	str	r5, [r4, #8]
 8008f64:	bfa4      	itt	ge
 8008f66:	f021 0104 	bicge.w	r1, r1, #4
 8008f6a:	6021      	strge	r1, [r4, #0]
 8008f6c:	b90e      	cbnz	r6, 8008f72 <_printf_i+0x116>
 8008f6e:	2d00      	cmp	r5, #0
 8008f70:	d04b      	beq.n	800900a <_printf_i+0x1ae>
 8008f72:	4615      	mov	r5, r2
 8008f74:	fbb6 f1f3 	udiv	r1, r6, r3
 8008f78:	fb03 6711 	mls	r7, r3, r1, r6
 8008f7c:	5dc7      	ldrb	r7, [r0, r7]
 8008f7e:	f805 7d01 	strb.w	r7, [r5, #-1]!
 8008f82:	4637      	mov	r7, r6
 8008f84:	42bb      	cmp	r3, r7
 8008f86:	460e      	mov	r6, r1
 8008f88:	d9f4      	bls.n	8008f74 <_printf_i+0x118>
 8008f8a:	2b08      	cmp	r3, #8
 8008f8c:	d10b      	bne.n	8008fa6 <_printf_i+0x14a>
 8008f8e:	6823      	ldr	r3, [r4, #0]
 8008f90:	07de      	lsls	r6, r3, #31
 8008f92:	d508      	bpl.n	8008fa6 <_printf_i+0x14a>
 8008f94:	6923      	ldr	r3, [r4, #16]
 8008f96:	6861      	ldr	r1, [r4, #4]
 8008f98:	4299      	cmp	r1, r3
 8008f9a:	bfde      	ittt	le
 8008f9c:	2330      	movle	r3, #48	; 0x30
 8008f9e:	f805 3c01 	strble.w	r3, [r5, #-1]
 8008fa2:	f105 35ff 	addle.w	r5, r5, #4294967295
 8008fa6:	1b52      	subs	r2, r2, r5
 8008fa8:	6122      	str	r2, [r4, #16]
 8008faa:	464b      	mov	r3, r9
 8008fac:	4621      	mov	r1, r4
 8008fae:	4640      	mov	r0, r8
 8008fb0:	f8cd a000 	str.w	sl, [sp]
 8008fb4:	aa03      	add	r2, sp, #12
 8008fb6:	f7ff fedf 	bl	8008d78 <_printf_common>
 8008fba:	3001      	adds	r0, #1
 8008fbc:	d14a      	bne.n	8009054 <_printf_i+0x1f8>
 8008fbe:	f04f 30ff 	mov.w	r0, #4294967295
 8008fc2:	b004      	add	sp, #16
 8008fc4:	e8bd 87f0 	ldmia.w	sp!, {r4, r5, r6, r7, r8, r9, sl, pc}
 8008fc8:	6823      	ldr	r3, [r4, #0]
 8008fca:	f043 0320 	orr.w	r3, r3, #32
 8008fce:	6023      	str	r3, [r4, #0]
 8008fd0:	2778      	movs	r7, #120	; 0x78
 8008fd2:	4832      	ldr	r0, [pc, #200]	; (800909c <_printf_i+0x240>)
 8008fd4:	f884 7045 	strb.w	r7, [r4, #69]	; 0x45
 8008fd8:	6823      	ldr	r3, [r4, #0]
 8008fda:	6829      	ldr	r1, [r5, #0]
 8008fdc:	061f      	lsls	r7, r3, #24
 8008fde:	f851 6b04 	ldr.w	r6, [r1], #4
 8008fe2:	d402      	bmi.n	8008fea <_printf_i+0x18e>
 8008fe4:	065f      	lsls	r7, r3, #25
 8008fe6:	bf48      	it	mi
 8008fe8:	b2b6      	uxthmi	r6, r6
 8008fea:	07df      	lsls	r7, r3, #31
 8008fec:	bf48      	it	mi
 8008fee:	f043 0320 	orrmi.w	r3, r3, #32
 8008ff2:	6029      	str	r1, [r5, #0]
 8008ff4:	bf48      	it	mi
 8008ff6:	6023      	strmi	r3, [r4, #0]
 8008ff8:	b91e      	cbnz	r6, 8009002 <_printf_i+0x1a6>
 8008ffa:	6823      	ldr	r3, [r4, #0]
 8008ffc:	f023 0320 	bic.w	r3, r3, #32
 8009000:	6023      	str	r3, [r4, #0]
 8009002:	2310      	movs	r3, #16
 8009004:	e7a6      	b.n	8008f54 <_printf_i+0xf8>
 8009006:	4824      	ldr	r0, [pc, #144]	; (8009098 <_printf_i+0x23c>)
 8009008:	e7e4      	b.n	8008fd4 <_printf_i+0x178>
 800900a:	4615      	mov	r5, r2
 800900c:	e7bd      	b.n	8008f8a <_printf_i+0x12e>
 800900e:	682b      	ldr	r3, [r5, #0]
 8009010:	6826      	ldr	r6, [r4, #0]
 8009012:	1d18      	adds	r0, r3, #4
 8009014:	6961      	ldr	r1, [r4, #20]
 8009016:	6028      	str	r0, [r5, #0]
 8009018:	0635      	lsls	r5, r6, #24
 800901a:	681b      	ldr	r3, [r3, #0]
 800901c:	d501      	bpl.n	8009022 <_printf_i+0x1c6>
 800901e:	6019      	str	r1, [r3, #0]
 8009020:	e002      	b.n	8009028 <_printf_i+0x1cc>
 8009022:	0670      	lsls	r0, r6, #25
 8009024:	d5fb      	bpl.n	800901e <_printf_i+0x1c2>
 8009026:	8019      	strh	r1, [r3, #0]
 8009028:	2300      	movs	r3, #0
 800902a:	4615      	mov	r5, r2
 800902c:	6123      	str	r3, [r4, #16]
 800902e:	e7bc      	b.n	8008faa <_printf_i+0x14e>
 8009030:	682b      	ldr	r3, [r5, #0]
 8009032:	2100      	movs	r1, #0
 8009034:	1d1a      	adds	r2, r3, #4
 8009036:	602a      	str	r2, [r5, #0]
 8009038:	681d      	ldr	r5, [r3, #0]
 800903a:	6862      	ldr	r2, [r4, #4]
 800903c:	4628      	mov	r0, r5
 800903e:	f000 f859 	bl	80090f4 <memchr>
 8009042:	b108      	cbz	r0, 8009048 <_printf_i+0x1ec>
 8009044:	1b40      	subs	r0, r0, r5
 8009046:	6060      	str	r0, [r4, #4]
 8009048:	6863      	ldr	r3, [r4, #4]
 800904a:	6123      	str	r3, [r4, #16]
 800904c:	2300      	movs	r3, #0
 800904e:	f884 3043 	strb.w	r3, [r4, #67]	; 0x43
 8009052:	e7aa      	b.n	8008faa <_printf_i+0x14e>
 8009054:	462a      	mov	r2, r5
 8009056:	4649      	mov	r1, r9
 8009058:	4640      	mov	r0, r8
 800905a:	6923      	ldr	r3, [r4, #16]
 800905c:	47d0      	blx	sl
 800905e:	3001      	adds	r0, #1
 8009060:	d0ad      	beq.n	8008fbe <_printf_i+0x162>
 8009062:	6823      	ldr	r3, [r4, #0]
 8009064:	079b      	lsls	r3, r3, #30
 8009066:	d413      	bmi.n	8009090 <_printf_i+0x234>
 8009068:	68e0      	ldr	r0, [r4, #12]
 800906a:	9b03      	ldr	r3, [sp, #12]
 800906c:	4298      	cmp	r0, r3
 800906e:	bfb8      	it	lt
 8009070:	4618      	movlt	r0, r3
 8009072:	e7a6      	b.n	8008fc2 <_printf_i+0x166>
 8009074:	2301      	movs	r3, #1
 8009076:	4632      	mov	r2, r6
 8009078:	4649      	mov	r1, r9
 800907a:	4640      	mov	r0, r8
 800907c:	47d0      	blx	sl
 800907e:	3001      	adds	r0, #1
 8009080:	d09d      	beq.n	8008fbe <_printf_i+0x162>
 8009082:	3501      	adds	r5, #1
 8009084:	68e3      	ldr	r3, [r4, #12]
 8009086:	9903      	ldr	r1, [sp, #12]
 8009088:	1a5b      	subs	r3, r3, r1
 800908a:	42ab      	cmp	r3, r5
 800908c:	dcf2      	bgt.n	8009074 <_printf_i+0x218>
 800908e:	e7eb      	b.n	8009068 <_printf_i+0x20c>
 8009090:	2500      	movs	r5, #0
 8009092:	f104 0619 	add.w	r6, r4, #25
 8009096:	e7f5      	b.n	8009084 <_printf_i+0x228>
 8009098:	08009b8b 	.word	0x08009b8b
 800909c:	08009b9c 	.word	0x08009b9c

080090a0 <memmove>:
 80090a0:	4288      	cmp	r0, r1
 80090a2:	b510      	push	{r4, lr}
 80090a4:	eb01 0402 	add.w	r4, r1, r2
 80090a8:	d902      	bls.n	80090b0 <memmove+0x10>
 80090aa:	4284      	cmp	r4, r0
 80090ac:	4623      	mov	r3, r4
 80090ae:	d807      	bhi.n	80090c0 <memmove+0x20>
 80090b0:	1e43      	subs	r3, r0, #1
 80090b2:	42a1      	cmp	r1, r4
 80090b4:	d008      	beq.n	80090c8 <memmove+0x28>
 80090b6:	f811 2b01 	ldrb.w	r2, [r1], #1
 80090ba:	f803 2f01 	strb.w	r2, [r3, #1]!
 80090be:	e7f8      	b.n	80090b2 <memmove+0x12>
 80090c0:	4601      	mov	r1, r0
 80090c2:	4402      	add	r2, r0
 80090c4:	428a      	cmp	r2, r1
 80090c6:	d100      	bne.n	80090ca <memmove+0x2a>
 80090c8:	bd10      	pop	{r4, pc}
 80090ca:	f813 4d01 	ldrb.w	r4, [r3, #-1]!
 80090ce:	f802 4d01 	strb.w	r4, [r2, #-1]!
 80090d2:	e7f7      	b.n	80090c4 <memmove+0x24>

080090d4 <_sbrk_r>:
 80090d4:	b538      	push	{r3, r4, r5, lr}
 80090d6:	2300      	movs	r3, #0
 80090d8:	4d05      	ldr	r5, [pc, #20]	; (80090f0 <_sbrk_r+0x1c>)
 80090da:	4604      	mov	r4, r0
 80090dc:	4608      	mov	r0, r1
 80090de:	602b      	str	r3, [r5, #0]
 80090e0:	f7fb fd9e 	bl	8004c20 <_sbrk>
 80090e4:	1c43      	adds	r3, r0, #1
 80090e6:	d102      	bne.n	80090ee <_sbrk_r+0x1a>
 80090e8:	682b      	ldr	r3, [r5, #0]
 80090ea:	b103      	cbz	r3, 80090ee <_sbrk_r+0x1a>
 80090ec:	6023      	str	r3, [r4, #0]
 80090ee:	bd38      	pop	{r3, r4, r5, pc}
 80090f0:	2000072c 	.word	0x2000072c

080090f4 <memchr>:
 80090f4:	4603      	mov	r3, r0
 80090f6:	b510      	push	{r4, lr}
 80090f8:	b2c9      	uxtb	r1, r1
 80090fa:	4402      	add	r2, r0
 80090fc:	4293      	cmp	r3, r2
 80090fe:	4618      	mov	r0, r3
 8009100:	d101      	bne.n	8009106 <memchr+0x12>
 8009102:	2000      	movs	r0, #0
 8009104:	e003      	b.n	800910e <memchr+0x1a>
 8009106:	7804      	ldrb	r4, [r0, #0]
 8009108:	3301      	adds	r3, #1
 800910a:	428c      	cmp	r4, r1
 800910c:	d1f6      	bne.n	80090fc <memchr+0x8>
 800910e:	bd10      	pop	{r4, pc}

08009110 <memcpy>:
 8009110:	440a      	add	r2, r1
 8009112:	4291      	cmp	r1, r2
 8009114:	f100 33ff 	add.w	r3, r0, #4294967295
 8009118:	d100      	bne.n	800911c <memcpy+0xc>
 800911a:	4770      	bx	lr
 800911c:	b510      	push	{r4, lr}
 800911e:	f811 4b01 	ldrb.w	r4, [r1], #1
 8009122:	4291      	cmp	r1, r2
 8009124:	f803 4f01 	strb.w	r4, [r3, #1]!
 8009128:	d1f9      	bne.n	800911e <memcpy+0xe>
 800912a:	bd10      	pop	{r4, pc}

0800912c <_realloc_r>:
 800912c:	e92d 41f0 	stmdb	sp!, {r4, r5, r6, r7, r8, lr}
 8009130:	4680      	mov	r8, r0
 8009132:	4614      	mov	r4, r2
 8009134:	460e      	mov	r6, r1
 8009136:	b921      	cbnz	r1, 8009142 <_realloc_r+0x16>
 8009138:	4611      	mov	r1, r2
 800913a:	e8bd 41f0 	ldmia.w	sp!, {r4, r5, r6, r7, r8, lr}
 800913e:	f7ff bc37 	b.w	80089b0 <_malloc_r>
 8009142:	b92a      	cbnz	r2, 8009150 <_realloc_r+0x24>
 8009144:	f7ff fbcc 	bl	80088e0 <_free_r>
 8009148:	4625      	mov	r5, r4
 800914a:	4628      	mov	r0, r5
 800914c:	e8bd 81f0 	ldmia.w	sp!, {r4, r5, r6, r7, r8, pc}
 8009150:	f000 f81b 	bl	800918a <_malloc_usable_size_r>
 8009154:	4284      	cmp	r4, r0
 8009156:	4607      	mov	r7, r0
 8009158:	d802      	bhi.n	8009160 <_realloc_r+0x34>
 800915a:	ebb4 0f50 	cmp.w	r4, r0, lsr #1
 800915e:	d812      	bhi.n	8009186 <_realloc_r+0x5a>
 8009160:	4621      	mov	r1, r4
 8009162:	4640      	mov	r0, r8
 8009164:	f7ff fc24 	bl	80089b0 <_malloc_r>
 8009168:	4605      	mov	r5, r0
 800916a:	2800      	cmp	r0, #0
 800916c:	d0ed      	beq.n	800914a <_realloc_r+0x1e>
 800916e:	42bc      	cmp	r4, r7
 8009170:	4622      	mov	r2, r4
 8009172:	4631      	mov	r1, r6
 8009174:	bf28      	it	cs
 8009176:	463a      	movcs	r2, r7
 8009178:	f7ff ffca 	bl	8009110 <memcpy>
 800917c:	4631      	mov	r1, r6
 800917e:	4640      	mov	r0, r8
 8009180:	f7ff fbae 	bl	80088e0 <_free_r>
 8009184:	e7e1      	b.n	800914a <_realloc_r+0x1e>
 8009186:	4635      	mov	r5, r6
 8009188:	e7df      	b.n	800914a <_realloc_r+0x1e>

0800918a <_malloc_usable_size_r>:
 800918a:	f851 3c04 	ldr.w	r3, [r1, #-4]
 800918e:	1f18      	subs	r0, r3, #4
 8009190:	2b00      	cmp	r3, #0
 8009192:	bfbc      	itt	lt
 8009194:	580b      	ldrlt	r3, [r1, r0]
 8009196:	18c0      	addlt	r0, r0, r3
 8009198:	4770      	bx	lr

0800919a <atan2>:
 800919a:	f000 ba8d 	b.w	80096b8 <__ieee754_atan2>

0800919e <sqrt>:
 800919e:	b5f8      	push	{r3, r4, r5, r6, r7, lr}
 80091a0:	4606      	mov	r6, r0
 80091a2:	460f      	mov	r7, r1
 80091a4:	f000 f9ae 	bl	8009504 <__ieee754_sqrt>
 80091a8:	4632      	mov	r2, r6
 80091aa:	4604      	mov	r4, r0
 80091ac:	460d      	mov	r5, r1
 80091ae:	463b      	mov	r3, r7
 80091b0:	4630      	mov	r0, r6
 80091b2:	4639      	mov	r1, r7
 80091b4:	f7f7 fc2a 	bl	8000a0c <__aeabi_dcmpun>
 80091b8:	b990      	cbnz	r0, 80091e0 <sqrt+0x42>
 80091ba:	2200      	movs	r2, #0
 80091bc:	2300      	movs	r3, #0
 80091be:	4630      	mov	r0, r6
 80091c0:	4639      	mov	r1, r7
 80091c2:	f7f7 fbfb 	bl	80009bc <__aeabi_dcmplt>
 80091c6:	b158      	cbz	r0, 80091e0 <sqrt+0x42>
 80091c8:	f7ff fb5e 	bl	8008888 <__errno>
 80091cc:	2321      	movs	r3, #33	; 0x21
 80091ce:	2200      	movs	r2, #0
 80091d0:	6003      	str	r3, [r0, #0]
 80091d2:	2300      	movs	r3, #0
 80091d4:	4610      	mov	r0, r2
 80091d6:	4619      	mov	r1, r3
 80091d8:	f7f7 faa8 	bl	800072c <__aeabi_ddiv>
 80091dc:	4604      	mov	r4, r0
 80091de:	460d      	mov	r5, r1
 80091e0:	4620      	mov	r0, r4
 80091e2:	4629      	mov	r1, r5
 80091e4:	bdf8      	pop	{r3, r4, r5, r6, r7, pc}
	...

080091e8 <atan>:
 80091e8:	e92d 4ff8 	stmdb	sp!, {r3, r4, r5, r6, r7, r8, r9, sl, fp, lr}
 80091ec:	4bb6      	ldr	r3, [pc, #728]	; (80094c8 <atan+0x2e0>)
 80091ee:	f021 4600 	bic.w	r6, r1, #2147483648	; 0x80000000
 80091f2:	429e      	cmp	r6, r3
 80091f4:	4604      	mov	r4, r0
 80091f6:	460d      	mov	r5, r1
 80091f8:	468b      	mov	fp, r1
 80091fa:	dd17      	ble.n	800922c <atan+0x44>
 80091fc:	4bb3      	ldr	r3, [pc, #716]	; (80094cc <atan+0x2e4>)
 80091fe:	429e      	cmp	r6, r3
 8009200:	dc01      	bgt.n	8009206 <atan+0x1e>
 8009202:	d109      	bne.n	8009218 <atan+0x30>
 8009204:	b140      	cbz	r0, 8009218 <atan+0x30>
 8009206:	4622      	mov	r2, r4
 8009208:	462b      	mov	r3, r5
 800920a:	4620      	mov	r0, r4
 800920c:	4629      	mov	r1, r5
 800920e:	f7f6 ffad 	bl	800016c <__adddf3>
 8009212:	4604      	mov	r4, r0
 8009214:	460d      	mov	r5, r1
 8009216:	e005      	b.n	8009224 <atan+0x3c>
 8009218:	f1bb 0f00 	cmp.w	fp, #0
 800921c:	4cac      	ldr	r4, [pc, #688]	; (80094d0 <atan+0x2e8>)
 800921e:	f300 8121 	bgt.w	8009464 <atan+0x27c>
 8009222:	4dac      	ldr	r5, [pc, #688]	; (80094d4 <atan+0x2ec>)
 8009224:	4620      	mov	r0, r4
 8009226:	4629      	mov	r1, r5
 8009228:	e8bd 8ff8 	ldmia.w	sp!, {r3, r4, r5, r6, r7, r8, r9, sl, fp, pc}
 800922c:	4baa      	ldr	r3, [pc, #680]	; (80094d8 <atan+0x2f0>)
 800922e:	429e      	cmp	r6, r3
 8009230:	dc11      	bgt.n	8009256 <atan+0x6e>
 8009232:	f1a3 73de 	sub.w	r3, r3, #29097984	; 0x1bc0000
 8009236:	429e      	cmp	r6, r3
 8009238:	dc0a      	bgt.n	8009250 <atan+0x68>
 800923a:	a38b      	add	r3, pc, #556	; (adr r3, 8009468 <atan+0x280>)
 800923c:	e9d3 2300 	ldrd	r2, r3, [r3]
 8009240:	f7f6 ff94 	bl	800016c <__adddf3>
 8009244:	2200      	movs	r2, #0
 8009246:	4ba5      	ldr	r3, [pc, #660]	; (80094dc <atan+0x2f4>)
 8009248:	f7f7 fbd6 	bl	80009f8 <__aeabi_dcmpgt>
 800924c:	2800      	cmp	r0, #0
 800924e:	d1e9      	bne.n	8009224 <atan+0x3c>
 8009250:	f04f 3aff 	mov.w	sl, #4294967295
 8009254:	e027      	b.n	80092a6 <atan+0xbe>
 8009256:	f000 f951 	bl	80094fc <fabs>
 800925a:	4ba1      	ldr	r3, [pc, #644]	; (80094e0 <atan+0x2f8>)
 800925c:	4604      	mov	r4, r0
 800925e:	429e      	cmp	r6, r3
 8009260:	460d      	mov	r5, r1
 8009262:	f300 80b8 	bgt.w	80093d6 <atan+0x1ee>
 8009266:	f5a3 2350 	sub.w	r3, r3, #851968	; 0xd0000
 800926a:	429e      	cmp	r6, r3
 800926c:	f300 809c 	bgt.w	80093a8 <atan+0x1c0>
 8009270:	4602      	mov	r2, r0
 8009272:	460b      	mov	r3, r1
 8009274:	f7f6 ff7a 	bl	800016c <__adddf3>
 8009278:	2200      	movs	r2, #0
 800927a:	4b98      	ldr	r3, [pc, #608]	; (80094dc <atan+0x2f4>)
 800927c:	f7f6 ff74 	bl	8000168 <__aeabi_dsub>
 8009280:	2200      	movs	r2, #0
 8009282:	4606      	mov	r6, r0
 8009284:	460f      	mov	r7, r1
 8009286:	f04f 4380 	mov.w	r3, #1073741824	; 0x40000000
 800928a:	4620      	mov	r0, r4
 800928c:	4629      	mov	r1, r5
 800928e:	f7f6 ff6d 	bl	800016c <__adddf3>
 8009292:	4602      	mov	r2, r0
 8009294:	460b      	mov	r3, r1
 8009296:	4630      	mov	r0, r6
 8009298:	4639      	mov	r1, r7
 800929a:	f7f7 fa47 	bl	800072c <__aeabi_ddiv>
 800929e:	f04f 0a00 	mov.w	sl, #0
 80092a2:	4604      	mov	r4, r0
 80092a4:	460d      	mov	r5, r1
 80092a6:	4622      	mov	r2, r4
 80092a8:	462b      	mov	r3, r5
 80092aa:	4620      	mov	r0, r4
 80092ac:	4629      	mov	r1, r5
 80092ae:	f7f7 f913 	bl	80004d8 <__aeabi_dmul>
 80092b2:	4602      	mov	r2, r0
 80092b4:	460b      	mov	r3, r1
 80092b6:	4680      	mov	r8, r0
 80092b8:	4689      	mov	r9, r1
 80092ba:	f7f7 f90d 	bl	80004d8 <__aeabi_dmul>
 80092be:	a36c      	add	r3, pc, #432	; (adr r3, 8009470 <atan+0x288>)
 80092c0:	e9d3 2300 	ldrd	r2, r3, [r3]
 80092c4:	4606      	mov	r6, r0
 80092c6:	460f      	mov	r7, r1
 80092c8:	f7f7 f906 	bl	80004d8 <__aeabi_dmul>
 80092cc:	a36a      	add	r3, pc, #424	; (adr r3, 8009478 <atan+0x290>)
 80092ce:	e9d3 2300 	ldrd	r2, r3, [r3]
 80092d2:	f7f6 ff4b 	bl	800016c <__adddf3>
 80092d6:	4632      	mov	r2, r6
 80092d8:	463b      	mov	r3, r7
 80092da:	f7f7 f8fd 	bl	80004d8 <__aeabi_dmul>
 80092de:	a368      	add	r3, pc, #416	; (adr r3, 8009480 <atan+0x298>)
 80092e0:	e9d3 2300 	ldrd	r2, r3, [r3]
 80092e4:	f7f6 ff42 	bl	800016c <__adddf3>
 80092e8:	4632      	mov	r2, r6
 80092ea:	463b      	mov	r3, r7
 80092ec:	f7f7 f8f4 	bl	80004d8 <__aeabi_dmul>
 80092f0:	a365      	add	r3, pc, #404	; (adr r3, 8009488 <atan+0x2a0>)
 80092f2:	e9d3 2300 	ldrd	r2, r3, [r3]
 80092f6:	f7f6 ff39 	bl	800016c <__adddf3>
 80092fa:	4632      	mov	r2, r6
 80092fc:	463b      	mov	r3, r7
 80092fe:	f7f7 f8eb 	bl	80004d8 <__aeabi_dmul>
 8009302:	a363      	add	r3, pc, #396	; (adr r3, 8009490 <atan+0x2a8>)
 8009304:	e9d3 2300 	ldrd	r2, r3, [r3]
 8009308:	f7f6 ff30 	bl	800016c <__adddf3>
 800930c:	4632      	mov	r2, r6
 800930e:	463b      	mov	r3, r7
 8009310:	f7f7 f8e2 	bl	80004d8 <__aeabi_dmul>
 8009314:	a360      	add	r3, pc, #384	; (adr r3, 8009498 <atan+0x2b0>)
 8009316:	e9d3 2300 	ldrd	r2, r3, [r3]
 800931a:	f7f6 ff27 	bl	800016c <__adddf3>
 800931e:	4642      	mov	r2, r8
 8009320:	464b      	mov	r3, r9
 8009322:	f7f7 f8d9 	bl	80004d8 <__aeabi_dmul>
 8009326:	a35e      	add	r3, pc, #376	; (adr r3, 80094a0 <atan+0x2b8>)
 8009328:	e9d3 2300 	ldrd	r2, r3, [r3]
 800932c:	4680      	mov	r8, r0
 800932e:	4689      	mov	r9, r1
 8009330:	4630      	mov	r0, r6
 8009332:	4639      	mov	r1, r7
 8009334:	f7f7 f8d0 	bl	80004d8 <__aeabi_dmul>
 8009338:	a35b      	add	r3, pc, #364	; (adr r3, 80094a8 <atan+0x2c0>)
 800933a:	e9d3 2300 	ldrd	r2, r3, [r3]
 800933e:	f7f6 ff13 	bl	8000168 <__aeabi_dsub>
 8009342:	4632      	mov	r2, r6
 8009344:	463b      	mov	r3, r7
 8009346:	f7f7 f8c7 	bl	80004d8 <__aeabi_dmul>
 800934a:	a359      	add	r3, pc, #356	; (adr r3, 80094b0 <atan+0x2c8>)
 800934c:	e9d3 2300 	ldrd	r2, r3, [r3]
 8009350:	f7f6 ff0a 	bl	8000168 <__aeabi_dsub>
 8009354:	4632      	mov	r2, r6
 8009356:	463b      	mov	r3, r7
 8009358:	f7f7 f8be 	bl	80004d8 <__aeabi_dmul>
 800935c:	a356      	add	r3, pc, #344	; (adr r3, 80094b8 <atan+0x2d0>)
 800935e:	e9d3 2300 	ldrd	r2, r3, [r3]
 8009362:	f7f6 ff01 	bl	8000168 <__aeabi_dsub>
 8009366:	4632      	mov	r2, r6
 8009368:	463b      	mov	r3, r7
 800936a:	f7f7 f8b5 	bl	80004d8 <__aeabi_dmul>
 800936e:	a354      	add	r3, pc, #336	; (adr r3, 80094c0 <atan+0x2d8>)
 8009370:	e9d3 2300 	ldrd	r2, r3, [r3]
 8009374:	f7f6 fef8 	bl	8000168 <__aeabi_dsub>
 8009378:	4632      	mov	r2, r6
 800937a:	463b      	mov	r3, r7
 800937c:	f7f7 f8ac 	bl	80004d8 <__aeabi_dmul>
 8009380:	4602      	mov	r2, r0
 8009382:	460b      	mov	r3, r1
 8009384:	4640      	mov	r0, r8
 8009386:	4649      	mov	r1, r9
 8009388:	f7f6 fef0 	bl	800016c <__adddf3>
 800938c:	4622      	mov	r2, r4
 800938e:	462b      	mov	r3, r5
 8009390:	f7f7 f8a2 	bl	80004d8 <__aeabi_dmul>
 8009394:	f1ba 3fff 	cmp.w	sl, #4294967295
 8009398:	4602      	mov	r2, r0
 800939a:	460b      	mov	r3, r1
 800939c:	d144      	bne.n	8009428 <atan+0x240>
 800939e:	4620      	mov	r0, r4
 80093a0:	4629      	mov	r1, r5
 80093a2:	f7f6 fee1 	bl	8000168 <__aeabi_dsub>
 80093a6:	e734      	b.n	8009212 <atan+0x2a>
 80093a8:	2200      	movs	r2, #0
 80093aa:	4b4c      	ldr	r3, [pc, #304]	; (80094dc <atan+0x2f4>)
 80093ac:	f7f6 fedc 	bl	8000168 <__aeabi_dsub>
 80093b0:	2200      	movs	r2, #0
 80093b2:	4606      	mov	r6, r0
 80093b4:	460f      	mov	r7, r1
 80093b6:	4620      	mov	r0, r4
 80093b8:	4629      	mov	r1, r5
 80093ba:	4b48      	ldr	r3, [pc, #288]	; (80094dc <atan+0x2f4>)
 80093bc:	f7f6 fed6 	bl	800016c <__adddf3>
 80093c0:	4602      	mov	r2, r0
 80093c2:	460b      	mov	r3, r1
 80093c4:	4630      	mov	r0, r6
 80093c6:	4639      	mov	r1, r7
 80093c8:	f7f7 f9b0 	bl	800072c <__aeabi_ddiv>
 80093cc:	f04f 0a01 	mov.w	sl, #1
 80093d0:	4604      	mov	r4, r0
 80093d2:	460d      	mov	r5, r1
 80093d4:	e767      	b.n	80092a6 <atan+0xbe>
 80093d6:	4b43      	ldr	r3, [pc, #268]	; (80094e4 <atan+0x2fc>)
 80093d8:	429e      	cmp	r6, r3
 80093da:	da1a      	bge.n	8009412 <atan+0x22a>
 80093dc:	2200      	movs	r2, #0
 80093de:	4b42      	ldr	r3, [pc, #264]	; (80094e8 <atan+0x300>)
 80093e0:	f7f6 fec2 	bl	8000168 <__aeabi_dsub>
 80093e4:	2200      	movs	r2, #0
 80093e6:	4606      	mov	r6, r0
 80093e8:	460f      	mov	r7, r1
 80093ea:	4620      	mov	r0, r4
 80093ec:	4629      	mov	r1, r5
 80093ee:	4b3e      	ldr	r3, [pc, #248]	; (80094e8 <atan+0x300>)
 80093f0:	f7f7 f872 	bl	80004d8 <__aeabi_dmul>
 80093f4:	2200      	movs	r2, #0
 80093f6:	4b39      	ldr	r3, [pc, #228]	; (80094dc <atan+0x2f4>)
 80093f8:	f7f6 feb8 	bl	800016c <__adddf3>
 80093fc:	4602      	mov	r2, r0
 80093fe:	460b      	mov	r3, r1
 8009400:	4630      	mov	r0, r6
 8009402:	4639      	mov	r1, r7
 8009404:	f7f7 f992 	bl	800072c <__aeabi_ddiv>
 8009408:	f04f 0a02 	mov.w	sl, #2
 800940c:	4604      	mov	r4, r0
 800940e:	460d      	mov	r5, r1
 8009410:	e749      	b.n	80092a6 <atan+0xbe>
 8009412:	4602      	mov	r2, r0
 8009414:	460b      	mov	r3, r1
 8009416:	2000      	movs	r0, #0
 8009418:	4934      	ldr	r1, [pc, #208]	; (80094ec <atan+0x304>)
 800941a:	f7f7 f987 	bl	800072c <__aeabi_ddiv>
 800941e:	f04f 0a03 	mov.w	sl, #3
 8009422:	4604      	mov	r4, r0
 8009424:	460d      	mov	r5, r1
 8009426:	e73e      	b.n	80092a6 <atan+0xbe>
 8009428:	4b31      	ldr	r3, [pc, #196]	; (80094f0 <atan+0x308>)
 800942a:	4e32      	ldr	r6, [pc, #200]	; (80094f4 <atan+0x30c>)
 800942c:	eb03 03ca 	add.w	r3, r3, sl, lsl #3
 8009430:	e9d3 2300 	ldrd	r2, r3, [r3]
 8009434:	f7f6 fe98 	bl	8000168 <__aeabi_dsub>
 8009438:	4622      	mov	r2, r4
 800943a:	462b      	mov	r3, r5
 800943c:	f7f6 fe94 	bl	8000168 <__aeabi_dsub>
 8009440:	eb06 06ca 	add.w	r6, r6, sl, lsl #3
 8009444:	4602      	mov	r2, r0
 8009446:	460b      	mov	r3, r1
 8009448:	e9d6 0100 	ldrd	r0, r1, [r6]
 800944c:	f7f6 fe8c 	bl	8000168 <__aeabi_dsub>
 8009450:	f1bb 0f00 	cmp.w	fp, #0
 8009454:	4604      	mov	r4, r0
 8009456:	460d      	mov	r5, r1
 8009458:	f6bf aee4 	bge.w	8009224 <atan+0x3c>
 800945c:	f101 4300 	add.w	r3, r1, #2147483648	; 0x80000000
 8009460:	461d      	mov	r5, r3
 8009462:	e6df      	b.n	8009224 <atan+0x3c>
 8009464:	4d24      	ldr	r5, [pc, #144]	; (80094f8 <atan+0x310>)
 8009466:	e6dd      	b.n	8009224 <atan+0x3c>
 8009468:	8800759c 	.word	0x8800759c
 800946c:	7e37e43c 	.word	0x7e37e43c
 8009470:	e322da11 	.word	0xe322da11
 8009474:	3f90ad3a 	.word	0x3f90ad3a
 8009478:	24760deb 	.word	0x24760deb
 800947c:	3fa97b4b 	.word	0x3fa97b4b
 8009480:	a0d03d51 	.word	0xa0d03d51
 8009484:	3fb10d66 	.word	0x3fb10d66
 8009488:	c54c206e 	.word	0xc54c206e
 800948c:	3fb745cd 	.word	0x3fb745cd
 8009490:	920083ff 	.word	0x920083ff
 8009494:	3fc24924 	.word	0x3fc24924
 8009498:	5555550d 	.word	0x5555550d
 800949c:	3fd55555 	.word	0x3fd55555
 80094a0:	2c6a6c2f 	.word	0x2c6a6c2f
 80094a4:	bfa2b444 	.word	0xbfa2b444
 80094a8:	52defd9a 	.word	0x52defd9a
 80094ac:	3fadde2d 	.word	0x3fadde2d
 80094b0:	af749a6d 	.word	0xaf749a6d
 80094b4:	3fb3b0f2 	.word	0x3fb3b0f2
 80094b8:	fe231671 	.word	0xfe231671
 80094bc:	3fbc71c6 	.word	0x3fbc71c6
 80094c0:	9998ebc4 	.word	0x9998ebc4
 80094c4:	3fc99999 	.word	0x3fc99999
 80094c8:	440fffff 	.word	0x440fffff
 80094cc:	7ff00000 	.word	0x7ff00000
 80094d0:	54442d18 	.word	0x54442d18
 80094d4:	bff921fb 	.word	0xbff921fb
 80094d8:	3fdbffff 	.word	0x3fdbffff
 80094dc:	3ff00000 	.word	0x3ff00000
 80094e0:	3ff2ffff 	.word	0x3ff2ffff
 80094e4:	40038000 	.word	0x40038000
 80094e8:	3ff80000 	.word	0x3ff80000
 80094ec:	bff00000 	.word	0xbff00000
 80094f0:	08009bd0 	.word	0x08009bd0
 80094f4:	08009bb0 	.word	0x08009bb0
 80094f8:	3ff921fb 	.word	0x3ff921fb

080094fc <fabs>:
 80094fc:	f021 4300 	bic.w	r3, r1, #2147483648	; 0x80000000
 8009500:	4619      	mov	r1, r3
 8009502:	4770      	bx	lr

08009504 <__ieee754_sqrt>:
 8009504:	f8df c1a0 	ldr.w	ip, [pc, #416]	; 80096a8 <__ieee754_sqrt+0x1a4>
 8009508:	e92d 4ff8 	stmdb	sp!, {r3, r4, r5, r6, r7, r8, r9, sl, fp, lr}
 800950c:	ea3c 0c01 	bics.w	ip, ip, r1
 8009510:	460b      	mov	r3, r1
 8009512:	4606      	mov	r6, r0
 8009514:	460d      	mov	r5, r1
 8009516:	460a      	mov	r2, r1
 8009518:	4604      	mov	r4, r0
 800951a:	d10e      	bne.n	800953a <__ieee754_sqrt+0x36>
 800951c:	4602      	mov	r2, r0
 800951e:	f7f6 ffdb 	bl	80004d8 <__aeabi_dmul>
 8009522:	4602      	mov	r2, r0
 8009524:	460b      	mov	r3, r1
 8009526:	4630      	mov	r0, r6
 8009528:	4629      	mov	r1, r5
 800952a:	f7f6 fe1f 	bl	800016c <__adddf3>
 800952e:	4606      	mov	r6, r0
 8009530:	460d      	mov	r5, r1
 8009532:	4630      	mov	r0, r6
 8009534:	4629      	mov	r1, r5
 8009536:	e8bd 8ff8 	ldmia.w	sp!, {r3, r4, r5, r6, r7, r8, r9, sl, fp, pc}
 800953a:	2900      	cmp	r1, #0
 800953c:	dc0d      	bgt.n	800955a <__ieee754_sqrt+0x56>
 800953e:	f021 4c00 	bic.w	ip, r1, #2147483648	; 0x80000000
 8009542:	ea5c 0c00 	orrs.w	ip, ip, r0
 8009546:	d0f4      	beq.n	8009532 <__ieee754_sqrt+0x2e>
 8009548:	b139      	cbz	r1, 800955a <__ieee754_sqrt+0x56>
 800954a:	4602      	mov	r2, r0
 800954c:	f7f6 fe0c 	bl	8000168 <__aeabi_dsub>
 8009550:	4602      	mov	r2, r0
 8009552:	460b      	mov	r3, r1
 8009554:	f7f7 f8ea 	bl	800072c <__aeabi_ddiv>
 8009558:	e7e9      	b.n	800952e <__ieee754_sqrt+0x2a>
 800955a:	1512      	asrs	r2, r2, #20
 800955c:	f000 8089 	beq.w	8009672 <__ieee754_sqrt+0x16e>
 8009560:	2500      	movs	r5, #0
 8009562:	f3c3 0313 	ubfx	r3, r3, #0, #20
 8009566:	f2a2 36ff 	subw	r6, r2, #1023	; 0x3ff
 800956a:	f443 1380 	orr.w	r3, r3, #1048576	; 0x100000
 800956e:	07d2      	lsls	r2, r2, #31
 8009570:	bf5c      	itt	pl
 8009572:	005b      	lslpl	r3, r3, #1
 8009574:	eb03 73d4 	addpl.w	r3, r3, r4, lsr #31
 8009578:	ea4f 0343 	mov.w	r3, r3, lsl #1
 800957c:	bf58      	it	pl
 800957e:	0064      	lslpl	r4, r4, #1
 8009580:	eb03 73d4 	add.w	r3, r3, r4, lsr #31
 8009584:	0062      	lsls	r2, r4, #1
 8009586:	2016      	movs	r0, #22
 8009588:	4629      	mov	r1, r5
 800958a:	f44f 1400 	mov.w	r4, #2097152	; 0x200000
 800958e:	1076      	asrs	r6, r6, #1
 8009590:	190f      	adds	r7, r1, r4
 8009592:	429f      	cmp	r7, r3
 8009594:	bfde      	ittt	le
 8009596:	1bdb      	suble	r3, r3, r7
 8009598:	1939      	addle	r1, r7, r4
 800959a:	192d      	addle	r5, r5, r4
 800959c:	005b      	lsls	r3, r3, #1
 800959e:	3801      	subs	r0, #1
 80095a0:	eb03 73d2 	add.w	r3, r3, r2, lsr #31
 80095a4:	ea4f 0454 	mov.w	r4, r4, lsr #1
 80095a8:	ea4f 0242 	mov.w	r2, r2, lsl #1
 80095ac:	d1f0      	bne.n	8009590 <__ieee754_sqrt+0x8c>
 80095ae:	4604      	mov	r4, r0
 80095b0:	2720      	movs	r7, #32
 80095b2:	f04f 4c00 	mov.w	ip, #2147483648	; 0x80000000
 80095b6:	428b      	cmp	r3, r1
 80095b8:	eb0c 0e00 	add.w	lr, ip, r0
 80095bc:	dc02      	bgt.n	80095c4 <__ieee754_sqrt+0xc0>
 80095be:	d113      	bne.n	80095e8 <__ieee754_sqrt+0xe4>
 80095c0:	4596      	cmp	lr, r2
 80095c2:	d811      	bhi.n	80095e8 <__ieee754_sqrt+0xe4>
 80095c4:	f1be 0f00 	cmp.w	lr, #0
 80095c8:	eb0e 000c 	add.w	r0, lr, ip
 80095cc:	da56      	bge.n	800967c <__ieee754_sqrt+0x178>
 80095ce:	2800      	cmp	r0, #0
 80095d0:	db54      	blt.n	800967c <__ieee754_sqrt+0x178>
 80095d2:	f101 0801 	add.w	r8, r1, #1
 80095d6:	1a5b      	subs	r3, r3, r1
 80095d8:	4641      	mov	r1, r8
 80095da:	4596      	cmp	lr, r2
 80095dc:	bf88      	it	hi
 80095de:	f103 33ff 	addhi.w	r3, r3, #4294967295
 80095e2:	eba2 020e 	sub.w	r2, r2, lr
 80095e6:	4464      	add	r4, ip
 80095e8:	005b      	lsls	r3, r3, #1
 80095ea:	3f01      	subs	r7, #1
 80095ec:	eb03 73d2 	add.w	r3, r3, r2, lsr #31
 80095f0:	ea4f 0c5c 	mov.w	ip, ip, lsr #1
 80095f4:	ea4f 0242 	mov.w	r2, r2, lsl #1
 80095f8:	d1dd      	bne.n	80095b6 <__ieee754_sqrt+0xb2>
 80095fa:	4313      	orrs	r3, r2
 80095fc:	d01b      	beq.n	8009636 <__ieee754_sqrt+0x132>
 80095fe:	f8df a0ac 	ldr.w	sl, [pc, #172]	; 80096ac <__ieee754_sqrt+0x1a8>
 8009602:	f8df b0ac 	ldr.w	fp, [pc, #172]	; 80096b0 <__ieee754_sqrt+0x1ac>
 8009606:	e9da 0100 	ldrd	r0, r1, [sl]
 800960a:	e9db 2300 	ldrd	r2, r3, [fp]
 800960e:	f7f6 fdab 	bl	8000168 <__aeabi_dsub>
 8009612:	e9da 8900 	ldrd	r8, r9, [sl]
 8009616:	4602      	mov	r2, r0
 8009618:	460b      	mov	r3, r1
 800961a:	4640      	mov	r0, r8
 800961c:	4649      	mov	r1, r9
 800961e:	f7f7 f9d7 	bl	80009d0 <__aeabi_dcmple>
 8009622:	b140      	cbz	r0, 8009636 <__ieee754_sqrt+0x132>
 8009624:	e9da 0100 	ldrd	r0, r1, [sl]
 8009628:	e9db 2300 	ldrd	r2, r3, [fp]
 800962c:	f1b4 3fff 	cmp.w	r4, #4294967295
 8009630:	d126      	bne.n	8009680 <__ieee754_sqrt+0x17c>
 8009632:	463c      	mov	r4, r7
 8009634:	3501      	adds	r5, #1
 8009636:	106b      	asrs	r3, r5, #1
 8009638:	0864      	lsrs	r4, r4, #1
 800963a:	f103 537f 	add.w	r3, r3, #1069547520	; 0x3fc00000
 800963e:	07ea      	lsls	r2, r5, #31
 8009640:	f503 1300 	add.w	r3, r3, #2097152	; 0x200000
 8009644:	bf48      	it	mi
 8009646:	f044 4400 	orrmi.w	r4, r4, #2147483648	; 0x80000000
 800964a:	4620      	mov	r0, r4
 800964c:	eb03 5106 	add.w	r1, r3, r6, lsl #20
 8009650:	e76d      	b.n	800952e <__ieee754_sqrt+0x2a>
 8009652:	0ae3      	lsrs	r3, r4, #11
 8009654:	3915      	subs	r1, #21
 8009656:	0564      	lsls	r4, r4, #21
 8009658:	2b00      	cmp	r3, #0
 800965a:	d0fa      	beq.n	8009652 <__ieee754_sqrt+0x14e>
 800965c:	02d8      	lsls	r0, r3, #11
 800965e:	d50a      	bpl.n	8009676 <__ieee754_sqrt+0x172>
 8009660:	f1c2 0020 	rsb	r0, r2, #32
 8009664:	fa24 f000 	lsr.w	r0, r4, r0
 8009668:	1e55      	subs	r5, r2, #1
 800966a:	4094      	lsls	r4, r2
 800966c:	4303      	orrs	r3, r0
 800966e:	1b4a      	subs	r2, r1, r5
 8009670:	e776      	b.n	8009560 <__ieee754_sqrt+0x5c>
 8009672:	4611      	mov	r1, r2
 8009674:	e7f0      	b.n	8009658 <__ieee754_sqrt+0x154>
 8009676:	005b      	lsls	r3, r3, #1
 8009678:	3201      	adds	r2, #1
 800967a:	e7ef      	b.n	800965c <__ieee754_sqrt+0x158>
 800967c:	4688      	mov	r8, r1
 800967e:	e7aa      	b.n	80095d6 <__ieee754_sqrt+0xd2>
 8009680:	f7f6 fd74 	bl	800016c <__adddf3>
 8009684:	e9da 8900 	ldrd	r8, r9, [sl]
 8009688:	4602      	mov	r2, r0
 800968a:	460b      	mov	r3, r1
 800968c:	4640      	mov	r0, r8
 800968e:	4649      	mov	r1, r9
 8009690:	f7f7 f994 	bl	80009bc <__aeabi_dcmplt>
 8009694:	b120      	cbz	r0, 80096a0 <__ieee754_sqrt+0x19c>
 8009696:	1ca1      	adds	r1, r4, #2
 8009698:	bf08      	it	eq
 800969a:	3501      	addeq	r5, #1
 800969c:	3402      	adds	r4, #2
 800969e:	e7ca      	b.n	8009636 <__ieee754_sqrt+0x132>
 80096a0:	3401      	adds	r4, #1
 80096a2:	f024 0401 	bic.w	r4, r4, #1
 80096a6:	e7c6      	b.n	8009636 <__ieee754_sqrt+0x132>
 80096a8:	7ff00000 	.word	0x7ff00000
 80096ac:	20000108 	.word	0x20000108
 80096b0:	20000110 	.word	0x20000110
 80096b4:	00000000 	.word	0x00000000

080096b8 <__ieee754_atan2>:
 80096b8:	e92d 4ff8 	stmdb	sp!, {r3, r4, r5, r6, r7, r8, r9, sl, fp, lr}
 80096bc:	4617      	mov	r7, r2
 80096be:	4692      	mov	sl, r2
 80096c0:	4699      	mov	r9, r3
 80096c2:	f023 4200 	bic.w	r2, r3, #2147483648	; 0x80000000
 80096c6:	427b      	negs	r3, r7
 80096c8:	f8df 817c 	ldr.w	r8, [pc, #380]	; 8009848 <__ieee754_atan2+0x190>
 80096cc:	433b      	orrs	r3, r7
 80096ce:	ea42 73d3 	orr.w	r3, r2, r3, lsr #31
 80096d2:	4543      	cmp	r3, r8
 80096d4:	4604      	mov	r4, r0
 80096d6:	460d      	mov	r5, r1
 80096d8:	d809      	bhi.n	80096ee <__ieee754_atan2+0x36>
 80096da:	4246      	negs	r6, r0
 80096dc:	f021 4300 	bic.w	r3, r1, #2147483648	; 0x80000000
 80096e0:	4306      	orrs	r6, r0
 80096e2:	ea43 76d6 	orr.w	r6, r3, r6, lsr #31
 80096e6:	4546      	cmp	r6, r8
 80096e8:	468e      	mov	lr, r1
 80096ea:	4683      	mov	fp, r0
 80096ec:	d908      	bls.n	8009700 <__ieee754_atan2+0x48>
 80096ee:	4652      	mov	r2, sl
 80096f0:	464b      	mov	r3, r9
 80096f2:	4620      	mov	r0, r4
 80096f4:	4629      	mov	r1, r5
 80096f6:	f7f6 fd39 	bl	800016c <__adddf3>
 80096fa:	4604      	mov	r4, r0
 80096fc:	460d      	mov	r5, r1
 80096fe:	e019      	b.n	8009734 <__ieee754_atan2+0x7c>
 8009700:	f109 4640 	add.w	r6, r9, #3221225472	; 0xc0000000
 8009704:	f506 1680 	add.w	r6, r6, #1048576	; 0x100000
 8009708:	433e      	orrs	r6, r7
 800970a:	d103      	bne.n	8009714 <__ieee754_atan2+0x5c>
 800970c:	e8bd 4ff8 	ldmia.w	sp!, {r3, r4, r5, r6, r7, r8, r9, sl, fp, lr}
 8009710:	f7ff bd6a 	b.w	80091e8 <atan>
 8009714:	ea4f 76a9 	mov.w	r6, r9, asr #30
 8009718:	f006 0602 	and.w	r6, r6, #2
 800971c:	ea53 0b0b 	orrs.w	fp, r3, fp
 8009720:	ea46 76d1 	orr.w	r6, r6, r1, lsr #31
 8009724:	d10a      	bne.n	800973c <__ieee754_atan2+0x84>
 8009726:	2e02      	cmp	r6, #2
 8009728:	d067      	beq.n	80097fa <__ieee754_atan2+0x142>
 800972a:	2e03      	cmp	r6, #3
 800972c:	d102      	bne.n	8009734 <__ieee754_atan2+0x7c>
 800972e:	a53a      	add	r5, pc, #232	; (adr r5, 8009818 <__ieee754_atan2+0x160>)
 8009730:	e9d5 4500 	ldrd	r4, r5, [r5]
 8009734:	4620      	mov	r0, r4
 8009736:	4629      	mov	r1, r5
 8009738:	e8bd 8ff8 	ldmia.w	sp!, {r3, r4, r5, r6, r7, r8, r9, sl, fp, pc}
 800973c:	4317      	orrs	r7, r2
 800973e:	d106      	bne.n	800974e <__ieee754_atan2+0x96>
 8009740:	f1be 0f00 	cmp.w	lr, #0
 8009744:	da64      	bge.n	8009810 <__ieee754_atan2+0x158>
 8009746:	a536      	add	r5, pc, #216	; (adr r5, 8009820 <__ieee754_atan2+0x168>)
 8009748:	e9d5 4500 	ldrd	r4, r5, [r5]
 800974c:	e7f2      	b.n	8009734 <__ieee754_atan2+0x7c>
 800974e:	4542      	cmp	r2, r8
 8009750:	d10f      	bne.n	8009772 <__ieee754_atan2+0xba>
 8009752:	4293      	cmp	r3, r2
 8009754:	f106 36ff 	add.w	r6, r6, #4294967295
 8009758:	d107      	bne.n	800976a <__ieee754_atan2+0xb2>
 800975a:	2e02      	cmp	r6, #2
 800975c:	d851      	bhi.n	8009802 <__ieee754_atan2+0x14a>
 800975e:	4b3b      	ldr	r3, [pc, #236]	; (800984c <__ieee754_atan2+0x194>)
 8009760:	eb03 03c6 	add.w	r3, r3, r6, lsl #3
 8009764:	e9d3 4500 	ldrd	r4, r5, [r3]
 8009768:	e7e4      	b.n	8009734 <__ieee754_atan2+0x7c>
 800976a:	2e02      	cmp	r6, #2
 800976c:	d84d      	bhi.n	800980a <__ieee754_atan2+0x152>
 800976e:	4b38      	ldr	r3, [pc, #224]	; (8009850 <__ieee754_atan2+0x198>)
 8009770:	e7f6      	b.n	8009760 <__ieee754_atan2+0xa8>
 8009772:	4543      	cmp	r3, r8
 8009774:	d0e4      	beq.n	8009740 <__ieee754_atan2+0x88>
 8009776:	1a9b      	subs	r3, r3, r2
 8009778:	f1b3 7f74 	cmp.w	r3, #63963136	; 0x3d00000
 800977c:	ea4f 5223 	mov.w	r2, r3, asr #20
 8009780:	da21      	bge.n	80097c6 <__ieee754_atan2+0x10e>
 8009782:	f1b9 0f00 	cmp.w	r9, #0
 8009786:	da01      	bge.n	800978c <__ieee754_atan2+0xd4>
 8009788:	323c      	adds	r2, #60	; 0x3c
 800978a:	db20      	blt.n	80097ce <__ieee754_atan2+0x116>
 800978c:	4652      	mov	r2, sl
 800978e:	464b      	mov	r3, r9
 8009790:	4620      	mov	r0, r4
 8009792:	4629      	mov	r1, r5
 8009794:	f7f6 ffca 	bl	800072c <__aeabi_ddiv>
 8009798:	f7ff feb0 	bl	80094fc <fabs>
 800979c:	f7ff fd24 	bl	80091e8 <atan>
 80097a0:	4604      	mov	r4, r0
 80097a2:	460d      	mov	r5, r1
 80097a4:	2e01      	cmp	r6, #1
 80097a6:	d015      	beq.n	80097d4 <__ieee754_atan2+0x11c>
 80097a8:	2e02      	cmp	r6, #2
 80097aa:	d017      	beq.n	80097dc <__ieee754_atan2+0x124>
 80097ac:	2e00      	cmp	r6, #0
 80097ae:	d0c1      	beq.n	8009734 <__ieee754_atan2+0x7c>
 80097b0:	a31d      	add	r3, pc, #116	; (adr r3, 8009828 <__ieee754_atan2+0x170>)
 80097b2:	e9d3 2300 	ldrd	r2, r3, [r3]
 80097b6:	4620      	mov	r0, r4
 80097b8:	4629      	mov	r1, r5
 80097ba:	f7f6 fcd5 	bl	8000168 <__aeabi_dsub>
 80097be:	a31c      	add	r3, pc, #112	; (adr r3, 8009830 <__ieee754_atan2+0x178>)
 80097c0:	e9d3 2300 	ldrd	r2, r3, [r3]
 80097c4:	e016      	b.n	80097f4 <__ieee754_atan2+0x13c>
 80097c6:	a51c      	add	r5, pc, #112	; (adr r5, 8009838 <__ieee754_atan2+0x180>)
 80097c8:	e9d5 4500 	ldrd	r4, r5, [r5]
 80097cc:	e7ea      	b.n	80097a4 <__ieee754_atan2+0xec>
 80097ce:	2400      	movs	r4, #0
 80097d0:	2500      	movs	r5, #0
 80097d2:	e7e7      	b.n	80097a4 <__ieee754_atan2+0xec>
 80097d4:	f105 4300 	add.w	r3, r5, #2147483648	; 0x80000000
 80097d8:	461d      	mov	r5, r3
 80097da:	e7ab      	b.n	8009734 <__ieee754_atan2+0x7c>
 80097dc:	a312      	add	r3, pc, #72	; (adr r3, 8009828 <__ieee754_atan2+0x170>)
 80097de:	e9d3 2300 	ldrd	r2, r3, [r3]
 80097e2:	4620      	mov	r0, r4
 80097e4:	4629      	mov	r1, r5
 80097e6:	f7f6 fcbf 	bl	8000168 <__aeabi_dsub>
 80097ea:	4602      	mov	r2, r0
 80097ec:	460b      	mov	r3, r1
 80097ee:	a110      	add	r1, pc, #64	; (adr r1, 8009830 <__ieee754_atan2+0x178>)
 80097f0:	e9d1 0100 	ldrd	r0, r1, [r1]
 80097f4:	f7f6 fcb8 	bl	8000168 <__aeabi_dsub>
 80097f8:	e77f      	b.n	80096fa <__ieee754_atan2+0x42>
 80097fa:	a50d      	add	r5, pc, #52	; (adr r5, 8009830 <__ieee754_atan2+0x178>)
 80097fc:	e9d5 4500 	ldrd	r4, r5, [r5]
 8009800:	e798      	b.n	8009734 <__ieee754_atan2+0x7c>
 8009802:	a50f      	add	r5, pc, #60	; (adr r5, 8009840 <__ieee754_atan2+0x188>)
 8009804:	e9d5 4500 	ldrd	r4, r5, [r5]
 8009808:	e794      	b.n	8009734 <__ieee754_atan2+0x7c>
 800980a:	2400      	movs	r4, #0
 800980c:	2500      	movs	r5, #0
 800980e:	e791      	b.n	8009734 <__ieee754_atan2+0x7c>
 8009810:	a509      	add	r5, pc, #36	; (adr r5, 8009838 <__ieee754_atan2+0x180>)
 8009812:	e9d5 4500 	ldrd	r4, r5, [r5]
 8009816:	e78d      	b.n	8009734 <__ieee754_atan2+0x7c>
 8009818:	54442d18 	.word	0x54442d18
 800981c:	c00921fb 	.word	0xc00921fb
 8009820:	54442d18 	.word	0x54442d18
 8009824:	bff921fb 	.word	0xbff921fb
 8009828:	33145c07 	.word	0x33145c07
 800982c:	3ca1a626 	.word	0x3ca1a626
 8009830:	54442d18 	.word	0x54442d18
 8009834:	400921fb 	.word	0x400921fb
 8009838:	54442d18 	.word	0x54442d18
 800983c:	3ff921fb 	.word	0x3ff921fb
 8009840:	54442d18 	.word	0x54442d18
 8009844:	3fe921fb 	.word	0x3fe921fb
 8009848:	7ff00000 	.word	0x7ff00000
 800984c:	08009bf0 	.word	0x08009bf0
 8009850:	08009c08 	.word	0x08009c08

08009854 <_init>:
 8009854:	b5f8      	push	{r3, r4, r5, r6, r7, lr}
 8009856:	bf00      	nop
 8009858:	bcf8      	pop	{r3, r4, r5, r6, r7}
 800985a:	bc08      	pop	{r3}
 800985c:	469e      	mov	lr, r3
 800985e:	4770      	bx	lr

08009860 <_fini>:
 8009860:	b5f8      	push	{r3, r4, r5, r6, r7, lr}
 8009862:	bf00      	nop
 8009864:	bcf8      	pop	{r3, r4, r5, r6, r7}
 8009866:	bc08      	pop	{r3}
 8009868:	469e      	mov	lr, r3
 800986a:	4770      	bx	lr
