
Self_balancing_robot.elf:     file format elf32-littlearm

Sections:
Idx Name          Size      VMA       LMA       File off  Algn
  0 .isr_vector   0000010c  08000000  08000000  00010000  2**0
                  CONTENTS, ALLOC, LOAD, READONLY, DATA
  1 .text         0000977c  08000110  08000110  00010110  2**3
                  CONTENTS, ALLOC, LOAD, READONLY, CODE
  2 .rodata       000003b0  08009890  08009890  00019890  2**3
                  CONTENTS, ALLOC, LOAD, READONLY, DATA
  3 .ARM.extab    00000000  08009c40  08009c40  00020118  2**0
                  CONTENTS
  4 .ARM          00000000  08009c40  08009c40  00020118  2**0
                  CONTENTS
  5 .preinit_array 00000000  08009c40  08009c40  00020118  2**0
                  CONTENTS, ALLOC, LOAD, DATA
  6 .init_array   00000004  08009c40  08009c40  00019c40  2**2
                  CONTENTS, ALLOC, LOAD, DATA
  7 .fini_array   00000004  08009c44  08009c44  00019c44  2**2
                  CONTENTS, ALLOC, LOAD, DATA
  8 .data         00000118  20000000  08009c48  00020000  2**3
                  CONTENTS, ALLOC, LOAD, DATA
  9 .bss          00000618  20000118  08009d60  00020118  2**3
                  ALLOC
 10 ._user_heap_stack 00000600  20000730  08009d60  00020730  2**0
                  ALLOC
 11 .ARM.attributes 00000029  00000000  00000000  00020118  2**0
                  CONTENTS, READONLY
 12 .comment      00000043  00000000  00000000  00020141  2**0
                  CONTENTS, READONLY
 13 .debug_info   0001374c  00000000  00000000  00020184  2**0
                  CONTENTS, READONLY, DEBUGGING, OCTETS
 14 .debug_abbrev 000029ce  00000000  00000000  000338d0  2**0
                  CONTENTS, READONLY, DEBUGGING, OCTETS
 15 .debug_aranges 00001388  00000000  00000000  000362a0  2**3
                  CONTENTS, READONLY, DEBUGGING, OCTETS
 16 .debug_rnglists 00000f69  00000000  00000000  00037628  2**0
                  CONTENTS, READONLY, DEBUGGING, OCTETS
 17 .debug_macro  00019533  00000000  00000000  00038591  2**0
                  CONTENTS, READONLY, DEBUGGING, OCTETS
 18 .debug_line   000165ee  00000000  00000000  00051ac4  2**0
                  CONTENTS, READONLY, DEBUGGING, OCTETS
 19 .debug_str    0008f545  00000000  00000000  000680b2  2**0
                  CONTENTS, READONLY, DEBUGGING, OCTETS
 20 .debug_frame  00005d8c  00000000  00000000  000f75f8  2**2
                  CONTENTS, READONLY, DEBUGGING, OCTETS
 21 .debug_line_str 0000009b  00000000  00000000  000fd384  2**0
                  CONTENTS, READONLY, DEBUGGING, OCTETS

Disassembly of section .text:

08000110 <__do_global_dtors_aux>:
 8000110:	b510      	push	{r4, lr}
 8000112:	4c05      	ldr	r4, [pc, #20]	; (8000128 <__do_global_dtors_aux+0x18>)
 8000114:	7823      	ldrb	r3, [r4, #0]
 8000116:	b933      	cbnz	r3, 8000126 <__do_global_dtors_aux+0x16>
 8000118:	4b04      	ldr	r3, [pc, #16]	; (800012c <__do_global_dtors_aux+0x1c>)
 800011a:	b113      	cbz	r3, 8000122 <__do_global_dtors_aux+0x12>
 800011c:	4804      	ldr	r0, [pc, #16]	; (8000130 <__do_global_dtors_aux+0x20>)
 800011e:	f3af 8000 	nop.w
 8000122:	2301      	movs	r3, #1
 8000124:	7023      	strb	r3, [r4, #0]
 8000126:	bd10      	pop	{r4, pc}
 8000128:	20000118 	.word	0x20000118
 800012c:	00000000 	.word	0x00000000
 8000130:	08009874 	.word	0x08009874

08000134 <frame_dummy>:
 8000134:	b508      	push	{r3, lr}
 8000136:	4b03      	ldr	r3, [pc, #12]	; (8000144 <frame_dummy+0x10>)
 8000138:	b11b      	cbz	r3, 8000142 <frame_dummy+0xe>
 800013a:	4903      	ldr	r1, [pc, #12]	; (8000148 <frame_dummy+0x14>)
 800013c:	4803      	ldr	r0, [pc, #12]	; (800014c <frame_dummy+0x18>)
 800013e:	f3af 8000 	nop.w
 8000142:	bd08      	pop	{r3, pc}
 8000144:	00000000 	.word	0x00000000
 8000148:	2000011c 	.word	0x2000011c
 800014c:	08009874 	.word	0x08009874

08000150 <strlen>:
 8000150:	4603      	mov	r3, r0
 8000152:	f813 2b01 	ldrb.w	r2, [r3], #1
 8000156:	2a00      	cmp	r2, #0
 8000158:	d1fb      	bne.n	8000152 <strlen+0x2>
 800015a:	1a18      	subs	r0, r3, r0
 800015c:	3801      	subs	r0, #1
 800015e:	4770      	bx	lr

08000160 <__aeabi_drsub>:
 8000160:	f081 4100 	eor.w	r1, r1, #2147483648	; 0x80000000
 8000164:	e002      	b.n	800016c <__adddf3>
 8000166:	bf00      	nop

08000168 <__aeabi_dsub>:
 8000168:	f083 4300 	eor.w	r3, r3, #2147483648	; 0x80000000

0800016c <__adddf3>:
 800016c:	b530      	push	{r4, r5, lr}
 800016e:	ea4f 0441 	mov.w	r4, r1, lsl #1
 8000172:	ea4f 0543 	mov.w	r5, r3, lsl #1
 8000176:	ea94 0f05 	teq	r4, r5
 800017a:	bf08      	it	eq
 800017c:	ea90 0f02 	teqeq	r0, r2
 8000180:	bf1f      	itttt	ne
 8000182:	ea54 0c00 	orrsne.w	ip, r4, r0
 8000186:	ea55 0c02 	orrsne.w	ip, r5, r2
 800018a:	ea7f 5c64 	mvnsne.w	ip, r4, asr #21
 800018e:	ea7f 5c65 	mvnsne.w	ip, r5, asr #21
 8000192:	f000 80e2 	beq.w	800035a <__adddf3+0x1ee>
 8000196:	ea4f 5454 	mov.w	r4, r4, lsr #21
 800019a:	ebd4 5555 	rsbs	r5, r4, r5, lsr #21
 800019e:	bfb8      	it	lt
 80001a0:	426d      	neglt	r5, r5
 80001a2:	dd0c      	ble.n	80001be <__adddf3+0x52>
 80001a4:	442c      	add	r4, r5
 80001a6:	ea80 0202 	eor.w	r2, r0, r2
 80001aa:	ea81 0303 	eor.w	r3, r1, r3
 80001ae:	ea82 0000 	eor.w	r0, r2, r0
 80001b2:	ea83 0101 	eor.w	r1, r3, r1
 80001b6:	ea80 0202 	eor.w	r2, r0, r2
 80001ba:	ea81 0303 	eor.w	r3, r1, r3
 80001be:	2d36      	cmp	r5, #54	; 0x36
 80001c0:	bf88      	it	hi
 80001c2:	bd30      	pophi	{r4, r5, pc}
 80001c4:	f011 4f00 	tst.w	r1, #2147483648	; 0x80000000
 80001c8:	ea4f 3101 	mov.w	r1, r1, lsl #12
 80001cc:	f44f 1c80 	mov.w	ip, #1048576	; 0x100000
 80001d0:	ea4c 3111 	orr.w	r1, ip, r1, lsr #12
 80001d4:	d002      	beq.n	80001dc <__adddf3+0x70>
 80001d6:	4240      	negs	r0, r0
 80001d8:	eb61 0141 	sbc.w	r1, r1, r1, lsl #1
 80001dc:	f013 4f00 	tst.w	r3, #2147483648	; 0x80000000
 80001e0:	ea4f 3303 	mov.w	r3, r3, lsl #12
 80001e4:	ea4c 3313 	orr.w	r3, ip, r3, lsr #12
 80001e8:	d002      	beq.n	80001f0 <__adddf3+0x84>
 80001ea:	4252      	negs	r2, r2
 80001ec:	eb63 0343 	sbc.w	r3, r3, r3, lsl #1
 80001f0:	ea94 0f05 	teq	r4, r5
 80001f4:	f000 80a7 	beq.w	8000346 <__adddf3+0x1da>
 80001f8:	f1a4 0401 	sub.w	r4, r4, #1
 80001fc:	f1d5 0e20 	rsbs	lr, r5, #32
 8000200:	db0d      	blt.n	800021e <__adddf3+0xb2>
 8000202:	fa02 fc0e 	lsl.w	ip, r2, lr
 8000206:	fa22 f205 	lsr.w	r2, r2, r5
 800020a:	1880      	adds	r0, r0, r2
 800020c:	f141 0100 	adc.w	r1, r1, #0
 8000210:	fa03 f20e 	lsl.w	r2, r3, lr
 8000214:	1880      	adds	r0, r0, r2
 8000216:	fa43 f305 	asr.w	r3, r3, r5
 800021a:	4159      	adcs	r1, r3
 800021c:	e00e      	b.n	800023c <__adddf3+0xd0>
 800021e:	f1a5 0520 	sub.w	r5, r5, #32
 8000222:	f10e 0e20 	add.w	lr, lr, #32
 8000226:	2a01      	cmp	r2, #1
 8000228:	fa03 fc0e 	lsl.w	ip, r3, lr
 800022c:	bf28      	it	cs
 800022e:	f04c 0c02 	orrcs.w	ip, ip, #2
 8000232:	fa43 f305 	asr.w	r3, r3, r5
 8000236:	18c0      	adds	r0, r0, r3
 8000238:	eb51 71e3 	adcs.w	r1, r1, r3, asr #31
 800023c:	f001 4500 	and.w	r5, r1, #2147483648	; 0x80000000
 8000240:	d507      	bpl.n	8000252 <__adddf3+0xe6>
 8000242:	f04f 0e00 	mov.w	lr, #0
 8000246:	f1dc 0c00 	rsbs	ip, ip, #0
 800024a:	eb7e 0000 	sbcs.w	r0, lr, r0
 800024e:	eb6e 0101 	sbc.w	r1, lr, r1
 8000252:	f5b1 1f80 	cmp.w	r1, #1048576	; 0x100000
 8000256:	d31b      	bcc.n	8000290 <__adddf3+0x124>
 8000258:	f5b1 1f00 	cmp.w	r1, #2097152	; 0x200000
 800025c:	d30c      	bcc.n	8000278 <__adddf3+0x10c>
 800025e:	0849      	lsrs	r1, r1, #1
 8000260:	ea5f 0030 	movs.w	r0, r0, rrx
 8000264:	ea4f 0c3c 	mov.w	ip, ip, rrx
 8000268:	f104 0401 	add.w	r4, r4, #1
 800026c:	ea4f 5244 	mov.w	r2, r4, lsl #21
 8000270:	f512 0f80 	cmn.w	r2, #4194304	; 0x400000
 8000274:	f080 809a 	bcs.w	80003ac <__adddf3+0x240>
 8000278:	f1bc 4f00 	cmp.w	ip, #2147483648	; 0x80000000
 800027c:	bf08      	it	eq
 800027e:	ea5f 0c50 	movseq.w	ip, r0, lsr #1
 8000282:	f150 0000 	adcs.w	r0, r0, #0
 8000286:	eb41 5104 	adc.w	r1, r1, r4, lsl #20
 800028a:	ea41 0105 	orr.w	r1, r1, r5
 800028e:	bd30      	pop	{r4, r5, pc}
 8000290:	ea5f 0c4c 	movs.w	ip, ip, lsl #1
 8000294:	4140      	adcs	r0, r0
 8000296:	eb41 0101 	adc.w	r1, r1, r1
 800029a:	3c01      	subs	r4, #1
 800029c:	bf28      	it	cs
 800029e:	f5b1 1f80 	cmpcs.w	r1, #1048576	; 0x100000
 80002a2:	d2e9      	bcs.n	8000278 <__adddf3+0x10c>
 80002a4:	f091 0f00 	teq	r1, #0
 80002a8:	bf04      	itt	eq
 80002aa:	4601      	moveq	r1, r0
 80002ac:	2000      	moveq	r0, #0
 80002ae:	fab1 f381 	clz	r3, r1
 80002b2:	bf08      	it	eq
 80002b4:	3320      	addeq	r3, #32
 80002b6:	f1a3 030b 	sub.w	r3, r3, #11
 80002ba:	f1b3 0220 	subs.w	r2, r3, #32
 80002be:	da0c      	bge.n	80002da <__adddf3+0x16e>
 80002c0:	320c      	adds	r2, #12
 80002c2:	dd08      	ble.n	80002d6 <__adddf3+0x16a>
 80002c4:	f102 0c14 	add.w	ip, r2, #20
 80002c8:	f1c2 020c 	rsb	r2, r2, #12
 80002cc:	fa01 f00c 	lsl.w	r0, r1, ip
 80002d0:	fa21 f102 	lsr.w	r1, r1, r2
 80002d4:	e00c      	b.n	80002f0 <__adddf3+0x184>
 80002d6:	f102 0214 	add.w	r2, r2, #20
 80002da:	bfd8      	it	le
 80002dc:	f1c2 0c20 	rsble	ip, r2, #32
 80002e0:	fa01 f102 	lsl.w	r1, r1, r2
 80002e4:	fa20 fc0c 	lsr.w	ip, r0, ip
 80002e8:	bfdc      	itt	le
 80002ea:	ea41 010c 	orrle.w	r1, r1, ip
 80002ee:	4090      	lslle	r0, r2
 80002f0:	1ae4      	subs	r4, r4, r3
 80002f2:	bfa2      	ittt	ge
 80002f4:	eb01 5104 	addge.w	r1, r1, r4, lsl #20
 80002f8:	4329      	orrge	r1, r5
 80002fa:	bd30      	popge	{r4, r5, pc}
 80002fc:	ea6f 0404 	mvn.w	r4, r4
 8000300:	3c1f      	subs	r4, #31
 8000302:	da1c      	bge.n	800033e <__adddf3+0x1d2>
 8000304:	340c      	adds	r4, #12
 8000306:	dc0e      	bgt.n	8000326 <__adddf3+0x1ba>
 8000308:	f104 0414 	add.w	r4, r4, #20
 800030c:	f1c4 0220 	rsb	r2, r4, #32
 8000310:	fa20 f004 	lsr.w	r0, r0, r4
 8000314:	fa01 f302 	lsl.w	r3, r1, r2
 8000318:	ea40 0003 	orr.w	r0, r0, r3
 800031c:	fa21 f304 	lsr.w	r3, r1, r4
 8000320:	ea45 0103 	orr.w	r1, r5, r3
 8000324:	bd30      	pop	{r4, r5, pc}
 8000326:	f1c4 040c 	rsb	r4, r4, #12
 800032a:	f1c4 0220 	rsb	r2, r4, #32
 800032e:	fa20 f002 	lsr.w	r0, r0, r2
 8000332:	fa01 f304 	lsl.w	r3, r1, r4
 8000336:	ea40 0003 	orr.w	r0, r0, r3
 800033a:	4629      	mov	r1, r5
 800033c:	bd30      	pop	{r4, r5, pc}
 800033e:	fa21 f004 	lsr.w	r0, r1, r4
 8000342:	4629      	mov	r1, r5
 8000344:	bd30      	pop	{r4, r5, pc}
 8000346:	f094 0f00 	teq	r4, #0
 800034a:	f483 1380 	eor.w	r3, r3, #1048576	; 0x100000
 800034e:	bf06      	itte	eq
 8000350:	f481 1180 	eoreq.w	r1, r1, #1048576	; 0x100000
 8000354:	3401      	addeq	r4, #1
 8000356:	3d01      	subne	r5, #1
 8000358:	e74e      	b.n	80001f8 <__adddf3+0x8c>
 800035a:	ea7f 5c64 	mvns.w	ip, r4, asr #21
 800035e:	bf18      	it	ne
 8000360:	ea7f 5c65 	mvnsne.w	ip, r5, asr #21
 8000364:	d029      	beq.n	80003ba <__adddf3+0x24e>
 8000366:	ea94 0f05 	teq	r4, r5
 800036a:	bf08      	it	eq
 800036c:	ea90 0f02 	teqeq	r0, r2
 8000370:	d005      	beq.n	800037e <__adddf3+0x212>
 8000372:	ea54 0c00 	orrs.w	ip, r4, r0
 8000376:	bf04      	itt	eq
 8000378:	4619      	moveq	r1, r3
 800037a:	4610      	moveq	r0, r2
 800037c:	bd30      	pop	{r4, r5, pc}
 800037e:	ea91 0f03 	teq	r1, r3
 8000382:	bf1e      	ittt	ne
 8000384:	2100      	movne	r1, #0
 8000386:	2000      	movne	r0, #0
 8000388:	bd30      	popne	{r4, r5, pc}
 800038a:	ea5f 5c54 	movs.w	ip, r4, lsr #21
 800038e:	d105      	bne.n	800039c <__adddf3+0x230>
 8000390:	0040      	lsls	r0, r0, #1
 8000392:	4149      	adcs	r1, r1
 8000394:	bf28      	it	cs
 8000396:	f041 4100 	orrcs.w	r1, r1, #2147483648	; 0x80000000
 800039a:	bd30      	pop	{r4, r5, pc}
 800039c:	f514 0480 	adds.w	r4, r4, #4194304	; 0x400000
 80003a0:	bf3c      	itt	cc
 80003a2:	f501 1180 	addcc.w	r1, r1, #1048576	; 0x100000
 80003a6:	bd30      	popcc	{r4, r5, pc}
 80003a8:	f001 4500 	and.w	r5, r1, #2147483648	; 0x80000000
 80003ac:	f045 41fe 	orr.w	r1, r5, #2130706432	; 0x7f000000
 80003b0:	f441 0170 	orr.w	r1, r1, #15728640	; 0xf00000
 80003b4:	f04f 0000 	mov.w	r0, #0
 80003b8:	bd30      	pop	{r4, r5, pc}
 80003ba:	ea7f 5c64 	mvns.w	ip, r4, asr #21
 80003be:	bf1a      	itte	ne
 80003c0:	4619      	movne	r1, r3
 80003c2:	4610      	movne	r0, r2
 80003c4:	ea7f 5c65 	mvnseq.w	ip, r5, asr #21
 80003c8:	bf1c      	itt	ne
 80003ca:	460b      	movne	r3, r1
 80003cc:	4602      	movne	r2, r0
 80003ce:	ea50 3401 	orrs.w	r4, r0, r1, lsl #12
 80003d2:	bf06      	itte	eq
 80003d4:	ea52 3503 	orrseq.w	r5, r2, r3, lsl #12
 80003d8:	ea91 0f03 	teqeq	r1, r3
 80003dc:	f441 2100 	orrne.w	r1, r1, #524288	; 0x80000
 80003e0:	bd30      	pop	{r4, r5, pc}
 80003e2:	bf00      	nop

080003e4 <__aeabi_ui2d>:
 80003e4:	f090 0f00 	teq	r0, #0
 80003e8:	bf04      	itt	eq
 80003ea:	2100      	moveq	r1, #0
 80003ec:	4770      	bxeq	lr
 80003ee:	b530      	push	{r4, r5, lr}
 80003f0:	f44f 6480 	mov.w	r4, #1024	; 0x400
 80003f4:	f104 0432 	add.w	r4, r4, #50	; 0x32
 80003f8:	f04f 0500 	mov.w	r5, #0
 80003fc:	f04f 0100 	mov.w	r1, #0
 8000400:	e750      	b.n	80002a4 <__adddf3+0x138>
 8000402:	bf00      	nop

08000404 <__aeabi_i2d>:
 8000404:	f090 0f00 	teq	r0, #0
 8000408:	bf04      	itt	eq
 800040a:	2100      	moveq	r1, #0
 800040c:	4770      	bxeq	lr
 800040e:	b530      	push	{r4, r5, lr}
 8000410:	f44f 6480 	mov.w	r4, #1024	; 0x400
 8000414:	f104 0432 	add.w	r4, r4, #50	; 0x32
 8000418:	f010 4500 	ands.w	r5, r0, #2147483648	; 0x80000000
 800041c:	bf48      	it	mi
 800041e:	4240      	negmi	r0, r0
 8000420:	f04f 0100 	mov.w	r1, #0
 8000424:	e73e      	b.n	80002a4 <__adddf3+0x138>
 8000426:	bf00      	nop

08000428 <__aeabi_f2d>:
 8000428:	0042      	lsls	r2, r0, #1
 800042a:	ea4f 01e2 	mov.w	r1, r2, asr #3
 800042e:	ea4f 0131 	mov.w	r1, r1, rrx
 8000432:	ea4f 7002 	mov.w	r0, r2, lsl #28
 8000436:	bf1f      	itttt	ne
 8000438:	f012 437f 	andsne.w	r3, r2, #4278190080	; 0xff000000
 800043c:	f093 4f7f 	teqne	r3, #4278190080	; 0xff000000
 8000440:	f081 5160 	eorne.w	r1, r1, #939524096	; 0x38000000
 8000444:	4770      	bxne	lr
 8000446:	f032 427f 	bics.w	r2, r2, #4278190080	; 0xff000000
 800044a:	bf08      	it	eq
 800044c:	4770      	bxeq	lr
 800044e:	f093 4f7f 	teq	r3, #4278190080	; 0xff000000
 8000452:	bf04      	itt	eq
 8000454:	f441 2100 	orreq.w	r1, r1, #524288	; 0x80000
 8000458:	4770      	bxeq	lr
 800045a:	b530      	push	{r4, r5, lr}
 800045c:	f44f 7460 	mov.w	r4, #896	; 0x380
 8000460:	f001 4500 	and.w	r5, r1, #2147483648	; 0x80000000
 8000464:	f021 4100 	bic.w	r1, r1, #2147483648	; 0x80000000
 8000468:	e71c      	b.n	80002a4 <__adddf3+0x138>
 800046a:	bf00      	nop

0800046c <__aeabi_ul2d>:
 800046c:	ea50 0201 	orrs.w	r2, r0, r1
 8000470:	bf08      	it	eq
 8000472:	4770      	bxeq	lr
 8000474:	b530      	push	{r4, r5, lr}
 8000476:	f04f 0500 	mov.w	r5, #0
 800047a:	e00a      	b.n	8000492 <__aeabi_l2d+0x16>

0800047c <__aeabi_l2d>:
 800047c:	ea50 0201 	orrs.w	r2, r0, r1
 8000480:	bf08      	it	eq
 8000482:	4770      	bxeq	lr
 8000484:	b530      	push	{r4, r5, lr}
 8000486:	f011 4500 	ands.w	r5, r1, #2147483648	; 0x80000000
 800048a:	d502      	bpl.n	8000492 <__aeabi_l2d+0x16>
 800048c:	4240      	negs	r0, r0
 800048e:	eb61 0141 	sbc.w	r1, r1, r1, lsl #1
 8000492:	f44f 6480 	mov.w	r4, #1024	; 0x400
 8000496:	f104 0432 	add.w	r4, r4, #50	; 0x32
 800049a:	ea5f 5c91 	movs.w	ip, r1, lsr #22
 800049e:	f43f aed8 	beq.w	8000252 <__adddf3+0xe6>
 80004a2:	f04f 0203 	mov.w	r2, #3
 80004a6:	ea5f 0cdc 	movs.w	ip, ip, lsr #3
 80004aa:	bf18      	it	ne
 80004ac:	3203      	addne	r2, #3
 80004ae:	ea5f 0cdc 	movs.w	ip, ip, lsr #3
 80004b2:	bf18      	it	ne
 80004b4:	3203      	addne	r2, #3
 80004b6:	eb02 02dc 	add.w	r2, r2, ip, lsr #3
 80004ba:	f1c2 0320 	rsb	r3, r2, #32
 80004be:	fa00 fc03 	lsl.w	ip, r0, r3
 80004c2:	fa20 f002 	lsr.w	r0, r0, r2
 80004c6:	fa01 fe03 	lsl.w	lr, r1, r3
 80004ca:	ea40 000e 	orr.w	r0, r0, lr
 80004ce:	fa21 f102 	lsr.w	r1, r1, r2
 80004d2:	4414      	add	r4, r2
 80004d4:	e6bd      	b.n	8000252 <__adddf3+0xe6>
 80004d6:	bf00      	nop

080004d8 <__aeabi_dmul>:
 80004d8:	b570      	push	{r4, r5, r6, lr}
 80004da:	f04f 0cff 	mov.w	ip, #255	; 0xff
 80004de:	f44c 6ce0 	orr.w	ip, ip, #1792	; 0x700
 80004e2:	ea1c 5411 	ands.w	r4, ip, r1, lsr #20
 80004e6:	bf1d      	ittte	ne
 80004e8:	ea1c 5513 	andsne.w	r5, ip, r3, lsr #20
 80004ec:	ea94 0f0c 	teqne	r4, ip
 80004f0:	ea95 0f0c 	teqne	r5, ip
 80004f4:	f000 f8de 	bleq	80006b4 <__aeabi_dmul+0x1dc>
 80004f8:	442c      	add	r4, r5
 80004fa:	ea81 0603 	eor.w	r6, r1, r3
 80004fe:	ea21 514c 	bic.w	r1, r1, ip, lsl #21
 8000502:	ea23 534c 	bic.w	r3, r3, ip, lsl #21
 8000506:	ea50 3501 	orrs.w	r5, r0, r1, lsl #12
 800050a:	bf18      	it	ne
 800050c:	ea52 3503 	orrsne.w	r5, r2, r3, lsl #12
 8000510:	f441 1180 	orr.w	r1, r1, #1048576	; 0x100000
 8000514:	f443 1380 	orr.w	r3, r3, #1048576	; 0x100000
 8000518:	d038      	beq.n	800058c <__aeabi_dmul+0xb4>
 800051a:	fba0 ce02 	umull	ip, lr, r0, r2
 800051e:	f04f 0500 	mov.w	r5, #0
 8000522:	fbe1 e502 	umlal	lr, r5, r1, r2
 8000526:	f006 4200 	and.w	r2, r6, #2147483648	; 0x80000000
 800052a:	fbe0 e503 	umlal	lr, r5, r0, r3
 800052e:	f04f 0600 	mov.w	r6, #0
 8000532:	fbe1 5603 	umlal	r5, r6, r1, r3
 8000536:	f09c 0f00 	teq	ip, #0
 800053a:	bf18      	it	ne
 800053c:	f04e 0e01 	orrne.w	lr, lr, #1
 8000540:	f1a4 04ff 	sub.w	r4, r4, #255	; 0xff
 8000544:	f5b6 7f00 	cmp.w	r6, #512	; 0x200
 8000548:	f564 7440 	sbc.w	r4, r4, #768	; 0x300
 800054c:	d204      	bcs.n	8000558 <__aeabi_dmul+0x80>
 800054e:	ea5f 0e4e 	movs.w	lr, lr, lsl #1
 8000552:	416d      	adcs	r5, r5
 8000554:	eb46 0606 	adc.w	r6, r6, r6
 8000558:	ea42 21c6 	orr.w	r1, r2, r6, lsl #11
 800055c:	ea41 5155 	orr.w	r1, r1, r5, lsr #21
 8000560:	ea4f 20c5 	mov.w	r0, r5, lsl #11
 8000564:	ea40 505e 	orr.w	r0, r0, lr, lsr #21
 8000568:	ea4f 2ece 	mov.w	lr, lr, lsl #11
 800056c:	f1b4 0cfd 	subs.w	ip, r4, #253	; 0xfd
 8000570:	bf88      	it	hi
 8000572:	f5bc 6fe0 	cmphi.w	ip, #1792	; 0x700
 8000576:	d81e      	bhi.n	80005b6 <__aeabi_dmul+0xde>
 8000578:	f1be 4f00 	cmp.w	lr, #2147483648	; 0x80000000
 800057c:	bf08      	it	eq
 800057e:	ea5f 0e50 	movseq.w	lr, r0, lsr #1
 8000582:	f150 0000 	adcs.w	r0, r0, #0
 8000586:	eb41 5104 	adc.w	r1, r1, r4, lsl #20
 800058a:	bd70      	pop	{r4, r5, r6, pc}
 800058c:	f006 4600 	and.w	r6, r6, #2147483648	; 0x80000000
 8000590:	ea46 0101 	orr.w	r1, r6, r1
 8000594:	ea40 0002 	orr.w	r0, r0, r2
 8000598:	ea81 0103 	eor.w	r1, r1, r3
 800059c:	ebb4 045c 	subs.w	r4, r4, ip, lsr #1
 80005a0:	bfc2      	ittt	gt
 80005a2:	ebd4 050c 	rsbsgt	r5, r4, ip
 80005a6:	ea41 5104 	orrgt.w	r1, r1, r4, lsl #20
 80005aa:	bd70      	popgt	{r4, r5, r6, pc}
 80005ac:	f441 1180 	orr.w	r1, r1, #1048576	; 0x100000
 80005b0:	f04f 0e00 	mov.w	lr, #0
 80005b4:	3c01      	subs	r4, #1
 80005b6:	f300 80ab 	bgt.w	8000710 <__aeabi_dmul+0x238>
 80005ba:	f114 0f36 	cmn.w	r4, #54	; 0x36
 80005be:	bfde      	ittt	le
 80005c0:	2000      	movle	r0, #0
 80005c2:	f001 4100 	andle.w	r1, r1, #2147483648	; 0x80000000
 80005c6:	bd70      	pople	{r4, r5, r6, pc}
 80005c8:	f1c4 0400 	rsb	r4, r4, #0
 80005cc:	3c20      	subs	r4, #32
 80005ce:	da35      	bge.n	800063c <__aeabi_dmul+0x164>
 80005d0:	340c      	adds	r4, #12
 80005d2:	dc1b      	bgt.n	800060c <__aeabi_dmul+0x134>
 80005d4:	f104 0414 	add.w	r4, r4, #20
 80005d8:	f1c4 0520 	rsb	r5, r4, #32
 80005dc:	fa00 f305 	lsl.w	r3, r0, r5
 80005e0:	fa20 f004 	lsr.w	r0, r0, r4
 80005e4:	fa01 f205 	lsl.w	r2, r1, r5
 80005e8:	ea40 0002 	orr.w	r0, r0, r2
 80005ec:	f001 4200 	and.w	r2, r1, #2147483648	; 0x80000000
 80005f0:	f021 4100 	bic.w	r1, r1, #2147483648	; 0x80000000
 80005f4:	eb10 70d3 	adds.w	r0, r0, r3, lsr #31
 80005f8:	fa21 f604 	lsr.w	r6, r1, r4
 80005fc:	eb42 0106 	adc.w	r1, r2, r6
 8000600:	ea5e 0e43 	orrs.w	lr, lr, r3, lsl #1
 8000604:	bf08      	it	eq
 8000606:	ea20 70d3 	biceq.w	r0, r0, r3, lsr #31
 800060a:	bd70      	pop	{r4, r5, r6, pc}
 800060c:	f1c4 040c 	rsb	r4, r4, #12
 8000610:	f1c4 0520 	rsb	r5, r4, #32
 8000614:	fa00 f304 	lsl.w	r3, r0, r4
 8000618:	fa20 f005 	lsr.w	r0, r0, r5
 800061c:	fa01 f204 	lsl.w	r2, r1, r4
 8000620:	ea40 0002 	orr.w	r0, r0, r2
 8000624:	f001 4100 	and.w	r1, r1, #2147483648	; 0x80000000
 8000628:	eb10 70d3 	adds.w	r0, r0, r3, lsr #31
 800062c:	f141 0100 	adc.w	r1, r1, #0
 8000630:	ea5e 0e43 	orrs.w	lr, lr, r3, lsl #1
 8000634:	bf08      	it	eq
 8000636:	ea20 70d3 	biceq.w	r0, r0, r3, lsr #31
 800063a:	bd70      	pop	{r4, r5, r6, pc}
 800063c:	f1c4 0520 	rsb	r5, r4, #32
 8000640:	fa00 f205 	lsl.w	r2, r0, r5
 8000644:	ea4e 0e02 	orr.w	lr, lr, r2
 8000648:	fa20 f304 	lsr.w	r3, r0, r4
 800064c:	fa01 f205 	lsl.w	r2, r1, r5
 8000650:	ea43 0302 	orr.w	r3, r3, r2
 8000654:	fa21 f004 	lsr.w	r0, r1, r4
 8000658:	f001 4100 	and.w	r1, r1, #2147483648	; 0x80000000
 800065c:	fa21 f204 	lsr.w	r2, r1, r4
 8000660:	ea20 0002 	bic.w	r0, r0, r2
 8000664:	eb00 70d3 	add.w	r0, r0, r3, lsr #31
 8000668:	ea5e 0e43 	orrs.w	lr, lr, r3, lsl #1
 800066c:	bf08      	it	eq
 800066e:	ea20 70d3 	biceq.w	r0, r0, r3, lsr #31
 8000672:	bd70      	pop	{r4, r5, r6, pc}
 8000674:	f094 0f00 	teq	r4, #0
 8000678:	d10f      	bne.n	800069a <__aeabi_dmul+0x1c2>
 800067a:	f001 4600 	and.w	r6, r1, #2147483648	; 0x80000000
 800067e:	0040      	lsls	r0, r0, #1
 8000680:	eb41 0101 	adc.w	r1, r1, r1
 8000684:	f411 1f80 	tst.w	r1, #1048576	; 0x100000
 8000688:	bf08      	it	eq
 800068a:	3c01      	subeq	r4, #1
 800068c:	d0f7      	beq.n	800067e <__aeabi_dmul+0x1a6>
 800068e:	ea41 0106 	orr.w	r1, r1, r6
 8000692:	f095 0f00 	teq	r5, #0
 8000696:	bf18      	it	ne
 8000698:	4770      	bxne	lr
 800069a:	f003 4600 	and.w	r6, r3, #2147483648	; 0x80000000
 800069e:	0052      	lsls	r2, r2, #1
 80006a0:	eb43 0303 	adc.w	r3, r3, r3
 80006a4:	f413 1f80 	tst.w	r3, #1048576	; 0x100000
 80006a8:	bf08      	it	eq
 80006aa:	3d01      	subeq	r5, #1
 80006ac:	d0f7      	beq.n	800069e <__aeabi_dmul+0x1c6>
 80006ae:	ea43 0306 	orr.w	r3, r3, r6
 80006b2:	4770      	bx	lr
 80006b4:	ea94 0f0c 	teq	r4, ip
 80006b8:	ea0c 5513 	and.w	r5, ip, r3, lsr #20
 80006bc:	bf18      	it	ne
 80006be:	ea95 0f0c 	teqne	r5, ip
 80006c2:	d00c      	beq.n	80006de <__aeabi_dmul+0x206>
 80006c4:	ea50 0641 	orrs.w	r6, r0, r1, lsl #1
 80006c8:	bf18      	it	ne
 80006ca:	ea52 0643 	orrsne.w	r6, r2, r3, lsl #1
 80006ce:	d1d1      	bne.n	8000674 <__aeabi_dmul+0x19c>
 80006d0:	ea81 0103 	eor.w	r1, r1, r3
 80006d4:	f001 4100 	and.w	r1, r1, #2147483648	; 0x80000000
 80006d8:	f04f 0000 	mov.w	r0, #0
 80006dc:	bd70      	pop	{r4, r5, r6, pc}
 80006de:	ea50 0641 	orrs.w	r6, r0, r1, lsl #1
 80006e2:	bf06      	itte	eq
 80006e4:	4610      	moveq	r0, r2
 80006e6:	4619      	moveq	r1, r3
 80006e8:	ea52 0643 	orrsne.w	r6, r2, r3, lsl #1
 80006ec:	d019      	beq.n	8000722 <__aeabi_dmul+0x24a>
 80006ee:	ea94 0f0c 	teq	r4, ip
 80006f2:	d102      	bne.n	80006fa <__aeabi_dmul+0x222>
 80006f4:	ea50 3601 	orrs.w	r6, r0, r1, lsl #12
 80006f8:	d113      	bne.n	8000722 <__aeabi_dmul+0x24a>
 80006fa:	ea95 0f0c 	teq	r5, ip
 80006fe:	d105      	bne.n	800070c <__aeabi_dmul+0x234>
 8000700:	ea52 3603 	orrs.w	r6, r2, r3, lsl #12
 8000704:	bf1c      	itt	ne
 8000706:	4610      	movne	r0, r2
 8000708:	4619      	movne	r1, r3
 800070a:	d10a      	bne.n	8000722 <__aeabi_dmul+0x24a>
 800070c:	ea81 0103 	eor.w	r1, r1, r3
 8000710:	f001 4100 	and.w	r1, r1, #2147483648	; 0x80000000
 8000714:	f041 41fe 	orr.w	r1, r1, #2130706432	; 0x7f000000
 8000718:	f441 0170 	orr.w	r1, r1, #15728640	; 0xf00000
 800071c:	f04f 0000 	mov.w	r0, #0
 8000720:	bd70      	pop	{r4, r5, r6, pc}
 8000722:	f041 41fe 	orr.w	r1, r1, #2130706432	; 0x7f000000
 8000726:	f441 0178 	orr.w	r1, r1, #16252928	; 0xf80000
 800072a:	bd70      	pop	{r4, r5, r6, pc}

0800072c <__aeabi_ddiv>:
 800072c:	b570      	push	{r4, r5, r6, lr}
 800072e:	f04f 0cff 	mov.w	ip, #255	; 0xff
 8000732:	f44c 6ce0 	orr.w	ip, ip, #1792	; 0x700
 8000736:	ea1c 5411 	ands.w	r4, ip, r1, lsr #20
 800073a:	bf1d      	ittte	ne
 800073c:	ea1c 5513 	andsne.w	r5, ip, r3, lsr #20
 8000740:	ea94 0f0c 	teqne	r4, ip
 8000744:	ea95 0f0c 	teqne	r5, ip
 8000748:	f000 f8a7 	bleq	800089a <__aeabi_ddiv+0x16e>
 800074c:	eba4 0405 	sub.w	r4, r4, r5
 8000750:	ea81 0e03 	eor.w	lr, r1, r3
 8000754:	ea52 3503 	orrs.w	r5, r2, r3, lsl #12
 8000758:	ea4f 3101 	mov.w	r1, r1, lsl #12
 800075c:	f000 8088 	beq.w	8000870 <__aeabi_ddiv+0x144>
 8000760:	ea4f 3303 	mov.w	r3, r3, lsl #12
 8000764:	f04f 5580 	mov.w	r5, #268435456	; 0x10000000
 8000768:	ea45 1313 	orr.w	r3, r5, r3, lsr #4
 800076c:	ea43 6312 	orr.w	r3, r3, r2, lsr #24
 8000770:	ea4f 2202 	mov.w	r2, r2, lsl #8
 8000774:	ea45 1511 	orr.w	r5, r5, r1, lsr #4
 8000778:	ea45 6510 	orr.w	r5, r5, r0, lsr #24
 800077c:	ea4f 2600 	mov.w	r6, r0, lsl #8
 8000780:	f00e 4100 	and.w	r1, lr, #2147483648	; 0x80000000
 8000784:	429d      	cmp	r5, r3
 8000786:	bf08      	it	eq
 8000788:	4296      	cmpeq	r6, r2
 800078a:	f144 04fd 	adc.w	r4, r4, #253	; 0xfd
 800078e:	f504 7440 	add.w	r4, r4, #768	; 0x300
 8000792:	d202      	bcs.n	800079a <__aeabi_ddiv+0x6e>
 8000794:	085b      	lsrs	r3, r3, #1
 8000796:	ea4f 0232 	mov.w	r2, r2, rrx
 800079a:	1ab6      	subs	r6, r6, r2
 800079c:	eb65 0503 	sbc.w	r5, r5, r3
 80007a0:	085b      	lsrs	r3, r3, #1
 80007a2:	ea4f 0232 	mov.w	r2, r2, rrx
 80007a6:	f44f 1080 	mov.w	r0, #1048576	; 0x100000
 80007aa:	f44f 2c00 	mov.w	ip, #524288	; 0x80000
 80007ae:	ebb6 0e02 	subs.w	lr, r6, r2
 80007b2:	eb75 0e03 	sbcs.w	lr, r5, r3
 80007b6:	bf22      	ittt	cs
 80007b8:	1ab6      	subcs	r6, r6, r2
 80007ba:	4675      	movcs	r5, lr
 80007bc:	ea40 000c 	orrcs.w	r0, r0, ip
 80007c0:	085b      	lsrs	r3, r3, #1
 80007c2:	ea4f 0232 	mov.w	r2, r2, rrx
 80007c6:	ebb6 0e02 	subs.w	lr, r6, r2
 80007ca:	eb75 0e03 	sbcs.w	lr, r5, r3
 80007ce:	bf22      	ittt	cs
 80007d0:	1ab6      	subcs	r6, r6, r2
 80007d2:	4675      	movcs	r5, lr
 80007d4:	ea40 005c 	orrcs.w	r0, r0, ip, lsr #1
 80007d8:	085b      	lsrs	r3, r3, #1
 80007da:	ea4f 0232 	mov.w	r2, r2, rrx
 80007de:	ebb6 0e02 	subs.w	lr, r6, r2
 80007e2:	eb75 0e03 	sbcs.w	lr, r5, r3
 80007e6:	bf22      	ittt	cs
 80007e8:	1ab6      	subcs	r6, r6, r2
 80007ea:	4675      	movcs	r5, lr
 80007ec:	ea40 009c 	orrcs.w	r0, r0, ip, lsr #2
 80007f0:	085b      	lsrs	r3, r3, #1
 80007f2:	ea4f 0232 	mov.w	r2, r2, rrx
 80007f6:	ebb6 0e02 	subs.w	lr, r6, r2
 80007fa:	eb75 0e03 	sbcs.w	lr, r5, r3
 80007fe:	bf22      	ittt	cs
 8000800:	1ab6      	subcs	r6, r6, r2
 8000802:	4675      	movcs	r5, lr
 8000804:	ea40 00dc 	orrcs.w	r0, r0, ip, lsr #3
 8000808:	ea55 0e06 	orrs.w	lr, r5, r6
 800080c:	d018      	beq.n	8000840 <__aeabi_ddiv+0x114>
 800080e:	ea4f 1505 	mov.w	r5, r5, lsl #4
 8000812:	ea45 7516 	orr.w	r5, r5, r6, lsr #28
 8000816:	ea4f 1606 	mov.w	r6, r6, lsl #4
 800081a:	ea4f 03c3 	mov.w	r3, r3, lsl #3
 800081e:	ea43 7352 	orr.w	r3, r3, r2, lsr #29
 8000822:	ea4f 02c2 	mov.w	r2, r2, lsl #3
 8000826:	ea5f 1c1c 	movs.w	ip, ip, lsr #4
 800082a:	d1c0      	bne.n	80007ae <__aeabi_ddiv+0x82>
 800082c:	f411 1f80 	tst.w	r1, #1048576	; 0x100000
 8000830:	d10b      	bne.n	800084a <__aeabi_ddiv+0x11e>
 8000832:	ea41 0100 	orr.w	r1, r1, r0
 8000836:	f04f 0000 	mov.w	r0, #0
 800083a:	f04f 4c00 	mov.w	ip, #2147483648	; 0x80000000
 800083e:	e7b6      	b.n	80007ae <__aeabi_ddiv+0x82>
 8000840:	f411 1f80 	tst.w	r1, #1048576	; 0x100000
 8000844:	bf04      	itt	eq
 8000846:	4301      	orreq	r1, r0
 8000848:	2000      	moveq	r0, #0
 800084a:	f1b4 0cfd 	subs.w	ip, r4, #253	; 0xfd
 800084e:	bf88      	it	hi
 8000850:	f5bc 6fe0 	cmphi.w	ip, #1792	; 0x700
 8000854:	f63f aeaf 	bhi.w	80005b6 <__aeabi_dmul+0xde>
 8000858:	ebb5 0c03 	subs.w	ip, r5, r3
 800085c:	bf04      	itt	eq
 800085e:	ebb6 0c02 	subseq.w	ip, r6, r2
 8000862:	ea5f 0c50 	movseq.w	ip, r0, lsr #1
 8000866:	f150 0000 	adcs.w	r0, r0, #0
 800086a:	eb41 5104 	adc.w	r1, r1, r4, lsl #20
 800086e:	bd70      	pop	{r4, r5, r6, pc}
 8000870:	f00e 4e00 	and.w	lr, lr, #2147483648	; 0x80000000
 8000874:	ea4e 3111 	orr.w	r1, lr, r1, lsr #12
 8000878:	eb14 045c 	adds.w	r4, r4, ip, lsr #1
 800087c:	bfc2      	ittt	gt
 800087e:	ebd4 050c 	rsbsgt	r5, r4, ip
 8000882:	ea41 5104 	orrgt.w	r1, r1, r4, lsl #20
 8000886:	bd70      	popgt	{r4, r5, r6, pc}
 8000888:	f441 1180 	orr.w	r1, r1, #1048576	; 0x100000
 800088c:	f04f 0e00 	mov.w	lr, #0
 8000890:	3c01      	subs	r4, #1
 8000892:	e690      	b.n	80005b6 <__aeabi_dmul+0xde>
 8000894:	ea45 0e06 	orr.w	lr, r5, r6
 8000898:	e68d      	b.n	80005b6 <__aeabi_dmul+0xde>
 800089a:	ea0c 5513 	and.w	r5, ip, r3, lsr #20
 800089e:	ea94 0f0c 	teq	r4, ip
 80008a2:	bf08      	it	eq
 80008a4:	ea95 0f0c 	teqeq	r5, ip
 80008a8:	f43f af3b 	beq.w	8000722 <__aeabi_dmul+0x24a>
 80008ac:	ea94 0f0c 	teq	r4, ip
 80008b0:	d10a      	bne.n	80008c8 <__aeabi_ddiv+0x19c>
 80008b2:	ea50 3401 	orrs.w	r4, r0, r1, lsl #12
 80008b6:	f47f af34 	bne.w	8000722 <__aeabi_dmul+0x24a>
 80008ba:	ea95 0f0c 	teq	r5, ip
 80008be:	f47f af25 	bne.w	800070c <__aeabi_dmul+0x234>
 80008c2:	4610      	mov	r0, r2
 80008c4:	4619      	mov	r1, r3
 80008c6:	e72c      	b.n	8000722 <__aeabi_dmul+0x24a>
 80008c8:	ea95 0f0c 	teq	r5, ip
 80008cc:	d106      	bne.n	80008dc <__aeabi_ddiv+0x1b0>
 80008ce:	ea52 3503 	orrs.w	r5, r2, r3, lsl #12
 80008d2:	f43f aefd 	beq.w	80006d0 <__aeabi_dmul+0x1f8>
 80008d6:	4610      	mov	r0, r2
 80008d8:	4619      	mov	r1, r3
 80008da:	e722      	b.n	8000722 <__aeabi_dmul+0x24a>
 80008dc:	ea50 0641 	orrs.w	r6, r0, r1, lsl #1
 80008e0:	bf18      	it	ne
 80008e2:	ea52 0643 	orrsne.w	r6, r2, r3, lsl #1
 80008e6:	f47f aec5 	bne.w	8000674 <__aeabi_dmul+0x19c>
 80008ea:	ea50 0441 	orrs.w	r4, r0, r1, lsl #1
 80008ee:	f47f af0d 	bne.w	800070c <__aeabi_dmul+0x234>
 80008f2:	ea52 0543 	orrs.w	r5, r2, r3, lsl #1
 80008f6:	f47f aeeb 	bne.w	80006d0 <__aeabi_dmul+0x1f8>
 80008fa:	e712      	b.n	8000722 <__aeabi_dmul+0x24a>

080008fc <__gedf2>:
 80008fc:	f04f 3cff 	mov.w	ip, #4294967295
 8000900:	e006      	b.n	8000910 <__cmpdf2+0x4>
 8000902:	bf00      	nop

08000904 <__ledf2>:
 8000904:	f04f 0c01 	mov.w	ip, #1
 8000908:	e002      	b.n	8000910 <__cmpdf2+0x4>
 800090a:	bf00      	nop

0800090c <__cmpdf2>:
 800090c:	f04f 0c01 	mov.w	ip, #1
 8000910:	f84d cd04 	str.w	ip, [sp, #-4]!
 8000914:	ea4f 0c41 	mov.w	ip, r1, lsl #1
 8000918:	ea7f 5c6c 	mvns.w	ip, ip, asr #21
 800091c:	ea4f 0c43 	mov.w	ip, r3, lsl #1
 8000920:	bf18      	it	ne
 8000922:	ea7f 5c6c 	mvnsne.w	ip, ip, asr #21
 8000926:	d01b      	beq.n	8000960 <__cmpdf2+0x54>
 8000928:	b001      	add	sp, #4
 800092a:	ea50 0c41 	orrs.w	ip, r0, r1, lsl #1
 800092e:	bf0c      	ite	eq
 8000930:	ea52 0c43 	orrseq.w	ip, r2, r3, lsl #1
 8000934:	ea91 0f03 	teqne	r1, r3
 8000938:	bf02      	ittt	eq
 800093a:	ea90 0f02 	teqeq	r0, r2
 800093e:	2000      	moveq	r0, #0
 8000940:	4770      	bxeq	lr
 8000942:	f110 0f00 	cmn.w	r0, #0
 8000946:	ea91 0f03 	teq	r1, r3
 800094a:	bf58      	it	pl
 800094c:	4299      	cmppl	r1, r3
 800094e:	bf08      	it	eq
 8000950:	4290      	cmpeq	r0, r2
 8000952:	bf2c      	ite	cs
 8000954:	17d8      	asrcs	r0, r3, #31
 8000956:	ea6f 70e3 	mvncc.w	r0, r3, asr #31
 800095a:	f040 0001 	orr.w	r0, r0, #1
 800095e:	4770      	bx	lr
 8000960:	ea4f 0c41 	mov.w	ip, r1, lsl #1
 8000964:	ea7f 5c6c 	mvns.w	ip, ip, asr #21
 8000968:	d102      	bne.n	8000970 <__cmpdf2+0x64>
 800096a:	ea50 3c01 	orrs.w	ip, r0, r1, lsl #12
 800096e:	d107      	bne.n	8000980 <__cmpdf2+0x74>
 8000970:	ea4f 0c43 	mov.w	ip, r3, lsl #1
 8000974:	ea7f 5c6c 	mvns.w	ip, ip, asr #21
 8000978:	d1d6      	bne.n	8000928 <__cmpdf2+0x1c>
 800097a:	ea52 3c03 	orrs.w	ip, r2, r3, lsl #12
 800097e:	d0d3      	beq.n	8000928 <__cmpdf2+0x1c>
 8000980:	f85d 0b04 	ldr.w	r0, [sp], #4
 8000984:	4770      	bx	lr
 8000986:	bf00      	nop

08000988 <__aeabi_cdrcmple>:
 8000988:	4684      	mov	ip, r0
 800098a:	4610      	mov	r0, r2
 800098c:	4662      	mov	r2, ip
 800098e:	468c      	mov	ip, r1
 8000990:	4619      	mov	r1, r3
 8000992:	4663      	mov	r3, ip
 8000994:	e000      	b.n	8000998 <__aeabi_cdcmpeq>
 8000996:	bf00      	nop

08000998 <__aeabi_cdcmpeq>:
 8000998:	b501      	push	{r0, lr}
 800099a:	f7ff ffb7 	bl	800090c <__cmpdf2>
 800099e:	2800      	cmp	r0, #0
 80009a0:	bf48      	it	mi
 80009a2:	f110 0f00 	cmnmi.w	r0, #0
 80009a6:	bd01      	pop	{r0, pc}

080009a8 <__aeabi_dcmpeq>:
 80009a8:	f84d ed08 	str.w	lr, [sp, #-8]!
 80009ac:	f7ff fff4 	bl	8000998 <__aeabi_cdcmpeq>
 80009b0:	bf0c      	ite	eq
 80009b2:	2001      	moveq	r0, #1
 80009b4:	2000      	movne	r0, #0
 80009b6:	f85d fb08 	ldr.w	pc, [sp], #8
 80009ba:	bf00      	nop

080009bc <__aeabi_dcmplt>:
 80009bc:	f84d ed08 	str.w	lr, [sp, #-8]!
 80009c0:	f7ff ffea 	bl	8000998 <__aeabi_cdcmpeq>
 80009c4:	bf34      	ite	cc
 80009c6:	2001      	movcc	r0, #1
 80009c8:	2000      	movcs	r0, #0
 80009ca:	f85d fb08 	ldr.w	pc, [sp], #8
 80009ce:	bf00      	nop

080009d0 <__aeabi_dcmple>:
 80009d0:	f84d ed08 	str.w	lr, [sp, #-8]!
 80009d4:	f7ff ffe0 	bl	8000998 <__aeabi_cdcmpeq>
 80009d8:	bf94      	ite	ls
 80009da:	2001      	movls	r0, #1
 80009dc:	2000      	movhi	r0, #0
 80009de:	f85d fb08 	ldr.w	pc, [sp], #8
 80009e2:	bf00      	nop

080009e4 <__aeabi_dcmpge>:
 80009e4:	f84d ed08 	str.w	lr, [sp, #-8]!
 80009e8:	f7ff ffce 	bl	8000988 <__aeabi_cdrcmple>
 80009ec:	bf94      	ite	ls
 80009ee:	2001      	movls	r0, #1
 80009f0:	2000      	movhi	r0, #0
 80009f2:	f85d fb08 	ldr.w	pc, [sp], #8
 80009f6:	bf00      	nop

080009f8 <__aeabi_dcmpgt>:
 80009f8:	f84d ed08 	str.w	lr, [sp, #-8]!
 80009fc:	f7ff ffc4 	bl	8000988 <__aeabi_cdrcmple>
 8000a00:	bf34      	ite	cc
 8000a02:	2001      	movcc	r0, #1
 8000a04:	2000      	movcs	r0, #0
 8000a06:	f85d fb08 	ldr.w	pc, [sp], #8
 8000a0a:	bf00      	nop

08000a0c <__aeabi_dcmpun>:
 8000a0c:	ea4f 0c41 	mov.w	ip, r1, lsl #1
 8000a10:	ea7f 5c6c 	mvns.w	ip, ip, asr #21
 8000a14:	d102      	bne.n	8000a1c <__aeabi_dcmpun+0x10>
 8000a16:	ea50 3c01 	orrs.w	ip, r0, r1, lsl #12
 8000a1a:	d10a      	bne.n	8000a32 <__aeabi_dcmpun+0x26>
 8000a1c:	ea4f 0c43 	mov.w	ip, r3, lsl #1
 8000a20:	ea7f 5c6c 	mvns.w	ip, ip, asr #21
 8000a24:	d102      	bne.n	8000a2c <__aeabi_dcmpun+0x20>
 8000a26:	ea52 3c03 	orrs.w	ip, r2, r3, lsl #12
 8000a2a:	d102      	bne.n	8000a32 <__aeabi_dcmpun+0x26>
 8000a2c:	f04f 0000 	mov.w	r0, #0
 8000a30:	4770      	bx	lr
 8000a32:	f04f 0001 	mov.w	r0, #1
 8000a36:	4770      	bx	lr

08000a38 <__aeabi_d2iz>:
 8000a38:	ea4f 0241 	mov.w	r2, r1, lsl #1
 8000a3c:	f512 1200 	adds.w	r2, r2, #2097152	; 0x200000
 8000a40:	d215      	bcs.n	8000a6e <__aeabi_d2iz+0x36>
 8000a42:	d511      	bpl.n	8000a68 <__aeabi_d2iz+0x30>
 8000a44:	f46f 7378 	mvn.w	r3, #992	; 0x3e0
 8000a48:	ebb3 5262 	subs.w	r2, r3, r2, asr #21
 8000a4c:	d912      	bls.n	8000a74 <__aeabi_d2iz+0x3c>
 8000a4e:	ea4f 23c1 	mov.w	r3, r1, lsl #11
 8000a52:	f043 4300 	orr.w	r3, r3, #2147483648	; 0x80000000
 8000a56:	ea43 5350 	orr.w	r3, r3, r0, lsr #21
 8000a5a:	f011 4f00 	tst.w	r1, #2147483648	; 0x80000000
 8000a5e:	fa23 f002 	lsr.w	r0, r3, r2
 8000a62:	bf18      	it	ne
 8000a64:	4240      	negne	r0, r0
 8000a66:	4770      	bx	lr
 8000a68:	f04f 0000 	mov.w	r0, #0
 8000a6c:	4770      	bx	lr
 8000a6e:	ea50 3001 	orrs.w	r0, r0, r1, lsl #12
 8000a72:	d105      	bne.n	8000a80 <__aeabi_d2iz+0x48>
 8000a74:	f011 4000 	ands.w	r0, r1, #2147483648	; 0x80000000
 8000a78:	bf08      	it	eq
 8000a7a:	f06f 4000 	mvneq.w	r0, #2147483648	; 0x80000000
 8000a7e:	4770      	bx	lr
 8000a80:	f04f 0000 	mov.w	r0, #0
 8000a84:	4770      	bx	lr
 8000a86:	bf00      	nop

08000a88 <__aeabi_d2f>:
 8000a88:	ea4f 0241 	mov.w	r2, r1, lsl #1
 8000a8c:	f1b2 43e0 	subs.w	r3, r2, #1879048192	; 0x70000000
 8000a90:	bf24      	itt	cs
 8000a92:	f5b3 1c00 	subscs.w	ip, r3, #2097152	; 0x200000
 8000a96:	f1dc 5cfe 	rsbscs	ip, ip, #532676608	; 0x1fc00000
 8000a9a:	d90d      	bls.n	8000ab8 <__aeabi_d2f+0x30>
 8000a9c:	f001 4c00 	and.w	ip, r1, #2147483648	; 0x80000000
 8000aa0:	ea4f 02c0 	mov.w	r2, r0, lsl #3
 8000aa4:	ea4c 7050 	orr.w	r0, ip, r0, lsr #29
 8000aa8:	f1b2 4f00 	cmp.w	r2, #2147483648	; 0x80000000
 8000aac:	eb40 0083 	adc.w	r0, r0, r3, lsl #2
 8000ab0:	bf08      	it	eq
 8000ab2:	f020 0001 	biceq.w	r0, r0, #1
 8000ab6:	4770      	bx	lr
 8000ab8:	f011 4f80 	tst.w	r1, #1073741824	; 0x40000000
 8000abc:	d121      	bne.n	8000b02 <__aeabi_d2f+0x7a>
 8000abe:	f113 7238 	adds.w	r2, r3, #48234496	; 0x2e00000
 8000ac2:	bfbc      	itt	lt
 8000ac4:	f001 4000 	andlt.w	r0, r1, #2147483648	; 0x80000000
 8000ac8:	4770      	bxlt	lr
 8000aca:	f441 1180 	orr.w	r1, r1, #1048576	; 0x100000
 8000ace:	ea4f 5252 	mov.w	r2, r2, lsr #21
 8000ad2:	f1c2 0218 	rsb	r2, r2, #24
 8000ad6:	f1c2 0c20 	rsb	ip, r2, #32
 8000ada:	fa10 f30c 	lsls.w	r3, r0, ip
 8000ade:	fa20 f002 	lsr.w	r0, r0, r2
 8000ae2:	bf18      	it	ne
 8000ae4:	f040 0001 	orrne.w	r0, r0, #1
 8000ae8:	ea4f 23c1 	mov.w	r3, r1, lsl #11
 8000aec:	ea4f 23d3 	mov.w	r3, r3, lsr #11
 8000af0:	fa03 fc0c 	lsl.w	ip, r3, ip
 8000af4:	ea40 000c 	orr.w	r0, r0, ip
 8000af8:	fa23 f302 	lsr.w	r3, r3, r2
 8000afc:	ea4f 0343 	mov.w	r3, r3, lsl #1
 8000b00:	e7cc      	b.n	8000a9c <__aeabi_d2f+0x14>
 8000b02:	ea7f 5362 	mvns.w	r3, r2, asr #21
 8000b06:	d107      	bne.n	8000b18 <__aeabi_d2f+0x90>
 8000b08:	ea50 3301 	orrs.w	r3, r0, r1, lsl #12
 8000b0c:	bf1e      	ittt	ne
 8000b0e:	f04f 40fe 	movne.w	r0, #2130706432	; 0x7f000000
 8000b12:	f440 0040 	orrne.w	r0, r0, #12582912	; 0xc00000
 8000b16:	4770      	bxne	lr
 8000b18:	f001 4000 	and.w	r0, r1, #2147483648	; 0x80000000
 8000b1c:	f040 40fe 	orr.w	r0, r0, #2130706432	; 0x7f000000
 8000b20:	f440 0000 	orr.w	r0, r0, #8388608	; 0x800000
 8000b24:	4770      	bx	lr
 8000b26:	bf00      	nop

08000b28 <__aeabi_frsub>:
 8000b28:	f080 4000 	eor.w	r0, r0, #2147483648	; 0x80000000
 8000b2c:	e002      	b.n	8000b34 <__addsf3>
 8000b2e:	bf00      	nop

08000b30 <__aeabi_fsub>:
 8000b30:	f081 4100 	eor.w	r1, r1, #2147483648	; 0x80000000

08000b34 <__addsf3>:
 8000b34:	0042      	lsls	r2, r0, #1
 8000b36:	bf1f      	itttt	ne
 8000b38:	ea5f 0341 	movsne.w	r3, r1, lsl #1
 8000b3c:	ea92 0f03 	teqne	r2, r3
 8000b40:	ea7f 6c22 	mvnsne.w	ip, r2, asr #24
 8000b44:	ea7f 6c23 	mvnsne.w	ip, r3, asr #24
 8000b48:	d06a      	beq.n	8000c20 <__addsf3+0xec>
 8000b4a:	ea4f 6212 	mov.w	r2, r2, lsr #24
 8000b4e:	ebd2 6313 	rsbs	r3, r2, r3, lsr #24
 8000b52:	bfc1      	itttt	gt
 8000b54:	18d2      	addgt	r2, r2, r3
 8000b56:	4041      	eorgt	r1, r0
 8000b58:	4048      	eorgt	r0, r1
 8000b5a:	4041      	eorgt	r1, r0
 8000b5c:	bfb8      	it	lt
 8000b5e:	425b      	neglt	r3, r3
 8000b60:	2b19      	cmp	r3, #25
 8000b62:	bf88      	it	hi
 8000b64:	4770      	bxhi	lr
 8000b66:	f010 4f00 	tst.w	r0, #2147483648	; 0x80000000
 8000b6a:	f440 0000 	orr.w	r0, r0, #8388608	; 0x800000
 8000b6e:	f020 407f 	bic.w	r0, r0, #4278190080	; 0xff000000
 8000b72:	bf18      	it	ne
 8000b74:	4240      	negne	r0, r0
 8000b76:	f011 4f00 	tst.w	r1, #2147483648	; 0x80000000
 8000b7a:	f441 0100 	orr.w	r1, r1, #8388608	; 0x800000
 8000b7e:	f021 417f 	bic.w	r1, r1, #4278190080	; 0xff000000
 8000b82:	bf18      	it	ne
 8000b84:	4249      	negne	r1, r1
 8000b86:	ea92 0f03 	teq	r2, r3
 8000b8a:	d03f      	beq.n	8000c0c <__addsf3+0xd8>
 8000b8c:	f1a2 0201 	sub.w	r2, r2, #1
 8000b90:	fa41 fc03 	asr.w	ip, r1, r3
 8000b94:	eb10 000c 	adds.w	r0, r0, ip
 8000b98:	f1c3 0320 	rsb	r3, r3, #32
 8000b9c:	fa01 f103 	lsl.w	r1, r1, r3
 8000ba0:	f000 4300 	and.w	r3, r0, #2147483648	; 0x80000000
 8000ba4:	d502      	bpl.n	8000bac <__addsf3+0x78>
 8000ba6:	4249      	negs	r1, r1
 8000ba8:	eb60 0040 	sbc.w	r0, r0, r0, lsl #1
 8000bac:	f5b0 0f00 	cmp.w	r0, #8388608	; 0x800000
 8000bb0:	d313      	bcc.n	8000bda <__addsf3+0xa6>
 8000bb2:	f1b0 7f80 	cmp.w	r0, #16777216	; 0x1000000
 8000bb6:	d306      	bcc.n	8000bc6 <__addsf3+0x92>
 8000bb8:	0840      	lsrs	r0, r0, #1
 8000bba:	ea4f 0131 	mov.w	r1, r1, rrx
 8000bbe:	f102 0201 	add.w	r2, r2, #1
 8000bc2:	2afe      	cmp	r2, #254	; 0xfe
 8000bc4:	d251      	bcs.n	8000c6a <__addsf3+0x136>
 8000bc6:	f1b1 4f00 	cmp.w	r1, #2147483648	; 0x80000000
 8000bca:	eb40 50c2 	adc.w	r0, r0, r2, lsl #23
 8000bce:	bf08      	it	eq
 8000bd0:	f020 0001 	biceq.w	r0, r0, #1
 8000bd4:	ea40 0003 	orr.w	r0, r0, r3
 8000bd8:	4770      	bx	lr
 8000bda:	0049      	lsls	r1, r1, #1
 8000bdc:	eb40 0000 	adc.w	r0, r0, r0
 8000be0:	3a01      	subs	r2, #1
 8000be2:	bf28      	it	cs
 8000be4:	f5b0 0f00 	cmpcs.w	r0, #8388608	; 0x800000
 8000be8:	d2ed      	bcs.n	8000bc6 <__addsf3+0x92>
 8000bea:	fab0 fc80 	clz	ip, r0
 8000bee:	f1ac 0c08 	sub.w	ip, ip, #8
 8000bf2:	ebb2 020c 	subs.w	r2, r2, ip
 8000bf6:	fa00 f00c 	lsl.w	r0, r0, ip
 8000bfa:	bfaa      	itet	ge
 8000bfc:	eb00 50c2 	addge.w	r0, r0, r2, lsl #23
 8000c00:	4252      	neglt	r2, r2
 8000c02:	4318      	orrge	r0, r3
 8000c04:	bfbc      	itt	lt
 8000c06:	40d0      	lsrlt	r0, r2
 8000c08:	4318      	orrlt	r0, r3
 8000c0a:	4770      	bx	lr
 8000c0c:	f092 0f00 	teq	r2, #0
 8000c10:	f481 0100 	eor.w	r1, r1, #8388608	; 0x800000
 8000c14:	bf06      	itte	eq
 8000c16:	f480 0000 	eoreq.w	r0, r0, #8388608	; 0x800000
 8000c1a:	3201      	addeq	r2, #1
 8000c1c:	3b01      	subne	r3, #1
 8000c1e:	e7b5      	b.n	8000b8c <__addsf3+0x58>
 8000c20:	ea4f 0341 	mov.w	r3, r1, lsl #1
 8000c24:	ea7f 6c22 	mvns.w	ip, r2, asr #24
 8000c28:	bf18      	it	ne
 8000c2a:	ea7f 6c23 	mvnsne.w	ip, r3, asr #24
 8000c2e:	d021      	beq.n	8000c74 <__addsf3+0x140>
 8000c30:	ea92 0f03 	teq	r2, r3
 8000c34:	d004      	beq.n	8000c40 <__addsf3+0x10c>
 8000c36:	f092 0f00 	teq	r2, #0
 8000c3a:	bf08      	it	eq
 8000c3c:	4608      	moveq	r0, r1
 8000c3e:	4770      	bx	lr
 8000c40:	ea90 0f01 	teq	r0, r1
 8000c44:	bf1c      	itt	ne
 8000c46:	2000      	movne	r0, #0
 8000c48:	4770      	bxne	lr
 8000c4a:	f012 4f7f 	tst.w	r2, #4278190080	; 0xff000000
 8000c4e:	d104      	bne.n	8000c5a <__addsf3+0x126>
 8000c50:	0040      	lsls	r0, r0, #1
 8000c52:	bf28      	it	cs
 8000c54:	f040 4000 	orrcs.w	r0, r0, #2147483648	; 0x80000000
 8000c58:	4770      	bx	lr
 8000c5a:	f112 7200 	adds.w	r2, r2, #33554432	; 0x2000000
 8000c5e:	bf3c      	itt	cc
 8000c60:	f500 0000 	addcc.w	r0, r0, #8388608	; 0x800000
 8000c64:	4770      	bxcc	lr
 8000c66:	f000 4300 	and.w	r3, r0, #2147483648	; 0x80000000
 8000c6a:	f043 40fe 	orr.w	r0, r3, #2130706432	; 0x7f000000
 8000c6e:	f440 0000 	orr.w	r0, r0, #8388608	; 0x800000
 8000c72:	4770      	bx	lr
 8000c74:	ea7f 6222 	mvns.w	r2, r2, asr #24
 8000c78:	bf16      	itet	ne
 8000c7a:	4608      	movne	r0, r1
 8000c7c:	ea7f 6323 	mvnseq.w	r3, r3, asr #24
 8000c80:	4601      	movne	r1, r0
 8000c82:	0242      	lsls	r2, r0, #9
 8000c84:	bf06      	itte	eq
 8000c86:	ea5f 2341 	movseq.w	r3, r1, lsl #9
 8000c8a:	ea90 0f01 	teqeq	r0, r1
 8000c8e:	f440 0080 	orrne.w	r0, r0, #4194304	; 0x400000
 8000c92:	4770      	bx	lr

08000c94 <__aeabi_ui2f>:
 8000c94:	f04f 0300 	mov.w	r3, #0
 8000c98:	e004      	b.n	8000ca4 <__aeabi_i2f+0x8>
 8000c9a:	bf00      	nop

08000c9c <__aeabi_i2f>:
 8000c9c:	f010 4300 	ands.w	r3, r0, #2147483648	; 0x80000000
 8000ca0:	bf48      	it	mi
 8000ca2:	4240      	negmi	r0, r0
 8000ca4:	ea5f 0c00 	movs.w	ip, r0
 8000ca8:	bf08      	it	eq
 8000caa:	4770      	bxeq	lr
 8000cac:	f043 4396 	orr.w	r3, r3, #1258291200	; 0x4b000000
 8000cb0:	4601      	mov	r1, r0
 8000cb2:	f04f 0000 	mov.w	r0, #0
 8000cb6:	e01c      	b.n	8000cf2 <__aeabi_l2f+0x2a>

08000cb8 <__aeabi_ul2f>:
 8000cb8:	ea50 0201 	orrs.w	r2, r0, r1
 8000cbc:	bf08      	it	eq
 8000cbe:	4770      	bxeq	lr
 8000cc0:	f04f 0300 	mov.w	r3, #0
 8000cc4:	e00a      	b.n	8000cdc <__aeabi_l2f+0x14>
 8000cc6:	bf00      	nop

08000cc8 <__aeabi_l2f>:
 8000cc8:	ea50 0201 	orrs.w	r2, r0, r1
 8000ccc:	bf08      	it	eq
 8000cce:	4770      	bxeq	lr
 8000cd0:	f011 4300 	ands.w	r3, r1, #2147483648	; 0x80000000
 8000cd4:	d502      	bpl.n	8000cdc <__aeabi_l2f+0x14>
 8000cd6:	4240      	negs	r0, r0
 8000cd8:	eb61 0141 	sbc.w	r1, r1, r1, lsl #1
 8000cdc:	ea5f 0c01 	movs.w	ip, r1
 8000ce0:	bf02      	ittt	eq
 8000ce2:	4684      	moveq	ip, r0
 8000ce4:	4601      	moveq	r1, r0
 8000ce6:	2000      	moveq	r0, #0
 8000ce8:	f043 43b6 	orr.w	r3, r3, #1526726656	; 0x5b000000
 8000cec:	bf08      	it	eq
 8000cee:	f1a3 5380 	subeq.w	r3, r3, #268435456	; 0x10000000
 8000cf2:	f5a3 0300 	sub.w	r3, r3, #8388608	; 0x800000
 8000cf6:	fabc f28c 	clz	r2, ip
 8000cfa:	3a08      	subs	r2, #8
 8000cfc:	eba3 53c2 	sub.w	r3, r3, r2, lsl #23
 8000d00:	db10      	blt.n	8000d24 <__aeabi_l2f+0x5c>
 8000d02:	fa01 fc02 	lsl.w	ip, r1, r2
 8000d06:	4463      	add	r3, ip
 8000d08:	fa00 fc02 	lsl.w	ip, r0, r2
 8000d0c:	f1c2 0220 	rsb	r2, r2, #32
 8000d10:	f1bc 4f00 	cmp.w	ip, #2147483648	; 0x80000000
 8000d14:	fa20 f202 	lsr.w	r2, r0, r2
 8000d18:	eb43 0002 	adc.w	r0, r3, r2
 8000d1c:	bf08      	it	eq
 8000d1e:	f020 0001 	biceq.w	r0, r0, #1
 8000d22:	4770      	bx	lr
 8000d24:	f102 0220 	add.w	r2, r2, #32
 8000d28:	fa01 fc02 	lsl.w	ip, r1, r2
 8000d2c:	f1c2 0220 	rsb	r2, r2, #32
 8000d30:	ea50 004c 	orrs.w	r0, r0, ip, lsl #1
 8000d34:	fa21 f202 	lsr.w	r2, r1, r2
 8000d38:	eb43 0002 	adc.w	r0, r3, r2
 8000d3c:	bf08      	it	eq
 8000d3e:	ea20 70dc 	biceq.w	r0, r0, ip, lsr #31
 8000d42:	4770      	bx	lr

08000d44 <__aeabi_fmul>:
 8000d44:	f04f 0cff 	mov.w	ip, #255	; 0xff
 8000d48:	ea1c 52d0 	ands.w	r2, ip, r0, lsr #23
 8000d4c:	bf1e      	ittt	ne
 8000d4e:	ea1c 53d1 	andsne.w	r3, ip, r1, lsr #23
 8000d52:	ea92 0f0c 	teqne	r2, ip
 8000d56:	ea93 0f0c 	teqne	r3, ip
 8000d5a:	d06f      	beq.n	8000e3c <__aeabi_fmul+0xf8>
 8000d5c:	441a      	add	r2, r3
 8000d5e:	ea80 0c01 	eor.w	ip, r0, r1
 8000d62:	0240      	lsls	r0, r0, #9
 8000d64:	bf18      	it	ne
 8000d66:	ea5f 2141 	movsne.w	r1, r1, lsl #9
 8000d6a:	d01e      	beq.n	8000daa <__aeabi_fmul+0x66>
 8000d6c:	f04f 6300 	mov.w	r3, #134217728	; 0x8000000
 8000d70:	ea43 1050 	orr.w	r0, r3, r0, lsr #5
 8000d74:	ea43 1151 	orr.w	r1, r3, r1, lsr #5
 8000d78:	fba0 3101 	umull	r3, r1, r0, r1
 8000d7c:	f00c 4000 	and.w	r0, ip, #2147483648	; 0x80000000
 8000d80:	f5b1 0f00 	cmp.w	r1, #8388608	; 0x800000
 8000d84:	bf3e      	ittt	cc
 8000d86:	0049      	lslcc	r1, r1, #1
 8000d88:	ea41 71d3 	orrcc.w	r1, r1, r3, lsr #31
 8000d8c:	005b      	lslcc	r3, r3, #1
 8000d8e:	ea40 0001 	orr.w	r0, r0, r1
 8000d92:	f162 027f 	sbc.w	r2, r2, #127	; 0x7f
 8000d96:	2afd      	cmp	r2, #253	; 0xfd
 8000d98:	d81d      	bhi.n	8000dd6 <__aeabi_fmul+0x92>
 8000d9a:	f1b3 4f00 	cmp.w	r3, #2147483648	; 0x80000000
 8000d9e:	eb40 50c2 	adc.w	r0, r0, r2, lsl #23
 8000da2:	bf08      	it	eq
 8000da4:	f020 0001 	biceq.w	r0, r0, #1
 8000da8:	4770      	bx	lr
 8000daa:	f090 0f00 	teq	r0, #0
 8000dae:	f00c 4c00 	and.w	ip, ip, #2147483648	; 0x80000000
 8000db2:	bf08      	it	eq
 8000db4:	0249      	lsleq	r1, r1, #9
 8000db6:	ea4c 2050 	orr.w	r0, ip, r0, lsr #9
 8000dba:	ea40 2051 	orr.w	r0, r0, r1, lsr #9
 8000dbe:	3a7f      	subs	r2, #127	; 0x7f
 8000dc0:	bfc2      	ittt	gt
 8000dc2:	f1d2 03ff 	rsbsgt	r3, r2, #255	; 0xff
 8000dc6:	ea40 50c2 	orrgt.w	r0, r0, r2, lsl #23
 8000dca:	4770      	bxgt	lr
 8000dcc:	f440 0000 	orr.w	r0, r0, #8388608	; 0x800000
 8000dd0:	f04f 0300 	mov.w	r3, #0
 8000dd4:	3a01      	subs	r2, #1
 8000dd6:	dc5d      	bgt.n	8000e94 <__aeabi_fmul+0x150>
 8000dd8:	f112 0f19 	cmn.w	r2, #25
 8000ddc:	bfdc      	itt	le
 8000dde:	f000 4000 	andle.w	r0, r0, #2147483648	; 0x80000000
 8000de2:	4770      	bxle	lr
 8000de4:	f1c2 0200 	rsb	r2, r2, #0
 8000de8:	0041      	lsls	r1, r0, #1
 8000dea:	fa21 f102 	lsr.w	r1, r1, r2
 8000dee:	f1c2 0220 	rsb	r2, r2, #32
 8000df2:	fa00 fc02 	lsl.w	ip, r0, r2
 8000df6:	ea5f 0031 	movs.w	r0, r1, rrx
 8000dfa:	f140 0000 	adc.w	r0, r0, #0
 8000dfe:	ea53 034c 	orrs.w	r3, r3, ip, lsl #1
 8000e02:	bf08      	it	eq
 8000e04:	ea20 70dc 	biceq.w	r0, r0, ip, lsr #31
 8000e08:	4770      	bx	lr
 8000e0a:	f092 0f00 	teq	r2, #0
 8000e0e:	f000 4c00 	and.w	ip, r0, #2147483648	; 0x80000000
 8000e12:	bf02      	ittt	eq
 8000e14:	0040      	lsleq	r0, r0, #1
 8000e16:	f410 0f00 	tsteq.w	r0, #8388608	; 0x800000
 8000e1a:	3a01      	subeq	r2, #1
 8000e1c:	d0f9      	beq.n	8000e12 <__aeabi_fmul+0xce>
 8000e1e:	ea40 000c 	orr.w	r0, r0, ip
 8000e22:	f093 0f00 	teq	r3, #0
 8000e26:	f001 4c00 	and.w	ip, r1, #2147483648	; 0x80000000
 8000e2a:	bf02      	ittt	eq
 8000e2c:	0049      	lsleq	r1, r1, #1
 8000e2e:	f411 0f00 	tsteq.w	r1, #8388608	; 0x800000
 8000e32:	3b01      	subeq	r3, #1
 8000e34:	d0f9      	beq.n	8000e2a <__aeabi_fmul+0xe6>
 8000e36:	ea41 010c 	orr.w	r1, r1, ip
 8000e3a:	e78f      	b.n	8000d5c <__aeabi_fmul+0x18>
 8000e3c:	ea0c 53d1 	and.w	r3, ip, r1, lsr #23
 8000e40:	ea92 0f0c 	teq	r2, ip
 8000e44:	bf18      	it	ne
 8000e46:	ea93 0f0c 	teqne	r3, ip
 8000e4a:	d00a      	beq.n	8000e62 <__aeabi_fmul+0x11e>
 8000e4c:	f030 4c00 	bics.w	ip, r0, #2147483648	; 0x80000000
 8000e50:	bf18      	it	ne
 8000e52:	f031 4c00 	bicsne.w	ip, r1, #2147483648	; 0x80000000
 8000e56:	d1d8      	bne.n	8000e0a <__aeabi_fmul+0xc6>
 8000e58:	ea80 0001 	eor.w	r0, r0, r1
 8000e5c:	f000 4000 	and.w	r0, r0, #2147483648	; 0x80000000
 8000e60:	4770      	bx	lr
 8000e62:	f090 0f00 	teq	r0, #0
 8000e66:	bf17      	itett	ne
 8000e68:	f090 4f00 	teqne	r0, #2147483648	; 0x80000000
 8000e6c:	4608      	moveq	r0, r1
 8000e6e:	f091 0f00 	teqne	r1, #0
 8000e72:	f091 4f00 	teqne	r1, #2147483648	; 0x80000000
 8000e76:	d014      	beq.n	8000ea2 <__aeabi_fmul+0x15e>
 8000e78:	ea92 0f0c 	teq	r2, ip
 8000e7c:	d101      	bne.n	8000e82 <__aeabi_fmul+0x13e>
 8000e7e:	0242      	lsls	r2, r0, #9
 8000e80:	d10f      	bne.n	8000ea2 <__aeabi_fmul+0x15e>
 8000e82:	ea93 0f0c 	teq	r3, ip
 8000e86:	d103      	bne.n	8000e90 <__aeabi_fmul+0x14c>
 8000e88:	024b      	lsls	r3, r1, #9
 8000e8a:	bf18      	it	ne
 8000e8c:	4608      	movne	r0, r1
 8000e8e:	d108      	bne.n	8000ea2 <__aeabi_fmul+0x15e>
 8000e90:	ea80 0001 	eor.w	r0, r0, r1
 8000e94:	f000 4000 	and.w	r0, r0, #2147483648	; 0x80000000
 8000e98:	f040 40fe 	orr.w	r0, r0, #2130706432	; 0x7f000000
 8000e9c:	f440 0000 	orr.w	r0, r0, #8388608	; 0x800000
 8000ea0:	4770      	bx	lr
 8000ea2:	f040 40fe 	orr.w	r0, r0, #2130706432	; 0x7f000000
 8000ea6:	f440 0040 	orr.w	r0, r0, #12582912	; 0xc00000
 8000eaa:	4770      	bx	lr

08000eac <__aeabi_fdiv>:
 8000eac:	f04f 0cff 	mov.w	ip, #255	; 0xff
 8000eb0:	ea1c 52d0 	ands.w	r2, ip, r0, lsr #23
 8000eb4:	bf1e      	ittt	ne
 8000eb6:	ea1c 53d1 	andsne.w	r3, ip, r1, lsr #23
 8000eba:	ea92 0f0c 	teqne	r2, ip
 8000ebe:	ea93 0f0c 	teqne	r3, ip
 8000ec2:	d069      	beq.n	8000f98 <__aeabi_fdiv+0xec>
 8000ec4:	eba2 0203 	sub.w	r2, r2, r3
 8000ec8:	ea80 0c01 	eor.w	ip, r0, r1
 8000ecc:	0249      	lsls	r1, r1, #9
 8000ece:	ea4f 2040 	mov.w	r0, r0, lsl #9
 8000ed2:	d037      	beq.n	8000f44 <__aeabi_fdiv+0x98>
 8000ed4:	f04f 5380 	mov.w	r3, #268435456	; 0x10000000
 8000ed8:	ea43 1111 	orr.w	r1, r3, r1, lsr #4
 8000edc:	ea43 1310 	orr.w	r3, r3, r0, lsr #4
 8000ee0:	f00c 4000 	and.w	r0, ip, #2147483648	; 0x80000000
 8000ee4:	428b      	cmp	r3, r1
 8000ee6:	bf38      	it	cc
 8000ee8:	005b      	lslcc	r3, r3, #1
 8000eea:	f142 027d 	adc.w	r2, r2, #125	; 0x7d
 8000eee:	f44f 0c00 	mov.w	ip, #8388608	; 0x800000
 8000ef2:	428b      	cmp	r3, r1
 8000ef4:	bf24      	itt	cs
 8000ef6:	1a5b      	subcs	r3, r3, r1
 8000ef8:	ea40 000c 	orrcs.w	r0, r0, ip
 8000efc:	ebb3 0f51 	cmp.w	r3, r1, lsr #1
 8000f00:	bf24      	itt	cs
 8000f02:	eba3 0351 	subcs.w	r3, r3, r1, lsr #1
 8000f06:	ea40 005c 	orrcs.w	r0, r0, ip, lsr #1
 8000f0a:	ebb3 0f91 	cmp.w	r3, r1, lsr #2
 8000f0e:	bf24      	itt	cs
 8000f10:	eba3 0391 	subcs.w	r3, r3, r1, lsr #2
 8000f14:	ea40 009c 	orrcs.w	r0, r0, ip, lsr #2
 8000f18:	ebb3 0fd1 	cmp.w	r3, r1, lsr #3
 8000f1c:	bf24      	itt	cs
 8000f1e:	eba3 03d1 	subcs.w	r3, r3, r1, lsr #3
 8000f22:	ea40 00dc 	orrcs.w	r0, r0, ip, lsr #3
 8000f26:	011b      	lsls	r3, r3, #4
 8000f28:	bf18      	it	ne
 8000f2a:	ea5f 1c1c 	movsne.w	ip, ip, lsr #4
 8000f2e:	d1e0      	bne.n	8000ef2 <__aeabi_fdiv+0x46>
 8000f30:	2afd      	cmp	r2, #253	; 0xfd
 8000f32:	f63f af50 	bhi.w	8000dd6 <__aeabi_fmul+0x92>
 8000f36:	428b      	cmp	r3, r1
 8000f38:	eb40 50c2 	adc.w	r0, r0, r2, lsl #23
 8000f3c:	bf08      	it	eq
 8000f3e:	f020 0001 	biceq.w	r0, r0, #1
 8000f42:	4770      	bx	lr
 8000f44:	f00c 4c00 	and.w	ip, ip, #2147483648	; 0x80000000
 8000f48:	ea4c 2050 	orr.w	r0, ip, r0, lsr #9
 8000f4c:	327f      	adds	r2, #127	; 0x7f
 8000f4e:	bfc2      	ittt	gt
 8000f50:	f1d2 03ff 	rsbsgt	r3, r2, #255	; 0xff
 8000f54:	ea40 50c2 	orrgt.w	r0, r0, r2, lsl #23
 8000f58:	4770      	bxgt	lr
 8000f5a:	f440 0000 	orr.w	r0, r0, #8388608	; 0x800000
 8000f5e:	f04f 0300 	mov.w	r3, #0
 8000f62:	3a01      	subs	r2, #1
 8000f64:	e737      	b.n	8000dd6 <__aeabi_fmul+0x92>
 8000f66:	f092 0f00 	teq	r2, #0
 8000f6a:	f000 4c00 	and.w	ip, r0, #2147483648	; 0x80000000
 8000f6e:	bf02      	ittt	eq
 8000f70:	0040      	lsleq	r0, r0, #1
 8000f72:	f410 0f00 	tsteq.w	r0, #8388608	; 0x800000
 8000f76:	3a01      	subeq	r2, #1
 8000f78:	d0f9      	beq.n	8000f6e <__aeabi_fdiv+0xc2>
 8000f7a:	ea40 000c 	orr.w	r0, r0, ip
 8000f7e:	f093 0f00 	teq	r3, #0
 8000f82:	f001 4c00 	and.w	ip, r1, #2147483648	; 0x80000000
 8000f86:	bf02      	ittt	eq
 8000f88:	0049      	lsleq	r1, r1, #1
 8000f8a:	f411 0f00 	tsteq.w	r1, #8388608	; 0x800000
 8000f8e:	3b01      	subeq	r3, #1
 8000f90:	d0f9      	beq.n	8000f86 <__aeabi_fdiv+0xda>
 8000f92:	ea41 010c 	orr.w	r1, r1, ip
 8000f96:	e795      	b.n	8000ec4 <__aeabi_fdiv+0x18>
 8000f98:	ea0c 53d1 	and.w	r3, ip, r1, lsr #23
 8000f9c:	ea92 0f0c 	teq	r2, ip
 8000fa0:	d108      	bne.n	8000fb4 <__aeabi_fdiv+0x108>
 8000fa2:	0242      	lsls	r2, r0, #9
 8000fa4:	f47f af7d 	bne.w	8000ea2 <__aeabi_fmul+0x15e>
 8000fa8:	ea93 0f0c 	teq	r3, ip
 8000fac:	f47f af70 	bne.w	8000e90 <__aeabi_fmul+0x14c>
 8000fb0:	4608      	mov	r0, r1
 8000fb2:	e776      	b.n	8000ea2 <__aeabi_fmul+0x15e>
 8000fb4:	ea93 0f0c 	teq	r3, ip
 8000fb8:	d104      	bne.n	8000fc4 <__aeabi_fdiv+0x118>
 8000fba:	024b      	lsls	r3, r1, #9
 8000fbc:	f43f af4c 	beq.w	8000e58 <__aeabi_fmul+0x114>
 8000fc0:	4608      	mov	r0, r1
 8000fc2:	e76e      	b.n	8000ea2 <__aeabi_fmul+0x15e>
 8000fc4:	f030 4c00 	bics.w	ip, r0, #2147483648	; 0x80000000
 8000fc8:	bf18      	it	ne
 8000fca:	f031 4c00 	bicsne.w	ip, r1, #2147483648	; 0x80000000
 8000fce:	d1ca      	bne.n	8000f66 <__aeabi_fdiv+0xba>
 8000fd0:	f030 4200 	bics.w	r2, r0, #2147483648	; 0x80000000
 8000fd4:	f47f af5c 	bne.w	8000e90 <__aeabi_fmul+0x14c>
 8000fd8:	f031 4300 	bics.w	r3, r1, #2147483648	; 0x80000000
 8000fdc:	f47f af3c 	bne.w	8000e58 <__aeabi_fmul+0x114>
 8000fe0:	e75f      	b.n	8000ea2 <__aeabi_fmul+0x15e>
 8000fe2:	bf00      	nop

08000fe4 <__gesf2>:
 8000fe4:	f04f 3cff 	mov.w	ip, #4294967295
 8000fe8:	e006      	b.n	8000ff8 <__cmpsf2+0x4>
 8000fea:	bf00      	nop

08000fec <__lesf2>:
 8000fec:	f04f 0c01 	mov.w	ip, #1
 8000ff0:	e002      	b.n	8000ff8 <__cmpsf2+0x4>
 8000ff2:	bf00      	nop

08000ff4 <__cmpsf2>:
 8000ff4:	f04f 0c01 	mov.w	ip, #1
 8000ff8:	f84d cd04 	str.w	ip, [sp, #-4]!
 8000ffc:	ea4f 0240 	mov.w	r2, r0, lsl #1
 8001000:	ea4f 0341 	mov.w	r3, r1, lsl #1
 8001004:	ea7f 6c22 	mvns.w	ip, r2, asr #24
 8001008:	bf18      	it	ne
 800100a:	ea7f 6c23 	mvnsne.w	ip, r3, asr #24
 800100e:	d011      	beq.n	8001034 <__cmpsf2+0x40>
 8001010:	b001      	add	sp, #4
 8001012:	ea52 0c53 	orrs.w	ip, r2, r3, lsr #1
 8001016:	bf18      	it	ne
 8001018:	ea90 0f01 	teqne	r0, r1
 800101c:	bf58      	it	pl
 800101e:	ebb2 0003 	subspl.w	r0, r2, r3
 8001022:	bf88      	it	hi
 8001024:	17c8      	asrhi	r0, r1, #31
 8001026:	bf38      	it	cc
 8001028:	ea6f 70e1 	mvncc.w	r0, r1, asr #31
 800102c:	bf18      	it	ne
 800102e:	f040 0001 	orrne.w	r0, r0, #1
 8001032:	4770      	bx	lr
 8001034:	ea7f 6c22 	mvns.w	ip, r2, asr #24
 8001038:	d102      	bne.n	8001040 <__cmpsf2+0x4c>
 800103a:	ea5f 2c40 	movs.w	ip, r0, lsl #9
 800103e:	d105      	bne.n	800104c <__cmpsf2+0x58>
 8001040:	ea7f 6c23 	mvns.w	ip, r3, asr #24
 8001044:	d1e4      	bne.n	8001010 <__cmpsf2+0x1c>
 8001046:	ea5f 2c41 	movs.w	ip, r1, lsl #9
 800104a:	d0e1      	beq.n	8001010 <__cmpsf2+0x1c>
 800104c:	f85d 0b04 	ldr.w	r0, [sp], #4
 8001050:	4770      	bx	lr
 8001052:	bf00      	nop

08001054 <__aeabi_cfrcmple>:
 8001054:	4684      	mov	ip, r0
 8001056:	4608      	mov	r0, r1
 8001058:	4661      	mov	r1, ip
 800105a:	e7ff      	b.n	800105c <__aeabi_cfcmpeq>

0800105c <__aeabi_cfcmpeq>:
 800105c:	b50f      	push	{r0, r1, r2, r3, lr}
 800105e:	f7ff ffc9 	bl	8000ff4 <__cmpsf2>
 8001062:	2800      	cmp	r0, #0
 8001064:	bf48      	it	mi
 8001066:	f110 0f00 	cmnmi.w	r0, #0
 800106a:	bd0f      	pop	{r0, r1, r2, r3, pc}

0800106c <__aeabi_fcmpeq>:
 800106c:	f84d ed08 	str.w	lr, [sp, #-8]!
 8001070:	f7ff fff4 	bl	800105c <__aeabi_cfcmpeq>
 8001074:	bf0c      	ite	eq
 8001076:	2001      	moveq	r0, #1
 8001078:	2000      	movne	r0, #0
 800107a:	f85d fb08 	ldr.w	pc, [sp], #8
 800107e:	bf00      	nop

08001080 <__aeabi_fcmplt>:
 8001080:	f84d ed08 	str.w	lr, [sp, #-8]!
 8001084:	f7ff ffea 	bl	800105c <__aeabi_cfcmpeq>
 8001088:	bf34      	ite	cc
 800108a:	2001      	movcc	r0, #1
 800108c:	2000      	movcs	r0, #0
 800108e:	f85d fb08 	ldr.w	pc, [sp], #8
 8001092:	bf00      	nop

08001094 <__aeabi_fcmple>:
 8001094:	f84d ed08 	str.w	lr, [sp, #-8]!
 8001098:	f7ff ffe0 	bl	800105c <__aeabi_cfcmpeq>
 800109c:	bf94      	ite	ls
 800109e:	2001      	movls	r0, #1
 80010a0:	2000      	movhi	r0, #0
 80010a2:	f85d fb08 	ldr.w	pc, [sp], #8
 80010a6:	bf00      	nop

080010a8 <__aeabi_fcmpge>:
 80010a8:	f84d ed08 	str.w	lr, [sp, #-8]!
 80010ac:	f7ff ffd2 	bl	8001054 <__aeabi_cfrcmple>
 80010b0:	bf94      	ite	ls
 80010b2:	2001      	movls	r0, #1
 80010b4:	2000      	movhi	r0, #0
 80010b6:	f85d fb08 	ldr.w	pc, [sp], #8
 80010ba:	bf00      	nop

080010bc <__aeabi_fcmpgt>:
 80010bc:	f84d ed08 	str.w	lr, [sp, #-8]!
 80010c0:	f7ff ffc8 	bl	8001054 <__aeabi_cfrcmple>
 80010c4:	bf34      	ite	cc
 80010c6:	2001      	movcc	r0, #1
 80010c8:	2000      	movcs	r0, #0
 80010ca:	f85d fb08 	ldr.w	pc, [sp], #8
 80010ce:	bf00      	nop

080010d0 <__aeabi_f2iz>:
 80010d0:	ea4f 0240 	mov.w	r2, r0, lsl #1
 80010d4:	f1b2 4ffe 	cmp.w	r2, #2130706432	; 0x7f000000
 80010d8:	d30f      	bcc.n	80010fa <__aeabi_f2iz+0x2a>
 80010da:	f04f 039e 	mov.w	r3, #158	; 0x9e
 80010de:	ebb3 6212 	subs.w	r2, r3, r2, lsr #24
 80010e2:	d90d      	bls.n	8001100 <__aeabi_f2iz+0x30>
 80010e4:	ea4f 2300 	mov.w	r3, r0, lsl #8
 80010e8:	f043 4300 	orr.w	r3, r3, #2147483648	; 0x80000000
 80010ec:	f010 4f00 	tst.w	r0, #2147483648	; 0x80000000
 80010f0:	fa23 f002 	lsr.w	r0, r3, r2
 80010f4:	bf18      	it	ne
 80010f6:	4240      	negne	r0, r0
 80010f8:	4770      	bx	lr
 80010fa:	f04f 0000 	mov.w	r0, #0
 80010fe:	4770      	bx	lr
 8001100:	f112 0f61 	cmn.w	r2, #97	; 0x61
 8001104:	d101      	bne.n	800110a <__aeabi_f2iz+0x3a>
 8001106:	0242      	lsls	r2, r0, #9
 8001108:	d105      	bne.n	8001116 <__aeabi_f2iz+0x46>
 800110a:	f010 4000 	ands.w	r0, r0, #2147483648	; 0x80000000
 800110e:	bf08      	it	eq
 8001110:	f06f 4000 	mvneq.w	r0, #2147483648	; 0x80000000
 8001114:	4770      	bx	lr
 8001116:	f04f 0000 	mov.w	r0, #0
 800111a:	4770      	bx	lr

0800111c <__aeabi_f2uiz>:
 800111c:	0042      	lsls	r2, r0, #1
 800111e:	d20e      	bcs.n	800113e <__aeabi_f2uiz+0x22>
 8001120:	f1b2 4ffe 	cmp.w	r2, #2130706432	; 0x7f000000
 8001124:	d30b      	bcc.n	800113e <__aeabi_f2uiz+0x22>
 8001126:	f04f 039e 	mov.w	r3, #158	; 0x9e
 800112a:	ebb3 6212 	subs.w	r2, r3, r2, lsr #24
 800112e:	d409      	bmi.n	8001144 <__aeabi_f2uiz+0x28>
 8001130:	ea4f 2300 	mov.w	r3, r0, lsl #8
 8001134:	f043 4300 	orr.w	r3, r3, #2147483648	; 0x80000000
 8001138:	fa23 f002 	lsr.w	r0, r3, r2
 800113c:	4770      	bx	lr
 800113e:	f04f 0000 	mov.w	r0, #0
 8001142:	4770      	bx	lr
 8001144:	f112 0f61 	cmn.w	r2, #97	; 0x61
 8001148:	d101      	bne.n	800114e <__aeabi_f2uiz+0x32>
 800114a:	0242      	lsls	r2, r0, #9
 800114c:	d102      	bne.n	8001154 <__aeabi_f2uiz+0x38>
 800114e:	f04f 30ff 	mov.w	r0, #4294967295
 8001152:	4770      	bx	lr
 8001154:	f04f 0000 	mov.w	r0, #0
 8001158:	4770      	bx	lr
 800115a:	bf00      	nop

0800115c <SBR1_init>:
static const float u_PS_p[] = { 0.2500f };
static const float u_PM_p[] = { 0.3500f };//0.6670
static const float u_PB_p[] = { 0.51900f };


void SBR1_init( void ){
 800115c:	b580      	push	{r7, lr}
 800115e:	b08a      	sub	sp, #40	; 0x28
 8001160:	af0a      	add	r7, sp, #40	; 0x28
    /* Set inputs */
    qFIS_InputSetup( SBR1_inputs, theta, -1.0000f, 1.0000f );
 8001162:	f04f 537e 	mov.w	r3, #1065353216	; 0x3f800000
 8001166:	4a8d      	ldr	r2, [pc, #564]	; (800139c <SBR1_init+0x240>)
 8001168:	2100      	movs	r1, #0
 800116a:	488d      	ldr	r0, [pc, #564]	; (80013a0 <SBR1_init+0x244>)
 800116c:	f001 fcfa 	bl	8002b64 <qFIS_InputSetup>
    qFIS_InputSetup( SBR1_inputs, thetadot, -1.0000f, 1.0000f );
 8001170:	f04f 537e 	mov.w	r3, #1065353216	; 0x3f800000
 8001174:	4a89      	ldr	r2, [pc, #548]	; (800139c <SBR1_init+0x240>)
 8001176:	2101      	movs	r1, #1
 8001178:	4889      	ldr	r0, [pc, #548]	; (80013a0 <SBR1_init+0x244>)
 800117a:	f001 fcf3 	bl	8002b64 <qFIS_InputSetup>
    /* Set outputs */
    qFIS_OutputSetup( SBR1_outputs, u, -1.0000f, 1.0000f );
 800117e:	f04f 537e 	mov.w	r3, #1065353216	; 0x3f800000
 8001182:	4a86      	ldr	r2, [pc, #536]	; (800139c <SBR1_init+0x240>)
 8001184:	2100      	movs	r1, #0
 8001186:	4887      	ldr	r0, [pc, #540]	; (80013a4 <SBR1_init+0x248>)
 8001188:	f001 fd17 	bl	8002bba <qFIS_OutputSetup>
    /* Set membership functions for the inputs */
    qFIS_SetMF( MFin, theta, theta_NB, trapmf, NULL, theta_NB_p, 1.0f );
 800118c:	f04f 537e 	mov.w	r3, #1065353216	; 0x3f800000
 8001190:	9302      	str	r3, [sp, #8]
 8001192:	4b85      	ldr	r3, [pc, #532]	; (80013a8 <SBR1_init+0x24c>)
 8001194:	9301      	str	r3, [sp, #4]
 8001196:	2300      	movs	r3, #0
 8001198:	9300      	str	r3, [sp, #0]
 800119a:	2302      	movs	r3, #2
 800119c:	2200      	movs	r2, #0
 800119e:	2100      	movs	r1, #0
 80011a0:	4882      	ldr	r0, [pc, #520]	; (80013ac <SBR1_init+0x250>)
 80011a2:	f001 fdb3 	bl	8002d0c <qFIS_SetMF>
    qFIS_SetMF( MFin, theta, theta_NS, trapmf, NULL, theta_NS_p, 1.0f );
 80011a6:	f04f 537e 	mov.w	r3, #1065353216	; 0x3f800000
 80011aa:	9302      	str	r3, [sp, #8]
 80011ac:	4b80      	ldr	r3, [pc, #512]	; (80013b0 <SBR1_init+0x254>)
 80011ae:	9301      	str	r3, [sp, #4]
 80011b0:	2300      	movs	r3, #0
 80011b2:	9300      	str	r3, [sp, #0]
 80011b4:	2302      	movs	r3, #2
 80011b6:	2201      	movs	r2, #1
 80011b8:	2100      	movs	r1, #0
 80011ba:	487c      	ldr	r0, [pc, #496]	; (80013ac <SBR1_init+0x250>)
 80011bc:	f001 fda6 	bl	8002d0c <qFIS_SetMF>
    qFIS_SetMF( MFin, theta, theta_ZE, trimf, NULL, theta_ZE_p, 1.0f );
 80011c0:	f04f 537e 	mov.w	r3, #1065353216	; 0x3f800000
 80011c4:	9302      	str	r3, [sp, #8]
 80011c6:	4b7b      	ldr	r3, [pc, #492]	; (80013b4 <SBR1_init+0x258>)
 80011c8:	9301      	str	r3, [sp, #4]
 80011ca:	2300      	movs	r3, #0
 80011cc:	9300      	str	r3, [sp, #0]
 80011ce:	2301      	movs	r3, #1
 80011d0:	2202      	movs	r2, #2
 80011d2:	2100      	movs	r1, #0
 80011d4:	4875      	ldr	r0, [pc, #468]	; (80013ac <SBR1_init+0x250>)
 80011d6:	f001 fd99 	bl	8002d0c <qFIS_SetMF>
    qFIS_SetMF( MFin, theta, theta_PS, trapmf, NULL, theta_PS_p, 1.0f );
 80011da:	f04f 537e 	mov.w	r3, #1065353216	; 0x3f800000
 80011de:	9302      	str	r3, [sp, #8]
 80011e0:	4b75      	ldr	r3, [pc, #468]	; (80013b8 <SBR1_init+0x25c>)
 80011e2:	9301      	str	r3, [sp, #4]
 80011e4:	2300      	movs	r3, #0
 80011e6:	9300      	str	r3, [sp, #0]
 80011e8:	2302      	movs	r3, #2
 80011ea:	2203      	movs	r2, #3
 80011ec:	2100      	movs	r1, #0
 80011ee:	486f      	ldr	r0, [pc, #444]	; (80013ac <SBR1_init+0x250>)
 80011f0:	f001 fd8c 	bl	8002d0c <qFIS_SetMF>
    qFIS_SetMF( MFin, theta, theta_PB, trapmf, NULL, theta_PB_p, 1.0f );
 80011f4:	f04f 537e 	mov.w	r3, #1065353216	; 0x3f800000
 80011f8:	9302      	str	r3, [sp, #8]
 80011fa:	4b70      	ldr	r3, [pc, #448]	; (80013bc <SBR1_init+0x260>)
 80011fc:	9301      	str	r3, [sp, #4]
 80011fe:	2300      	movs	r3, #0
 8001200:	9300      	str	r3, [sp, #0]
 8001202:	2302      	movs	r3, #2
 8001204:	2204      	movs	r2, #4
 8001206:	2100      	movs	r1, #0
 8001208:	4868      	ldr	r0, [pc, #416]	; (80013ac <SBR1_init+0x250>)
 800120a:	f001 fd7f 	bl	8002d0c <qFIS_SetMF>
    qFIS_SetMF( MFin, thetadot, thetadot_NB, trimf, NULL, thetadot_NB_p, 1.0f );
 800120e:	f04f 537e 	mov.w	r3, #1065353216	; 0x3f800000
 8001212:	9302      	str	r3, [sp, #8]
 8001214:	4b6a      	ldr	r3, [pc, #424]	; (80013c0 <SBR1_init+0x264>)
 8001216:	9301      	str	r3, [sp, #4]
 8001218:	2300      	movs	r3, #0
 800121a:	9300      	str	r3, [sp, #0]
 800121c:	2301      	movs	r3, #1
 800121e:	2205      	movs	r2, #5
 8001220:	2101      	movs	r1, #1
 8001222:	4862      	ldr	r0, [pc, #392]	; (80013ac <SBR1_init+0x250>)
 8001224:	f001 fd72 	bl	8002d0c <qFIS_SetMF>
    qFIS_SetMF( MFin, thetadot, thetadot_NS, trimf, NULL, thetadot_NS_p, 1.0f );
 8001228:	f04f 537e 	mov.w	r3, #1065353216	; 0x3f800000
 800122c:	9302      	str	r3, [sp, #8]
 800122e:	4b65      	ldr	r3, [pc, #404]	; (80013c4 <SBR1_init+0x268>)
 8001230:	9301      	str	r3, [sp, #4]
 8001232:	2300      	movs	r3, #0
 8001234:	9300      	str	r3, [sp, #0]
 8001236:	2301      	movs	r3, #1
 8001238:	2206      	movs	r2, #6
 800123a:	2101      	movs	r1, #1
 800123c:	485b      	ldr	r0, [pc, #364]	; (80013ac <SBR1_init+0x250>)
 800123e:	f001 fd65 	bl	8002d0c <qFIS_SetMF>
    qFIS_SetMF( MFin, thetadot, thetadot_ZE, trimf, NULL, thetadot_ZE_p, 1.0f );
 8001242:	f04f 537e 	mov.w	r3, #1065353216	; 0x3f800000
 8001246:	9302      	str	r3, [sp, #8]
 8001248:	4b5f      	ldr	r3, [pc, #380]	; (80013c8 <SBR1_init+0x26c>)
 800124a:	9301      	str	r3, [sp, #4]
 800124c:	2300      	movs	r3, #0
 800124e:	9300      	str	r3, [sp, #0]
 8001250:	2301      	movs	r3, #1
 8001252:	2207      	movs	r2, #7
 8001254:	2101      	movs	r1, #1
 8001256:	4855      	ldr	r0, [pc, #340]	; (80013ac <SBR1_init+0x250>)
 8001258:	f001 fd58 	bl	8002d0c <qFIS_SetMF>
    qFIS_SetMF( MFin, thetadot, thetadot_PS, trimf, NULL, thetadot_PS_p, 1.0f );
 800125c:	f04f 537e 	mov.w	r3, #1065353216	; 0x3f800000
 8001260:	9302      	str	r3, [sp, #8]
 8001262:	4b5a      	ldr	r3, [pc, #360]	; (80013cc <SBR1_init+0x270>)
 8001264:	9301      	str	r3, [sp, #4]
 8001266:	2300      	movs	r3, #0
 8001268:	9300      	str	r3, [sp, #0]
 800126a:	2301      	movs	r3, #1
 800126c:	2208      	movs	r2, #8
 800126e:	2101      	movs	r1, #1
 8001270:	484e      	ldr	r0, [pc, #312]	; (80013ac <SBR1_init+0x250>)
 8001272:	f001 fd4b 	bl	8002d0c <qFIS_SetMF>
    qFIS_SetMF( MFin, thetadot, thetadot_PB, trimf, NULL, thetadot_PB_p, 1.0f );
 8001276:	f04f 537e 	mov.w	r3, #1065353216	; 0x3f800000
 800127a:	9302      	str	r3, [sp, #8]
 800127c:	4b54      	ldr	r3, [pc, #336]	; (80013d0 <SBR1_init+0x274>)
 800127e:	9301      	str	r3, [sp, #4]
 8001280:	2300      	movs	r3, #0
 8001282:	9300      	str	r3, [sp, #0]
 8001284:	2301      	movs	r3, #1
 8001286:	2209      	movs	r2, #9
 8001288:	2101      	movs	r1, #1
 800128a:	4848      	ldr	r0, [pc, #288]	; (80013ac <SBR1_init+0x250>)
 800128c:	f001 fd3e 	bl	8002d0c <qFIS_SetMF>
    /* Set membership functions for the outputs */
    qFIS_SetMF( MFout, u, u_NB, constantmf, NULL, u_NB_p, 1.0f );
 8001290:	f04f 537e 	mov.w	r3, #1065353216	; 0x3f800000
 8001294:	9302      	str	r3, [sp, #8]
 8001296:	4b4f      	ldr	r3, [pc, #316]	; (80013d4 <SBR1_init+0x278>)
 8001298:	9301      	str	r3, [sp, #4]
 800129a:	2300      	movs	r3, #0
 800129c:	9300      	str	r3, [sp, #0]
 800129e:	2313      	movs	r3, #19
 80012a0:	2200      	movs	r2, #0
 80012a2:	2100      	movs	r1, #0
 80012a4:	484c      	ldr	r0, [pc, #304]	; (80013d8 <SBR1_init+0x27c>)
 80012a6:	f001 fd31 	bl	8002d0c <qFIS_SetMF>
    qFIS_SetMF( MFout, u, u_NM, constantmf, NULL, u_NM_p, 1.0f );
 80012aa:	f04f 537e 	mov.w	r3, #1065353216	; 0x3f800000
 80012ae:	9302      	str	r3, [sp, #8]
 80012b0:	4b4a      	ldr	r3, [pc, #296]	; (80013dc <SBR1_init+0x280>)
 80012b2:	9301      	str	r3, [sp, #4]
 80012b4:	2300      	movs	r3, #0
 80012b6:	9300      	str	r3, [sp, #0]
 80012b8:	2313      	movs	r3, #19
 80012ba:	2201      	movs	r2, #1
 80012bc:	2100      	movs	r1, #0
 80012be:	4846      	ldr	r0, [pc, #280]	; (80013d8 <SBR1_init+0x27c>)
 80012c0:	f001 fd24 	bl	8002d0c <qFIS_SetMF>
    qFIS_SetMF( MFout, u, u_NS, constantmf, NULL, u_NS_p, 1.0f );
 80012c4:	f04f 537e 	mov.w	r3, #1065353216	; 0x3f800000
 80012c8:	9302      	str	r3, [sp, #8]
 80012ca:	4b45      	ldr	r3, [pc, #276]	; (80013e0 <SBR1_init+0x284>)
 80012cc:	9301      	str	r3, [sp, #4]
 80012ce:	2300      	movs	r3, #0
 80012d0:	9300      	str	r3, [sp, #0]
 80012d2:	2313      	movs	r3, #19
 80012d4:	2202      	movs	r2, #2
 80012d6:	2100      	movs	r1, #0
 80012d8:	483f      	ldr	r0, [pc, #252]	; (80013d8 <SBR1_init+0x27c>)
 80012da:	f001 fd17 	bl	8002d0c <qFIS_SetMF>
    qFIS_SetMF( MFout, u, u_ZE, constantmf, NULL, u_ZE_p, 1.0f );
 80012de:	f04f 537e 	mov.w	r3, #1065353216	; 0x3f800000
 80012e2:	9302      	str	r3, [sp, #8]
 80012e4:	4b3f      	ldr	r3, [pc, #252]	; (80013e4 <SBR1_init+0x288>)
 80012e6:	9301      	str	r3, [sp, #4]
 80012e8:	2300      	movs	r3, #0
 80012ea:	9300      	str	r3, [sp, #0]
 80012ec:	2313      	movs	r3, #19
 80012ee:	2203      	movs	r2, #3
 80012f0:	2100      	movs	r1, #0
 80012f2:	4839      	ldr	r0, [pc, #228]	; (80013d8 <SBR1_init+0x27c>)
 80012f4:	f001 fd0a 	bl	8002d0c <qFIS_SetMF>
    qFIS_SetMF( MFout, u, u_PS, constantmf, NULL, u_PS_p, 1.0f );
 80012f8:	f04f 537e 	mov.w	r3, #1065353216	; 0x3f800000
 80012fc:	9302      	str	r3, [sp, #8]
 80012fe:	4b3a      	ldr	r3, [pc, #232]	; (80013e8 <SBR1_init+0x28c>)
 8001300:	9301      	str	r3, [sp, #4]
 8001302:	2300      	movs	r3, #0
 8001304:	9300      	str	r3, [sp, #0]
 8001306:	2313      	movs	r3, #19
 8001308:	2204      	movs	r2, #4
 800130a:	2100      	movs	r1, #0
 800130c:	4832      	ldr	r0, [pc, #200]	; (80013d8 <SBR1_init+0x27c>)
 800130e:	f001 fcfd 	bl	8002d0c <qFIS_SetMF>
    qFIS_SetMF( MFout, u, u_PM, constantmf, NULL, u_PM_p, 1.0f );
 8001312:	f04f 537e 	mov.w	r3, #1065353216	; 0x3f800000
 8001316:	9302      	str	r3, [sp, #8]
 8001318:	4b34      	ldr	r3, [pc, #208]	; (80013ec <SBR1_init+0x290>)
 800131a:	9301      	str	r3, [sp, #4]
 800131c:	2300      	movs	r3, #0
 800131e:	9300      	str	r3, [sp, #0]
 8001320:	2313      	movs	r3, #19
 8001322:	2205      	movs	r2, #5
 8001324:	2100      	movs	r1, #0
 8001326:	482c      	ldr	r0, [pc, #176]	; (80013d8 <SBR1_init+0x27c>)
 8001328:	f001 fcf0 	bl	8002d0c <qFIS_SetMF>
    qFIS_SetMF( MFout, u, u_PB, constantmf, NULL, u_PB_p, 1.0f );
 800132c:	f04f 537e 	mov.w	r3, #1065353216	; 0x3f800000
 8001330:	9302      	str	r3, [sp, #8]
 8001332:	4b2f      	ldr	r3, [pc, #188]	; (80013f0 <SBR1_init+0x294>)
 8001334:	9301      	str	r3, [sp, #4]
 8001336:	2300      	movs	r3, #0
 8001338:	9300      	str	r3, [sp, #0]
 800133a:	2313      	movs	r3, #19
 800133c:	2206      	movs	r2, #6
 800133e:	2100      	movs	r1, #0
 8001340:	4825      	ldr	r0, [pc, #148]	; (80013d8 <SBR1_init+0x27c>)
 8001342:	f001 fce3 	bl	8002d0c <qFIS_SetMF>

    /* Configure the Inference System */
    qFIS_Setup( &SBR1, Sugeno,
 8001346:	2319      	movs	r3, #25
 8001348:	9308      	str	r3, [sp, #32]
 800134a:	4b2a      	ldr	r3, [pc, #168]	; (80013f4 <SBR1_init+0x298>)
 800134c:	9307      	str	r3, [sp, #28]
 800134e:	4b2a      	ldr	r3, [pc, #168]	; (80013f8 <SBR1_init+0x29c>)
 8001350:	9306      	str	r3, [sp, #24]
 8001352:	238c      	movs	r3, #140	; 0x8c
 8001354:	9305      	str	r3, [sp, #20]
 8001356:	4b20      	ldr	r3, [pc, #128]	; (80013d8 <SBR1_init+0x27c>)
 8001358:	9304      	str	r3, [sp, #16]
 800135a:	23c8      	movs	r3, #200	; 0xc8
 800135c:	9303      	str	r3, [sp, #12]
 800135e:	4b13      	ldr	r3, [pc, #76]	; (80013ac <SBR1_init+0x250>)
 8001360:	9302      	str	r3, [sp, #8]
 8001362:	2334      	movs	r3, #52	; 0x34
 8001364:	9301      	str	r3, [sp, #4]
 8001366:	4b0f      	ldr	r3, [pc, #60]	; (80013a4 <SBR1_init+0x248>)
 8001368:	9300      	str	r3, [sp, #0]
 800136a:	2318      	movs	r3, #24
 800136c:	4a0c      	ldr	r2, [pc, #48]	; (80013a0 <SBR1_init+0x244>)
 800136e:	2101      	movs	r1, #1
 8001370:	4822      	ldr	r0, [pc, #136]	; (80013fc <SBR1_init+0x2a0>)
 8001372:	f001 fb1f 	bl	80029b4 <qFIS_Setup>
                SBR1_inputs, sizeof(SBR1_inputs),
                SBR1_outputs, sizeof(SBR1_outputs),
                MFin, sizeof(MFin), MFout, sizeof(MFout),
                rules, rStrength, 25u );
    qFIS_SetParameter( &SBR1, qFIS_AND, qFIS_PROD );
 8001376:	2201      	movs	r2, #1
 8001378:	2102      	movs	r1, #2
 800137a:	4820      	ldr	r0, [pc, #128]	; (80013fc <SBR1_init+0x2a0>)
 800137c:	f001 faaa 	bl	80028d4 <qFIS_SetParameter>
    qFIS_SetParameter( &SBR1, qFIS_Implication, qFIS_PROD );
 8001380:	2201      	movs	r2, #1
 8001382:	2100      	movs	r1, #0
 8001384:	481d      	ldr	r0, [pc, #116]	; (80013fc <SBR1_init+0x2a0>)
 8001386:	f001 faa5 	bl	80028d4 <qFIS_SetParameter>
    qFIS_SetParameter( &SBR1, qFIS_Aggregation, qFIS_SUM );
 800138a:	2204      	movs	r2, #4
 800138c:	2101      	movs	r1, #1
 800138e:	481b      	ldr	r0, [pc, #108]	; (80013fc <SBR1_init+0x2a0>)
 8001390:	f001 faa0 	bl	80028d4 <qFIS_SetParameter>
}
 8001394:	bf00      	nop
 8001396:	46bd      	mov	sp, r7
 8001398:	bd80      	pop	{r7, pc}
 800139a:	bf00      	nop
 800139c:	bf800000 	.word	0xbf800000
 80013a0:	20000194 	.word	0x20000194
 80013a4:	200001ac 	.word	0x200001ac
 80013a8:	08009a44 	.word	0x08009a44
 80013ac:	200001e0 	.word	0x200001e0
 80013b0:	08009a54 	.word	0x08009a54
 80013b4:	08009a64 	.word	0x08009a64
 80013b8:	08009a70 	.word	0x08009a70
 80013bc:	08009a80 	.word	0x08009a80
 80013c0:	08009a90 	.word	0x08009a90
 80013c4:	08009a9c 	.word	0x08009a9c
 80013c8:	08009aa8 	.word	0x08009aa8
 80013cc:	08009ab4 	.word	0x08009ab4
 80013d0:	08009ac0 	.word	0x08009ac0
 80013d4:	08009acc 	.word	0x08009acc
 80013d8:	200002a8 	.word	0x200002a8
 80013dc:	08009ad0 	.word	0x08009ad0
 80013e0:	08009ad4 	.word	0x08009ad4
 80013e4:	08009ad8 	.word	0x08009ad8
 80013e8:	08009adc 	.word	0x08009adc
 80013ec:	08009ae0 	.word	0x08009ae0
 80013f0:	08009ae4 	.word	0x08009ae4
 80013f4:	20000334 	.word	0x20000334
 80013f8:	080098b0 	.word	0x080098b0
 80013fc:	20000134 	.word	0x20000134

08001400 <SBR1_run>:

void SBR1_run( float *inputs, float *outputs ) {
 8001400:	b580      	push	{r7, lr}
 8001402:	b082      	sub	sp, #8
 8001404:	af00      	add	r7, sp, #0
 8001406:	6078      	str	r0, [r7, #4]
 8001408:	6039      	str	r1, [r7, #0]
    /* Set the crips inputs */
    qFIS_SetInput( SBR1_inputs, theta, inputs[ theta ] );
 800140a:	687b      	ldr	r3, [r7, #4]
 800140c:	681b      	ldr	r3, [r3, #0]
 800140e:	461a      	mov	r2, r3
 8001410:	2100      	movs	r1, #0
 8001412:	4811      	ldr	r0, [pc, #68]	; (8001458 <SBR1_run+0x58>)
 8001414:	f001 fc3e 	bl	8002c94 <qFIS_SetInput>
    qFIS_SetInput( SBR1_inputs, thetadot, inputs[ thetadot ] );
 8001418:	687b      	ldr	r3, [r7, #4]
 800141a:	3304      	adds	r3, #4
 800141c:	681b      	ldr	r3, [r3, #0]
 800141e:	461a      	mov	r2, r3
 8001420:	2101      	movs	r1, #1
 8001422:	480d      	ldr	r0, [pc, #52]	; (8001458 <SBR1_run+0x58>)
 8001424:	f001 fc36 	bl	8002c94 <qFIS_SetInput>

    qFIS_Fuzzify( &SBR1 );
 8001428:	480c      	ldr	r0, [pc, #48]	; (800145c <SBR1_run+0x5c>)
 800142a:	f001 fd4e 	bl	8002eca <qFIS_Fuzzify>
    if ( qFIS_Inference( &SBR1 ) > 0 ) {
 800142e:	480b      	ldr	r0, [pc, #44]	; (800145c <SBR1_run+0x5c>)
 8001430:	f002 f97a 	bl	8003728 <qFIS_Inference>
 8001434:	4603      	mov	r3, r0
 8001436:	2b00      	cmp	r3, #0
 8001438:	dd02      	ble.n	8001440 <SBR1_run+0x40>
        qFIS_DeFuzzify( &SBR1 );
 800143a:	4808      	ldr	r0, [pc, #32]	; (800145c <SBR1_run+0x5c>)
 800143c:	f002 f831 	bl	80034a2 <qFIS_DeFuzzify>
    else {
        /* Error! */
    }

    /* Get the crips outputs */
    outputs[ u ] = qFIS_GetOutput( SBR1_outputs, u );
 8001440:	2100      	movs	r1, #0
 8001442:	4807      	ldr	r0, [pc, #28]	; (8001460 <SBR1_run+0x60>)
 8001444:	f001 fc46 	bl	8002cd4 <qFIS_GetOutput>
 8001448:	4602      	mov	r2, r0
 800144a:	683b      	ldr	r3, [r7, #0]
 800144c:	601a      	str	r2, [r3, #0]
}
 800144e:	bf00      	nop
 8001450:	3708      	adds	r7, #8
 8001452:	46bd      	mov	sp, r7
 8001454:	bd80      	pop	{r7, pc}
 8001456:	bf00      	nop
 8001458:	20000194 	.word	0x20000194
 800145c:	20000134 	.word	0x20000134
 8001460:	200001ac 	.word	0x200001ac

08001464 <HAL_TIM_PeriodElapsedCallback>:
/* USER CODE END PFP */

/* Private user code ---------------------------------------------------------*/
/* USER CODE BEGIN 0 */
void HAL_TIM_PeriodElapsedCallback(TIM_HandleTypeDef *htim) // timer1 interrupted 10 ms
{
 8001464:	b480      	push	{r7}
 8001466:	b083      	sub	sp, #12
 8001468:	af00      	add	r7, sp, #0
 800146a:	6078      	str	r0, [r7, #4]
	if(htim->Instance==TIM1)
 800146c:	687b      	ldr	r3, [r7, #4]
 800146e:	681b      	ldr	r3, [r3, #0]
 8001470:	4a05      	ldr	r2, [pc, #20]	; (8001488 <HAL_TIM_PeriodElapsedCallback+0x24>)
 8001472:	4293      	cmp	r3, r2
 8001474:	d102      	bne.n	800147c <HAL_TIM_PeriodElapsedCallback+0x18>
	{
		u8_flag_10ms = 1;
 8001476:	4b05      	ldr	r3, [pc, #20]	; (800148c <HAL_TIM_PeriodElapsedCallback+0x28>)
 8001478:	2201      	movs	r2, #1
 800147a:	701a      	strb	r2, [r3, #0]
	}
}
 800147c:	bf00      	nop
 800147e:	370c      	adds	r7, #12
 8001480:	46bd      	mov	sp, r7
 8001482:	bc80      	pop	{r7}
 8001484:	4770      	bx	lr
 8001486:	bf00      	nop
 8001488:	40012c00 	.word	0x40012c00
 800148c:	20000568 	.word	0x20000568

08001490 <main>:
/**
  * @brief  The application entry point.
  * @retval int
  */
int main(void)
{
 8001490:	b5b0      	push	{r4, r5, r7, lr}
 8001492:	b088      	sub	sp, #32
 8001494:	af04      	add	r7, sp, #16
  /* USER CODE END 1 */

  /* MCU Configuration--------------------------------------------------------*/

  /* Reset of all peripherals, Initializes the Flash interface and the Systick. */
  HAL_Init();
 8001496:	f003 fc35 	bl	8004d04 <HAL_Init>

  /* USER CODE BEGIN Init */
	 SBR1_init();
 800149a:	f7ff fe5f 	bl	800115c <SBR1_init>
  /* USER CODE END Init */

  /* Configure the system clock */
  SystemClock_Config();
 800149e:	f000 f8bb 	bl	8001618 <SystemClock_Config>
  /* USER CODE BEGIN SysInit */

  /* USER CODE END SysInit */

  /* Initialize all configured peripherals */
  MX_GPIO_Init();
 80014a2:	f000 fa65 	bl	8001970 <MX_GPIO_Init>
  MX_I2C1_Init();
 80014a6:	f000 f8f3 	bl	8001690 <MX_I2C1_Init>
  MX_TIM1_Init();
 80014aa:	f000 f91f 	bl	80016ec <MX_TIM1_Init>
  MX_TIM3_Init();
 80014ae:	f000 f96d 	bl	800178c <MX_TIM3_Init>
  MX_TIM4_Init();
 80014b2:	f000 f9cf 	bl	8001854 <MX_TIM4_Init>
  MX_USART1_UART_Init();
 80014b6:	f000 fa31 	bl	800191c <MX_USART1_UART_Init>
  /* USER CODE BEGIN 2 */
  HAL_TIM_Base_Start_IT(&htim1);
 80014ba:	484b      	ldr	r0, [pc, #300]	; (80015e8 <main+0x158>)
 80014bc:	f005 fc9a 	bl	8006df4 <HAL_TIM_Base_Start_IT>
  Init_tim_pwm();
 80014c0:	f000 fb26 	bl	8001b10 <Init_tim_pwm>
//  HAL_UART_Transmit_IT(&huart1,(uint8_t*)data, 20);

  while (MPU6050_Init(&hi2c1) == 1); // if mpu6050 identified, mcu will escape while loop
 80014c4:	bf00      	nop
 80014c6:	4849      	ldr	r0, [pc, #292]	; (80015ec <main+0x15c>)
 80014c8:	f000 fc52 	bl	8001d70 <MPU6050_Init>
 80014cc:	4603      	mov	r3, r0
 80014ce:	2b01      	cmp	r3, #1
 80014d0:	d0f9      	beq.n	80014c6 <main+0x36>
  {
    /* USER CODE END WHILE */

    /* USER CODE BEGIN 3 */
	  //These parameters in motor.h and SBR1_fis.c need to be tuned belong to your robot
	  if (u8_flag_10ms)
 80014d2:	4b47      	ldr	r3, [pc, #284]	; (80015f0 <main+0x160>)
 80014d4:	781b      	ldrb	r3, [r3, #0]
 80014d6:	2b00      	cmp	r3, #0
 80014d8:	d0fb      	beq.n	80014d2 <main+0x42>
	  {
		  u8_flag_10ms = 0;
 80014da:	4b45      	ldr	r3, [pc, #276]	; (80015f0 <main+0x160>)
 80014dc:	2200      	movs	r2, #0
 80014de:	701a      	strb	r2, [r3, #0]
		  //parameters after Kalman filter
		  MPU6050_Read_All(&hi2c1,&t_MPU6050);
 80014e0:	4944      	ldr	r1, [pc, #272]	; (80015f4 <main+0x164>)
 80014e2:	4842      	ldr	r0, [pc, #264]	; (80015ec <main+0x15c>)
 80014e4:	f000 fc9c 	bl	8001e20 <MPU6050_Read_All>
		  // variable_view is used to see value in debug process
//		  variable_view_theta = t_MPU6050.KalmanAngleY;
//		  variable_view_theta_dot =  (t_MPU6050.KalmanAngleY-pre_theta)/(TIME_EXAMPLE*0.001);
//		  pre_theta = t_MPU6050.KalmanAngleY;
//		  Controller (t_MPU6050.KalmanAngleY, variable_view_theta_dot, &t_fuzzy);
		  Controller (t_MPU6050.KalmanAngleY, t_MPU6050.Gy* RAD_TO_DEG, &t_fuzzy);
 80014e8:	4b42      	ldr	r3, [pc, #264]	; (80015f4 <main+0x164>)
 80014ea:	e9d3 4514 	ldrd	r4, r5, [r3, #80]	; 0x50
 80014ee:	4b41      	ldr	r3, [pc, #260]	; (80015f4 <main+0x164>)
 80014f0:	e9d3 010c 	ldrd	r0, r1, [r3, #48]	; 0x30
 80014f4:	a33a      	add	r3, pc, #232	; (adr r3, 80015e0 <main+0x150>)
 80014f6:	e9d3 2300 	ldrd	r2, r3, [r3]
 80014fa:	f7fe ffed 	bl	80004d8 <__aeabi_dmul>
 80014fe:	4602      	mov	r2, r0
 8001500:	460b      	mov	r3, r1
 8001502:	493d      	ldr	r1, [pc, #244]	; (80015f8 <main+0x168>)
 8001504:	9100      	str	r1, [sp, #0]
 8001506:	4620      	mov	r0, r4
 8001508:	4629      	mov	r1, r5
 800150a:	f000 fb7d 	bl	8001c08 <Controller>
		  variavle_view_output = t_fuzzy.f_out_fuzzy;
 800150e:	4b3a      	ldr	r3, [pc, #232]	; (80015f8 <main+0x168>)
 8001510:	689b      	ldr	r3, [r3, #8]
 8001512:	4a3a      	ldr	r2, [pc, #232]	; (80015fc <main+0x16c>)
 8001514:	6013      	str	r3, [r2, #0]
		  int theta = t_MPU6050.KalmanAngleY*1000.0;
 8001516:	4b37      	ldr	r3, [pc, #220]	; (80015f4 <main+0x164>)
 8001518:	e9d3 0114 	ldrd	r0, r1, [r3, #80]	; 0x50
 800151c:	f04f 0200 	mov.w	r2, #0
 8001520:	4b37      	ldr	r3, [pc, #220]	; (8001600 <main+0x170>)
 8001522:	f7fe ffd9 	bl	80004d8 <__aeabi_dmul>
 8001526:	4602      	mov	r2, r0
 8001528:	460b      	mov	r3, r1
 800152a:	4610      	mov	r0, r2
 800152c:	4619      	mov	r1, r3
 800152e:	f7ff fa83 	bl	8000a38 <__aeabi_d2iz>
 8001532:	4603      	mov	r3, r0
 8001534:	60fb      	str	r3, [r7, #12]
		  int theta_dot = t_MPU6050.Gy* RAD_TO_DEG*1000.0;
 8001536:	4b2f      	ldr	r3, [pc, #188]	; (80015f4 <main+0x164>)
 8001538:	e9d3 010c 	ldrd	r0, r1, [r3, #48]	; 0x30
 800153c:	a328      	add	r3, pc, #160	; (adr r3, 80015e0 <main+0x150>)
 800153e:	e9d3 2300 	ldrd	r2, r3, [r3]
 8001542:	f7fe ffc9 	bl	80004d8 <__aeabi_dmul>
 8001546:	4602      	mov	r2, r0
 8001548:	460b      	mov	r3, r1
 800154a:	4610      	mov	r0, r2
 800154c:	4619      	mov	r1, r3
 800154e:	f04f 0200 	mov.w	r2, #0
 8001552:	4b2b      	ldr	r3, [pc, #172]	; (8001600 <main+0x170>)
 8001554:	f7fe ffc0 	bl	80004d8 <__aeabi_dmul>
 8001558:	4602      	mov	r2, r0
 800155a:	460b      	mov	r3, r1
 800155c:	4610      	mov	r0, r2
 800155e:	4619      	mov	r1, r3
 8001560:	f7ff fa6a 	bl	8000a38 <__aeabi_d2iz>
 8001564:	4603      	mov	r3, r0
 8001566:	60bb      	str	r3, [r7, #8]
		  int uk = t_fuzzy.f_out_fuzzy;
 8001568:	4b23      	ldr	r3, [pc, #140]	; (80015f8 <main+0x168>)
 800156a:	689b      	ldr	r3, [r3, #8]
 800156c:	4618      	mov	r0, r3
 800156e:	f7ff fdaf 	bl	80010d0 <__aeabi_f2iz>
 8001572:	4603      	mov	r3, r0
 8001574:	607b      	str	r3, [r7, #4]
		  sprintf(data,FRAME,SIGN(theta),ABS(theta),SIGN(theta_dot),ABS(theta_dot),SIGN(uk),ABS(uk));
 8001576:	68fb      	ldr	r3, [r7, #12]
 8001578:	2b00      	cmp	r3, #0
 800157a:	db01      	blt.n	8001580 <main+0xf0>
 800157c:	4c21      	ldr	r4, [pc, #132]	; (8001604 <main+0x174>)
 800157e:	e000      	b.n	8001582 <main+0xf2>
 8001580:	4c21      	ldr	r4, [pc, #132]	; (8001608 <main+0x178>)
 8001582:	68fb      	ldr	r3, [r7, #12]
 8001584:	ea83 75e3 	eor.w	r5, r3, r3, asr #31
 8001588:	eba5 75e3 	sub.w	r5, r5, r3, asr #31
 800158c:	68bb      	ldr	r3, [r7, #8]
 800158e:	2b00      	cmp	r3, #0
 8001590:	db01      	blt.n	8001596 <main+0x106>
 8001592:	4b1c      	ldr	r3, [pc, #112]	; (8001604 <main+0x174>)
 8001594:	e000      	b.n	8001598 <main+0x108>
 8001596:	4b1c      	ldr	r3, [pc, #112]	; (8001608 <main+0x178>)
 8001598:	68ba      	ldr	r2, [r7, #8]
 800159a:	2a00      	cmp	r2, #0
 800159c:	bfb8      	it	lt
 800159e:	4252      	neglt	r2, r2
 80015a0:	6879      	ldr	r1, [r7, #4]
 80015a2:	2900      	cmp	r1, #0
 80015a4:	db01      	blt.n	80015aa <main+0x11a>
 80015a6:	4917      	ldr	r1, [pc, #92]	; (8001604 <main+0x174>)
 80015a8:	e000      	b.n	80015ac <main+0x11c>
 80015aa:	4917      	ldr	r1, [pc, #92]	; (8001608 <main+0x178>)
 80015ac:	6878      	ldr	r0, [r7, #4]
 80015ae:	2800      	cmp	r0, #0
 80015b0:	bfb8      	it	lt
 80015b2:	4240      	neglt	r0, r0
 80015b4:	9003      	str	r0, [sp, #12]
 80015b6:	9102      	str	r1, [sp, #8]
 80015b8:	9201      	str	r2, [sp, #4]
 80015ba:	9300      	str	r3, [sp, #0]
 80015bc:	462b      	mov	r3, r5
 80015be:	4622      	mov	r2, r4
 80015c0:	4912      	ldr	r1, [pc, #72]	; (800160c <main+0x17c>)
 80015c2:	4813      	ldr	r0, [pc, #76]	; (8001610 <main+0x180>)
 80015c4:	f007 f948 	bl	8008858 <siprintf>
		  HAL_UART_Transmit(&huart1,(uint8_t*)data, strlen(data),9);
 80015c8:	4811      	ldr	r0, [pc, #68]	; (8001610 <main+0x180>)
 80015ca:	f7fe fdc1 	bl	8000150 <strlen>
 80015ce:	4603      	mov	r3, r0
 80015d0:	b29a      	uxth	r2, r3
 80015d2:	2309      	movs	r3, #9
 80015d4:	490e      	ldr	r1, [pc, #56]	; (8001610 <main+0x180>)
 80015d6:	480f      	ldr	r0, [pc, #60]	; (8001614 <main+0x184>)
 80015d8:	f006 fb6a 	bl	8007cb0 <HAL_UART_Transmit>
	  if (u8_flag_10ms)
 80015dc:	e779      	b.n	80014d2 <main+0x42>
 80015de:	bf00      	nop
 80015e0:	1a63c1f8 	.word	0x1a63c1f8
 80015e4:	404ca5dc 	.word	0x404ca5dc
 80015e8:	200003ec 	.word	0x200003ec
 80015ec:	20000398 	.word	0x20000398
 80015f0:	20000568 	.word	0x20000568
 80015f4:	20000510 	.word	0x20000510
 80015f8:	20000000 	.word	0x20000000
 80015fc:	200005d0 	.word	0x200005d0
 8001600:	408f4000 	.word	0x408f4000
 8001604:	08009890 	.word	0x08009890
 8001608:	08009894 	.word	0x08009894
 800160c:	08009898 	.word	0x08009898
 8001610:	2000056c 	.word	0x2000056c
 8001614:	200004c4 	.word	0x200004c4

08001618 <SystemClock_Config>:
/**
  * @brief System Clock Configuration
  * @retval None
  */
void SystemClock_Config(void)
{
 8001618:	b580      	push	{r7, lr}
 800161a:	b090      	sub	sp, #64	; 0x40
 800161c:	af00      	add	r7, sp, #0
  RCC_OscInitTypeDef RCC_OscInitStruct = {0};
 800161e:	f107 0318 	add.w	r3, r7, #24
 8001622:	2228      	movs	r2, #40	; 0x28
 8001624:	2100      	movs	r1, #0
 8001626:	4618      	mov	r0, r3
 8001628:	f007 f936 	bl	8008898 <memset>
  RCC_ClkInitTypeDef RCC_ClkInitStruct = {0};
 800162c:	1d3b      	adds	r3, r7, #4
 800162e:	2200      	movs	r2, #0
 8001630:	601a      	str	r2, [r3, #0]
 8001632:	605a      	str	r2, [r3, #4]
 8001634:	609a      	str	r2, [r3, #8]
 8001636:	60da      	str	r2, [r3, #12]
 8001638:	611a      	str	r2, [r3, #16]

  /** Initializes the RCC Oscillators according to the specified parameters
  * in the RCC_OscInitTypeDef structure.
  */
  RCC_OscInitStruct.OscillatorType = RCC_OSCILLATORTYPE_HSI;
 800163a:	2302      	movs	r3, #2
 800163c:	61bb      	str	r3, [r7, #24]
  RCC_OscInitStruct.HSIState = RCC_HSI_ON;
 800163e:	2301      	movs	r3, #1
 8001640:	62bb      	str	r3, [r7, #40]	; 0x28
  RCC_OscInitStruct.HSICalibrationValue = RCC_HSICALIBRATION_DEFAULT;
 8001642:	2310      	movs	r3, #16
 8001644:	62fb      	str	r3, [r7, #44]	; 0x2c
  RCC_OscInitStruct.PLL.PLLState = RCC_PLL_NONE;
 8001646:	2300      	movs	r3, #0
 8001648:	637b      	str	r3, [r7, #52]	; 0x34
  if (HAL_RCC_OscConfig(&RCC_OscInitStruct) != HAL_OK)
 800164a:	f107 0318 	add.w	r3, r7, #24
 800164e:	4618      	mov	r0, r3
 8001650:	f004 ff70 	bl	8006534 <HAL_RCC_OscConfig>
 8001654:	4603      	mov	r3, r0
 8001656:	2b00      	cmp	r3, #0
 8001658:	d001      	beq.n	800165e <SystemClock_Config+0x46>
  {
    Error_Handler();
 800165a:	f000 f9f5 	bl	8001a48 <Error_Handler>
  }

  /** Initializes the CPU, AHB and APB buses clocks
  */
  RCC_ClkInitStruct.ClockType = RCC_CLOCKTYPE_HCLK|RCC_CLOCKTYPE_SYSCLK
 800165e:	230f      	movs	r3, #15
 8001660:	607b      	str	r3, [r7, #4]
                              |RCC_CLOCKTYPE_PCLK1|RCC_CLOCKTYPE_PCLK2;
  RCC_ClkInitStruct.SYSCLKSource = RCC_SYSCLKSOURCE_HSI;
 8001662:	2300      	movs	r3, #0
 8001664:	60bb      	str	r3, [r7, #8]
  RCC_ClkInitStruct.AHBCLKDivider = RCC_SYSCLK_DIV1;
 8001666:	2300      	movs	r3, #0
 8001668:	60fb      	str	r3, [r7, #12]
  RCC_ClkInitStruct.APB1CLKDivider = RCC_HCLK_DIV1;
 800166a:	2300      	movs	r3, #0
 800166c:	613b      	str	r3, [r7, #16]
  RCC_ClkInitStruct.APB2CLKDivider = RCC_HCLK_DIV1;
 800166e:	2300      	movs	r3, #0
 8001670:	617b      	str	r3, [r7, #20]

  if (HAL_RCC_ClockConfig(&RCC_ClkInitStruct, FLASH_LATENCY_0) != HAL_OK)
 8001672:	1d3b      	adds	r3, r7, #4
 8001674:	2100      	movs	r1, #0
 8001676:	4618      	mov	r0, r3
 8001678:	f005 f9de 	bl	8006a38 <HAL_RCC_ClockConfig>
 800167c:	4603      	mov	r3, r0
 800167e:	2b00      	cmp	r3, #0
 8001680:	d001      	beq.n	8001686 <SystemClock_Config+0x6e>
  {
    Error_Handler();
 8001682:	f000 f9e1 	bl	8001a48 <Error_Handler>
  }
}
 8001686:	bf00      	nop
 8001688:	3740      	adds	r7, #64	; 0x40
 800168a:	46bd      	mov	sp, r7
 800168c:	bd80      	pop	{r7, pc}
	...

08001690 <MX_I2C1_Init>:
  * @brief I2C1 Initialization Function
  * @param None
  * @retval None
  */
static void MX_I2C1_Init(void)
{
 8001690:	b580      	push	{r7, lr}
 8001692:	af00      	add	r7, sp, #0
  /* USER CODE END I2C1_Init 0 */

  /* USER CODE BEGIN I2C1_Init 1 */

  /* USER CODE END I2C1_Init 1 */
  hi2c1.Instance = I2C1;
 8001694:	4b12      	ldr	r3, [pc, #72]	; (80016e0 <MX_I2C1_Init+0x50>)
 8001696:	4a13      	ldr	r2, [pc, #76]	; (80016e4 <MX_I2C1_Init+0x54>)
 8001698:	601a      	str	r2, [r3, #0]
  hi2c1.Init.ClockSpeed = 100000;
 800169a:	4b11      	ldr	r3, [pc, #68]	; (80016e0 <MX_I2C1_Init+0x50>)
 800169c:	4a12      	ldr	r2, [pc, #72]	; (80016e8 <MX_I2C1_Init+0x58>)
 800169e:	605a      	str	r2, [r3, #4]
  hi2c1.Init.DutyCycle = I2C_DUTYCYCLE_2;
 80016a0:	4b0f      	ldr	r3, [pc, #60]	; (80016e0 <MX_I2C1_Init+0x50>)
 80016a2:	2200      	movs	r2, #0
 80016a4:	609a      	str	r2, [r3, #8]
  hi2c1.Init.OwnAddress1 = 0;
 80016a6:	4b0e      	ldr	r3, [pc, #56]	; (80016e0 <MX_I2C1_Init+0x50>)
 80016a8:	2200      	movs	r2, #0
 80016aa:	60da      	str	r2, [r3, #12]
  hi2c1.Init.AddressingMode = I2C_ADDRESSINGMODE_7BIT;
 80016ac:	4b0c      	ldr	r3, [pc, #48]	; (80016e0 <MX_I2C1_Init+0x50>)
 80016ae:	f44f 4280 	mov.w	r2, #16384	; 0x4000
 80016b2:	611a      	str	r2, [r3, #16]
  hi2c1.Init.DualAddressMode = I2C_DUALADDRESS_DISABLE;
 80016b4:	4b0a      	ldr	r3, [pc, #40]	; (80016e0 <MX_I2C1_Init+0x50>)
 80016b6:	2200      	movs	r2, #0
 80016b8:	615a      	str	r2, [r3, #20]
  hi2c1.Init.OwnAddress2 = 0;
 80016ba:	4b09      	ldr	r3, [pc, #36]	; (80016e0 <MX_I2C1_Init+0x50>)
 80016bc:	2200      	movs	r2, #0
 80016be:	619a      	str	r2, [r3, #24]
  hi2c1.Init.GeneralCallMode = I2C_GENERALCALL_DISABLE;
 80016c0:	4b07      	ldr	r3, [pc, #28]	; (80016e0 <MX_I2C1_Init+0x50>)
 80016c2:	2200      	movs	r2, #0
 80016c4:	61da      	str	r2, [r3, #28]
  hi2c1.Init.NoStretchMode = I2C_NOSTRETCH_DISABLE;
 80016c6:	4b06      	ldr	r3, [pc, #24]	; (80016e0 <MX_I2C1_Init+0x50>)
 80016c8:	2200      	movs	r2, #0
 80016ca:	621a      	str	r2, [r3, #32]
  if (HAL_I2C_Init(&hi2c1) != HAL_OK)
 80016cc:	4804      	ldr	r0, [pc, #16]	; (80016e0 <MX_I2C1_Init+0x50>)
 80016ce:	f003 fed7 	bl	8005480 <HAL_I2C_Init>
 80016d2:	4603      	mov	r3, r0
 80016d4:	2b00      	cmp	r3, #0
 80016d6:	d001      	beq.n	80016dc <MX_I2C1_Init+0x4c>
  {
    Error_Handler();
 80016d8:	f000 f9b6 	bl	8001a48 <Error_Handler>
  }
  /* USER CODE BEGIN I2C1_Init 2 */

  /* USER CODE END I2C1_Init 2 */

}
 80016dc:	bf00      	nop
 80016de:	bd80      	pop	{r7, pc}
 80016e0:	20000398 	.word	0x20000398
 80016e4:	40005400 	.word	0x40005400
 80016e8:	000186a0 	.word	0x000186a0

080016ec <MX_TIM1_Init>:
  * @brief TIM1 Initialization Function
  * @param None
  * @retval None
  */
static void MX_TIM1_Init(void)
{
 80016ec:	b580      	push	{r7, lr}
 80016ee:	b086      	sub	sp, #24
 80016f0:	af00      	add	r7, sp, #0

  /* USER CODE BEGIN TIM1_Init 0 */

  /* USER CODE END TIM1_Init 0 */

  TIM_ClockConfigTypeDef sClockSourceConfig = {0};
 80016f2:	f107 0308 	add.w	r3, r7, #8
 80016f6:	2200      	movs	r2, #0
 80016f8:	601a      	str	r2, [r3, #0]
 80016fa:	605a      	str	r2, [r3, #4]
 80016fc:	609a      	str	r2, [r3, #8]
 80016fe:	60da      	str	r2, [r3, #12]
  TIM_MasterConfigTypeDef sMasterConfig = {0};
 8001700:	463b      	mov	r3, r7
 8001702:	2200      	movs	r2, #0
 8001704:	601a      	str	r2, [r3, #0]
 8001706:	605a      	str	r2, [r3, #4]

  /* USER CODE BEGIN TIM1_Init 1 */

  /* USER CODE END TIM1_Init 1 */
  htim1.Instance = TIM1;
 8001708:	4b1e      	ldr	r3, [pc, #120]	; (8001784 <MX_TIM1_Init+0x98>)
 800170a:	4a1f      	ldr	r2, [pc, #124]	; (8001788 <MX_TIM1_Init+0x9c>)
 800170c:	601a      	str	r2, [r3, #0]
  htim1.Init.Prescaler = 799;
 800170e:	4b1d      	ldr	r3, [pc, #116]	; (8001784 <MX_TIM1_Init+0x98>)
 8001710:	f240 321f 	movw	r2, #799	; 0x31f
 8001714:	605a      	str	r2, [r3, #4]
  htim1.Init.CounterMode = TIM_COUNTERMODE_UP;
 8001716:	4b1b      	ldr	r3, [pc, #108]	; (8001784 <MX_TIM1_Init+0x98>)
 8001718:	2200      	movs	r2, #0
 800171a:	609a      	str	r2, [r3, #8]
  htim1.Init.Period = 99;
 800171c:	4b19      	ldr	r3, [pc, #100]	; (8001784 <MX_TIM1_Init+0x98>)
 800171e:	2263      	movs	r2, #99	; 0x63
 8001720:	60da      	str	r2, [r3, #12]
  htim1.Init.ClockDivision = TIM_CLOCKDIVISION_DIV1;
 8001722:	4b18      	ldr	r3, [pc, #96]	; (8001784 <MX_TIM1_Init+0x98>)
 8001724:	2200      	movs	r2, #0
 8001726:	611a      	str	r2, [r3, #16]
  htim1.Init.RepetitionCounter = 0;
 8001728:	4b16      	ldr	r3, [pc, #88]	; (8001784 <MX_TIM1_Init+0x98>)
 800172a:	2200      	movs	r2, #0
 800172c:	615a      	str	r2, [r3, #20]
  htim1.Init.AutoReloadPreload = TIM_AUTORELOAD_PRELOAD_DISABLE;
 800172e:	4b15      	ldr	r3, [pc, #84]	; (8001784 <MX_TIM1_Init+0x98>)
 8001730:	2200      	movs	r2, #0
 8001732:	619a      	str	r2, [r3, #24]
  if (HAL_TIM_Base_Init(&htim1) != HAL_OK)
 8001734:	4813      	ldr	r0, [pc, #76]	; (8001784 <MX_TIM1_Init+0x98>)
 8001736:	f005 fb0d 	bl	8006d54 <HAL_TIM_Base_Init>
 800173a:	4603      	mov	r3, r0
 800173c:	2b00      	cmp	r3, #0
 800173e:	d001      	beq.n	8001744 <MX_TIM1_Init+0x58>
  {
    Error_Handler();
 8001740:	f000 f982 	bl	8001a48 <Error_Handler>
  }
  sClockSourceConfig.ClockSource = TIM_CLOCKSOURCE_INTERNAL;
 8001744:	f44f 5380 	mov.w	r3, #4096	; 0x1000
 8001748:	60bb      	str	r3, [r7, #8]
  if (HAL_TIM_ConfigClockSource(&htim1, &sClockSourceConfig) != HAL_OK)
 800174a:	f107 0308 	add.w	r3, r7, #8
 800174e:	4619      	mov	r1, r3
 8001750:	480c      	ldr	r0, [pc, #48]	; (8001784 <MX_TIM1_Init+0x98>)
 8001752:	f005 fe5d 	bl	8007410 <HAL_TIM_ConfigClockSource>
 8001756:	4603      	mov	r3, r0
 8001758:	2b00      	cmp	r3, #0
 800175a:	d001      	beq.n	8001760 <MX_TIM1_Init+0x74>
  {
    Error_Handler();
 800175c:	f000 f974 	bl	8001a48 <Error_Handler>
  }
  sMasterConfig.MasterOutputTrigger = TIM_TRGO_RESET;
 8001760:	2300      	movs	r3, #0
 8001762:	603b      	str	r3, [r7, #0]
  sMasterConfig.MasterSlaveMode = TIM_MASTERSLAVEMODE_DISABLE;
 8001764:	2300      	movs	r3, #0
 8001766:	607b      	str	r3, [r7, #4]
  if (HAL_TIMEx_MasterConfigSynchronization(&htim1, &sMasterConfig) != HAL_OK)
 8001768:	463b      	mov	r3, r7
 800176a:	4619      	mov	r1, r3
 800176c:	4805      	ldr	r0, [pc, #20]	; (8001784 <MX_TIM1_Init+0x98>)
 800176e:	f006 f9df 	bl	8007b30 <HAL_TIMEx_MasterConfigSynchronization>
 8001772:	4603      	mov	r3, r0
 8001774:	2b00      	cmp	r3, #0
 8001776:	d001      	beq.n	800177c <MX_TIM1_Init+0x90>
  {
    Error_Handler();
 8001778:	f000 f966 	bl	8001a48 <Error_Handler>
  }

  /* USER CODE BEGIN TIM1_Init 2 */
  /* USER CODE END TIM1_Init 2 */
}
 800177c:	bf00      	nop
 800177e:	3718      	adds	r7, #24
 8001780:	46bd      	mov	sp, r7
 8001782:	bd80      	pop	{r7, pc}
 8001784:	200003ec 	.word	0x200003ec
 8001788:	40012c00 	.word	0x40012c00

0800178c <MX_TIM3_Init>:
  * @brief TIM3 Initialization Function
  * @param None
  * @retval None
  */
static void MX_TIM3_Init(void)
{
 800178c:	b580      	push	{r7, lr}
 800178e:	b08a      	sub	sp, #40	; 0x28
 8001790:	af00      	add	r7, sp, #0

  /* USER CODE BEGIN TIM3_Init 0 */

  /* USER CODE END TIM3_Init 0 */

  TIM_MasterConfigTypeDef sMasterConfig = {0};
 8001792:	f107 0320 	add.w	r3, r7, #32
 8001796:	2200      	movs	r2, #0
 8001798:	601a      	str	r2, [r3, #0]
 800179a:	605a      	str	r2, [r3, #4]
  TIM_OC_InitTypeDef sConfigOC = {0};
 800179c:	1d3b      	adds	r3, r7, #4
 800179e:	2200      	movs	r2, #0
 80017a0:	601a      	str	r2, [r3, #0]
 80017a2:	605a      	str	r2, [r3, #4]
 80017a4:	609a      	str	r2, [r3, #8]
 80017a6:	60da      	str	r2, [r3, #12]
 80017a8:	611a      	str	r2, [r3, #16]
 80017aa:	615a      	str	r2, [r3, #20]
 80017ac:	619a      	str	r2, [r3, #24]

  /* USER CODE BEGIN TIM3_Init 1 */

  /* USER CODE END TIM3_Init 1 */
  htim3.Instance = TIM3;
 80017ae:	4b27      	ldr	r3, [pc, #156]	; (800184c <MX_TIM3_Init+0xc0>)
 80017b0:	4a27      	ldr	r2, [pc, #156]	; (8001850 <MX_TIM3_Init+0xc4>)
 80017b2:	601a      	str	r2, [r3, #0]
  htim3.Init.Prescaler = 79;
 80017b4:	4b25      	ldr	r3, [pc, #148]	; (800184c <MX_TIM3_Init+0xc0>)
 80017b6:	224f      	movs	r2, #79	; 0x4f
 80017b8:	605a      	str	r2, [r3, #4]
  htim3.Init.CounterMode = TIM_COUNTERMODE_UP;
 80017ba:	4b24      	ldr	r3, [pc, #144]	; (800184c <MX_TIM3_Init+0xc0>)
 80017bc:	2200      	movs	r2, #0
 80017be:	609a      	str	r2, [r3, #8]
  htim3.Init.Period = 1999;
 80017c0:	4b22      	ldr	r3, [pc, #136]	; (800184c <MX_TIM3_Init+0xc0>)
 80017c2:	f240 72cf 	movw	r2, #1999	; 0x7cf
 80017c6:	60da      	str	r2, [r3, #12]
  htim3.Init.ClockDivision = TIM_CLOCKDIVISION_DIV1;
 80017c8:	4b20      	ldr	r3, [pc, #128]	; (800184c <MX_TIM3_Init+0xc0>)
 80017ca:	2200      	movs	r2, #0
 80017cc:	611a      	str	r2, [r3, #16]
  htim3.Init.AutoReloadPreload = TIM_AUTORELOAD_PRELOAD_DISABLE;
 80017ce:	4b1f      	ldr	r3, [pc, #124]	; (800184c <MX_TIM3_Init+0xc0>)
 80017d0:	2200      	movs	r2, #0
 80017d2:	619a      	str	r2, [r3, #24]
  if (HAL_TIM_PWM_Init(&htim3) != HAL_OK)
 80017d4:	481d      	ldr	r0, [pc, #116]	; (800184c <MX_TIM3_Init+0xc0>)
 80017d6:	f005 fb5f 	bl	8006e98 <HAL_TIM_PWM_Init>
 80017da:	4603      	mov	r3, r0
 80017dc:	2b00      	cmp	r3, #0
 80017de:	d001      	beq.n	80017e4 <MX_TIM3_Init+0x58>
  {
    Error_Handler();
 80017e0:	f000 f932 	bl	8001a48 <Error_Handler>
  }
  sMasterConfig.MasterOutputTrigger = TIM_TRGO_RESET;
 80017e4:	2300      	movs	r3, #0
 80017e6:	623b      	str	r3, [r7, #32]
  sMasterConfig.MasterSlaveMode = TIM_MASTERSLAVEMODE_DISABLE;
 80017e8:	2300      	movs	r3, #0
 80017ea:	627b      	str	r3, [r7, #36]	; 0x24
  if (HAL_TIMEx_MasterConfigSynchronization(&htim3, &sMasterConfig) != HAL_OK)
 80017ec:	f107 0320 	add.w	r3, r7, #32
 80017f0:	4619      	mov	r1, r3
 80017f2:	4816      	ldr	r0, [pc, #88]	; (800184c <MX_TIM3_Init+0xc0>)
 80017f4:	f006 f99c 	bl	8007b30 <HAL_TIMEx_MasterConfigSynchronization>
 80017f8:	4603      	mov	r3, r0
 80017fa:	2b00      	cmp	r3, #0
 80017fc:	d001      	beq.n	8001802 <MX_TIM3_Init+0x76>
  {
    Error_Handler();
 80017fe:	f000 f923 	bl	8001a48 <Error_Handler>
  }
  sConfigOC.OCMode = TIM_OCMODE_PWM1;
 8001802:	2360      	movs	r3, #96	; 0x60
 8001804:	607b      	str	r3, [r7, #4]
  sConfigOC.Pulse = 0;
 8001806:	2300      	movs	r3, #0
 8001808:	60bb      	str	r3, [r7, #8]
  sConfigOC.OCPolarity = TIM_OCPOLARITY_HIGH;
 800180a:	2300      	movs	r3, #0
 800180c:	60fb      	str	r3, [r7, #12]
  sConfigOC.OCFastMode = TIM_OCFAST_DISABLE;
 800180e:	2300      	movs	r3, #0
 8001810:	617b      	str	r3, [r7, #20]
  if (HAL_TIM_PWM_ConfigChannel(&htim3, &sConfigOC, TIM_CHANNEL_1) != HAL_OK)
 8001812:	1d3b      	adds	r3, r7, #4
 8001814:	2200      	movs	r2, #0
 8001816:	4619      	mov	r1, r3
 8001818:	480c      	ldr	r0, [pc, #48]	; (800184c <MX_TIM3_Init+0xc0>)
 800181a:	f005 fd37 	bl	800728c <HAL_TIM_PWM_ConfigChannel>
 800181e:	4603      	mov	r3, r0
 8001820:	2b00      	cmp	r3, #0
 8001822:	d001      	beq.n	8001828 <MX_TIM3_Init+0x9c>
  {
    Error_Handler();
 8001824:	f000 f910 	bl	8001a48 <Error_Handler>
  }
  if (HAL_TIM_PWM_ConfigChannel(&htim3, &sConfigOC, TIM_CHANNEL_2) != HAL_OK)
 8001828:	1d3b      	adds	r3, r7, #4
 800182a:	2204      	movs	r2, #4
 800182c:	4619      	mov	r1, r3
 800182e:	4807      	ldr	r0, [pc, #28]	; (800184c <MX_TIM3_Init+0xc0>)
 8001830:	f005 fd2c 	bl	800728c <HAL_TIM_PWM_ConfigChannel>
 8001834:	4603      	mov	r3, r0
 8001836:	2b00      	cmp	r3, #0
 8001838:	d001      	beq.n	800183e <MX_TIM3_Init+0xb2>
  {
    Error_Handler();
 800183a:	f000 f905 	bl	8001a48 <Error_Handler>
  }
  /* USER CODE BEGIN TIM3_Init 2 */

  /* USER CODE END TIM3_Init 2 */
  HAL_TIM_MspPostInit(&htim3);
 800183e:	4803      	ldr	r0, [pc, #12]	; (800184c <MX_TIM3_Init+0xc0>)
 8001840:	f003 f908 	bl	8004a54 <HAL_TIM_MspPostInit>

}
 8001844:	bf00      	nop
 8001846:	3728      	adds	r7, #40	; 0x28
 8001848:	46bd      	mov	sp, r7
 800184a:	bd80      	pop	{r7, pc}
 800184c:	20000434 	.word	0x20000434
 8001850:	40000400 	.word	0x40000400

08001854 <MX_TIM4_Init>:
  * @brief TIM4 Initialization Function
  * @param None
  * @retval None
  */
static void MX_TIM4_Init(void)
{
 8001854:	b580      	push	{r7, lr}
 8001856:	b08a      	sub	sp, #40	; 0x28
 8001858:	af00      	add	r7, sp, #0

  /* USER CODE BEGIN TIM4_Init 0 */

  /* USER CODE END TIM4_Init 0 */

  TIM_MasterConfigTypeDef sMasterConfig = {0};
 800185a:	f107 0320 	add.w	r3, r7, #32
 800185e:	2200      	movs	r2, #0
 8001860:	601a      	str	r2, [r3, #0]
 8001862:	605a      	str	r2, [r3, #4]
  TIM_OC_InitTypeDef sConfigOC = {0};
 8001864:	1d3b      	adds	r3, r7, #4
 8001866:	2200      	movs	r2, #0
 8001868:	601a      	str	r2, [r3, #0]
 800186a:	605a      	str	r2, [r3, #4]
 800186c:	609a      	str	r2, [r3, #8]
 800186e:	60da      	str	r2, [r3, #12]
 8001870:	611a      	str	r2, [r3, #16]
 8001872:	615a      	str	r2, [r3, #20]
 8001874:	619a      	str	r2, [r3, #24]

  /* USER CODE BEGIN TIM4_Init 1 */

  /* USER CODE END TIM4_Init 1 */
  htim4.Instance = TIM4;
 8001876:	4b27      	ldr	r3, [pc, #156]	; (8001914 <MX_TIM4_Init+0xc0>)
 8001878:	4a27      	ldr	r2, [pc, #156]	; (8001918 <MX_TIM4_Init+0xc4>)
 800187a:	601a      	str	r2, [r3, #0]
  htim4.Init.Prescaler = 79;
 800187c:	4b25      	ldr	r3, [pc, #148]	; (8001914 <MX_TIM4_Init+0xc0>)
 800187e:	224f      	movs	r2, #79	; 0x4f
 8001880:	605a      	str	r2, [r3, #4]
  htim4.Init.CounterMode = TIM_COUNTERMODE_UP;
 8001882:	4b24      	ldr	r3, [pc, #144]	; (8001914 <MX_TIM4_Init+0xc0>)
 8001884:	2200      	movs	r2, #0
 8001886:	609a      	str	r2, [r3, #8]
  htim4.Init.Period = 1999;
 8001888:	4b22      	ldr	r3, [pc, #136]	; (8001914 <MX_TIM4_Init+0xc0>)
 800188a:	f240 72cf 	movw	r2, #1999	; 0x7cf
 800188e:	60da      	str	r2, [r3, #12]
  htim4.Init.ClockDivision = TIM_CLOCKDIVISION_DIV1;
 8001890:	4b20      	ldr	r3, [pc, #128]	; (8001914 <MX_TIM4_Init+0xc0>)
 8001892:	2200      	movs	r2, #0
 8001894:	611a      	str	r2, [r3, #16]
  htim4.Init.AutoReloadPreload = TIM_AUTORELOAD_PRELOAD_DISABLE;
 8001896:	4b1f      	ldr	r3, [pc, #124]	; (8001914 <MX_TIM4_Init+0xc0>)
 8001898:	2200      	movs	r2, #0
 800189a:	619a      	str	r2, [r3, #24]
  if (HAL_TIM_PWM_Init(&htim4) != HAL_OK)
 800189c:	481d      	ldr	r0, [pc, #116]	; (8001914 <MX_TIM4_Init+0xc0>)
 800189e:	f005 fafb 	bl	8006e98 <HAL_TIM_PWM_Init>
 80018a2:	4603      	mov	r3, r0
 80018a4:	2b00      	cmp	r3, #0
 80018a6:	d001      	beq.n	80018ac <MX_TIM4_Init+0x58>
  {
    Error_Handler();
 80018a8:	f000 f8ce 	bl	8001a48 <Error_Handler>
  }
  sMasterConfig.MasterOutputTrigger = TIM_TRGO_RESET;
 80018ac:	2300      	movs	r3, #0
 80018ae:	623b      	str	r3, [r7, #32]
  sMasterConfig.MasterSlaveMode = TIM_MASTERSLAVEMODE_DISABLE;
 80018b0:	2300      	movs	r3, #0
 80018b2:	627b      	str	r3, [r7, #36]	; 0x24
  if (HAL_TIMEx_MasterConfigSynchronization(&htim4, &sMasterConfig) != HAL_OK)
 80018b4:	f107 0320 	add.w	r3, r7, #32
 80018b8:	4619      	mov	r1, r3
 80018ba:	4816      	ldr	r0, [pc, #88]	; (8001914 <MX_TIM4_Init+0xc0>)
 80018bc:	f006 f938 	bl	8007b30 <HAL_TIMEx_MasterConfigSynchronization>
 80018c0:	4603      	mov	r3, r0
 80018c2:	2b00      	cmp	r3, #0
 80018c4:	d001      	beq.n	80018ca <MX_TIM4_Init+0x76>
  {
    Error_Handler();
 80018c6:	f000 f8bf 	bl	8001a48 <Error_Handler>
  }
  sConfigOC.OCMode = TIM_OCMODE_PWM1;
 80018ca:	2360      	movs	r3, #96	; 0x60
 80018cc:	607b      	str	r3, [r7, #4]
  sConfigOC.Pulse = 0;
 80018ce:	2300      	movs	r3, #0
 80018d0:	60bb      	str	r3, [r7, #8]
  sConfigOC.OCPolarity = TIM_OCPOLARITY_HIGH;
 80018d2:	2300      	movs	r3, #0
 80018d4:	60fb      	str	r3, [r7, #12]
  sConfigOC.OCFastMode = TIM_OCFAST_DISABLE;
 80018d6:	2300      	movs	r3, #0
 80018d8:	617b      	str	r3, [r7, #20]
  if (HAL_TIM_PWM_ConfigChannel(&htim4, &sConfigOC, TIM_CHANNEL_1) != HAL_OK)
 80018da:	1d3b      	adds	r3, r7, #4
 80018dc:	2200      	movs	r2, #0
 80018de:	4619      	mov	r1, r3
 80018e0:	480c      	ldr	r0, [pc, #48]	; (8001914 <MX_TIM4_Init+0xc0>)
 80018e2:	f005 fcd3 	bl	800728c <HAL_TIM_PWM_ConfigChannel>
 80018e6:	4603      	mov	r3, r0
 80018e8:	2b00      	cmp	r3, #0
 80018ea:	d001      	beq.n	80018f0 <MX_TIM4_Init+0x9c>
  {
    Error_Handler();
 80018ec:	f000 f8ac 	bl	8001a48 <Error_Handler>
  }
  if (HAL_TIM_PWM_ConfigChannel(&htim4, &sConfigOC, TIM_CHANNEL_2) != HAL_OK)
 80018f0:	1d3b      	adds	r3, r7, #4
 80018f2:	2204      	movs	r2, #4
 80018f4:	4619      	mov	r1, r3
 80018f6:	4807      	ldr	r0, [pc, #28]	; (8001914 <MX_TIM4_Init+0xc0>)
 80018f8:	f005 fcc8 	bl	800728c <HAL_TIM_PWM_ConfigChannel>
 80018fc:	4603      	mov	r3, r0
 80018fe:	2b00      	cmp	r3, #0
 8001900:	d001      	beq.n	8001906 <MX_TIM4_Init+0xb2>
  {
    Error_Handler();
 8001902:	f000 f8a1 	bl	8001a48 <Error_Handler>
  }
  /* USER CODE BEGIN TIM4_Init 2 */

  /* USER CODE END TIM4_Init 2 */
  HAL_TIM_MspPostInit(&htim4);
 8001906:	4803      	ldr	r0, [pc, #12]	; (8001914 <MX_TIM4_Init+0xc0>)
 8001908:	f003 f8a4 	bl	8004a54 <HAL_TIM_MspPostInit>

}
 800190c:	bf00      	nop
 800190e:	3728      	adds	r7, #40	; 0x28
 8001910:	46bd      	mov	sp, r7
 8001912:	bd80      	pop	{r7, pc}
 8001914:	2000047c 	.word	0x2000047c
 8001918:	40000800 	.word	0x40000800

0800191c <MX_USART1_UART_Init>:
  * @brief USART1 Initialization Function
  * @param None
  * @retval None
  */
static void MX_USART1_UART_Init(void)
{
 800191c:	b580      	push	{r7, lr}
 800191e:	af00      	add	r7, sp, #0
  /* USER CODE END USART1_Init 0 */

  /* USER CODE BEGIN USART1_Init 1 */

  /* USER CODE END USART1_Init 1 */
  huart1.Instance = USART1;
 8001920:	4b11      	ldr	r3, [pc, #68]	; (8001968 <MX_USART1_UART_Init+0x4c>)
 8001922:	4a12      	ldr	r2, [pc, #72]	; (800196c <MX_USART1_UART_Init+0x50>)
 8001924:	601a      	str	r2, [r3, #0]
  huart1.Init.BaudRate = 9600;
 8001926:	4b10      	ldr	r3, [pc, #64]	; (8001968 <MX_USART1_UART_Init+0x4c>)
 8001928:	f44f 5216 	mov.w	r2, #9600	; 0x2580
 800192c:	605a      	str	r2, [r3, #4]
  huart1.Init.WordLength = UART_WORDLENGTH_8B;
 800192e:	4b0e      	ldr	r3, [pc, #56]	; (8001968 <MX_USART1_UART_Init+0x4c>)
 8001930:	2200      	movs	r2, #0
 8001932:	609a      	str	r2, [r3, #8]
  huart1.Init.StopBits = UART_STOPBITS_1;
 8001934:	4b0c      	ldr	r3, [pc, #48]	; (8001968 <MX_USART1_UART_Init+0x4c>)
 8001936:	2200      	movs	r2, #0
 8001938:	60da      	str	r2, [r3, #12]
  huart1.Init.Parity = UART_PARITY_NONE;
 800193a:	4b0b      	ldr	r3, [pc, #44]	; (8001968 <MX_USART1_UART_Init+0x4c>)
 800193c:	2200      	movs	r2, #0
 800193e:	611a      	str	r2, [r3, #16]
  huart1.Init.Mode = UART_MODE_TX_RX;
 8001940:	4b09      	ldr	r3, [pc, #36]	; (8001968 <MX_USART1_UART_Init+0x4c>)
 8001942:	220c      	movs	r2, #12
 8001944:	615a      	str	r2, [r3, #20]
  huart1.Init.HwFlowCtl = UART_HWCONTROL_NONE;
 8001946:	4b08      	ldr	r3, [pc, #32]	; (8001968 <MX_USART1_UART_Init+0x4c>)
 8001948:	2200      	movs	r2, #0
 800194a:	619a      	str	r2, [r3, #24]
  huart1.Init.OverSampling = UART_OVERSAMPLING_16;
 800194c:	4b06      	ldr	r3, [pc, #24]	; (8001968 <MX_USART1_UART_Init+0x4c>)
 800194e:	2200      	movs	r2, #0
 8001950:	61da      	str	r2, [r3, #28]
  if (HAL_UART_Init(&huart1) != HAL_OK)
 8001952:	4805      	ldr	r0, [pc, #20]	; (8001968 <MX_USART1_UART_Init+0x4c>)
 8001954:	f006 f95c 	bl	8007c10 <HAL_UART_Init>
 8001958:	4603      	mov	r3, r0
 800195a:	2b00      	cmp	r3, #0
 800195c:	d001      	beq.n	8001962 <MX_USART1_UART_Init+0x46>
  {
    Error_Handler();
 800195e:	f000 f873 	bl	8001a48 <Error_Handler>
  }
  /* USER CODE BEGIN USART1_Init 2 */

  /* USER CODE END USART1_Init 2 */

}
 8001962:	bf00      	nop
 8001964:	bd80      	pop	{r7, pc}
 8001966:	bf00      	nop
 8001968:	200004c4 	.word	0x200004c4
 800196c:	40013800 	.word	0x40013800

08001970 <MX_GPIO_Init>:
  * @brief GPIO Initialization Function
  * @param None
  * @retval None
  */
static void MX_GPIO_Init(void)
{
 8001970:	b580      	push	{r7, lr}
 8001972:	b088      	sub	sp, #32
 8001974:	af00      	add	r7, sp, #0
  GPIO_InitTypeDef GPIO_InitStruct = {0};
 8001976:	f107 0310 	add.w	r3, r7, #16
 800197a:	2200      	movs	r2, #0
 800197c:	601a      	str	r2, [r3, #0]
 800197e:	605a      	str	r2, [r3, #4]
 8001980:	609a      	str	r2, [r3, #8]
 8001982:	60da      	str	r2, [r3, #12]
/* USER CODE BEGIN MX_GPIO_Init_1 */
/* USER CODE END MX_GPIO_Init_1 */

  /* GPIO Ports Clock Enable */
  __HAL_RCC_GPIOC_CLK_ENABLE();
 8001984:	4b2d      	ldr	r3, [pc, #180]	; (8001a3c <MX_GPIO_Init+0xcc>)
 8001986:	699b      	ldr	r3, [r3, #24]
 8001988:	4a2c      	ldr	r2, [pc, #176]	; (8001a3c <MX_GPIO_Init+0xcc>)
 800198a:	f043 0310 	orr.w	r3, r3, #16
 800198e:	6193      	str	r3, [r2, #24]
 8001990:	4b2a      	ldr	r3, [pc, #168]	; (8001a3c <MX_GPIO_Init+0xcc>)
 8001992:	699b      	ldr	r3, [r3, #24]
 8001994:	f003 0310 	and.w	r3, r3, #16
 8001998:	60fb      	str	r3, [r7, #12]
 800199a:	68fb      	ldr	r3, [r7, #12]
  __HAL_RCC_GPIOD_CLK_ENABLE();
 800199c:	4b27      	ldr	r3, [pc, #156]	; (8001a3c <MX_GPIO_Init+0xcc>)
 800199e:	699b      	ldr	r3, [r3, #24]
 80019a0:	4a26      	ldr	r2, [pc, #152]	; (8001a3c <MX_GPIO_Init+0xcc>)
 80019a2:	f043 0320 	orr.w	r3, r3, #32
 80019a6:	6193      	str	r3, [r2, #24]
 80019a8:	4b24      	ldr	r3, [pc, #144]	; (8001a3c <MX_GPIO_Init+0xcc>)
 80019aa:	699b      	ldr	r3, [r3, #24]
 80019ac:	f003 0320 	and.w	r3, r3, #32
 80019b0:	60bb      	str	r3, [r7, #8]
 80019b2:	68bb      	ldr	r3, [r7, #8]
  __HAL_RCC_GPIOA_CLK_ENABLE();
 80019b4:	4b21      	ldr	r3, [pc, #132]	; (8001a3c <MX_GPIO_Init+0xcc>)
 80019b6:	699b      	ldr	r3, [r3, #24]
 80019b8:	4a20      	ldr	r2, [pc, #128]	; (8001a3c <MX_GPIO_Init+0xcc>)
 80019ba:	f043 0304 	orr.w	r3, r3, #4
 80019be:	6193      	str	r3, [r2, #24]
 80019c0:	4b1e      	ldr	r3, [pc, #120]	; (8001a3c <MX_GPIO_Init+0xcc>)
 80019c2:	699b      	ldr	r3, [r3, #24]
 80019c4:	f003 0304 	and.w	r3, r3, #4
 80019c8:	607b      	str	r3, [r7, #4]
 80019ca:	687b      	ldr	r3, [r7, #4]
  __HAL_RCC_GPIOB_CLK_ENABLE();
 80019cc:	4b1b      	ldr	r3, [pc, #108]	; (8001a3c <MX_GPIO_Init+0xcc>)
 80019ce:	699b      	ldr	r3, [r3, #24]
 80019d0:	4a1a      	ldr	r2, [pc, #104]	; (8001a3c <MX_GPIO_Init+0xcc>)
 80019d2:	f043 0308 	orr.w	r3, r3, #8
 80019d6:	6193      	str	r3, [r2, #24]
 80019d8:	4b18      	ldr	r3, [pc, #96]	; (8001a3c <MX_GPIO_Init+0xcc>)
 80019da:	699b      	ldr	r3, [r3, #24]
 80019dc:	f003 0308 	and.w	r3, r3, #8
 80019e0:	603b      	str	r3, [r7, #0]
 80019e2:	683b      	ldr	r3, [r7, #0]

  /*Configure GPIO pin Output Level */
  HAL_GPIO_WritePin(GPIOC, GPIO_PIN_13, GPIO_PIN_RESET);
 80019e4:	2200      	movs	r2, #0
 80019e6:	f44f 5100 	mov.w	r1, #8192	; 0x2000
 80019ea:	4815      	ldr	r0, [pc, #84]	; (8001a40 <MX_GPIO_Init+0xd0>)
 80019ec:	f003 fd30 	bl	8005450 <HAL_GPIO_WritePin>

  /*Configure GPIO pin Output Level */
  HAL_GPIO_WritePin(GPIOA, GPIO_PIN_3|GPIO_PIN_5, GPIO_PIN_RESET);
 80019f0:	2200      	movs	r2, #0
 80019f2:	2128      	movs	r1, #40	; 0x28
 80019f4:	4813      	ldr	r0, [pc, #76]	; (8001a44 <MX_GPIO_Init+0xd4>)
 80019f6:	f003 fd2b 	bl	8005450 <HAL_GPIO_WritePin>

  /*Configure GPIO pin : PC13 */
  GPIO_InitStruct.Pin = GPIO_PIN_13;
 80019fa:	f44f 5300 	mov.w	r3, #8192	; 0x2000
 80019fe:	613b      	str	r3, [r7, #16]
  GPIO_InitStruct.Mode = GPIO_MODE_OUTPUT_PP;
 8001a00:	2301      	movs	r3, #1
 8001a02:	617b      	str	r3, [r7, #20]
  GPIO_InitStruct.Pull = GPIO_NOPULL;
 8001a04:	2300      	movs	r3, #0
 8001a06:	61bb      	str	r3, [r7, #24]
  GPIO_InitStruct.Speed = GPIO_SPEED_FREQ_LOW;
 8001a08:	2302      	movs	r3, #2
 8001a0a:	61fb      	str	r3, [r7, #28]
  HAL_GPIO_Init(GPIOC, &GPIO_InitStruct);
 8001a0c:	f107 0310 	add.w	r3, r7, #16
 8001a10:	4619      	mov	r1, r3
 8001a12:	480b      	ldr	r0, [pc, #44]	; (8001a40 <MX_GPIO_Init+0xd0>)
 8001a14:	f003 fb98 	bl	8005148 <HAL_GPIO_Init>

  /*Configure GPIO pins : PA3 PA5 */
  GPIO_InitStruct.Pin = GPIO_PIN_3|GPIO_PIN_5;
 8001a18:	2328      	movs	r3, #40	; 0x28
 8001a1a:	613b      	str	r3, [r7, #16]
  GPIO_InitStruct.Mode = GPIO_MODE_OUTPUT_PP;
 8001a1c:	2301      	movs	r3, #1
 8001a1e:	617b      	str	r3, [r7, #20]
  GPIO_InitStruct.Pull = GPIO_NOPULL;
 8001a20:	2300      	movs	r3, #0
 8001a22:	61bb      	str	r3, [r7, #24]
  GPIO_InitStruct.Speed = GPIO_SPEED_FREQ_LOW;
 8001a24:	2302      	movs	r3, #2
 8001a26:	61fb      	str	r3, [r7, #28]
  HAL_GPIO_Init(GPIOA, &GPIO_InitStruct);
 8001a28:	f107 0310 	add.w	r3, r7, #16
 8001a2c:	4619      	mov	r1, r3
 8001a2e:	4805      	ldr	r0, [pc, #20]	; (8001a44 <MX_GPIO_Init+0xd4>)
 8001a30:	f003 fb8a 	bl	8005148 <HAL_GPIO_Init>

/* USER CODE BEGIN MX_GPIO_Init_2 */
/* USER CODE END MX_GPIO_Init_2 */
}
 8001a34:	bf00      	nop
 8001a36:	3720      	adds	r7, #32
 8001a38:	46bd      	mov	sp, r7
 8001a3a:	bd80      	pop	{r7, pc}
 8001a3c:	40021000 	.word	0x40021000
 8001a40:	40011000 	.word	0x40011000
 8001a44:	40010800 	.word	0x40010800

08001a48 <Error_Handler>:
/**
  * @brief  This function is executed in case of error occurrence.
  * @retval None
  */
void Error_Handler(void)
{
 8001a48:	b480      	push	{r7}
 8001a4a:	af00      	add	r7, sp, #0
  \details Disables IRQ interrupts by setting the I-bit in the CPSR.
           Can only be executed in Privileged modes.
 */
__STATIC_FORCEINLINE void __disable_irq(void)
{
  __ASM volatile ("cpsid i" : : : "memory");
 8001a4c:	b672      	cpsid	i
}
 8001a4e:	bf00      	nop
  /* USER CODE BEGIN Error_Handler_Debug */
  /* User can add his own implementation to report the HAL error return state */
  __disable_irq();
  while (1)
 8001a50:	e7fe      	b.n	8001a50 <Error_Handler+0x8>
	...

08001a54 <Limit_val>:
 *      Author: NGOC HOAN && Hien Nguyen
 */

#include "motor.h"

static void Limit_val(float *value){
 8001a54:	b580      	push	{r7, lr}
 8001a56:	b082      	sub	sp, #8
 8001a58:	af00      	add	r7, sp, #0
 8001a5a:	6078      	str	r0, [r7, #4]
	if(*value> VAL_MAX)  *value = VAL_MAX;
 8001a5c:	687b      	ldr	r3, [r7, #4]
 8001a5e:	681b      	ldr	r3, [r3, #0]
 8001a60:	f04f 517e 	mov.w	r1, #1065353216	; 0x3f800000
 8001a64:	4618      	mov	r0, r3
 8001a66:	f7ff fb29 	bl	80010bc <__aeabi_fcmpgt>
 8001a6a:	4603      	mov	r3, r0
 8001a6c:	2b00      	cmp	r3, #0
 8001a6e:	d003      	beq.n	8001a78 <Limit_val+0x24>
 8001a70:	687b      	ldr	r3, [r7, #4]
 8001a72:	f04f 527e 	mov.w	r2, #1065353216	; 0x3f800000
 8001a76:	601a      	str	r2, [r3, #0]
	if(*value<-VAL_MAX) *value = -VAL_MAX;
 8001a78:	687b      	ldr	r3, [r7, #4]
 8001a7a:	681b      	ldr	r3, [r3, #0]
 8001a7c:	4907      	ldr	r1, [pc, #28]	; (8001a9c <Limit_val+0x48>)
 8001a7e:	4618      	mov	r0, r3
 8001a80:	f7ff fafe 	bl	8001080 <__aeabi_fcmplt>
 8001a84:	4603      	mov	r3, r0
 8001a86:	2b00      	cmp	r3, #0
 8001a88:	d100      	bne.n	8001a8c <Limit_val+0x38>
}
 8001a8a:	e002      	b.n	8001a92 <Limit_val+0x3e>
	if(*value<-VAL_MAX) *value = -VAL_MAX;
 8001a8c:	687b      	ldr	r3, [r7, #4]
 8001a8e:	4a03      	ldr	r2, [pc, #12]	; (8001a9c <Limit_val+0x48>)
 8001a90:	601a      	str	r2, [r3, #0]
}
 8001a92:	bf00      	nop
 8001a94:	3708      	adds	r7, #8
 8001a96:	46bd      	mov	sp, r7
 8001a98:	bd80      	pop	{r7, pc}
 8001a9a:	bf00      	nop
 8001a9c:	bf800000 	.word	0xbf800000

08001aa0 <Set_duty>:

static void Set_duty(float duty, TIM_HandleTypeDef *htim, int channel){
 8001aa0:	b590      	push	{r4, r7, lr}
 8001aa2:	b085      	sub	sp, #20
 8001aa4:	af00      	add	r7, sp, #0
 8001aa6:	60f8      	str	r0, [r7, #12]
 8001aa8:	60b9      	str	r1, [r7, #8]
 8001aaa:	607a      	str	r2, [r7, #4]
	if (channel == 1){
 8001aac:	687b      	ldr	r3, [r7, #4]
 8001aae:	2b01      	cmp	r3, #1
 8001ab0:	d111      	bne.n	8001ad6 <Set_duty+0x36>
		htim->Instance->CCR1 =  (duty*MAX_CNT) + MIN_CNT;
 8001ab2:	4915      	ldr	r1, [pc, #84]	; (8001b08 <Set_duty+0x68>)
 8001ab4:	68f8      	ldr	r0, [r7, #12]
 8001ab6:	f7ff f945 	bl	8000d44 <__aeabi_fmul>
 8001aba:	4603      	mov	r3, r0
 8001abc:	4913      	ldr	r1, [pc, #76]	; (8001b0c <Set_duty+0x6c>)
 8001abe:	4618      	mov	r0, r3
 8001ac0:	f7ff f838 	bl	8000b34 <__addsf3>
 8001ac4:	4603      	mov	r3, r0
 8001ac6:	461a      	mov	r2, r3
 8001ac8:	68bb      	ldr	r3, [r7, #8]
 8001aca:	681c      	ldr	r4, [r3, #0]
 8001acc:	4610      	mov	r0, r2
 8001ace:	f7ff fb25 	bl	800111c <__aeabi_f2uiz>
 8001ad2:	4603      	mov	r3, r0
 8001ad4:	6363      	str	r3, [r4, #52]	; 0x34
	}
	if (channel == 2){
 8001ad6:	687b      	ldr	r3, [r7, #4]
 8001ad8:	2b02      	cmp	r3, #2
 8001ada:	d111      	bne.n	8001b00 <Set_duty+0x60>
		htim->Instance->CCR2 =  (duty*MAX_CNT) + MIN_CNT;
 8001adc:	490a      	ldr	r1, [pc, #40]	; (8001b08 <Set_duty+0x68>)
 8001ade:	68f8      	ldr	r0, [r7, #12]
 8001ae0:	f7ff f930 	bl	8000d44 <__aeabi_fmul>
 8001ae4:	4603      	mov	r3, r0
 8001ae6:	4909      	ldr	r1, [pc, #36]	; (8001b0c <Set_duty+0x6c>)
 8001ae8:	4618      	mov	r0, r3
 8001aea:	f7ff f823 	bl	8000b34 <__addsf3>
 8001aee:	4603      	mov	r3, r0
 8001af0:	461a      	mov	r2, r3
 8001af2:	68bb      	ldr	r3, [r7, #8]
 8001af4:	681c      	ldr	r4, [r3, #0]
 8001af6:	4610      	mov	r0, r2
 8001af8:	f7ff fb10 	bl	800111c <__aeabi_f2uiz>
 8001afc:	4603      	mov	r3, r0
 8001afe:	63a3      	str	r3, [r4, #56]	; 0x38
	}
}
 8001b00:	bf00      	nop
 8001b02:	3714      	adds	r7, #20
 8001b04:	46bd      	mov	sp, r7
 8001b06:	bd90      	pop	{r4, r7, pc}
 8001b08:	4479c000 	.word	0x4479c000
 8001b0c:	430c0000 	.word	0x430c0000

08001b10 <Init_tim_pwm>:

void Init_tim_pwm(){
 8001b10:	b580      	push	{r7, lr}
 8001b12:	af00      	add	r7, sp, #0
	HAL_TIM_PWM_Start(&htim3, TIM_CHANNEL_1);
 8001b14:	2100      	movs	r1, #0
 8001b16:	4808      	ldr	r0, [pc, #32]	; (8001b38 <Init_tim_pwm+0x28>)
 8001b18:	f005 fa0e 	bl	8006f38 <HAL_TIM_PWM_Start>
	HAL_TIM_PWM_Start(&htim3, TIM_CHANNEL_2);
 8001b1c:	2104      	movs	r1, #4
 8001b1e:	4806      	ldr	r0, [pc, #24]	; (8001b38 <Init_tim_pwm+0x28>)
 8001b20:	f005 fa0a 	bl	8006f38 <HAL_TIM_PWM_Start>
	HAL_TIM_PWM_Start(&htim4, TIM_CHANNEL_1);
 8001b24:	2100      	movs	r1, #0
 8001b26:	4805      	ldr	r0, [pc, #20]	; (8001b3c <Init_tim_pwm+0x2c>)
 8001b28:	f005 fa06 	bl	8006f38 <HAL_TIM_PWM_Start>
	HAL_TIM_PWM_Start(&htim4, TIM_CHANNEL_2);
 8001b2c:	2104      	movs	r1, #4
 8001b2e:	4803      	ldr	r0, [pc, #12]	; (8001b3c <Init_tim_pwm+0x2c>)
 8001b30:	f005 fa02 	bl	8006f38 <HAL_TIM_PWM_Start>
}
 8001b34:	bf00      	nop
 8001b36:	bd80      	pop	{r7, pc}
 8001b38:	20000434 	.word	0x20000434
 8001b3c:	2000047c 	.word	0x2000047c

08001b40 <Stop_motor>:

static void Stop_motor(){
 8001b40:	b580      	push	{r7, lr}
 8001b42:	af00      	add	r7, sp, #0
	Set_duty(0, &htim3, 1);
 8001b44:	2201      	movs	r2, #1
 8001b46:	490c      	ldr	r1, [pc, #48]	; (8001b78 <Stop_motor+0x38>)
 8001b48:	f04f 0000 	mov.w	r0, #0
 8001b4c:	f7ff ffa8 	bl	8001aa0 <Set_duty>
	Set_duty(0, &htim3, 2);
 8001b50:	2202      	movs	r2, #2
 8001b52:	4909      	ldr	r1, [pc, #36]	; (8001b78 <Stop_motor+0x38>)
 8001b54:	f04f 0000 	mov.w	r0, #0
 8001b58:	f7ff ffa2 	bl	8001aa0 <Set_duty>
	Set_duty(0, &htim4, 1);
 8001b5c:	2201      	movs	r2, #1
 8001b5e:	4907      	ldr	r1, [pc, #28]	; (8001b7c <Stop_motor+0x3c>)
 8001b60:	f04f 0000 	mov.w	r0, #0
 8001b64:	f7ff ff9c 	bl	8001aa0 <Set_duty>
	Set_duty(0, &htim4, 2);
 8001b68:	2202      	movs	r2, #2
 8001b6a:	4904      	ldr	r1, [pc, #16]	; (8001b7c <Stop_motor+0x3c>)
 8001b6c:	f04f 0000 	mov.w	r0, #0
 8001b70:	f7ff ff96 	bl	8001aa0 <Set_duty>
}
 8001b74:	bf00      	nop
 8001b76:	bd80      	pop	{r7, pc}
 8001b78:	20000434 	.word	0x20000434
 8001b7c:	2000047c 	.word	0x2000047c

08001b80 <Forward>:

void Forward (float duty){
 8001b80:	b580      	push	{r7, lr}
 8001b82:	b082      	sub	sp, #8
 8001b84:	af00      	add	r7, sp, #0
 8001b86:	6078      	str	r0, [r7, #4]
	Set_duty(0, &htim3, 1);
 8001b88:	2201      	movs	r2, #1
 8001b8a:	490c      	ldr	r1, [pc, #48]	; (8001bbc <Forward+0x3c>)
 8001b8c:	f04f 0000 	mov.w	r0, #0
 8001b90:	f7ff ff86 	bl	8001aa0 <Set_duty>
	Set_duty(duty, &htim3, 2);
 8001b94:	2202      	movs	r2, #2
 8001b96:	4909      	ldr	r1, [pc, #36]	; (8001bbc <Forward+0x3c>)
 8001b98:	6878      	ldr	r0, [r7, #4]
 8001b9a:	f7ff ff81 	bl	8001aa0 <Set_duty>
	Set_duty(0, &htim4, 1);
 8001b9e:	2201      	movs	r2, #1
 8001ba0:	4907      	ldr	r1, [pc, #28]	; (8001bc0 <Forward+0x40>)
 8001ba2:	f04f 0000 	mov.w	r0, #0
 8001ba6:	f7ff ff7b 	bl	8001aa0 <Set_duty>
	Set_duty(duty, &htim4, 2);
 8001baa:	2202      	movs	r2, #2
 8001bac:	4904      	ldr	r1, [pc, #16]	; (8001bc0 <Forward+0x40>)
 8001bae:	6878      	ldr	r0, [r7, #4]
 8001bb0:	f7ff ff76 	bl	8001aa0 <Set_duty>
}
 8001bb4:	bf00      	nop
 8001bb6:	3708      	adds	r7, #8
 8001bb8:	46bd      	mov	sp, r7
 8001bba:	bd80      	pop	{r7, pc}
 8001bbc:	20000434 	.word	0x20000434
 8001bc0:	2000047c 	.word	0x2000047c

08001bc4 <Reverse>:

void Reverse (float duty){
 8001bc4:	b580      	push	{r7, lr}
 8001bc6:	b082      	sub	sp, #8
 8001bc8:	af00      	add	r7, sp, #0
 8001bca:	6078      	str	r0, [r7, #4]
	Set_duty(duty, &htim3, 1);
 8001bcc:	2201      	movs	r2, #1
 8001bce:	490c      	ldr	r1, [pc, #48]	; (8001c00 <Reverse+0x3c>)
 8001bd0:	6878      	ldr	r0, [r7, #4]
 8001bd2:	f7ff ff65 	bl	8001aa0 <Set_duty>
	Set_duty(0, &htim3, 2);
 8001bd6:	2202      	movs	r2, #2
 8001bd8:	4909      	ldr	r1, [pc, #36]	; (8001c00 <Reverse+0x3c>)
 8001bda:	f04f 0000 	mov.w	r0, #0
 8001bde:	f7ff ff5f 	bl	8001aa0 <Set_duty>
	Set_duty(duty, &htim4, 1);
 8001be2:	2201      	movs	r2, #1
 8001be4:	4907      	ldr	r1, [pc, #28]	; (8001c04 <Reverse+0x40>)
 8001be6:	6878      	ldr	r0, [r7, #4]
 8001be8:	f7ff ff5a 	bl	8001aa0 <Set_duty>
	Set_duty(0, &htim4, 2);
 8001bec:	2202      	movs	r2, #2
 8001bee:	4905      	ldr	r1, [pc, #20]	; (8001c04 <Reverse+0x40>)
 8001bf0:	f04f 0000 	mov.w	r0, #0
 8001bf4:	f7ff ff54 	bl	8001aa0 <Set_duty>
}
 8001bf8:	bf00      	nop
 8001bfa:	3708      	adds	r7, #8
 8001bfc:	46bd      	mov	sp, r7
 8001bfe:	bd80      	pop	{r7, pc}
 8001c00:	20000434 	.word	0x20000434
 8001c04:	2000047c 	.word	0x2000047c

08001c08 <Controller>:

void Controller (double new_angle, double vec_angle, Fuzzy_t *fuzzy){
 8001c08:	b5b0      	push	{r4, r5, r7, lr}
 8001c0a:	b084      	sub	sp, #16
 8001c0c:	af00      	add	r7, sp, #0
 8001c0e:	e9c7 0102 	strd	r0, r1, [r7, #8]
 8001c12:	e9c7 2300 	strd	r2, r3, [r7]
	if((new_angle>ANGLE_THRESHOLD)|(new_angle<(-1)*ANGLE_THRESHOLD)){
 8001c16:	2301      	movs	r3, #1
 8001c18:	461c      	mov	r4, r3
 8001c1a:	f04f 0200 	mov.w	r2, #0
 8001c1e:	4b52      	ldr	r3, [pc, #328]	; (8001d68 <Controller+0x160>)
 8001c20:	e9d7 0102 	ldrd	r0, r1, [r7, #8]
 8001c24:	f7fe fee8 	bl	80009f8 <__aeabi_dcmpgt>
 8001c28:	4603      	mov	r3, r0
 8001c2a:	2b00      	cmp	r3, #0
 8001c2c:	d101      	bne.n	8001c32 <Controller+0x2a>
 8001c2e:	2300      	movs	r3, #0
 8001c30:	461c      	mov	r4, r3
 8001c32:	b2e4      	uxtb	r4, r4
 8001c34:	2301      	movs	r3, #1
 8001c36:	461d      	mov	r5, r3
 8001c38:	f04f 0200 	mov.w	r2, #0
 8001c3c:	4b4b      	ldr	r3, [pc, #300]	; (8001d6c <Controller+0x164>)
 8001c3e:	e9d7 0102 	ldrd	r0, r1, [r7, #8]
 8001c42:	f7fe febb 	bl	80009bc <__aeabi_dcmplt>
 8001c46:	4603      	mov	r3, r0
 8001c48:	2b00      	cmp	r3, #0
 8001c4a:	d101      	bne.n	8001c50 <Controller+0x48>
 8001c4c:	2300      	movs	r3, #0
 8001c4e:	461d      	mov	r5, r3
 8001c50:	b2eb      	uxtb	r3, r5
 8001c52:	4323      	orrs	r3, r4
 8001c54:	b2db      	uxtb	r3, r3
 8001c56:	2b00      	cmp	r3, #0
 8001c58:	d002      	beq.n	8001c60 <Controller+0x58>
			Stop_motor();
 8001c5a:	f7ff ff71 	bl	8001b40 <Stop_motor>
			return;
 8001c5e:	e071      	b.n	8001d44 <Controller+0x13c>
		}
//	if((new_angle < OFFSET +1)|(new_angle>OFFSET -1)){
//
//				return;
//			}
	fuzzy->f_inp_fuzzy[0] = (new_angle- OFFSET)/fuzzy->f_K_theta; //normalize value
 8001c60:	a33b      	add	r3, pc, #236	; (adr r3, 8001d50 <Controller+0x148>)
 8001c62:	e9d3 2300 	ldrd	r2, r3, [r3]
 8001c66:	e9d7 0102 	ldrd	r0, r1, [r7, #8]
 8001c6a:	f7fe fa7f 	bl	800016c <__adddf3>
 8001c6e:	4602      	mov	r2, r0
 8001c70:	460b      	mov	r3, r1
 8001c72:	4614      	mov	r4, r2
 8001c74:	461d      	mov	r5, r3
 8001c76:	6a3b      	ldr	r3, [r7, #32]
 8001c78:	68db      	ldr	r3, [r3, #12]
 8001c7a:	4618      	mov	r0, r3
 8001c7c:	f7fe fbd4 	bl	8000428 <__aeabi_f2d>
 8001c80:	4602      	mov	r2, r0
 8001c82:	460b      	mov	r3, r1
 8001c84:	4620      	mov	r0, r4
 8001c86:	4629      	mov	r1, r5
 8001c88:	f7fe fd50 	bl	800072c <__aeabi_ddiv>
 8001c8c:	4602      	mov	r2, r0
 8001c8e:	460b      	mov	r3, r1
 8001c90:	4610      	mov	r0, r2
 8001c92:	4619      	mov	r1, r3
 8001c94:	f7fe fef8 	bl	8000a88 <__aeabi_d2f>
 8001c98:	4602      	mov	r2, r0
 8001c9a:	6a3b      	ldr	r3, [r7, #32]
 8001c9c:	601a      	str	r2, [r3, #0]
	Limit_val(&fuzzy->f_inp_fuzzy[0]);
 8001c9e:	6a3b      	ldr	r3, [r7, #32]
 8001ca0:	4618      	mov	r0, r3
 8001ca2:	f7ff fed7 	bl	8001a54 <Limit_val>
	fuzzy->f_inp_fuzzy[1] = vec_angle/fuzzy->f_K_theta_dot;  //normalize value
 8001ca6:	6a3b      	ldr	r3, [r7, #32]
 8001ca8:	691b      	ldr	r3, [r3, #16]
 8001caa:	4618      	mov	r0, r3
 8001cac:	f7fe fbbc 	bl	8000428 <__aeabi_f2d>
 8001cb0:	4602      	mov	r2, r0
 8001cb2:	460b      	mov	r3, r1
 8001cb4:	e9d7 0100 	ldrd	r0, r1, [r7]
 8001cb8:	f7fe fd38 	bl	800072c <__aeabi_ddiv>
 8001cbc:	4602      	mov	r2, r0
 8001cbe:	460b      	mov	r3, r1
 8001cc0:	4610      	mov	r0, r2
 8001cc2:	4619      	mov	r1, r3
 8001cc4:	f7fe fee0 	bl	8000a88 <__aeabi_d2f>
 8001cc8:	4602      	mov	r2, r0
 8001cca:	6a3b      	ldr	r3, [r7, #32]
 8001ccc:	605a      	str	r2, [r3, #4]
	Limit_val(&fuzzy->f_inp_fuzzy[1]);
 8001cce:	6a3b      	ldr	r3, [r7, #32]
 8001cd0:	3304      	adds	r3, #4
 8001cd2:	4618      	mov	r0, r3
 8001cd4:	f7ff febe 	bl	8001a54 <Limit_val>
	SBR1_run(fuzzy->f_inp_fuzzy, &fuzzy->f_out_fuzzy);
 8001cd8:	6a3a      	ldr	r2, [r7, #32]
 8001cda:	6a3b      	ldr	r3, [r7, #32]
 8001cdc:	3308      	adds	r3, #8
 8001cde:	4619      	mov	r1, r3
 8001ce0:	4610      	mov	r0, r2
 8001ce2:	f7ff fb8d 	bl	8001400 <SBR1_run>
	Limit_val(&fuzzy->f_out_fuzzy);
 8001ce6:	6a3b      	ldr	r3, [r7, #32]
 8001ce8:	3308      	adds	r3, #8
 8001cea:	4618      	mov	r0, r3
 8001cec:	f7ff feb2 	bl	8001a54 <Limit_val>

	if (fuzzy->f_out_fuzzy > 0.4){
 8001cf0:	6a3b      	ldr	r3, [r7, #32]
 8001cf2:	689b      	ldr	r3, [r3, #8]
 8001cf4:	4618      	mov	r0, r3
 8001cf6:	f7fe fb97 	bl	8000428 <__aeabi_f2d>
 8001cfa:	a317      	add	r3, pc, #92	; (adr r3, 8001d58 <Controller+0x150>)
 8001cfc:	e9d3 2300 	ldrd	r2, r3, [r3]
 8001d00:	f7fe fe7a 	bl	80009f8 <__aeabi_dcmpgt>
 8001d04:	4603      	mov	r3, r0
 8001d06:	2b00      	cmp	r3, #0
 8001d08:	d005      	beq.n	8001d16 <Controller+0x10e>
		Reverse (fuzzy->f_out_fuzzy);
 8001d0a:	6a3b      	ldr	r3, [r7, #32]
 8001d0c:	689b      	ldr	r3, [r3, #8]
 8001d0e:	4618      	mov	r0, r3
 8001d10:	f7ff ff58 	bl	8001bc4 <Reverse>
		// Reverse of forward belongs to you hardware structure
		return;
 8001d14:	e016      	b.n	8001d44 <Controller+0x13c>
	    }
	   else if  (fuzzy->f_out_fuzzy < -0.4)
 8001d16:	6a3b      	ldr	r3, [r7, #32]
 8001d18:	689b      	ldr	r3, [r3, #8]
 8001d1a:	4618      	mov	r0, r3
 8001d1c:	f7fe fb84 	bl	8000428 <__aeabi_f2d>
 8001d20:	a30f      	add	r3, pc, #60	; (adr r3, 8001d60 <Controller+0x158>)
 8001d22:	e9d3 2300 	ldrd	r2, r3, [r3]
 8001d26:	f7fe fe49 	bl	80009bc <__aeabi_dcmplt>
 8001d2a:	4603      	mov	r3, r0
 8001d2c:	2b00      	cmp	r3, #0
 8001d2e:	d007      	beq.n	8001d40 <Controller+0x138>
	    {
		Forward ((-1)*fuzzy->f_out_fuzzy);
 8001d30:	6a3b      	ldr	r3, [r7, #32]
 8001d32:	689b      	ldr	r3, [r3, #8]
 8001d34:	f083 4300 	eor.w	r3, r3, #2147483648	; 0x80000000
 8001d38:	4618      	mov	r0, r3
 8001d3a:	f7ff ff21 	bl	8001b80 <Forward>
		return;
 8001d3e:	e001      	b.n	8001d44 <Controller+0x13c>
	    }
	else {
		Stop_motor();
 8001d40:	f7ff fefe 	bl	8001b40 <Stop_motor>
	     }
	}
 8001d44:	3710      	adds	r7, #16
 8001d46:	46bd      	mov	sp, r7
 8001d48:	bdb0      	pop	{r4, r5, r7, pc}
 8001d4a:	bf00      	nop
 8001d4c:	f3af 8000 	nop.w
 8001d50:	9999999a 	.word	0x9999999a
 8001d54:	40059999 	.word	0x40059999
 8001d58:	9999999a 	.word	0x9999999a
 8001d5c:	3fd99999 	.word	0x3fd99999
 8001d60:	9999999a 	.word	0x9999999a
 8001d64:	bfd99999 	.word	0xbfd99999
 8001d68:	40518000 	.word	0x40518000
 8001d6c:	c0518000 	.word	0xc0518000

08001d70 <MPU6050_Init>:
    .Q_bias = 0.003f,
    .R_measure = 0.03f,
};

uint8_t MPU6050_Init(I2C_HandleTypeDef *I2Cx)
{
 8001d70:	b580      	push	{r7, lr}
 8001d72:	b088      	sub	sp, #32
 8001d74:	af04      	add	r7, sp, #16
 8001d76:	6078      	str	r0, [r7, #4]
    uint8_t check;
    uint8_t Data;

    // check device ID WHO_AM_I

    HAL_I2C_Mem_Read(I2Cx, MPU6050_ADDR, WHO_AM_I_REG, 1, &check, 1, i2c_timeout);
 8001d78:	2364      	movs	r3, #100	; 0x64
 8001d7a:	9302      	str	r3, [sp, #8]
 8001d7c:	2301      	movs	r3, #1
 8001d7e:	9301      	str	r3, [sp, #4]
 8001d80:	f107 030f 	add.w	r3, r7, #15
 8001d84:	9300      	str	r3, [sp, #0]
 8001d86:	2301      	movs	r3, #1
 8001d88:	2275      	movs	r2, #117	; 0x75
 8001d8a:	21d0      	movs	r1, #208	; 0xd0
 8001d8c:	6878      	ldr	r0, [r7, #4]
 8001d8e:	f003 fdb5 	bl	80058fc <HAL_I2C_Mem_Read>

    if (check == 104) // 0x68 will be returned by the sensor if everything goes well
 8001d92:	7bfb      	ldrb	r3, [r7, #15]
 8001d94:	2b68      	cmp	r3, #104	; 0x68
 8001d96:	d13d      	bne.n	8001e14 <MPU6050_Init+0xa4>
    {
        // power management register 0X6B we should write all 0's to wake the sensor up
        Data = 0;
 8001d98:	2300      	movs	r3, #0
 8001d9a:	73bb      	strb	r3, [r7, #14]
        HAL_I2C_Mem_Write(I2Cx, MPU6050_ADDR, PWR_MGMT_1_REG, 1, &Data, 1, i2c_timeout);
 8001d9c:	2364      	movs	r3, #100	; 0x64
 8001d9e:	9302      	str	r3, [sp, #8]
 8001da0:	2301      	movs	r3, #1
 8001da2:	9301      	str	r3, [sp, #4]
 8001da4:	f107 030e 	add.w	r3, r7, #14
 8001da8:	9300      	str	r3, [sp, #0]
 8001daa:	2301      	movs	r3, #1
 8001dac:	226b      	movs	r2, #107	; 0x6b
 8001dae:	21d0      	movs	r1, #208	; 0xd0
 8001db0:	6878      	ldr	r0, [r7, #4]
 8001db2:	f003 fca9 	bl	8005708 <HAL_I2C_Mem_Write>

        // Set DATA RATE of 1KHz by writing SMPLRT_DIV register
        Data = 0x07;
 8001db6:	2307      	movs	r3, #7
 8001db8:	73bb      	strb	r3, [r7, #14]
        HAL_I2C_Mem_Write(I2Cx, MPU6050_ADDR, SMPLRT_DIV_REG, 1, &Data, 1, i2c_timeout);
 8001dba:	2364      	movs	r3, #100	; 0x64
 8001dbc:	9302      	str	r3, [sp, #8]
 8001dbe:	2301      	movs	r3, #1
 8001dc0:	9301      	str	r3, [sp, #4]
 8001dc2:	f107 030e 	add.w	r3, r7, #14
 8001dc6:	9300      	str	r3, [sp, #0]
 8001dc8:	2301      	movs	r3, #1
 8001dca:	2219      	movs	r2, #25
 8001dcc:	21d0      	movs	r1, #208	; 0xd0
 8001dce:	6878      	ldr	r0, [r7, #4]
 8001dd0:	f003 fc9a 	bl	8005708 <HAL_I2C_Mem_Write>

        // Set accelerometer configuration in ACCEL_CONFIG Register
        // XA_ST=0,YA_ST=0,ZA_ST=0, FS_SEL=0 ->  2g
        Data = 0x00;
 8001dd4:	2300      	movs	r3, #0
 8001dd6:	73bb      	strb	r3, [r7, #14]
        HAL_I2C_Mem_Write(I2Cx, MPU6050_ADDR, ACCEL_CONFIG_REG, 1, &Data, 1, i2c_timeout);
 8001dd8:	2364      	movs	r3, #100	; 0x64
 8001dda:	9302      	str	r3, [sp, #8]
 8001ddc:	2301      	movs	r3, #1
 8001dde:	9301      	str	r3, [sp, #4]
 8001de0:	f107 030e 	add.w	r3, r7, #14
 8001de4:	9300      	str	r3, [sp, #0]
 8001de6:	2301      	movs	r3, #1
 8001de8:	221c      	movs	r2, #28
 8001dea:	21d0      	movs	r1, #208	; 0xd0
 8001dec:	6878      	ldr	r0, [r7, #4]
 8001dee:	f003 fc8b 	bl	8005708 <HAL_I2C_Mem_Write>

        // Set Gyroscopic configuration in GYRO_CONFIG Register
        // XG_ST=0,YG_ST=0,ZG_ST=0, FS_SEL=0 ->  250 /s
        Data = 0x00;
 8001df2:	2300      	movs	r3, #0
 8001df4:	73bb      	strb	r3, [r7, #14]
        HAL_I2C_Mem_Write(I2Cx, MPU6050_ADDR, GYRO_CONFIG_REG, 1, &Data, 1, i2c_timeout);
 8001df6:	2364      	movs	r3, #100	; 0x64
 8001df8:	9302      	str	r3, [sp, #8]
 8001dfa:	2301      	movs	r3, #1
 8001dfc:	9301      	str	r3, [sp, #4]
 8001dfe:	f107 030e 	add.w	r3, r7, #14
 8001e02:	9300      	str	r3, [sp, #0]
 8001e04:	2301      	movs	r3, #1
 8001e06:	221b      	movs	r2, #27
 8001e08:	21d0      	movs	r1, #208	; 0xd0
 8001e0a:	6878      	ldr	r0, [r7, #4]
 8001e0c:	f003 fc7c 	bl	8005708 <HAL_I2C_Mem_Write>
        return 0;
 8001e10:	2300      	movs	r3, #0
 8001e12:	e000      	b.n	8001e16 <MPU6050_Init+0xa6>
    }
    return 1;
 8001e14:	2301      	movs	r3, #1
}
 8001e16:	4618      	mov	r0, r3
 8001e18:	3710      	adds	r7, #16
 8001e1a:	46bd      	mov	sp, r7
 8001e1c:	bd80      	pop	{r7, pc}
	...

08001e20 <MPU6050_Read_All>:
    temp = (int16_t)(Rec_Data[0] << 8 | Rec_Data[1]);
    DataStruct->Temperature = (float)((int16_t)temp / (float)340.0 + (float)36.53);
}

void MPU6050_Read_All(I2C_HandleTypeDef *I2Cx, MPU6050_t *DataStruct)
{
 8001e20:	e92d 4fb0 	stmdb	sp!, {r4, r5, r7, r8, r9, sl, fp, lr}
 8001e24:	b094      	sub	sp, #80	; 0x50
 8001e26:	af04      	add	r7, sp, #16
 8001e28:	6078      	str	r0, [r7, #4]
 8001e2a:	6039      	str	r1, [r7, #0]
    uint8_t Rec_Data[14];
    int16_t temp;

    // Read 14 BYTES of data starting from ACCEL_XOUT_H register

    HAL_I2C_Mem_Read(I2Cx, MPU6050_ADDR, ACCEL_XOUT_H_REG, 1, Rec_Data, 14, i2c_timeout);
 8001e2c:	2364      	movs	r3, #100	; 0x64
 8001e2e:	9302      	str	r3, [sp, #8]
 8001e30:	230e      	movs	r3, #14
 8001e32:	9301      	str	r3, [sp, #4]
 8001e34:	f107 0308 	add.w	r3, r7, #8
 8001e38:	9300      	str	r3, [sp, #0]
 8001e3a:	2301      	movs	r3, #1
 8001e3c:	223b      	movs	r2, #59	; 0x3b
 8001e3e:	21d0      	movs	r1, #208	; 0xd0
 8001e40:	6878      	ldr	r0, [r7, #4]
 8001e42:	f003 fd5b 	bl	80058fc <HAL_I2C_Mem_Read>

    DataStruct->Accel_X_RAW = (int16_t)(Rec_Data[0] << 8 | Rec_Data[1]);
 8001e46:	7a3b      	ldrb	r3, [r7, #8]
 8001e48:	021b      	lsls	r3, r3, #8
 8001e4a:	b21a      	sxth	r2, r3
 8001e4c:	7a7b      	ldrb	r3, [r7, #9]
 8001e4e:	b21b      	sxth	r3, r3
 8001e50:	4313      	orrs	r3, r2
 8001e52:	b21a      	sxth	r2, r3
 8001e54:	683b      	ldr	r3, [r7, #0]
 8001e56:	801a      	strh	r2, [r3, #0]
    DataStruct->Accel_Y_RAW = (int16_t)(Rec_Data[2] << 8 | Rec_Data[3]);
 8001e58:	7abb      	ldrb	r3, [r7, #10]
 8001e5a:	021b      	lsls	r3, r3, #8
 8001e5c:	b21a      	sxth	r2, r3
 8001e5e:	7afb      	ldrb	r3, [r7, #11]
 8001e60:	b21b      	sxth	r3, r3
 8001e62:	4313      	orrs	r3, r2
 8001e64:	b21a      	sxth	r2, r3
 8001e66:	683b      	ldr	r3, [r7, #0]
 8001e68:	805a      	strh	r2, [r3, #2]
    DataStruct->Accel_Z_RAW = (int16_t)(Rec_Data[4] << 8 | Rec_Data[5]);
 8001e6a:	7b3b      	ldrb	r3, [r7, #12]
 8001e6c:	021b      	lsls	r3, r3, #8
 8001e6e:	b21a      	sxth	r2, r3
 8001e70:	7b7b      	ldrb	r3, [r7, #13]
 8001e72:	b21b      	sxth	r3, r3
 8001e74:	4313      	orrs	r3, r2
 8001e76:	b21a      	sxth	r2, r3
 8001e78:	683b      	ldr	r3, [r7, #0]
 8001e7a:	809a      	strh	r2, [r3, #4]
    temp = (int16_t)(Rec_Data[6] << 8 | Rec_Data[7]);
 8001e7c:	7bbb      	ldrb	r3, [r7, #14]
 8001e7e:	021b      	lsls	r3, r3, #8
 8001e80:	b21a      	sxth	r2, r3
 8001e82:	7bfb      	ldrb	r3, [r7, #15]
 8001e84:	b21b      	sxth	r3, r3
 8001e86:	4313      	orrs	r3, r2
 8001e88:	86fb      	strh	r3, [r7, #54]	; 0x36
    DataStruct->Gyro_X_RAW = (int16_t)(Rec_Data[8] << 8 | Rec_Data[9]);
 8001e8a:	7c3b      	ldrb	r3, [r7, #16]
 8001e8c:	021b      	lsls	r3, r3, #8
 8001e8e:	b21a      	sxth	r2, r3
 8001e90:	7c7b      	ldrb	r3, [r7, #17]
 8001e92:	b21b      	sxth	r3, r3
 8001e94:	4313      	orrs	r3, r2
 8001e96:	b21a      	sxth	r2, r3
 8001e98:	683b      	ldr	r3, [r7, #0]
 8001e9a:	841a      	strh	r2, [r3, #32]
    DataStruct->Gyro_Y_RAW = (int16_t)(Rec_Data[10] << 8 | Rec_Data[11]);
 8001e9c:	7cbb      	ldrb	r3, [r7, #18]
 8001e9e:	021b      	lsls	r3, r3, #8
 8001ea0:	b21a      	sxth	r2, r3
 8001ea2:	7cfb      	ldrb	r3, [r7, #19]
 8001ea4:	b21b      	sxth	r3, r3
 8001ea6:	4313      	orrs	r3, r2
 8001ea8:	b21a      	sxth	r2, r3
 8001eaa:	683b      	ldr	r3, [r7, #0]
 8001eac:	845a      	strh	r2, [r3, #34]	; 0x22
    DataStruct->Gyro_Z_RAW = (int16_t)(Rec_Data[12] << 8 | Rec_Data[13]);
 8001eae:	7d3b      	ldrb	r3, [r7, #20]
 8001eb0:	021b      	lsls	r3, r3, #8
 8001eb2:	b21a      	sxth	r2, r3
 8001eb4:	7d7b      	ldrb	r3, [r7, #21]
 8001eb6:	b21b      	sxth	r3, r3
 8001eb8:	4313      	orrs	r3, r2
 8001eba:	b21a      	sxth	r2, r3
 8001ebc:	683b      	ldr	r3, [r7, #0]
 8001ebe:	849a      	strh	r2, [r3, #36]	; 0x24

    DataStruct->Ax = DataStruct->Accel_X_RAW / 16384.0;
 8001ec0:	683b      	ldr	r3, [r7, #0]
 8001ec2:	f9b3 3000 	ldrsh.w	r3, [r3]
 8001ec6:	4618      	mov	r0, r3
 8001ec8:	f7fe fa9c 	bl	8000404 <__aeabi_i2d>
 8001ecc:	f04f 0200 	mov.w	r2, #0
 8001ed0:	4b95      	ldr	r3, [pc, #596]	; (8002128 <MPU6050_Read_All+0x308>)
 8001ed2:	f7fe fc2b 	bl	800072c <__aeabi_ddiv>
 8001ed6:	4602      	mov	r2, r0
 8001ed8:	460b      	mov	r3, r1
 8001eda:	6839      	ldr	r1, [r7, #0]
 8001edc:	e9c1 2302 	strd	r2, r3, [r1, #8]
    DataStruct->Ay = DataStruct->Accel_Y_RAW / 16384.0;
 8001ee0:	683b      	ldr	r3, [r7, #0]
 8001ee2:	f9b3 3002 	ldrsh.w	r3, [r3, #2]
 8001ee6:	4618      	mov	r0, r3
 8001ee8:	f7fe fa8c 	bl	8000404 <__aeabi_i2d>
 8001eec:	f04f 0200 	mov.w	r2, #0
 8001ef0:	4b8d      	ldr	r3, [pc, #564]	; (8002128 <MPU6050_Read_All+0x308>)
 8001ef2:	f7fe fc1b 	bl	800072c <__aeabi_ddiv>
 8001ef6:	4602      	mov	r2, r0
 8001ef8:	460b      	mov	r3, r1
 8001efa:	6839      	ldr	r1, [r7, #0]
 8001efc:	e9c1 2304 	strd	r2, r3, [r1, #16]
    DataStruct->Az = DataStruct->Accel_Z_RAW / Accel_Z_corrector;
 8001f00:	683b      	ldr	r3, [r7, #0]
 8001f02:	f9b3 3004 	ldrsh.w	r3, [r3, #4]
 8001f06:	4618      	mov	r0, r3
 8001f08:	f7fe fa7c 	bl	8000404 <__aeabi_i2d>
 8001f0c:	a380      	add	r3, pc, #512	; (adr r3, 8002110 <MPU6050_Read_All+0x2f0>)
 8001f0e:	e9d3 2300 	ldrd	r2, r3, [r3]
 8001f12:	f7fe fc0b 	bl	800072c <__aeabi_ddiv>
 8001f16:	4602      	mov	r2, r0
 8001f18:	460b      	mov	r3, r1
 8001f1a:	6839      	ldr	r1, [r7, #0]
 8001f1c:	e9c1 2306 	strd	r2, r3, [r1, #24]
    DataStruct->Temperature = (float)((int16_t)temp / (float)340.0 + (float)36.53);
 8001f20:	f9b7 3036 	ldrsh.w	r3, [r7, #54]	; 0x36
 8001f24:	4618      	mov	r0, r3
 8001f26:	f7fe feb9 	bl	8000c9c <__aeabi_i2f>
 8001f2a:	4603      	mov	r3, r0
 8001f2c:	497f      	ldr	r1, [pc, #508]	; (800212c <MPU6050_Read_All+0x30c>)
 8001f2e:	4618      	mov	r0, r3
 8001f30:	f7fe ffbc 	bl	8000eac <__aeabi_fdiv>
 8001f34:	4603      	mov	r3, r0
 8001f36:	497e      	ldr	r1, [pc, #504]	; (8002130 <MPU6050_Read_All+0x310>)
 8001f38:	4618      	mov	r0, r3
 8001f3a:	f7fe fdfb 	bl	8000b34 <__addsf3>
 8001f3e:	4603      	mov	r3, r0
 8001f40:	461a      	mov	r2, r3
 8001f42:	683b      	ldr	r3, [r7, #0]
 8001f44:	641a      	str	r2, [r3, #64]	; 0x40
    DataStruct->Gx = DataStruct->Gyro_X_RAW / 131.0;
 8001f46:	683b      	ldr	r3, [r7, #0]
 8001f48:	f9b3 3020 	ldrsh.w	r3, [r3, #32]
 8001f4c:	4618      	mov	r0, r3
 8001f4e:	f7fe fa59 	bl	8000404 <__aeabi_i2d>
 8001f52:	a371      	add	r3, pc, #452	; (adr r3, 8002118 <MPU6050_Read_All+0x2f8>)
 8001f54:	e9d3 2300 	ldrd	r2, r3, [r3]
 8001f58:	f7fe fbe8 	bl	800072c <__aeabi_ddiv>
 8001f5c:	4602      	mov	r2, r0
 8001f5e:	460b      	mov	r3, r1
 8001f60:	6839      	ldr	r1, [r7, #0]
 8001f62:	e9c1 230a 	strd	r2, r3, [r1, #40]	; 0x28
    DataStruct->Gy = DataStruct->Gyro_Y_RAW / 131.0;
 8001f66:	683b      	ldr	r3, [r7, #0]
 8001f68:	f9b3 3022 	ldrsh.w	r3, [r3, #34]	; 0x22
 8001f6c:	4618      	mov	r0, r3
 8001f6e:	f7fe fa49 	bl	8000404 <__aeabi_i2d>
 8001f72:	a369      	add	r3, pc, #420	; (adr r3, 8002118 <MPU6050_Read_All+0x2f8>)
 8001f74:	e9d3 2300 	ldrd	r2, r3, [r3]
 8001f78:	f7fe fbd8 	bl	800072c <__aeabi_ddiv>
 8001f7c:	4602      	mov	r2, r0
 8001f7e:	460b      	mov	r3, r1
 8001f80:	6839      	ldr	r1, [r7, #0]
 8001f82:	e9c1 230c 	strd	r2, r3, [r1, #48]	; 0x30
    DataStruct->Gz = DataStruct->Gyro_Z_RAW / 131.0;
 8001f86:	683b      	ldr	r3, [r7, #0]
 8001f88:	f9b3 3024 	ldrsh.w	r3, [r3, #36]	; 0x24
 8001f8c:	4618      	mov	r0, r3
 8001f8e:	f7fe fa39 	bl	8000404 <__aeabi_i2d>
 8001f92:	a361      	add	r3, pc, #388	; (adr r3, 8002118 <MPU6050_Read_All+0x2f8>)
 8001f94:	e9d3 2300 	ldrd	r2, r3, [r3]
 8001f98:	f7fe fbc8 	bl	800072c <__aeabi_ddiv>
 8001f9c:	4602      	mov	r2, r0
 8001f9e:	460b      	mov	r3, r1
 8001fa0:	6839      	ldr	r1, [r7, #0]
 8001fa2:	e9c1 230e 	strd	r2, r3, [r1, #56]	; 0x38

    // Kalman angle solve
    double dt = (double)(HAL_GetTick() - timer) / 1000;
 8001fa6:	f002 ff05 	bl	8004db4 <HAL_GetTick>
 8001faa:	4602      	mov	r2, r0
 8001fac:	4b61      	ldr	r3, [pc, #388]	; (8002134 <MPU6050_Read_All+0x314>)
 8001fae:	681b      	ldr	r3, [r3, #0]
 8001fb0:	1ad3      	subs	r3, r2, r3
 8001fb2:	4618      	mov	r0, r3
 8001fb4:	f7fe fa16 	bl	80003e4 <__aeabi_ui2d>
 8001fb8:	f04f 0200 	mov.w	r2, #0
 8001fbc:	4b5e      	ldr	r3, [pc, #376]	; (8002138 <MPU6050_Read_All+0x318>)
 8001fbe:	f7fe fbb5 	bl	800072c <__aeabi_ddiv>
 8001fc2:	4602      	mov	r2, r0
 8001fc4:	460b      	mov	r3, r1
 8001fc6:	e9c7 230a 	strd	r2, r3, [r7, #40]	; 0x28
    timer = HAL_GetTick();
 8001fca:	f002 fef3 	bl	8004db4 <HAL_GetTick>
 8001fce:	4603      	mov	r3, r0
 8001fd0:	4a58      	ldr	r2, [pc, #352]	; (8002134 <MPU6050_Read_All+0x314>)
 8001fd2:	6013      	str	r3, [r2, #0]
    double roll;
    double roll_sqrt = sqrt(
        DataStruct->Accel_X_RAW * DataStruct->Accel_X_RAW + DataStruct->Accel_Z_RAW * DataStruct->Accel_Z_RAW);
 8001fd4:	683b      	ldr	r3, [r7, #0]
 8001fd6:	f9b3 3000 	ldrsh.w	r3, [r3]
 8001fda:	461a      	mov	r2, r3
 8001fdc:	683b      	ldr	r3, [r7, #0]
 8001fde:	f9b3 3000 	ldrsh.w	r3, [r3]
 8001fe2:	fb03 f202 	mul.w	r2, r3, r2
 8001fe6:	683b      	ldr	r3, [r7, #0]
 8001fe8:	f9b3 3004 	ldrsh.w	r3, [r3, #4]
 8001fec:	4619      	mov	r1, r3
 8001fee:	683b      	ldr	r3, [r7, #0]
 8001ff0:	f9b3 3004 	ldrsh.w	r3, [r3, #4]
 8001ff4:	fb01 f303 	mul.w	r3, r1, r3
 8001ff8:	4413      	add	r3, r2
    double roll_sqrt = sqrt(
 8001ffa:	4618      	mov	r0, r3
 8001ffc:	f7fe fa02 	bl	8000404 <__aeabi_i2d>
 8002000:	4602      	mov	r2, r0
 8002002:	460b      	mov	r3, r1
 8002004:	4610      	mov	r0, r2
 8002006:	4619      	mov	r1, r3
 8002008:	f007 f8d9 	bl	80091be <sqrt>
 800200c:	e9c7 0108 	strd	r0, r1, [r7, #32]
    if (roll_sqrt != 0.0)
 8002010:	f04f 0200 	mov.w	r2, #0
 8002014:	f04f 0300 	mov.w	r3, #0
 8002018:	e9d7 0108 	ldrd	r0, r1, [r7, #32]
 800201c:	f7fe fcc4 	bl	80009a8 <__aeabi_dcmpeq>
 8002020:	4603      	mov	r3, r0
 8002022:	2b00      	cmp	r3, #0
 8002024:	d119      	bne.n	800205a <MPU6050_Read_All+0x23a>
    {
        roll = atan(DataStruct->Accel_Y_RAW / roll_sqrt) * RAD_TO_DEG;
 8002026:	683b      	ldr	r3, [r7, #0]
 8002028:	f9b3 3002 	ldrsh.w	r3, [r3, #2]
 800202c:	4618      	mov	r0, r3
 800202e:	f7fe f9e9 	bl	8000404 <__aeabi_i2d>
 8002032:	e9d7 2308 	ldrd	r2, r3, [r7, #32]
 8002036:	f7fe fb79 	bl	800072c <__aeabi_ddiv>
 800203a:	4602      	mov	r2, r0
 800203c:	460b      	mov	r3, r1
 800203e:	4610      	mov	r0, r2
 8002040:	4619      	mov	r1, r3
 8002042:	f007 f8e1 	bl	8009208 <atan>
 8002046:	a336      	add	r3, pc, #216	; (adr r3, 8002120 <MPU6050_Read_All+0x300>)
 8002048:	e9d3 2300 	ldrd	r2, r3, [r3]
 800204c:	f7fe fa44 	bl	80004d8 <__aeabi_dmul>
 8002050:	4602      	mov	r2, r0
 8002052:	460b      	mov	r3, r1
 8002054:	e9c7 230e 	strd	r2, r3, [r7, #56]	; 0x38
 8002058:	e005      	b.n	8002066 <MPU6050_Read_All+0x246>
    }
    else
    {
        roll = 0.0;
 800205a:	f04f 0200 	mov.w	r2, #0
 800205e:	f04f 0300 	mov.w	r3, #0
 8002062:	e9c7 230e 	strd	r2, r3, [r7, #56]	; 0x38
    }
    double pitch = atan2(-DataStruct->Accel_X_RAW, DataStruct->Accel_Z_RAW) * RAD_TO_DEG;
 8002066:	683b      	ldr	r3, [r7, #0]
 8002068:	f9b3 3000 	ldrsh.w	r3, [r3]
 800206c:	425b      	negs	r3, r3
 800206e:	4618      	mov	r0, r3
 8002070:	f7fe f9c8 	bl	8000404 <__aeabi_i2d>
 8002074:	4682      	mov	sl, r0
 8002076:	468b      	mov	fp, r1
 8002078:	683b      	ldr	r3, [r7, #0]
 800207a:	f9b3 3004 	ldrsh.w	r3, [r3, #4]
 800207e:	4618      	mov	r0, r3
 8002080:	f7fe f9c0 	bl	8000404 <__aeabi_i2d>
 8002084:	4602      	mov	r2, r0
 8002086:	460b      	mov	r3, r1
 8002088:	4650      	mov	r0, sl
 800208a:	4659      	mov	r1, fp
 800208c:	f007 f895 	bl	80091ba <atan2>
 8002090:	a323      	add	r3, pc, #140	; (adr r3, 8002120 <MPU6050_Read_All+0x300>)
 8002092:	e9d3 2300 	ldrd	r2, r3, [r3]
 8002096:	f7fe fa1f 	bl	80004d8 <__aeabi_dmul>
 800209a:	4602      	mov	r2, r0
 800209c:	460b      	mov	r3, r1
 800209e:	e9c7 2306 	strd	r2, r3, [r7, #24]
    if ((pitch < -90 && DataStruct->KalmanAngleY > 90) || (pitch > 90 && DataStruct->KalmanAngleY < -90))
 80020a2:	f04f 0200 	mov.w	r2, #0
 80020a6:	4b25      	ldr	r3, [pc, #148]	; (800213c <MPU6050_Read_All+0x31c>)
 80020a8:	e9d7 0106 	ldrd	r0, r1, [r7, #24]
 80020ac:	f7fe fc86 	bl	80009bc <__aeabi_dcmplt>
 80020b0:	4603      	mov	r3, r0
 80020b2:	2b00      	cmp	r3, #0
 80020b4:	d00a      	beq.n	80020cc <MPU6050_Read_All+0x2ac>
 80020b6:	683b      	ldr	r3, [r7, #0]
 80020b8:	e9d3 0114 	ldrd	r0, r1, [r3, #80]	; 0x50
 80020bc:	f04f 0200 	mov.w	r2, #0
 80020c0:	4b1f      	ldr	r3, [pc, #124]	; (8002140 <MPU6050_Read_All+0x320>)
 80020c2:	f7fe fc99 	bl	80009f8 <__aeabi_dcmpgt>
 80020c6:	4603      	mov	r3, r0
 80020c8:	2b00      	cmp	r3, #0
 80020ca:	d114      	bne.n	80020f6 <MPU6050_Read_All+0x2d6>
 80020cc:	f04f 0200 	mov.w	r2, #0
 80020d0:	4b1b      	ldr	r3, [pc, #108]	; (8002140 <MPU6050_Read_All+0x320>)
 80020d2:	e9d7 0106 	ldrd	r0, r1, [r7, #24]
 80020d6:	f7fe fc8f 	bl	80009f8 <__aeabi_dcmpgt>
 80020da:	4603      	mov	r3, r0
 80020dc:	2b00      	cmp	r3, #0
 80020de:	d033      	beq.n	8002148 <MPU6050_Read_All+0x328>
 80020e0:	683b      	ldr	r3, [r7, #0]
 80020e2:	e9d3 0114 	ldrd	r0, r1, [r3, #80]	; 0x50
 80020e6:	f04f 0200 	mov.w	r2, #0
 80020ea:	4b14      	ldr	r3, [pc, #80]	; (800213c <MPU6050_Read_All+0x31c>)
 80020ec:	f7fe fc66 	bl	80009bc <__aeabi_dcmplt>
 80020f0:	4603      	mov	r3, r0
 80020f2:	2b00      	cmp	r3, #0
 80020f4:	d028      	beq.n	8002148 <MPU6050_Read_All+0x328>
    {
        KalmanY.angle = pitch;
 80020f6:	4913      	ldr	r1, [pc, #76]	; (8002144 <MPU6050_Read_All+0x324>)
 80020f8:	e9d7 2306 	ldrd	r2, r3, [r7, #24]
 80020fc:	e9c1 2306 	strd	r2, r3, [r1, #24]
        DataStruct->KalmanAngleY = pitch;
 8002100:	6839      	ldr	r1, [r7, #0]
 8002102:	e9d7 2306 	ldrd	r2, r3, [r7, #24]
 8002106:	e9c1 2314 	strd	r2, r3, [r1, #80]	; 0x50
 800210a:	e030      	b.n	800216e <MPU6050_Read_All+0x34e>
 800210c:	f3af 8000 	nop.w
 8002110:	00000000 	.word	0x00000000
 8002114:	40cc2900 	.word	0x40cc2900
 8002118:	00000000 	.word	0x00000000
 800211c:	40606000 	.word	0x40606000
 8002120:	1a63c1f8 	.word	0x1a63c1f8
 8002124:	404ca5dc 	.word	0x404ca5dc
 8002128:	40d00000 	.word	0x40d00000
 800212c:	43aa0000 	.word	0x43aa0000
 8002130:	42121eb8 	.word	0x42121eb8
 8002134:	200005d4 	.word	0x200005d4
 8002138:	408f4000 	.word	0x408f4000
 800213c:	c0568000 	.word	0xc0568000
 8002140:	40568000 	.word	0x40568000
 8002144:	20000060 	.word	0x20000060
    }
    else
    {
        DataStruct->KalmanAngleY = Kalman_getAngle(&KalmanY, pitch, DataStruct->Gy, dt);
 8002148:	683b      	ldr	r3, [r7, #0]
 800214a:	e9d3 230c 	ldrd	r2, r3, [r3, #48]	; 0x30
 800214e:	e9d7 010a 	ldrd	r0, r1, [r7, #40]	; 0x28
 8002152:	e9cd 0102 	strd	r0, r1, [sp, #8]
 8002156:	e9cd 2300 	strd	r2, r3, [sp]
 800215a:	e9d7 2306 	ldrd	r2, r3, [r7, #24]
 800215e:	481c      	ldr	r0, [pc, #112]	; (80021d0 <MPU6050_Read_All+0x3b0>)
 8002160:	f000 f83c 	bl	80021dc <Kalman_getAngle>
 8002164:	4602      	mov	r2, r0
 8002166:	460b      	mov	r3, r1
 8002168:	6839      	ldr	r1, [r7, #0]
 800216a:	e9c1 2314 	strd	r2, r3, [r1, #80]	; 0x50
    }
    if (fabs(DataStruct->KalmanAngleY) > 90)
 800216e:	683b      	ldr	r3, [r7, #0]
 8002170:	e9d3 2314 	ldrd	r2, r3, [r3, #80]	; 0x50
 8002174:	4690      	mov	r8, r2
 8002176:	f023 4900 	bic.w	r9, r3, #2147483648	; 0x80000000
 800217a:	f04f 0200 	mov.w	r2, #0
 800217e:	4b15      	ldr	r3, [pc, #84]	; (80021d4 <MPU6050_Read_All+0x3b4>)
 8002180:	4640      	mov	r0, r8
 8002182:	4649      	mov	r1, r9
 8002184:	f7fe fc38 	bl	80009f8 <__aeabi_dcmpgt>
 8002188:	4603      	mov	r3, r0
 800218a:	2b00      	cmp	r3, #0
 800218c:	d008      	beq.n	80021a0 <MPU6050_Read_All+0x380>
        DataStruct->Gx = -DataStruct->Gx;
 800218e:	683b      	ldr	r3, [r7, #0]
 8002190:	e9d3 230a 	ldrd	r2, r3, [r3, #40]	; 0x28
 8002194:	4614      	mov	r4, r2
 8002196:	f083 4500 	eor.w	r5, r3, #2147483648	; 0x80000000
 800219a:	683b      	ldr	r3, [r7, #0]
 800219c:	e9c3 450a 	strd	r4, r5, [r3, #40]	; 0x28
    DataStruct->KalmanAngleX = Kalman_getAngle(&KalmanX, roll, DataStruct->Gx, dt);
 80021a0:	683b      	ldr	r3, [r7, #0]
 80021a2:	e9d3 230a 	ldrd	r2, r3, [r3, #40]	; 0x28
 80021a6:	e9d7 010a 	ldrd	r0, r1, [r7, #40]	; 0x28
 80021aa:	e9cd 0102 	strd	r0, r1, [sp, #8]
 80021ae:	e9cd 2300 	strd	r2, r3, [sp]
 80021b2:	e9d7 230e 	ldrd	r2, r3, [r7, #56]	; 0x38
 80021b6:	4808      	ldr	r0, [pc, #32]	; (80021d8 <MPU6050_Read_All+0x3b8>)
 80021b8:	f000 f810 	bl	80021dc <Kalman_getAngle>
 80021bc:	4602      	mov	r2, r0
 80021be:	460b      	mov	r3, r1
 80021c0:	6839      	ldr	r1, [r7, #0]
 80021c2:	e9c1 2312 	strd	r2, r3, [r1, #72]	; 0x48
}
 80021c6:	bf00      	nop
 80021c8:	3740      	adds	r7, #64	; 0x40
 80021ca:	46bd      	mov	sp, r7
 80021cc:	e8bd 8fb0 	ldmia.w	sp!, {r4, r5, r7, r8, r9, sl, fp, pc}
 80021d0:	20000060 	.word	0x20000060
 80021d4:	40568000 	.word	0x40568000
 80021d8:	20000018 	.word	0x20000018

080021dc <Kalman_getAngle>:

double Kalman_getAngle(Kalman_t *Kalman, double newAngle, double newRate, double dt)
{
 80021dc:	b5b0      	push	{r4, r5, r7, lr}
 80021de:	b092      	sub	sp, #72	; 0x48
 80021e0:	af00      	add	r7, sp, #0
 80021e2:	60f8      	str	r0, [r7, #12]
 80021e4:	e9c7 2300 	strd	r2, r3, [r7]
    double rate = newRate - Kalman->bias;
 80021e8:	68fb      	ldr	r3, [r7, #12]
 80021ea:	e9d3 2308 	ldrd	r2, r3, [r3, #32]
 80021ee:	e9d7 0116 	ldrd	r0, r1, [r7, #88]	; 0x58
 80021f2:	f7fd ffb9 	bl	8000168 <__aeabi_dsub>
 80021f6:	4602      	mov	r2, r0
 80021f8:	460b      	mov	r3, r1
 80021fa:	e9c7 2310 	strd	r2, r3, [r7, #64]	; 0x40
    Kalman->angle += dt * rate;
 80021fe:	68fb      	ldr	r3, [r7, #12]
 8002200:	e9d3 4506 	ldrd	r4, r5, [r3, #24]
 8002204:	e9d7 2310 	ldrd	r2, r3, [r7, #64]	; 0x40
 8002208:	e9d7 0118 	ldrd	r0, r1, [r7, #96]	; 0x60
 800220c:	f7fe f964 	bl	80004d8 <__aeabi_dmul>
 8002210:	4602      	mov	r2, r0
 8002212:	460b      	mov	r3, r1
 8002214:	4620      	mov	r0, r4
 8002216:	4629      	mov	r1, r5
 8002218:	f7fd ffa8 	bl	800016c <__adddf3>
 800221c:	4602      	mov	r2, r0
 800221e:	460b      	mov	r3, r1
 8002220:	68f9      	ldr	r1, [r7, #12]
 8002222:	e9c1 2306 	strd	r2, r3, [r1, #24]

    Kalman->P[0][0] += dt * (dt * Kalman->P[1][1] - Kalman->P[0][1] - Kalman->P[1][0] + Kalman->Q_angle);
 8002226:	68fb      	ldr	r3, [r7, #12]
 8002228:	e9d3 450a 	ldrd	r4, r5, [r3, #40]	; 0x28
 800222c:	68fb      	ldr	r3, [r7, #12]
 800222e:	e9d3 0110 	ldrd	r0, r1, [r3, #64]	; 0x40
 8002232:	e9d7 2318 	ldrd	r2, r3, [r7, #96]	; 0x60
 8002236:	f7fe f94f 	bl	80004d8 <__aeabi_dmul>
 800223a:	4602      	mov	r2, r0
 800223c:	460b      	mov	r3, r1
 800223e:	4610      	mov	r0, r2
 8002240:	4619      	mov	r1, r3
 8002242:	68fb      	ldr	r3, [r7, #12]
 8002244:	e9d3 230c 	ldrd	r2, r3, [r3, #48]	; 0x30
 8002248:	f7fd ff8e 	bl	8000168 <__aeabi_dsub>
 800224c:	4602      	mov	r2, r0
 800224e:	460b      	mov	r3, r1
 8002250:	4610      	mov	r0, r2
 8002252:	4619      	mov	r1, r3
 8002254:	68fb      	ldr	r3, [r7, #12]
 8002256:	e9d3 230e 	ldrd	r2, r3, [r3, #56]	; 0x38
 800225a:	f7fd ff85 	bl	8000168 <__aeabi_dsub>
 800225e:	4602      	mov	r2, r0
 8002260:	460b      	mov	r3, r1
 8002262:	4610      	mov	r0, r2
 8002264:	4619      	mov	r1, r3
 8002266:	68fb      	ldr	r3, [r7, #12]
 8002268:	e9d3 2300 	ldrd	r2, r3, [r3]
 800226c:	f7fd ff7e 	bl	800016c <__adddf3>
 8002270:	4602      	mov	r2, r0
 8002272:	460b      	mov	r3, r1
 8002274:	4610      	mov	r0, r2
 8002276:	4619      	mov	r1, r3
 8002278:	e9d7 2318 	ldrd	r2, r3, [r7, #96]	; 0x60
 800227c:	f7fe f92c 	bl	80004d8 <__aeabi_dmul>
 8002280:	4602      	mov	r2, r0
 8002282:	460b      	mov	r3, r1
 8002284:	4620      	mov	r0, r4
 8002286:	4629      	mov	r1, r5
 8002288:	f7fd ff70 	bl	800016c <__adddf3>
 800228c:	4602      	mov	r2, r0
 800228e:	460b      	mov	r3, r1
 8002290:	68f9      	ldr	r1, [r7, #12]
 8002292:	e9c1 230a 	strd	r2, r3, [r1, #40]	; 0x28
    Kalman->P[0][1] -= dt * Kalman->P[1][1];
 8002296:	68fb      	ldr	r3, [r7, #12]
 8002298:	e9d3 450c 	ldrd	r4, r5, [r3, #48]	; 0x30
 800229c:	68fb      	ldr	r3, [r7, #12]
 800229e:	e9d3 0110 	ldrd	r0, r1, [r3, #64]	; 0x40
 80022a2:	e9d7 2318 	ldrd	r2, r3, [r7, #96]	; 0x60
 80022a6:	f7fe f917 	bl	80004d8 <__aeabi_dmul>
 80022aa:	4602      	mov	r2, r0
 80022ac:	460b      	mov	r3, r1
 80022ae:	4620      	mov	r0, r4
 80022b0:	4629      	mov	r1, r5
 80022b2:	f7fd ff59 	bl	8000168 <__aeabi_dsub>
 80022b6:	4602      	mov	r2, r0
 80022b8:	460b      	mov	r3, r1
 80022ba:	68f9      	ldr	r1, [r7, #12]
 80022bc:	e9c1 230c 	strd	r2, r3, [r1, #48]	; 0x30
    Kalman->P[1][0] -= dt * Kalman->P[1][1];
 80022c0:	68fb      	ldr	r3, [r7, #12]
 80022c2:	e9d3 450e 	ldrd	r4, r5, [r3, #56]	; 0x38
 80022c6:	68fb      	ldr	r3, [r7, #12]
 80022c8:	e9d3 0110 	ldrd	r0, r1, [r3, #64]	; 0x40
 80022cc:	e9d7 2318 	ldrd	r2, r3, [r7, #96]	; 0x60
 80022d0:	f7fe f902 	bl	80004d8 <__aeabi_dmul>
 80022d4:	4602      	mov	r2, r0
 80022d6:	460b      	mov	r3, r1
 80022d8:	4620      	mov	r0, r4
 80022da:	4629      	mov	r1, r5
 80022dc:	f7fd ff44 	bl	8000168 <__aeabi_dsub>
 80022e0:	4602      	mov	r2, r0
 80022e2:	460b      	mov	r3, r1
 80022e4:	68f9      	ldr	r1, [r7, #12]
 80022e6:	e9c1 230e 	strd	r2, r3, [r1, #56]	; 0x38
    Kalman->P[1][1] += Kalman->Q_bias * dt;
 80022ea:	68fb      	ldr	r3, [r7, #12]
 80022ec:	e9d3 4510 	ldrd	r4, r5, [r3, #64]	; 0x40
 80022f0:	68fb      	ldr	r3, [r7, #12]
 80022f2:	e9d3 0102 	ldrd	r0, r1, [r3, #8]
 80022f6:	e9d7 2318 	ldrd	r2, r3, [r7, #96]	; 0x60
 80022fa:	f7fe f8ed 	bl	80004d8 <__aeabi_dmul>
 80022fe:	4602      	mov	r2, r0
 8002300:	460b      	mov	r3, r1
 8002302:	4620      	mov	r0, r4
 8002304:	4629      	mov	r1, r5
 8002306:	f7fd ff31 	bl	800016c <__adddf3>
 800230a:	4602      	mov	r2, r0
 800230c:	460b      	mov	r3, r1
 800230e:	68f9      	ldr	r1, [r7, #12]
 8002310:	e9c1 2310 	strd	r2, r3, [r1, #64]	; 0x40

    double S = Kalman->P[0][0] + Kalman->R_measure;
 8002314:	68fb      	ldr	r3, [r7, #12]
 8002316:	e9d3 010a 	ldrd	r0, r1, [r3, #40]	; 0x28
 800231a:	68fb      	ldr	r3, [r7, #12]
 800231c:	e9d3 2304 	ldrd	r2, r3, [r3, #16]
 8002320:	f7fd ff24 	bl	800016c <__adddf3>
 8002324:	4602      	mov	r2, r0
 8002326:	460b      	mov	r3, r1
 8002328:	e9c7 230e 	strd	r2, r3, [r7, #56]	; 0x38
    double K[2];
    K[0] = Kalman->P[0][0] / S;
 800232c:	68fb      	ldr	r3, [r7, #12]
 800232e:	e9d3 010a 	ldrd	r0, r1, [r3, #40]	; 0x28
 8002332:	e9d7 230e 	ldrd	r2, r3, [r7, #56]	; 0x38
 8002336:	f7fe f9f9 	bl	800072c <__aeabi_ddiv>
 800233a:	4602      	mov	r2, r0
 800233c:	460b      	mov	r3, r1
 800233e:	e9c7 2304 	strd	r2, r3, [r7, #16]
    K[1] = Kalman->P[1][0] / S;
 8002342:	68fb      	ldr	r3, [r7, #12]
 8002344:	e9d3 010e 	ldrd	r0, r1, [r3, #56]	; 0x38
 8002348:	e9d7 230e 	ldrd	r2, r3, [r7, #56]	; 0x38
 800234c:	f7fe f9ee 	bl	800072c <__aeabi_ddiv>
 8002350:	4602      	mov	r2, r0
 8002352:	460b      	mov	r3, r1
 8002354:	e9c7 2306 	strd	r2, r3, [r7, #24]

    double y = newAngle - Kalman->angle;
 8002358:	68fb      	ldr	r3, [r7, #12]
 800235a:	e9d3 2306 	ldrd	r2, r3, [r3, #24]
 800235e:	e9d7 0100 	ldrd	r0, r1, [r7]
 8002362:	f7fd ff01 	bl	8000168 <__aeabi_dsub>
 8002366:	4602      	mov	r2, r0
 8002368:	460b      	mov	r3, r1
 800236a:	e9c7 230c 	strd	r2, r3, [r7, #48]	; 0x30
    Kalman->angle += K[0] * y;
 800236e:	68fb      	ldr	r3, [r7, #12]
 8002370:	e9d3 4506 	ldrd	r4, r5, [r3, #24]
 8002374:	e9d7 0104 	ldrd	r0, r1, [r7, #16]
 8002378:	e9d7 230c 	ldrd	r2, r3, [r7, #48]	; 0x30
 800237c:	f7fe f8ac 	bl	80004d8 <__aeabi_dmul>
 8002380:	4602      	mov	r2, r0
 8002382:	460b      	mov	r3, r1
 8002384:	4620      	mov	r0, r4
 8002386:	4629      	mov	r1, r5
 8002388:	f7fd fef0 	bl	800016c <__adddf3>
 800238c:	4602      	mov	r2, r0
 800238e:	460b      	mov	r3, r1
 8002390:	68f9      	ldr	r1, [r7, #12]
 8002392:	e9c1 2306 	strd	r2, r3, [r1, #24]
    Kalman->bias += K[1] * y;
 8002396:	68fb      	ldr	r3, [r7, #12]
 8002398:	e9d3 4508 	ldrd	r4, r5, [r3, #32]
 800239c:	e9d7 0106 	ldrd	r0, r1, [r7, #24]
 80023a0:	e9d7 230c 	ldrd	r2, r3, [r7, #48]	; 0x30
 80023a4:	f7fe f898 	bl	80004d8 <__aeabi_dmul>
 80023a8:	4602      	mov	r2, r0
 80023aa:	460b      	mov	r3, r1
 80023ac:	4620      	mov	r0, r4
 80023ae:	4629      	mov	r1, r5
 80023b0:	f7fd fedc 	bl	800016c <__adddf3>
 80023b4:	4602      	mov	r2, r0
 80023b6:	460b      	mov	r3, r1
 80023b8:	68f9      	ldr	r1, [r7, #12]
 80023ba:	e9c1 2308 	strd	r2, r3, [r1, #32]

    double P00_temp = Kalman->P[0][0];
 80023be:	68fb      	ldr	r3, [r7, #12]
 80023c0:	e9d3 230a 	ldrd	r2, r3, [r3, #40]	; 0x28
 80023c4:	e9c7 230a 	strd	r2, r3, [r7, #40]	; 0x28
    double P01_temp = Kalman->P[0][1];
 80023c8:	68fb      	ldr	r3, [r7, #12]
 80023ca:	e9d3 230c 	ldrd	r2, r3, [r3, #48]	; 0x30
 80023ce:	e9c7 2308 	strd	r2, r3, [r7, #32]

    Kalman->P[0][0] -= K[0] * P00_temp;
 80023d2:	68fb      	ldr	r3, [r7, #12]
 80023d4:	e9d3 450a 	ldrd	r4, r5, [r3, #40]	; 0x28
 80023d8:	e9d7 0104 	ldrd	r0, r1, [r7, #16]
 80023dc:	e9d7 230a 	ldrd	r2, r3, [r7, #40]	; 0x28
 80023e0:	f7fe f87a 	bl	80004d8 <__aeabi_dmul>
 80023e4:	4602      	mov	r2, r0
 80023e6:	460b      	mov	r3, r1
 80023e8:	4620      	mov	r0, r4
 80023ea:	4629      	mov	r1, r5
 80023ec:	f7fd febc 	bl	8000168 <__aeabi_dsub>
 80023f0:	4602      	mov	r2, r0
 80023f2:	460b      	mov	r3, r1
 80023f4:	68f9      	ldr	r1, [r7, #12]
 80023f6:	e9c1 230a 	strd	r2, r3, [r1, #40]	; 0x28
    Kalman->P[0][1] -= K[0] * P01_temp;
 80023fa:	68fb      	ldr	r3, [r7, #12]
 80023fc:	e9d3 450c 	ldrd	r4, r5, [r3, #48]	; 0x30
 8002400:	e9d7 0104 	ldrd	r0, r1, [r7, #16]
 8002404:	e9d7 2308 	ldrd	r2, r3, [r7, #32]
 8002408:	f7fe f866 	bl	80004d8 <__aeabi_dmul>
 800240c:	4602      	mov	r2, r0
 800240e:	460b      	mov	r3, r1
 8002410:	4620      	mov	r0, r4
 8002412:	4629      	mov	r1, r5
 8002414:	f7fd fea8 	bl	8000168 <__aeabi_dsub>
 8002418:	4602      	mov	r2, r0
 800241a:	460b      	mov	r3, r1
 800241c:	68f9      	ldr	r1, [r7, #12]
 800241e:	e9c1 230c 	strd	r2, r3, [r1, #48]	; 0x30
    Kalman->P[1][0] -= K[1] * P00_temp;
 8002422:	68fb      	ldr	r3, [r7, #12]
 8002424:	e9d3 450e 	ldrd	r4, r5, [r3, #56]	; 0x38
 8002428:	e9d7 0106 	ldrd	r0, r1, [r7, #24]
 800242c:	e9d7 230a 	ldrd	r2, r3, [r7, #40]	; 0x28
 8002430:	f7fe f852 	bl	80004d8 <__aeabi_dmul>
 8002434:	4602      	mov	r2, r0
 8002436:	460b      	mov	r3, r1
 8002438:	4620      	mov	r0, r4
 800243a:	4629      	mov	r1, r5
 800243c:	f7fd fe94 	bl	8000168 <__aeabi_dsub>
 8002440:	4602      	mov	r2, r0
 8002442:	460b      	mov	r3, r1
 8002444:	68f9      	ldr	r1, [r7, #12]
 8002446:	e9c1 230e 	strd	r2, r3, [r1, #56]	; 0x38
    Kalman->P[1][1] -= K[1] * P01_temp;
 800244a:	68fb      	ldr	r3, [r7, #12]
 800244c:	e9d3 4510 	ldrd	r4, r5, [r3, #64]	; 0x40
 8002450:	e9d7 0106 	ldrd	r0, r1, [r7, #24]
 8002454:	e9d7 2308 	ldrd	r2, r3, [r7, #32]
 8002458:	f7fe f83e 	bl	80004d8 <__aeabi_dmul>
 800245c:	4602      	mov	r2, r0
 800245e:	460b      	mov	r3, r1
 8002460:	4620      	mov	r0, r4
 8002462:	4629      	mov	r1, r5
 8002464:	f7fd fe80 	bl	8000168 <__aeabi_dsub>
 8002468:	4602      	mov	r2, r0
 800246a:	460b      	mov	r3, r1
 800246c:	68f9      	ldr	r1, [r7, #12]
 800246e:	e9c1 2310 	strd	r2, r3, [r1, #64]	; 0x40

    return Kalman->angle;
 8002472:	68fb      	ldr	r3, [r7, #12]
 8002474:	e9d3 2306 	ldrd	r2, r3, [r3, #24]
};
 8002478:	4610      	mov	r0, r2
 800247a:	4619      	mov	r1, r3
 800247c:	3748      	adds	r7, #72	; 0x48
 800247e:	46bd      	mov	sp, r7
 8002480:	bdb0      	pop	{r4, r5, r7, pc}
	...

08002484 <_qFFMath_GetAbnormal>:
#define cast_reinterpret( dst, src, dst_type )                              \
(void)memcpy( &dst, &src, sizeof(dst_type) )                                \

/*============================================================================*/
float _qFFMath_GetAbnormal( const int i )
{
 8002484:	b480      	push	{r7}
 8002486:	b083      	sub	sp, #12
 8002488:	af00      	add	r7, sp, #0
 800248a:	6078      	str	r0, [r7, #4]
    static const uint32_t u_ab[ 2 ] = { 0x7F800000u, 0x7FBFFFFFu };
    static float f_ab[ 2 ] = { 0.0f, 0.0f };
    static bool init = true;

    if ( init ) {
 800248c:	4b0a      	ldr	r3, [pc, #40]	; (80024b8 <_qFFMath_GetAbnormal+0x34>)
 800248e:	781b      	ldrb	r3, [r3, #0]
 8002490:	2b00      	cmp	r3, #0
 8002492:	d008      	beq.n	80024a6 <_qFFMath_GetAbnormal+0x22>
        (void)memcpy( f_ab, u_ab, sizeof(f_ab) );
 8002494:	4b09      	ldr	r3, [pc, #36]	; (80024bc <_qFFMath_GetAbnormal+0x38>)
 8002496:	4a0a      	ldr	r2, [pc, #40]	; (80024c0 <_qFFMath_GetAbnormal+0x3c>)
 8002498:	e892 0003 	ldmia.w	r2, {r0, r1}
 800249c:	e883 0003 	stmia.w	r3, {r0, r1}
        init = false;
 80024a0:	4b05      	ldr	r3, [pc, #20]	; (80024b8 <_qFFMath_GetAbnormal+0x34>)
 80024a2:	2200      	movs	r2, #0
 80024a4:	701a      	strb	r2, [r3, #0]
    }

    return f_ab[ i ];
 80024a6:	4a05      	ldr	r2, [pc, #20]	; (80024bc <_qFFMath_GetAbnormal+0x38>)
 80024a8:	687b      	ldr	r3, [r7, #4]
 80024aa:	f852 3023 	ldr.w	r3, [r2, r3, lsl #2]
}
 80024ae:	4618      	mov	r0, r3
 80024b0:	370c      	adds	r7, #12
 80024b2:	46bd      	mov	sp, r7
 80024b4:	bc80      	pop	{r7}
 80024b6:	4770      	bx	lr
 80024b8:	200000a8 	.word	0x200000a8
 80024bc:	200005d8 	.word	0x200005d8
 80024c0:	08009ae8 	.word	0x08009ae8

080024c4 <qFFMath_FPClassify>:
/*============================================================================*/
int qFFMath_FPClassify( const float f )
{
 80024c4:	b480      	push	{r7}
 80024c6:	b085      	sub	sp, #20
 80024c8:	af00      	add	r7, sp, #0
 80024ca:	6078      	str	r0, [r7, #4]
    uint32_t u = 0u;
 80024cc:	2300      	movs	r3, #0
 80024ce:	60bb      	str	r3, [r7, #8]
 80024d0:	687b      	ldr	r3, [r7, #4]
    int retVal;

    cast_reinterpret( u, f, uint32_t );
 80024d2:	60bb      	str	r3, [r7, #8]
    u &= 0x7FFFFFFFu;
 80024d4:	68bb      	ldr	r3, [r7, #8]
 80024d6:	f023 4300 	bic.w	r3, r3, #2147483648	; 0x80000000
 80024da:	60bb      	str	r3, [r7, #8]

    if ( 0u == u ) {
 80024dc:	68bb      	ldr	r3, [r7, #8]
 80024de:	2b00      	cmp	r3, #0
 80024e0:	d102      	bne.n	80024e8 <qFFMath_FPClassify+0x24>
        retVal = QFFM_FP_ZERO;
 80024e2:	2300      	movs	r3, #0
 80024e4:	60fb      	str	r3, [r7, #12]
 80024e6:	e016      	b.n	8002516 <qFFMath_FPClassify+0x52>
    }
    else if ( u < 0x00800000u ) {
 80024e8:	68bb      	ldr	r3, [r7, #8]
 80024ea:	f5b3 0f00 	cmp.w	r3, #8388608	; 0x800000
 80024ee:	d202      	bcs.n	80024f6 <qFFMath_FPClassify+0x32>
        retVal = QFFM_FP_SUBNORMAL;
 80024f0:	2301      	movs	r3, #1
 80024f2:	60fb      	str	r3, [r7, #12]
 80024f4:	e00f      	b.n	8002516 <qFFMath_FPClassify+0x52>
    }
    else if ( u < 0x7F800000u ) {
 80024f6:	68bb      	ldr	r3, [r7, #8]
 80024f8:	f1b3 4fff 	cmp.w	r3, #2139095040	; 0x7f800000
 80024fc:	d202      	bcs.n	8002504 <qFFMath_FPClassify+0x40>
        retVal = QFFM_FP_NORMAL;
 80024fe:	2302      	movs	r3, #2
 8002500:	60fb      	str	r3, [r7, #12]
 8002502:	e008      	b.n	8002516 <qFFMath_FPClassify+0x52>
    }
    else if ( 0x7F800000U == u ) {
 8002504:	68bb      	ldr	r3, [r7, #8]
 8002506:	f1b3 4fff 	cmp.w	r3, #2139095040	; 0x7f800000
 800250a:	d102      	bne.n	8002512 <qFFMath_FPClassify+0x4e>
        retVal = QFFM_FP_INFINITE;
 800250c:	2303      	movs	r3, #3
 800250e:	60fb      	str	r3, [r7, #12]
 8002510:	e001      	b.n	8002516 <qFFMath_FPClassify+0x52>
    }
    else {
        retVal = QFFM_FP_NAN;
 8002512:	2304      	movs	r3, #4
 8002514:	60fb      	str	r3, [r7, #12]
    }

    return retVal;
 8002516:	68fb      	ldr	r3, [r7, #12]
}
 8002518:	4618      	mov	r0, r3
 800251a:	3714      	adds	r7, #20
 800251c:	46bd      	mov	sp, r7
 800251e:	bc80      	pop	{r7}
 8002520:	4770      	bx	lr

08002522 <qFFMath_IsNaN>:
/*============================================================================*/
bool qFFMath_IsNaN( const float x )
{
 8002522:	b580      	push	{r7, lr}
 8002524:	b082      	sub	sp, #8
 8002526:	af00      	add	r7, sp, #0
 8002528:	6078      	str	r0, [r7, #4]
    return ( QFFM_FP_NAN == qFFMath_FPClassify( x ) );
 800252a:	6878      	ldr	r0, [r7, #4]
 800252c:	f7ff ffca 	bl	80024c4 <qFFMath_FPClassify>
 8002530:	4603      	mov	r3, r0
 8002532:	2b04      	cmp	r3, #4
 8002534:	bf0c      	ite	eq
 8002536:	2301      	moveq	r3, #1
 8002538:	2300      	movne	r3, #0
 800253a:	b2db      	uxtb	r3, r3
}
 800253c:	4618      	mov	r0, r3
 800253e:	3708      	adds	r7, #8
 8002540:	46bd      	mov	sp, r7
 8002542:	bd80      	pop	{r7, pc}

08002544 <qFFMath_Abs>:
{
    return ( qFFMath_FPClassify( x ) == QFFM_FP_NORMAL );
}
/*============================================================================*/
float qFFMath_Abs( float x )
{
 8002544:	b580      	push	{r7, lr}
 8002546:	b082      	sub	sp, #8
 8002548:	af00      	add	r7, sp, #0
 800254a:	6078      	str	r0, [r7, #4]
    return ( x < 0.0f ) ? -x : x;
 800254c:	f04f 0100 	mov.w	r1, #0
 8002550:	6878      	ldr	r0, [r7, #4]
 8002552:	f7fe fd95 	bl	8001080 <__aeabi_fcmplt>
 8002556:	4603      	mov	r3, r0
 8002558:	2b00      	cmp	r3, #0
 800255a:	d003      	beq.n	8002564 <qFFMath_Abs+0x20>
 800255c:	687b      	ldr	r3, [r7, #4]
 800255e:	f083 4300 	eor.w	r3, r3, #2147483648	; 0x80000000
 8002562:	e000      	b.n	8002566 <qFFMath_Abs+0x22>
 8002564:	687b      	ldr	r3, [r7, #4]
}
 8002566:	4618      	mov	r0, r3
 8002568:	3708      	adds	r7, #8
 800256a:	46bd      	mov	sp, r7
 800256c:	bd80      	pop	{r7, pc}

0800256e <qFFMath_Sqrt>:

    return z*( 2.0f - ( x*z ) );
}
/*============================================================================*/
float qFFMath_Sqrt( float x )
{
 800256e:	b580      	push	{r7, lr}
 8002570:	b086      	sub	sp, #24
 8002572:	af00      	add	r7, sp, #0
 8002574:	6078      	str	r0, [r7, #4]
    float retVal;

    if ( x < 0.0f ) {
 8002576:	687b      	ldr	r3, [r7, #4]
 8002578:	f04f 0100 	mov.w	r1, #0
 800257c:	4618      	mov	r0, r3
 800257e:	f7fe fd7f 	bl	8001080 <__aeabi_fcmplt>
 8002582:	4603      	mov	r3, r0
 8002584:	2b00      	cmp	r3, #0
 8002586:	d004      	beq.n	8002592 <qFFMath_Sqrt+0x24>
        retVal = QFFM_NAN;
 8002588:	2001      	movs	r0, #1
 800258a:	f7ff ff7b 	bl	8002484 <_qFFMath_GetAbnormal>
 800258e:	6178      	str	r0, [r7, #20]
 8002590:	e02f      	b.n	80025f2 <qFFMath_Sqrt+0x84>
    }
    else if ( QFFM_FP_ZERO == qFFMath_FPClassify( x ) ) {
 8002592:	687b      	ldr	r3, [r7, #4]
 8002594:	4618      	mov	r0, r3
 8002596:	f7ff ff95 	bl	80024c4 <qFFMath_FPClassify>
 800259a:	4603      	mov	r3, r0
 800259c:	2b00      	cmp	r3, #0
 800259e:	d103      	bne.n	80025a8 <qFFMath_Sqrt+0x3a>
        retVal = 0.0f;
 80025a0:	f04f 0300 	mov.w	r3, #0
 80025a4:	617b      	str	r3, [r7, #20]
 80025a6:	e024      	b.n	80025f2 <qFFMath_Sqrt+0x84>
    }
    else {
        uint32_t y = 0u;
 80025a8:	2300      	movs	r3, #0
 80025aa:	613b      	str	r3, [r7, #16]
        float z = 0.0f;
 80025ac:	f04f 0300 	mov.w	r3, #0
 80025b0:	60fb      	str	r3, [r7, #12]
 80025b2:	687b      	ldr	r3, [r7, #4]

        cast_reinterpret( y, x, uint32_t );
 80025b4:	613b      	str	r3, [r7, #16]
        y = ( ( y - 0x00800000u ) >> 1u ) + 0x20000000u;
 80025b6:	693b      	ldr	r3, [r7, #16]
 80025b8:	f5a3 0300 	sub.w	r3, r3, #8388608	; 0x800000
 80025bc:	085b      	lsrs	r3, r3, #1
 80025be:	f103 5300 	add.w	r3, r3, #536870912	; 0x20000000
 80025c2:	613b      	str	r3, [r7, #16]
 80025c4:	693b      	ldr	r3, [r7, #16]
        cast_reinterpret( z, y, float );
 80025c6:	60fb      	str	r3, [r7, #12]
        retVal = ( ( x/z ) + z ) * 0.5f;
 80025c8:	687b      	ldr	r3, [r7, #4]
 80025ca:	68fa      	ldr	r2, [r7, #12]
 80025cc:	4611      	mov	r1, r2
 80025ce:	4618      	mov	r0, r3
 80025d0:	f7fe fc6c 	bl	8000eac <__aeabi_fdiv>
 80025d4:	4603      	mov	r3, r0
 80025d6:	461a      	mov	r2, r3
 80025d8:	68fb      	ldr	r3, [r7, #12]
 80025da:	4619      	mov	r1, r3
 80025dc:	4610      	mov	r0, r2
 80025de:	f7fe faa9 	bl	8000b34 <__addsf3>
 80025e2:	4603      	mov	r3, r0
 80025e4:	f04f 517c 	mov.w	r1, #1056964608	; 0x3f000000
 80025e8:	4618      	mov	r0, r3
 80025ea:	f7fe fbab 	bl	8000d44 <__aeabi_fmul>
 80025ee:	4603      	mov	r3, r0
 80025f0:	617b      	str	r3, [r7, #20]
    }

    return retVal;
 80025f2:	697b      	ldr	r3, [r7, #20]
}
 80025f4:	4618      	mov	r0, r3
 80025f6:	3718      	adds	r7, #24
 80025f8:	46bd      	mov	sp, r7
 80025fa:	bd80      	pop	{r7, pc}

080025fc <qFFMath_Sin>:
    return ( QFFM_FP_ZERO == qFFMath_FPClassify( x )) ? QFFM_NAN
                                                      : ( x - ( y*qFFMath_Trunc( x/y ) ) );
}
/*============================================================================*/
float qFFMath_Sin( float x )
{
 80025fc:	b580      	push	{r7, lr}
 80025fe:	b084      	sub	sp, #16
 8002600:	af00      	add	r7, sp, #0
 8002602:	6078      	str	r0, [r7, #4]
    float y;
    x *= -0.318309886f;
 8002604:	491e      	ldr	r1, [pc, #120]	; (8002680 <qFFMath_Sin+0x84>)
 8002606:	6878      	ldr	r0, [r7, #4]
 8002608:	f7fe fb9c 	bl	8000d44 <__aeabi_fmul>
 800260c:	4603      	mov	r3, r0
 800260e:	607b      	str	r3, [r7, #4]
    y = x + 25165824.0f;
 8002610:	491c      	ldr	r1, [pc, #112]	; (8002684 <qFFMath_Sin+0x88>)
 8002612:	6878      	ldr	r0, [r7, #4]
 8002614:	f7fe fa8e 	bl	8000b34 <__addsf3>
 8002618:	4603      	mov	r3, r0
 800261a:	60fb      	str	r3, [r7, #12]
    x -= y - 25165824.0f;
 800261c:	4919      	ldr	r1, [pc, #100]	; (8002684 <qFFMath_Sin+0x88>)
 800261e:	68f8      	ldr	r0, [r7, #12]
 8002620:	f7fe fa86 	bl	8000b30 <__aeabi_fsub>
 8002624:	4603      	mov	r3, r0
 8002626:	4619      	mov	r1, r3
 8002628:	6878      	ldr	r0, [r7, #4]
 800262a:	f7fe fa81 	bl	8000b30 <__aeabi_fsub>
 800262e:	4603      	mov	r3, r0
 8002630:	607b      	str	r3, [r7, #4]
    x *= qFFMath_Abs( x ) - 1.0f;
 8002632:	6878      	ldr	r0, [r7, #4]
 8002634:	f7ff ff86 	bl	8002544 <qFFMath_Abs>
 8002638:	4603      	mov	r3, r0
 800263a:	f04f 517e 	mov.w	r1, #1065353216	; 0x3f800000
 800263e:	4618      	mov	r0, r3
 8002640:	f7fe fa76 	bl	8000b30 <__aeabi_fsub>
 8002644:	4603      	mov	r3, r0
 8002646:	4619      	mov	r1, r3
 8002648:	6878      	ldr	r0, [r7, #4]
 800264a:	f7fe fb7b 	bl	8000d44 <__aeabi_fmul>
 800264e:	4603      	mov	r3, r0
 8002650:	607b      	str	r3, [r7, #4]
    return x*( ( 3.5841304553896f*qFFMath_Abs( x ) ) + 3.1039673861526f );
 8002652:	6878      	ldr	r0, [r7, #4]
 8002654:	f7ff ff76 	bl	8002544 <qFFMath_Abs>
 8002658:	4603      	mov	r3, r0
 800265a:	490b      	ldr	r1, [pc, #44]	; (8002688 <qFFMath_Sin+0x8c>)
 800265c:	4618      	mov	r0, r3
 800265e:	f7fe fb71 	bl	8000d44 <__aeabi_fmul>
 8002662:	4603      	mov	r3, r0
 8002664:	4909      	ldr	r1, [pc, #36]	; (800268c <qFFMath_Sin+0x90>)
 8002666:	4618      	mov	r0, r3
 8002668:	f7fe fa64 	bl	8000b34 <__addsf3>
 800266c:	4603      	mov	r3, r0
 800266e:	6879      	ldr	r1, [r7, #4]
 8002670:	4618      	mov	r0, r3
 8002672:	f7fe fb67 	bl	8000d44 <__aeabi_fmul>
 8002676:	4603      	mov	r3, r0
}
 8002678:	4618      	mov	r0, r3
 800267a:	3710      	adds	r7, #16
 800267c:	46bd      	mov	sp, r7
 800267e:	bd80      	pop	{r7, pc}
 8002680:	bea2f983 	.word	0xbea2f983
 8002684:	4bc00000 	.word	0x4bc00000
 8002688:	40656265 	.word	0x40656265
 800268c:	4046a767 	.word	0x4046a767

08002690 <qFFMath_Cos>:
/*============================================================================*/
float qFFMath_Cos( float x )
{
 8002690:	b580      	push	{r7, lr}
 8002692:	b082      	sub	sp, #8
 8002694:	af00      	add	r7, sp, #0
 8002696:	6078      	str	r0, [r7, #4]
    return qFFMath_Sin( x + 1.570796327f );
 8002698:	4906      	ldr	r1, [pc, #24]	; (80026b4 <qFFMath_Cos+0x24>)
 800269a:	6878      	ldr	r0, [r7, #4]
 800269c:	f7fe fa4a 	bl	8000b34 <__addsf3>
 80026a0:	4603      	mov	r3, r0
 80026a2:	4618      	mov	r0, r3
 80026a4:	f7ff ffaa 	bl	80025fc <qFFMath_Sin>
 80026a8:	4603      	mov	r3, r0
}
 80026aa:	4618      	mov	r0, r3
 80026ac:	3708      	adds	r7, #8
 80026ae:	46bd      	mov	sp, r7
 80026b0:	bd80      	pop	{r7, pc}
 80026b2:	bf00      	nop
 80026b4:	3fc90fdb 	.word	0x3fc90fdb

080026b8 <qFFMath_Exp2>:
    y = qFFMath_ATan( y/( x + f ) ) + ( ( x < 0.0f ) ? t : 0.0f );
    return y + ( f*( ( 0.5f*t ) - y ) );
}
/*============================================================================*/
float qFFMath_Exp2( float x )
{
 80026b8:	b580      	push	{r7, lr}
 80026ba:	b086      	sub	sp, #24
 80026bc:	af00      	add	r7, sp, #0
 80026be:	6078      	str	r0, [r7, #4]
    float retVal;

    if ( x <= -126.0f ) {
 80026c0:	492e      	ldr	r1, [pc, #184]	; (800277c <qFFMath_Exp2+0xc4>)
 80026c2:	6878      	ldr	r0, [r7, #4]
 80026c4:	f7fe fce6 	bl	8001094 <__aeabi_fcmple>
 80026c8:	4603      	mov	r3, r0
 80026ca:	2b00      	cmp	r3, #0
 80026cc:	d003      	beq.n	80026d6 <qFFMath_Exp2+0x1e>
        retVal = 0.0f;
 80026ce:	f04f 0300 	mov.w	r3, #0
 80026d2:	617b      	str	r3, [r7, #20]
 80026d4:	e04c      	b.n	8002770 <qFFMath_Exp2+0xb8>
    }
    else if ( x > 128.0f ) {
 80026d6:	f04f 4186 	mov.w	r1, #1124073472	; 0x43000000
 80026da:	6878      	ldr	r0, [r7, #4]
 80026dc:	f7fe fcee 	bl	80010bc <__aeabi_fcmpgt>
 80026e0:	4603      	mov	r3, r0
 80026e2:	2b00      	cmp	r3, #0
 80026e4:	d004      	beq.n	80026f0 <qFFMath_Exp2+0x38>
        retVal = QFFM_INFINITY;
 80026e6:	2000      	movs	r0, #0
 80026e8:	f7ff fecc 	bl	8002484 <_qFFMath_GetAbnormal>
 80026ec:	6178      	str	r0, [r7, #20]
 80026ee:	e03f      	b.n	8002770 <qFFMath_Exp2+0xb8>
    }
    else {
        float y = 0.0f;
 80026f0:	f04f 0300 	mov.w	r3, #0
 80026f4:	613b      	str	r3, [r7, #16]
        uint32_t exponent;
        /*cstat -CERT-FLP34-C -MISRAC2012-Rule-10.8*/
        exponent = (uint32_t)( x + 127.0f );
 80026f6:	4922      	ldr	r1, [pc, #136]	; (8002780 <qFFMath_Exp2+0xc8>)
 80026f8:	6878      	ldr	r0, [r7, #4]
 80026fa:	f7fe fa1b 	bl	8000b34 <__addsf3>
 80026fe:	4603      	mov	r3, r0
 8002700:	4618      	mov	r0, r3
 8002702:	f7fe fd0b 	bl	800111c <__aeabi_f2uiz>
 8002706:	4603      	mov	r3, r0
 8002708:	60fb      	str	r3, [r7, #12]
        /*cstat +CERT-FLP34-C +MISRAC2012-Rule-10.8 -CERT-FLP36-C*/
        x += 127.0f - (float)exponent;
 800270a:	68fb      	ldr	r3, [r7, #12]
 800270c:	4618      	mov	r0, r3
 800270e:	f7fe fac1 	bl	8000c94 <__aeabi_ui2f>
 8002712:	4603      	mov	r3, r0
 8002714:	4619      	mov	r1, r3
 8002716:	481a      	ldr	r0, [pc, #104]	; (8002780 <qFFMath_Exp2+0xc8>)
 8002718:	f7fe fa0a 	bl	8000b30 <__aeabi_fsub>
 800271c:	4603      	mov	r3, r0
 800271e:	4619      	mov	r1, r3
 8002720:	6878      	ldr	r0, [r7, #4]
 8002722:	f7fe fa07 	bl	8000b34 <__addsf3>
 8002726:	4603      	mov	r3, r0
 8002728:	607b      	str	r3, [r7, #4]
        /*cstat +CERT-FLP36-C*/
        exponent <<= 23u;
 800272a:	68fb      	ldr	r3, [r7, #12]
 800272c:	05db      	lsls	r3, r3, #23
 800272e:	60fb      	str	r3, [r7, #12]
 8002730:	68fb      	ldr	r3, [r7, #12]
        cast_reinterpret( y, exponent, float );
 8002732:	613b      	str	r3, [r7, #16]
        x *= ( x*0.339766027f ) + 0.660233972f;
 8002734:	4913      	ldr	r1, [pc, #76]	; (8002784 <qFFMath_Exp2+0xcc>)
 8002736:	6878      	ldr	r0, [r7, #4]
 8002738:	f7fe fb04 	bl	8000d44 <__aeabi_fmul>
 800273c:	4603      	mov	r3, r0
 800273e:	4912      	ldr	r1, [pc, #72]	; (8002788 <qFFMath_Exp2+0xd0>)
 8002740:	4618      	mov	r0, r3
 8002742:	f7fe f9f7 	bl	8000b34 <__addsf3>
 8002746:	4603      	mov	r3, r0
 8002748:	4619      	mov	r1, r3
 800274a:	6878      	ldr	r0, [r7, #4]
 800274c:	f7fe fafa 	bl	8000d44 <__aeabi_fmul>
 8002750:	4603      	mov	r3, r0
 8002752:	607b      	str	r3, [r7, #4]
        retVal = y*( x + 1.0f );
 8002754:	f04f 517e 	mov.w	r1, #1065353216	; 0x3f800000
 8002758:	6878      	ldr	r0, [r7, #4]
 800275a:	f7fe f9eb 	bl	8000b34 <__addsf3>
 800275e:	4603      	mov	r3, r0
 8002760:	461a      	mov	r2, r3
 8002762:	693b      	ldr	r3, [r7, #16]
 8002764:	4619      	mov	r1, r3
 8002766:	4610      	mov	r0, r2
 8002768:	f7fe faec 	bl	8000d44 <__aeabi_fmul>
 800276c:	4603      	mov	r3, r0
 800276e:	617b      	str	r3, [r7, #20]
    }

    return retVal;
 8002770:	697b      	ldr	r3, [r7, #20]
}
 8002772:	4618      	mov	r0, r3
 8002774:	3718      	adds	r7, #24
 8002776:	46bd      	mov	sp, r7
 8002778:	bd80      	pop	{r7, pc}
 800277a:	bf00      	nop
 800277c:	c2fc0000 	.word	0xc2fc0000
 8002780:	42fe0000 	.word	0x42fe0000
 8002784:	3eadf5d0 	.word	0x3eadf5d0
 8002788:	3f290518 	.word	0x3f290518

0800278c <qFFMath_Log2>:
/*============================================================================*/
float qFFMath_Log2( float x )
{
 800278c:	b580      	push	{r7, lr}
 800278e:	b086      	sub	sp, #24
 8002790:	af00      	add	r7, sp, #0
 8002792:	6078      	str	r0, [r7, #4]
    float retVal;

    if ( x < 0.0f ) {
 8002794:	687b      	ldr	r3, [r7, #4]
 8002796:	f04f 0100 	mov.w	r1, #0
 800279a:	4618      	mov	r0, r3
 800279c:	f7fe fc70 	bl	8001080 <__aeabi_fcmplt>
 80027a0:	4603      	mov	r3, r0
 80027a2:	2b00      	cmp	r3, #0
 80027a4:	d004      	beq.n	80027b0 <qFFMath_Log2+0x24>
        retVal = QFFM_NAN;
 80027a6:	2001      	movs	r0, #1
 80027a8:	f7ff fe6c 	bl	8002484 <_qFFMath_GetAbnormal>
 80027ac:	6178      	str	r0, [r7, #20]
 80027ae:	e049      	b.n	8002844 <qFFMath_Log2+0xb8>
    }
    else if ( QFFM_FP_ZERO == qFFMath_FPClassify( x ) ) {
 80027b0:	687b      	ldr	r3, [r7, #4]
 80027b2:	4618      	mov	r0, r3
 80027b4:	f7ff fe86 	bl	80024c4 <qFFMath_FPClassify>
 80027b8:	4603      	mov	r3, r0
 80027ba:	2b00      	cmp	r3, #0
 80027bc:	d107      	bne.n	80027ce <qFFMath_Log2+0x42>
        retVal = -QFFM_INFINITY;
 80027be:	2000      	movs	r0, #0
 80027c0:	f7ff fe60 	bl	8002484 <_qFFMath_GetAbnormal>
 80027c4:	4603      	mov	r3, r0
 80027c6:	f083 4300 	eor.w	r3, r3, #2147483648	; 0x80000000
 80027ca:	617b      	str	r3, [r7, #20]
 80027cc:	e03a      	b.n	8002844 <qFFMath_Log2+0xb8>
    }
    else {
        uint32_t y = 0u, y2;
 80027ce:	2300      	movs	r3, #0
 80027d0:	60fb      	str	r3, [r7, #12]
 80027d2:	687b      	ldr	r3, [r7, #4]

        cast_reinterpret( y, x, uint32_t );
 80027d4:	60fb      	str	r3, [r7, #12]
        y2 = y;
 80027d6:	68fb      	ldr	r3, [r7, #12]
 80027d8:	613b      	str	r3, [r7, #16]
        y >>= 23u;
 80027da:	68fb      	ldr	r3, [r7, #12]
 80027dc:	0ddb      	lsrs	r3, r3, #23
 80027de:	60fb      	str	r3, [r7, #12]
        /*cstat -CERT-FLP36-C*/
        retVal = (float)y;
 80027e0:	68fb      	ldr	r3, [r7, #12]
 80027e2:	4618      	mov	r0, r3
 80027e4:	f7fe fa56 	bl	8000c94 <__aeabi_ui2f>
 80027e8:	4603      	mov	r3, r0
 80027ea:	617b      	str	r3, [r7, #20]
        /*cstat +CERT-FLP36-C*/
        y = ( y2 & 0x007FFFFFu ) | 0x3F800000u;
 80027ec:	693b      	ldr	r3, [r7, #16]
 80027ee:	f3c3 0316 	ubfx	r3, r3, #0, #23
 80027f2:	f043 537e 	orr.w	r3, r3, #1065353216	; 0x3f800000
 80027f6:	60fb      	str	r3, [r7, #12]
 80027f8:	68fb      	ldr	r3, [r7, #12]
        cast_reinterpret( x, y, float );
 80027fa:	607b      	str	r3, [r7, #4]
        retVal += -128.0f + ( x*( ( -0.333333333f*x ) + 2.0f ) ) - 0.666666666f;
 80027fc:	687b      	ldr	r3, [r7, #4]
 80027fe:	4914      	ldr	r1, [pc, #80]	; (8002850 <qFFMath_Log2+0xc4>)
 8002800:	4618      	mov	r0, r3
 8002802:	f7fe fa9f 	bl	8000d44 <__aeabi_fmul>
 8002806:	4603      	mov	r3, r0
 8002808:	f04f 4180 	mov.w	r1, #1073741824	; 0x40000000
 800280c:	4618      	mov	r0, r3
 800280e:	f7fe f991 	bl	8000b34 <__addsf3>
 8002812:	4603      	mov	r3, r0
 8002814:	461a      	mov	r2, r3
 8002816:	687b      	ldr	r3, [r7, #4]
 8002818:	4619      	mov	r1, r3
 800281a:	4610      	mov	r0, r2
 800281c:	f7fe fa92 	bl	8000d44 <__aeabi_fmul>
 8002820:	4603      	mov	r3, r0
 8002822:	f04f 4186 	mov.w	r1, #1124073472	; 0x43000000
 8002826:	4618      	mov	r0, r3
 8002828:	f7fe f982 	bl	8000b30 <__aeabi_fsub>
 800282c:	4603      	mov	r3, r0
 800282e:	4909      	ldr	r1, [pc, #36]	; (8002854 <qFFMath_Log2+0xc8>)
 8002830:	4618      	mov	r0, r3
 8002832:	f7fe f97d 	bl	8000b30 <__aeabi_fsub>
 8002836:	4603      	mov	r3, r0
 8002838:	4619      	mov	r1, r3
 800283a:	6978      	ldr	r0, [r7, #20]
 800283c:	f7fe f97a 	bl	8000b34 <__addsf3>
 8002840:	4603      	mov	r3, r0
 8002842:	617b      	str	r3, [r7, #20]
    }

    return retVal;
 8002844:	697b      	ldr	r3, [r7, #20]
}
 8002846:	4618      	mov	r0, r3
 8002848:	3718      	adds	r7, #24
 800284a:	46bd      	mov	sp, r7
 800284c:	bd80      	pop	{r7, pc}
 800284e:	bf00      	nop
 8002850:	beaaaaab 	.word	0xbeaaaaab
 8002854:	3f2aaaab 	.word	0x3f2aaaab

08002858 <qFFMath_Exp>:
/*============================================================================*/
float qFFMath_Exp( float x )
{
 8002858:	b580      	push	{r7, lr}
 800285a:	b082      	sub	sp, #8
 800285c:	af00      	add	r7, sp, #0
 800285e:	6078      	str	r0, [r7, #4]
    return qFFMath_Exp2( 1.442695041f*x );
 8002860:	4906      	ldr	r1, [pc, #24]	; (800287c <qFFMath_Exp+0x24>)
 8002862:	6878      	ldr	r0, [r7, #4]
 8002864:	f7fe fa6e 	bl	8000d44 <__aeabi_fmul>
 8002868:	4603      	mov	r3, r0
 800286a:	4618      	mov	r0, r3
 800286c:	f7ff ff24 	bl	80026b8 <qFFMath_Exp2>
 8002870:	4603      	mov	r3, r0
}
 8002872:	4618      	mov	r0, r3
 8002874:	3708      	adds	r7, #8
 8002876:	46bd      	mov	sp, r7
 8002878:	bd80      	pop	{r7, pc}
 800287a:	bf00      	nop
 800287c:	3fb8aa3b 	.word	0x3fb8aa3b

08002880 <qFFMath_Log>:
{
    return qFFMath_Exp2( 3.32192809f*x );
}
/*============================================================================*/
float qFFMath_Log( float x )
{
 8002880:	b580      	push	{r7, lr}
 8002882:	b082      	sub	sp, #8
 8002884:	af00      	add	r7, sp, #0
 8002886:	6078      	str	r0, [r7, #4]
    return 0.693147181f*qFFMath_Log2(x);
 8002888:	6878      	ldr	r0, [r7, #4]
 800288a:	f7ff ff7f 	bl	800278c <qFFMath_Log2>
 800288e:	4603      	mov	r3, r0
 8002890:	4904      	ldr	r1, [pc, #16]	; (80028a4 <qFFMath_Log+0x24>)
 8002892:	4618      	mov	r0, r3
 8002894:	f7fe fa56 	bl	8000d44 <__aeabi_fmul>
 8002898:	4603      	mov	r3, r0
}
 800289a:	4618      	mov	r0, r3
 800289c:	3708      	adds	r7, #8
 800289e:	46bd      	mov	sp, r7
 80028a0:	bd80      	pop	{r7, pc}
 80028a2:	bf00      	nop
 80028a4:	3f317218 	.word	0x3f317218

080028a8 <qFFMath_Pow>:
    return 0.301029996f*qFFMath_Log2(x);
}
/*============================================================================*/
float qFFMath_Pow( float b,
                   float e )
{
 80028a8:	b580      	push	{r7, lr}
 80028aa:	b082      	sub	sp, #8
 80028ac:	af00      	add	r7, sp, #0
 80028ae:	6078      	str	r0, [r7, #4]
 80028b0:	6039      	str	r1, [r7, #0]
    return qFFMath_Exp2( e*qFFMath_Log2( b ) );
 80028b2:	6878      	ldr	r0, [r7, #4]
 80028b4:	f7ff ff6a 	bl	800278c <qFFMath_Log2>
 80028b8:	4603      	mov	r3, r0
 80028ba:	6839      	ldr	r1, [r7, #0]
 80028bc:	4618      	mov	r0, r3
 80028be:	f7fe fa41 	bl	8000d44 <__aeabi_fmul>
 80028c2:	4603      	mov	r3, r0
 80028c4:	4618      	mov	r0, r3
 80028c6:	f7ff fef7 	bl	80026b8 <qFFMath_Exp2>
 80028ca:	4603      	mov	r3, r0
}
 80028cc:	4618      	mov	r0, r3
 80028ce:	3708      	adds	r7, #8
 80028d0:	46bd      	mov	sp, r7
 80028d2:	bd80      	pop	{r7, pc}

080028d4 <qFIS_SetParameter>:

/*============================================================================*/
int qFIS_SetParameter( qFIS_t * const f,
                       const qFIS_Parameter_t p,
                       const qFIS_ParamValue_t x )
{
 80028d4:	b480      	push	{r7}
 80028d6:	b085      	sub	sp, #20
 80028d8:	af00      	add	r7, sp, #0
 80028da:	6078      	str	r0, [r7, #4]
 80028dc:	460b      	mov	r3, r1
 80028de:	70fb      	strb	r3, [r7, #3]
 80028e0:	4613      	mov	r3, r2
 80028e2:	70bb      	strb	r3, [r7, #2]
    int retVal = 0;
 80028e4:	2300      	movs	r3, #0
 80028e6:	60fb      	str	r3, [r7, #12]
    typedef float (*methods_fcn)( const float a, const float b );
    static const methods_fcn method[ 5 ] = { &qFIS_Min, &qFIS_Prod, &qFIS_Max,
                                             &qFIS_ProbOR, &qFIS_Sum
                                           };

    if ( NULL != f ) {
 80028e8:	687b      	ldr	r3, [r7, #4]
 80028ea:	2b00      	cmp	r3, #0
 80028ec:	d05a      	beq.n	80029a4 <qFIS_SetParameter+0xd0>
        switch ( p ) {
 80028ee:	78fb      	ldrb	r3, [r7, #3]
 80028f0:	2b04      	cmp	r3, #4
 80028f2:	d84c      	bhi.n	800298e <qFIS_SetParameter+0xba>
 80028f4:	a201      	add	r2, pc, #4	; (adr r2, 80028fc <qFIS_SetParameter+0x28>)
 80028f6:	f852 f023 	ldr.w	pc, [r2, r3, lsl #2]
 80028fa:	bf00      	nop
 80028fc:	08002911 	.word	0x08002911
 8002900:	08002929 	.word	0x08002929
 8002904:	08002947 	.word	0x08002947
 8002908:	0800295f 	.word	0x0800295f
 800290c:	0800297d 	.word	0x0800297d
            case qFIS_Implication:
                if ( x <= qFIS_PROD ) {
 8002910:	78bb      	ldrb	r3, [r7, #2]
 8002912:	2b01      	cmp	r3, #1
 8002914:	d83d      	bhi.n	8002992 <qFIS_SetParameter+0xbe>
                    f->implicate = method[ x ];
 8002916:	78bb      	ldrb	r3, [r7, #2]
 8002918:	4a25      	ldr	r2, [pc, #148]	; (80029b0 <qFIS_SetParameter+0xdc>)
 800291a:	f852 2023 	ldr.w	r2, [r2, r3, lsl #2]
 800291e:	687b      	ldr	r3, [r7, #4]
 8002920:	619a      	str	r2, [r3, #24]
                    retVal = 1;
 8002922:	2301      	movs	r3, #1
 8002924:	60fb      	str	r3, [r7, #12]
                }
                break;
 8002926:	e034      	b.n	8002992 <qFIS_SetParameter+0xbe>
            case qFIS_Aggregation:
                if ( ( x >= qFIS_MAX ) && ( x <= qFIS_SUM ) ) {
 8002928:	78bb      	ldrb	r3, [r7, #2]
 800292a:	2b01      	cmp	r3, #1
 800292c:	d933      	bls.n	8002996 <qFIS_SetParameter+0xc2>
 800292e:	78bb      	ldrb	r3, [r7, #2]
 8002930:	2b04      	cmp	r3, #4
 8002932:	d830      	bhi.n	8002996 <qFIS_SetParameter+0xc2>
                    f->aggregate = method[ x ];
 8002934:	78bb      	ldrb	r3, [r7, #2]
 8002936:	4a1e      	ldr	r2, [pc, #120]	; (80029b0 <qFIS_SetParameter+0xdc>)
 8002938:	f852 2023 	ldr.w	r2, [r2, r3, lsl #2]
 800293c:	687b      	ldr	r3, [r7, #4]
 800293e:	61da      	str	r2, [r3, #28]
                    retVal = 1;
 8002940:	2301      	movs	r3, #1
 8002942:	60fb      	str	r3, [r7, #12]
                }
                break;
 8002944:	e027      	b.n	8002996 <qFIS_SetParameter+0xc2>
            case qFIS_AND:
                if ( x <= qFIS_PROD ) {
 8002946:	78bb      	ldrb	r3, [r7, #2]
 8002948:	2b01      	cmp	r3, #1
 800294a:	d826      	bhi.n	800299a <qFIS_SetParameter+0xc6>
                    f->andOp = method[ x ];
 800294c:	78bb      	ldrb	r3, [r7, #2]
 800294e:	4a18      	ldr	r2, [pc, #96]	; (80029b0 <qFIS_SetParameter+0xdc>)
 8002950:	f852 2023 	ldr.w	r2, [r2, r3, lsl #2]
 8002954:	687b      	ldr	r3, [r7, #4]
 8002956:	611a      	str	r2, [r3, #16]
                    retVal = 1;
 8002958:	2301      	movs	r3, #1
 800295a:	60fb      	str	r3, [r7, #12]
                }
                break;
 800295c:	e01d      	b.n	800299a <qFIS_SetParameter+0xc6>
            case qFIS_OR:
                if ( ( x >= qFIS_MAX ) && ( x <= qFIS_PROBOR ) ) {
 800295e:	78bb      	ldrb	r3, [r7, #2]
 8002960:	2b01      	cmp	r3, #1
 8002962:	d91c      	bls.n	800299e <qFIS_SetParameter+0xca>
 8002964:	78bb      	ldrb	r3, [r7, #2]
 8002966:	2b03      	cmp	r3, #3
 8002968:	d819      	bhi.n	800299e <qFIS_SetParameter+0xca>
                    f->orOp = method[ x ];
 800296a:	78bb      	ldrb	r3, [r7, #2]
 800296c:	4a10      	ldr	r2, [pc, #64]	; (80029b0 <qFIS_SetParameter+0xdc>)
 800296e:	f852 2023 	ldr.w	r2, [r2, r3, lsl #2]
 8002972:	687b      	ldr	r3, [r7, #4]
 8002974:	615a      	str	r2, [r3, #20]
                    retVal = 1;
 8002976:	2301      	movs	r3, #1
 8002978:	60fb      	str	r3, [r7, #12]
                }
                break;
 800297a:	e010      	b.n	800299e <qFIS_SetParameter+0xca>
            case qFIS_EvalPoints:
                if ( (int)x >= 20 ) {
 800297c:	78bb      	ldrb	r3, [r7, #2]
 800297e:	2b13      	cmp	r3, #19
 8002980:	d90f      	bls.n	80029a2 <qFIS_SetParameter+0xce>
                    f->nPoints = (size_t)x;
 8002982:	78ba      	ldrb	r2, [r7, #2]
 8002984:	687b      	ldr	r3, [r7, #4]
 8002986:	64da      	str	r2, [r3, #76]	; 0x4c
                    retVal = 1;
 8002988:	2301      	movs	r3, #1
 800298a:	60fb      	str	r3, [r7, #12]
                }
                break;
 800298c:	e009      	b.n	80029a2 <qFIS_SetParameter+0xce>
            default:
                break;
 800298e:	bf00      	nop
 8002990:	e008      	b.n	80029a4 <qFIS_SetParameter+0xd0>
                break;
 8002992:	bf00      	nop
 8002994:	e006      	b.n	80029a4 <qFIS_SetParameter+0xd0>
                break;
 8002996:	bf00      	nop
 8002998:	e004      	b.n	80029a4 <qFIS_SetParameter+0xd0>
                break;
 800299a:	bf00      	nop
 800299c:	e002      	b.n	80029a4 <qFIS_SetParameter+0xd0>
                break;
 800299e:	bf00      	nop
 80029a0:	e000      	b.n	80029a4 <qFIS_SetParameter+0xd0>
                break;
 80029a2:	bf00      	nop
        }
    }

    return retVal;
 80029a4:	68fb      	ldr	r3, [r7, #12]
}
 80029a6:	4618      	mov	r0, r3
 80029a8:	3714      	adds	r7, #20
 80029aa:	46bd      	mov	sp, r7
 80029ac:	bc80      	pop	{r7}
 80029ae:	4770      	bx	lr
 80029b0:	08009af0 	.word	0x08009af0

080029b4 <qFIS_Setup>:
                qFIS_MF_t *const mf_outputs,
                const size_t nmo,
                const qFIS_Rules_t * const r,
                float *wi,
                const size_t n )
{
 80029b4:	b5b0      	push	{r4, r5, r7, lr}
 80029b6:	b086      	sub	sp, #24
 80029b8:	af00      	add	r7, sp, #0
 80029ba:	60f8      	str	r0, [r7, #12]
 80029bc:	607a      	str	r2, [r7, #4]
 80029be:	603b      	str	r3, [r7, #0]
 80029c0:	460b      	mov	r3, r1
 80029c2:	72fb      	strb	r3, [r7, #11]
    int retVal = 0;
 80029c4:	2300      	movs	r3, #0
 80029c6:	617b      	str	r3, [r7, #20]

    if ( ( NULL != f ) && ( t <= Tsukamoto ) && ( NULL != r ) && ( NULL != wi ) ) {
 80029c8:	68fb      	ldr	r3, [r7, #12]
 80029ca:	2b00      	cmp	r3, #0
 80029cc:	f000 80bb 	beq.w	8002b46 <qFIS_Setup+0x192>
 80029d0:	7afb      	ldrb	r3, [r7, #11]
 80029d2:	2b02      	cmp	r3, #2
 80029d4:	f200 80b7 	bhi.w	8002b46 <qFIS_Setup+0x192>
 80029d8:	6c3b      	ldr	r3, [r7, #64]	; 0x40
 80029da:	2b00      	cmp	r3, #0
 80029dc:	f000 80b3 	beq.w	8002b46 <qFIS_Setup+0x192>
 80029e0:	6c7b      	ldr	r3, [r7, #68]	; 0x44
 80029e2:	2b00      	cmp	r3, #0
 80029e4:	f000 80af 	beq.w	8002b46 <qFIS_Setup+0x192>
        size_t i;

        f->nInputs = ni/sizeof(qFIS_Input_t);
 80029e8:	683b      	ldr	r3, [r7, #0]
 80029ea:	4a59      	ldr	r2, [pc, #356]	; (8002b50 <qFIS_Setup+0x19c>)
 80029ec:	fba2 2303 	umull	r2, r3, r2, r3
 80029f0:	08da      	lsrs	r2, r3, #3
 80029f2:	68fb      	ldr	r3, [r7, #12]
 80029f4:	63da      	str	r2, [r3, #60]	; 0x3c
        f->nOutputs = no/sizeof(qFIS_Output_t);
 80029f6:	6afb      	ldr	r3, [r7, #44]	; 0x2c
 80029f8:	4a56      	ldr	r2, [pc, #344]	; (8002b54 <qFIS_Setup+0x1a0>)
 80029fa:	fba2 2303 	umull	r2, r3, r2, r3
 80029fe:	091a      	lsrs	r2, r3, #4
 8002a00:	68fb      	ldr	r3, [r7, #12]
 8002a02:	641a      	str	r2, [r3, #64]	; 0x40
        f->nMFInputs = nmi/sizeof(qFIS_MF_t);
 8002a04:	6b7b      	ldr	r3, [r7, #52]	; 0x34
 8002a06:	4a54      	ldr	r2, [pc, #336]	; (8002b58 <qFIS_Setup+0x1a4>)
 8002a08:	fba2 2303 	umull	r2, r3, r2, r3
 8002a0c:	091a      	lsrs	r2, r3, #4
 8002a0e:	68fb      	ldr	r3, [r7, #12]
 8002a10:	645a      	str	r2, [r3, #68]	; 0x44
        f->nMFOutputs = nmo/sizeof(qFIS_MF_t);
 8002a12:	6bfb      	ldr	r3, [r7, #60]	; 0x3c
 8002a14:	4a50      	ldr	r2, [pc, #320]	; (8002b58 <qFIS_Setup+0x1a4>)
 8002a16:	fba2 2303 	umull	r2, r3, r2, r3
 8002a1a:	091a      	lsrs	r2, r3, #4
 8002a1c:	68fb      	ldr	r3, [r7, #12]
 8002a1e:	649a      	str	r2, [r3, #72]	; 0x48
        f->input = inputs;
 8002a20:	68fb      	ldr	r3, [r7, #12]
 8002a22:	687a      	ldr	r2, [r7, #4]
 8002a24:	601a      	str	r2, [r3, #0]
        f->output = outputs;
 8002a26:	68fb      	ldr	r3, [r7, #12]
 8002a28:	6aba      	ldr	r2, [r7, #40]	; 0x28
 8002a2a:	605a      	str	r2, [r3, #4]
        f->inMF = mf_inputs;
 8002a2c:	68fb      	ldr	r3, [r7, #12]
 8002a2e:	6b3a      	ldr	r2, [r7, #48]	; 0x30
 8002a30:	609a      	str	r2, [r3, #8]
        f->outMF = mf_outputs;
 8002a32:	68fb      	ldr	r3, [r7, #12]
 8002a34:	6bba      	ldr	r2, [r7, #56]	; 0x38
 8002a36:	60da      	str	r2, [r3, #12]
        f->wi = wi;
 8002a38:	68fb      	ldr	r3, [r7, #12]
 8002a3a:	6c7a      	ldr	r2, [r7, #68]	; 0x44
 8002a3c:	631a      	str	r2, [r3, #48]	; 0x30
        f->rules = r;
 8002a3e:	68fb      	ldr	r3, [r7, #12]
 8002a40:	6c3a      	ldr	r2, [r7, #64]	; 0x40
 8002a42:	635a      	str	r2, [r3, #52]	; 0x34
        f->nRules = n;
 8002a44:	68fb      	ldr	r3, [r7, #12]
 8002a46:	6cba      	ldr	r2, [r7, #72]	; 0x48
 8002a48:	651a      	str	r2, [r3, #80]	; 0x50
        f->type = t;
 8002a4a:	68fb      	ldr	r3, [r7, #12]
 8002a4c:	7afa      	ldrb	r2, [r7, #11]
 8002a4e:	f883 205e 	strb.w	r2, [r3, #94]	; 0x5e
        retVal += qFIS_SetParameter( f, qFIS_EvalPoints, (qFIS_ParamValue_t)100 );
 8002a52:	2264      	movs	r2, #100	; 0x64
 8002a54:	2104      	movs	r1, #4
 8002a56:	68f8      	ldr	r0, [r7, #12]
 8002a58:	f7ff ff3c 	bl	80028d4 <qFIS_SetParameter>
 8002a5c:	4602      	mov	r2, r0
 8002a5e:	697b      	ldr	r3, [r7, #20]
 8002a60:	4413      	add	r3, r2
 8002a62:	617b      	str	r3, [r7, #20]
        retVal += qFIS_SetParameter( f, qFIS_AND, qFIS_MIN );
 8002a64:	2200      	movs	r2, #0
 8002a66:	2102      	movs	r1, #2
 8002a68:	68f8      	ldr	r0, [r7, #12]
 8002a6a:	f7ff ff33 	bl	80028d4 <qFIS_SetParameter>
 8002a6e:	4602      	mov	r2, r0
 8002a70:	697b      	ldr	r3, [r7, #20]
 8002a72:	4413      	add	r3, r2
 8002a74:	617b      	str	r3, [r7, #20]
        retVal += qFIS_SetParameter( f, qFIS_OR, qFIS_MAX );
 8002a76:	2202      	movs	r2, #2
 8002a78:	2103      	movs	r1, #3
 8002a7a:	68f8      	ldr	r0, [r7, #12]
 8002a7c:	f7ff ff2a 	bl	80028d4 <qFIS_SetParameter>
 8002a80:	4602      	mov	r2, r0
 8002a82:	697b      	ldr	r3, [r7, #20]
 8002a84:	4413      	add	r3, r2
 8002a86:	617b      	str	r3, [r7, #20]
        retVal += qFIS_SetParameter( f, qFIS_Implication, qFIS_MIN );
 8002a88:	2200      	movs	r2, #0
 8002a8a:	2100      	movs	r1, #0
 8002a8c:	68f8      	ldr	r0, [r7, #12]
 8002a8e:	f7ff ff21 	bl	80028d4 <qFIS_SetParameter>
 8002a92:	4602      	mov	r2, r0
 8002a94:	697b      	ldr	r3, [r7, #20]
 8002a96:	4413      	add	r3, r2
 8002a98:	617b      	str	r3, [r7, #20]
        retVal += qFIS_SetParameter( f, qFIS_Aggregation, qFIS_MAX );
 8002a9a:	2202      	movs	r2, #2
 8002a9c:	2101      	movs	r1, #1
 8002a9e:	68f8      	ldr	r0, [r7, #12]
 8002aa0:	f7ff ff18 	bl	80028d4 <qFIS_SetParameter>
 8002aa4:	4602      	mov	r2, r0
 8002aa6:	697b      	ldr	r3, [r7, #20]
 8002aa8:	4413      	add	r3, r2
 8002aaa:	617b      	str	r3, [r7, #20]
        retVal = ( 5 == retVal ) ? 1 : 0;
 8002aac:	697b      	ldr	r3, [r7, #20]
 8002aae:	2b05      	cmp	r3, #5
 8002ab0:	bf0c      	ite	eq
 8002ab2:	2301      	moveq	r3, #1
 8002ab4:	2300      	movne	r3, #0
 8002ab6:	b2db      	uxtb	r3, r3
 8002ab8:	617b      	str	r3, [r7, #20]
        f->deFuzz = ( Mamdani == t ) ? &qFIS_DeFuzz_Centroid
                                     : &qFIS_DeFuzz_WtAverage;
 8002aba:	7afb      	ldrb	r3, [r7, #11]
 8002abc:	2b00      	cmp	r3, #0
 8002abe:	d101      	bne.n	8002ac4 <qFIS_Setup+0x110>
 8002ac0:	4a26      	ldr	r2, [pc, #152]	; (8002b5c <qFIS_Setup+0x1a8>)
 8002ac2:	e000      	b.n	8002ac6 <qFIS_Setup+0x112>
 8002ac4:	4a26      	ldr	r2, [pc, #152]	; (8002b60 <qFIS_Setup+0x1ac>)
        f->deFuzz = ( Mamdani == t ) ? &qFIS_DeFuzz_Centroid
 8002ac6:	68fb      	ldr	r3, [r7, #12]
 8002ac8:	629a      	str	r2, [r3, #40]	; 0x28
        f->ruleWeight = NULL;
 8002aca:	68fb      	ldr	r3, [r7, #12]
 8002acc:	2200      	movs	r2, #0
 8002ace:	62da      	str	r2, [r3, #44]	; 0x2c
        for ( i = 0 ; i < f->nOutputs ; ++i ) {
 8002ad0:	2300      	movs	r3, #0
 8002ad2:	613b      	str	r3, [r7, #16]
 8002ad4:	e032      	b.n	8002b3c <qFIS_Setup+0x188>
            /*cstat -CERT-FLP36-C*/
            f->output[ i ].res = ( f->output[ i ].b.max - f->output[ i ].b.min )/(float)f->nPoints;
 8002ad6:	68fb      	ldr	r3, [r7, #12]
 8002ad8:	685a      	ldr	r2, [r3, #4]
 8002ada:	693b      	ldr	r3, [r7, #16]
 8002adc:	2134      	movs	r1, #52	; 0x34
 8002ade:	fb01 f303 	mul.w	r3, r1, r3
 8002ae2:	4413      	add	r3, r2
 8002ae4:	6858      	ldr	r0, [r3, #4]
 8002ae6:	68fb      	ldr	r3, [r7, #12]
 8002ae8:	685a      	ldr	r2, [r3, #4]
 8002aea:	693b      	ldr	r3, [r7, #16]
 8002aec:	2134      	movs	r1, #52	; 0x34
 8002aee:	fb01 f303 	mul.w	r3, r1, r3
 8002af2:	4413      	add	r3, r2
 8002af4:	681b      	ldr	r3, [r3, #0]
 8002af6:	4619      	mov	r1, r3
 8002af8:	f7fe f81a 	bl	8000b30 <__aeabi_fsub>
 8002afc:	4603      	mov	r3, r0
 8002afe:	461d      	mov	r5, r3
 8002b00:	68fb      	ldr	r3, [r7, #12]
 8002b02:	6cdb      	ldr	r3, [r3, #76]	; 0x4c
 8002b04:	4618      	mov	r0, r3
 8002b06:	f7fe f8c5 	bl	8000c94 <__aeabi_ui2f>
 8002b0a:	4601      	mov	r1, r0
 8002b0c:	68fb      	ldr	r3, [r7, #12]
 8002b0e:	685a      	ldr	r2, [r3, #4]
 8002b10:	693b      	ldr	r3, [r7, #16]
 8002b12:	2034      	movs	r0, #52	; 0x34
 8002b14:	fb00 f303 	mul.w	r3, r0, r3
 8002b18:	18d4      	adds	r4, r2, r3
 8002b1a:	4628      	mov	r0, r5
 8002b1c:	f7fe f9c6 	bl	8000eac <__aeabi_fdiv>
 8002b20:	4603      	mov	r3, r0
 8002b22:	60e3      	str	r3, [r4, #12]
            /*cstat +CERT-FLP36-C*/
            f->output[ i ].owner = f;
 8002b24:	68fb      	ldr	r3, [r7, #12]
 8002b26:	685a      	ldr	r2, [r3, #4]
 8002b28:	693b      	ldr	r3, [r7, #16]
 8002b2a:	2134      	movs	r1, #52	; 0x34
 8002b2c:	fb01 f303 	mul.w	r3, r1, r3
 8002b30:	4413      	add	r3, r2
 8002b32:	68fa      	ldr	r2, [r7, #12]
 8002b34:	629a      	str	r2, [r3, #40]	; 0x28
        for ( i = 0 ; i < f->nOutputs ; ++i ) {
 8002b36:	693b      	ldr	r3, [r7, #16]
 8002b38:	3301      	adds	r3, #1
 8002b3a:	613b      	str	r3, [r7, #16]
 8002b3c:	68fb      	ldr	r3, [r7, #12]
 8002b3e:	6c1b      	ldr	r3, [r3, #64]	; 0x40
 8002b40:	693a      	ldr	r2, [r7, #16]
 8002b42:	429a      	cmp	r2, r3
 8002b44:	d3c7      	bcc.n	8002ad6 <qFIS_Setup+0x122>
        }
    }

    return retVal;
 8002b46:	697b      	ldr	r3, [r7, #20]
}
 8002b48:	4618      	mov	r0, r3
 8002b4a:	3718      	adds	r7, #24
 8002b4c:	46bd      	mov	sp, r7
 8002b4e:	bdb0      	pop	{r4, r5, r7, pc}
 8002b50:	aaaaaaab 	.word	0xaaaaaaab
 8002b54:	4ec4ec4f 	.word	0x4ec4ec4f
 8002b58:	cccccccd 	.word	0xcccccccd
 8002b5c:	080033d5 	.word	0x080033d5
 8002b60:	0800346d 	.word	0x0800346d

08002b64 <qFIS_InputSetup>:
/*============================================================================*/
int qFIS_InputSetup( qFIS_Input_t * const v,
                     const qFIS_Tag_t t,
                     const float min,
                     const float max )
{
 8002b64:	b480      	push	{r7}
 8002b66:	b087      	sub	sp, #28
 8002b68:	af00      	add	r7, sp, #0
 8002b6a:	60f8      	str	r0, [r7, #12]
 8002b6c:	60b9      	str	r1, [r7, #8]
 8002b6e:	607a      	str	r2, [r7, #4]
 8002b70:	603b      	str	r3, [r7, #0]
    int retVal = 0;
 8002b72:	2300      	movs	r3, #0
 8002b74:	617b      	str	r3, [r7, #20]

    if ( ( NULL != v ) && ( t >= 0 ) ) {
 8002b76:	68fb      	ldr	r3, [r7, #12]
 8002b78:	2b00      	cmp	r3, #0
 8002b7a:	d018      	beq.n	8002bae <qFIS_InputSetup+0x4a>
 8002b7c:	68bb      	ldr	r3, [r7, #8]
 8002b7e:	2b00      	cmp	r3, #0
 8002b80:	db15      	blt.n	8002bae <qFIS_InputSetup+0x4a>
        v[ t ].b.min = min;
 8002b82:	68ba      	ldr	r2, [r7, #8]
 8002b84:	4613      	mov	r3, r2
 8002b86:	005b      	lsls	r3, r3, #1
 8002b88:	4413      	add	r3, r2
 8002b8a:	009b      	lsls	r3, r3, #2
 8002b8c:	461a      	mov	r2, r3
 8002b8e:	68fb      	ldr	r3, [r7, #12]
 8002b90:	4413      	add	r3, r2
 8002b92:	687a      	ldr	r2, [r7, #4]
 8002b94:	601a      	str	r2, [r3, #0]
        v[ t ].b.max = max;
 8002b96:	68ba      	ldr	r2, [r7, #8]
 8002b98:	4613      	mov	r3, r2
 8002b9a:	005b      	lsls	r3, r3, #1
 8002b9c:	4413      	add	r3, r2
 8002b9e:	009b      	lsls	r3, r3, #2
 8002ba0:	461a      	mov	r2, r3
 8002ba2:	68fb      	ldr	r3, [r7, #12]
 8002ba4:	4413      	add	r3, r2
 8002ba6:	683a      	ldr	r2, [r7, #0]
 8002ba8:	605a      	str	r2, [r3, #4]
        retVal = 1;
 8002baa:	2301      	movs	r3, #1
 8002bac:	617b      	str	r3, [r7, #20]
    }

    return retVal;
 8002bae:	697b      	ldr	r3, [r7, #20]
}
 8002bb0:	4618      	mov	r0, r3
 8002bb2:	371c      	adds	r7, #28
 8002bb4:	46bd      	mov	sp, r7
 8002bb6:	bc80      	pop	{r7}
 8002bb8:	4770      	bx	lr

08002bba <qFIS_OutputSetup>:
/*============================================================================*/
int qFIS_OutputSetup( qFIS_Output_t * const v,
                      const qFIS_Tag_t t,
                      const float min,
                      const float max )
{
 8002bba:	b480      	push	{r7}
 8002bbc:	b087      	sub	sp, #28
 8002bbe:	af00      	add	r7, sp, #0
 8002bc0:	60f8      	str	r0, [r7, #12]
 8002bc2:	60b9      	str	r1, [r7, #8]
 8002bc4:	607a      	str	r2, [r7, #4]
 8002bc6:	603b      	str	r3, [r7, #0]
    int retVal = 0;
 8002bc8:	2300      	movs	r3, #0
 8002bca:	617b      	str	r3, [r7, #20]

    if ( ( NULL != v ) && ( t >= 0 ) ) {
 8002bcc:	68fb      	ldr	r3, [r7, #12]
 8002bce:	2b00      	cmp	r3, #0
 8002bd0:	d05a      	beq.n	8002c88 <qFIS_OutputSetup+0xce>
 8002bd2:	68bb      	ldr	r3, [r7, #8]
 8002bd4:	2b00      	cmp	r3, #0
 8002bd6:	db57      	blt.n	8002c88 <qFIS_OutputSetup+0xce>
        v[ t ].data[ 0 ] = 0.0f;
 8002bd8:	68bb      	ldr	r3, [r7, #8]
 8002bda:	2234      	movs	r2, #52	; 0x34
 8002bdc:	fb02 f303 	mul.w	r3, r2, r3
 8002be0:	68fa      	ldr	r2, [r7, #12]
 8002be2:	4413      	add	r3, r2
 8002be4:	f04f 0200 	mov.w	r2, #0
 8002be8:	619a      	str	r2, [r3, #24]
        v[ t ].data[ 1 ] = 0.0f;
 8002bea:	68bb      	ldr	r3, [r7, #8]
 8002bec:	2234      	movs	r2, #52	; 0x34
 8002bee:	fb02 f303 	mul.w	r3, r2, r3
 8002bf2:	68fa      	ldr	r2, [r7, #12]
 8002bf4:	4413      	add	r3, r2
 8002bf6:	f04f 0200 	mov.w	r2, #0
 8002bfa:	61da      	str	r2, [r3, #28]
        v[ t ].data[ 2 ] = 0.0f;
 8002bfc:	68bb      	ldr	r3, [r7, #8]
 8002bfe:	2234      	movs	r2, #52	; 0x34
 8002c00:	fb02 f303 	mul.w	r3, r2, r3
 8002c04:	68fa      	ldr	r2, [r7, #12]
 8002c06:	4413      	add	r3, r2
 8002c08:	f04f 0200 	mov.w	r2, #0
 8002c0c:	621a      	str	r2, [r3, #32]
        v[ t ].data[ 3 ] = 0.0f;
 8002c0e:	68bb      	ldr	r3, [r7, #8]
 8002c10:	2234      	movs	r2, #52	; 0x34
 8002c12:	fb02 f303 	mul.w	r3, r2, r3
 8002c16:	68fa      	ldr	r2, [r7, #12]
 8002c18:	4413      	add	r3, r2
 8002c1a:	f04f 0200 	mov.w	r2, #0
 8002c1e:	625a      	str	r2, [r3, #36]	; 0x24
        v[ t ].x = 0.0f;
 8002c20:	68bb      	ldr	r3, [r7, #8]
 8002c22:	2234      	movs	r2, #52	; 0x34
 8002c24:	fb02 f303 	mul.w	r3, r2, r3
 8002c28:	68fa      	ldr	r2, [r7, #12]
 8002c2a:	4413      	add	r3, r2
 8002c2c:	f04f 0200 	mov.w	r2, #0
 8002c30:	611a      	str	r2, [r3, #16]
        v[ t ].y = 0.0f;
 8002c32:	68bb      	ldr	r3, [r7, #8]
 8002c34:	2234      	movs	r2, #52	; 0x34
 8002c36:	fb02 f303 	mul.w	r3, r2, r3
 8002c3a:	68fa      	ldr	r2, [r7, #12]
 8002c3c:	4413      	add	r3, r2
 8002c3e:	f04f 0200 	mov.w	r2, #0
 8002c42:	615a      	str	r2, [r3, #20]
        v[ t ].b.min = min;
 8002c44:	68bb      	ldr	r3, [r7, #8]
 8002c46:	2234      	movs	r2, #52	; 0x34
 8002c48:	fb02 f303 	mul.w	r3, r2, r3
 8002c4c:	68fa      	ldr	r2, [r7, #12]
 8002c4e:	4413      	add	r3, r2
 8002c50:	687a      	ldr	r2, [r7, #4]
 8002c52:	601a      	str	r2, [r3, #0]
        v[ t ].b.max = max;
 8002c54:	68bb      	ldr	r3, [r7, #8]
 8002c56:	2234      	movs	r2, #52	; 0x34
 8002c58:	fb02 f303 	mul.w	r3, r2, r3
 8002c5c:	68fa      	ldr	r2, [r7, #12]
 8002c5e:	4413      	add	r3, r2
 8002c60:	683a      	ldr	r2, [r7, #0]
 8002c62:	605a      	str	r2, [r3, #4]
        v[ t ].xag = NULL;
 8002c64:	68bb      	ldr	r3, [r7, #8]
 8002c66:	2234      	movs	r2, #52	; 0x34
 8002c68:	fb02 f303 	mul.w	r3, r2, r3
 8002c6c:	68fa      	ldr	r2, [r7, #12]
 8002c6e:	4413      	add	r3, r2
 8002c70:	2200      	movs	r2, #0
 8002c72:	62da      	str	r2, [r3, #44]	; 0x2c
        v[ t ].yag = NULL;
 8002c74:	68bb      	ldr	r3, [r7, #8]
 8002c76:	2234      	movs	r2, #52	; 0x34
 8002c78:	fb02 f303 	mul.w	r3, r2, r3
 8002c7c:	68fa      	ldr	r2, [r7, #12]
 8002c7e:	4413      	add	r3, r2
 8002c80:	2200      	movs	r2, #0
 8002c82:	631a      	str	r2, [r3, #48]	; 0x30
        retVal = 1;
 8002c84:	2301      	movs	r3, #1
 8002c86:	617b      	str	r3, [r7, #20]
    }

    return retVal;
 8002c88:	697b      	ldr	r3, [r7, #20]
}
 8002c8a:	4618      	mov	r0, r3
 8002c8c:	371c      	adds	r7, #28
 8002c8e:	46bd      	mov	sp, r7
 8002c90:	bc80      	pop	{r7}
 8002c92:	4770      	bx	lr

08002c94 <qFIS_SetInput>:
/*============================================================================*/
int qFIS_SetInput( qFIS_Input_t * const v,
                   const qFIS_Tag_t t,
                   const float value )
{
 8002c94:	b480      	push	{r7}
 8002c96:	b087      	sub	sp, #28
 8002c98:	af00      	add	r7, sp, #0
 8002c9a:	60f8      	str	r0, [r7, #12]
 8002c9c:	60b9      	str	r1, [r7, #8]
 8002c9e:	607a      	str	r2, [r7, #4]
    int retVal = 0;
 8002ca0:	2300      	movs	r3, #0
 8002ca2:	617b      	str	r3, [r7, #20]

    if ( ( NULL != v ) && ( t >= 0 ) ) {
 8002ca4:	68fb      	ldr	r3, [r7, #12]
 8002ca6:	2b00      	cmp	r3, #0
 8002ca8:	d00e      	beq.n	8002cc8 <qFIS_SetInput+0x34>
 8002caa:	68bb      	ldr	r3, [r7, #8]
 8002cac:	2b00      	cmp	r3, #0
 8002cae:	db0b      	blt.n	8002cc8 <qFIS_SetInput+0x34>
        v[ t ].b.value = value;
 8002cb0:	68ba      	ldr	r2, [r7, #8]
 8002cb2:	4613      	mov	r3, r2
 8002cb4:	005b      	lsls	r3, r3, #1
 8002cb6:	4413      	add	r3, r2
 8002cb8:	009b      	lsls	r3, r3, #2
 8002cba:	461a      	mov	r2, r3
 8002cbc:	68fb      	ldr	r3, [r7, #12]
 8002cbe:	4413      	add	r3, r2
 8002cc0:	687a      	ldr	r2, [r7, #4]
 8002cc2:	609a      	str	r2, [r3, #8]
        retVal = 1;
 8002cc4:	2301      	movs	r3, #1
 8002cc6:	617b      	str	r3, [r7, #20]
    }

    return retVal;
 8002cc8:	697b      	ldr	r3, [r7, #20]
}
 8002cca:	4618      	mov	r0, r3
 8002ccc:	371c      	adds	r7, #28
 8002cce:	46bd      	mov	sp, r7
 8002cd0:	bc80      	pop	{r7}
 8002cd2:	4770      	bx	lr

08002cd4 <qFIS_GetOutput>:
/*============================================================================*/
float qFIS_GetOutput( const qFIS_Output_t * const v,
                      const qFIS_Tag_t t )
{
 8002cd4:	b480      	push	{r7}
 8002cd6:	b085      	sub	sp, #20
 8002cd8:	af00      	add	r7, sp, #0
 8002cda:	6078      	str	r0, [r7, #4]
 8002cdc:	6039      	str	r1, [r7, #0]
    float retVal = 0.0f;
 8002cde:	f04f 0300 	mov.w	r3, #0
 8002ce2:	60fb      	str	r3, [r7, #12]

    if ( ( NULL != v ) && ( t >= 0 ) ) {
 8002ce4:	687b      	ldr	r3, [r7, #4]
 8002ce6:	2b00      	cmp	r3, #0
 8002ce8:	d00a      	beq.n	8002d00 <qFIS_GetOutput+0x2c>
 8002cea:	683b      	ldr	r3, [r7, #0]
 8002cec:	2b00      	cmp	r3, #0
 8002cee:	db07      	blt.n	8002d00 <qFIS_GetOutput+0x2c>
        retVal = v[ t ].b.value;
 8002cf0:	683b      	ldr	r3, [r7, #0]
 8002cf2:	2234      	movs	r2, #52	; 0x34
 8002cf4:	fb02 f303 	mul.w	r3, r2, r3
 8002cf8:	687a      	ldr	r2, [r7, #4]
 8002cfa:	4413      	add	r3, r2
 8002cfc:	689b      	ldr	r3, [r3, #8]
 8002cfe:	60fb      	str	r3, [r7, #12]
    }

    return retVal;
 8002d00:	68fb      	ldr	r3, [r7, #12]
}
 8002d02:	4618      	mov	r0, r3
 8002d04:	3714      	adds	r7, #20
 8002d06:	46bd      	mov	sp, r7
 8002d08:	bc80      	pop	{r7}
 8002d0a:	4770      	bx	lr

08002d0c <qFIS_SetMF>:
                const qFIS_Tag_t mf,
                const qFIS_MF_Name_t s,
                qFIS_MF_Fcn_t custom_mf,
                const float *cp,
                float h )
{
 8002d0c:	b590      	push	{r4, r7, lr}
 8002d0e:	b087      	sub	sp, #28
 8002d10:	af00      	add	r7, sp, #0
 8002d12:	60f8      	str	r0, [r7, #12]
 8002d14:	60b9      	str	r1, [r7, #8]
 8002d16:	607a      	str	r2, [r7, #4]
 8002d18:	70fb      	strb	r3, [r7, #3]
    int retVal = 0;
 8002d1a:	2300      	movs	r3, #0
 8002d1c:	617b      	str	r3, [r7, #20]
    /* Only for Tsukamoto consequents*/
    &qFIS_TLinSMF, &qFIS_TLinZMF, &qFIS_TConcaveMF,&qFIS_TSigMF, &qFIS_TSMF,
    &qFIS_TZMF
    };

    if ( ( NULL != m ) && ( io >= 0 ) && ( mf >= 0 ) && ( s < _NUM_MFS ) ) {
 8002d1e:	68fb      	ldr	r3, [r7, #12]
 8002d20:	2b00      	cmp	r3, #0
 8002d22:	d055      	beq.n	8002dd0 <qFIS_SetMF+0xc4>
 8002d24:	68bb      	ldr	r3, [r7, #8]
 8002d26:	2b00      	cmp	r3, #0
 8002d28:	db52      	blt.n	8002dd0 <qFIS_SetMF+0xc4>
 8002d2a:	687b      	ldr	r3, [r7, #4]
 8002d2c:	2b00      	cmp	r3, #0
 8002d2e:	db4f      	blt.n	8002dd0 <qFIS_SetMF+0xc4>
 8002d30:	78fb      	ldrb	r3, [r7, #3]
 8002d32:	2b1a      	cmp	r3, #26
 8002d34:	d84c      	bhi.n	8002dd0 <qFIS_SetMF+0xc4>
        if ( NULL != custom_mf ) {
 8002d36:	6abb      	ldr	r3, [r7, #40]	; 0x28
 8002d38:	2b00      	cmp	r3, #0
 8002d3a:	d00a      	beq.n	8002d52 <qFIS_SetMF+0x46>
            m[ mf ].shape = custom_mf; /*user-defined membership function*/
 8002d3c:	687a      	ldr	r2, [r7, #4]
 8002d3e:	4613      	mov	r3, r2
 8002d40:	009b      	lsls	r3, r3, #2
 8002d42:	4413      	add	r3, r2
 8002d44:	009b      	lsls	r3, r3, #2
 8002d46:	461a      	mov	r2, r3
 8002d48:	68fb      	ldr	r3, [r7, #12]
 8002d4a:	4413      	add	r3, r2
 8002d4c:	6aba      	ldr	r2, [r7, #40]	; 0x28
 8002d4e:	601a      	str	r2, [r3, #0]
 8002d50:	e00c      	b.n	8002d6c <qFIS_SetMF+0x60>
        }
        else {
            m[ mf ].shape = fShape[ s ];
 8002d52:	78f9      	ldrb	r1, [r7, #3]
 8002d54:	687a      	ldr	r2, [r7, #4]
 8002d56:	4613      	mov	r3, r2
 8002d58:	009b      	lsls	r3, r3, #2
 8002d5a:	4413      	add	r3, r2
 8002d5c:	009b      	lsls	r3, r3, #2
 8002d5e:	461a      	mov	r2, r3
 8002d60:	68fb      	ldr	r3, [r7, #12]
 8002d62:	4413      	add	r3, r2
 8002d64:	4a1d      	ldr	r2, [pc, #116]	; (8002ddc <qFIS_SetMF+0xd0>)
 8002d66:	f852 2021 	ldr.w	r2, [r2, r1, lsl #2]
 8002d6a:	601a      	str	r2, [r3, #0]
        }
        m[ mf ].index = (size_t)io;
 8002d6c:	687a      	ldr	r2, [r7, #4]
 8002d6e:	4613      	mov	r3, r2
 8002d70:	009b      	lsls	r3, r3, #2
 8002d72:	4413      	add	r3, r2
 8002d74:	009b      	lsls	r3, r3, #2
 8002d76:	461a      	mov	r2, r3
 8002d78:	68fb      	ldr	r3, [r7, #12]
 8002d7a:	4413      	add	r3, r2
 8002d7c:	68ba      	ldr	r2, [r7, #8]
 8002d7e:	611a      	str	r2, [r3, #16]
        m[ mf ].points = cp;
 8002d80:	687a      	ldr	r2, [r7, #4]
 8002d82:	4613      	mov	r3, r2
 8002d84:	009b      	lsls	r3, r3, #2
 8002d86:	4413      	add	r3, r2
 8002d88:	009b      	lsls	r3, r3, #2
 8002d8a:	461a      	mov	r2, r3
 8002d8c:	68fb      	ldr	r3, [r7, #12]
 8002d8e:	4413      	add	r3, r2
 8002d90:	6afa      	ldr	r2, [r7, #44]	; 0x2c
 8002d92:	605a      	str	r2, [r3, #4]
        m[ mf ].fx = 0.0f;
 8002d94:	687a      	ldr	r2, [r7, #4]
 8002d96:	4613      	mov	r3, r2
 8002d98:	009b      	lsls	r3, r3, #2
 8002d9a:	4413      	add	r3, r2
 8002d9c:	009b      	lsls	r3, r3, #2
 8002d9e:	461a      	mov	r2, r3
 8002da0:	68fb      	ldr	r3, [r7, #12]
 8002da2:	4413      	add	r3, r2
 8002da4:	f04f 0200 	mov.w	r2, #0
 8002da8:	609a      	str	r2, [r3, #8]
        m[ mf ].h = qFIS_Bound( h, 0.0f, 1.0f );
 8002daa:	687a      	ldr	r2, [r7, #4]
 8002dac:	4613      	mov	r3, r2
 8002dae:	009b      	lsls	r3, r3, #2
 8002db0:	4413      	add	r3, r2
 8002db2:	009b      	lsls	r3, r3, #2
 8002db4:	461a      	mov	r2, r3
 8002db6:	68fb      	ldr	r3, [r7, #12]
 8002db8:	189c      	adds	r4, r3, r2
 8002dba:	f04f 527e 	mov.w	r2, #1065353216	; 0x3f800000
 8002dbe:	f04f 0100 	mov.w	r1, #0
 8002dc2:	6b38      	ldr	r0, [r7, #48]	; 0x30
 8002dc4:	f001 fcf1 	bl	80047aa <qFIS_Bound>
 8002dc8:	4603      	mov	r3, r0
 8002dca:	60e3      	str	r3, [r4, #12]
        retVal = 1;
 8002dcc:	2301      	movs	r3, #1
 8002dce:	617b      	str	r3, [r7, #20]
    }

    return retVal;
 8002dd0:	697b      	ldr	r3, [r7, #20]
}
 8002dd2:	4618      	mov	r0, r3
 8002dd4:	371c      	adds	r7, #28
 8002dd6:	46bd      	mov	sp, r7
 8002dd8:	bd90      	pop	{r4, r7, pc}
 8002dda:	bf00      	nop
 8002ddc:	08009b04 	.word	0x08009b04

08002de0 <qFIS_EvalInputMFs>:

    return retVal;
}
/*============================================================================*/
static void qFIS_EvalInputMFs( qFIS_t * const f )
{
 8002de0:	b5b0      	push	{r4, r5, r7, lr}
 8002de2:	b084      	sub	sp, #16
 8002de4:	af00      	add	r7, sp, #0
 8002de6:	6078      	str	r0, [r7, #4]
    size_t i;
    qFIS_MF_t *mf;

    for ( i = 0 ; i < f->nMFInputs ; ++i ) {
 8002de8:	2300      	movs	r3, #0
 8002dea:	60fb      	str	r3, [r7, #12]
 8002dec:	e026      	b.n	8002e3c <qFIS_EvalInputMFs+0x5c>
        mf = &f->inMF[ i ];
 8002dee:	687b      	ldr	r3, [r7, #4]
 8002df0:	6899      	ldr	r1, [r3, #8]
 8002df2:	68fa      	ldr	r2, [r7, #12]
 8002df4:	4613      	mov	r3, r2
 8002df6:	009b      	lsls	r3, r3, #2
 8002df8:	4413      	add	r3, r2
 8002dfa:	009b      	lsls	r3, r3, #2
 8002dfc:	440b      	add	r3, r1
 8002dfe:	60bb      	str	r3, [r7, #8]
        /*cstat -MISRAC2012-Rule-11.3 -CERT-EXP39-C_d*/
        mf->fx = mf->h*mf->shape( (qFIS_IO_Base_t*)&f->input[ mf->index ],
 8002e00:	68bb      	ldr	r3, [r7, #8]
 8002e02:	68dd      	ldr	r5, [r3, #12]
 8002e04:	68bb      	ldr	r3, [r7, #8]
 8002e06:	681c      	ldr	r4, [r3, #0]
 8002e08:	687b      	ldr	r3, [r7, #4]
 8002e0a:	6819      	ldr	r1, [r3, #0]
 8002e0c:	68bb      	ldr	r3, [r7, #8]
 8002e0e:	691a      	ldr	r2, [r3, #16]
 8002e10:	4613      	mov	r3, r2
 8002e12:	005b      	lsls	r3, r3, #1
 8002e14:	4413      	add	r3, r2
 8002e16:	009b      	lsls	r3, r3, #2
 8002e18:	18c8      	adds	r0, r1, r3
 8002e1a:	68bb      	ldr	r3, [r7, #8]
 8002e1c:	685b      	ldr	r3, [r3, #4]
 8002e1e:	2201      	movs	r2, #1
 8002e20:	4619      	mov	r1, r3
 8002e22:	47a0      	blx	r4
 8002e24:	4603      	mov	r3, r0
 8002e26:	4619      	mov	r1, r3
 8002e28:	4628      	mov	r0, r5
 8002e2a:	f7fd ff8b 	bl	8000d44 <__aeabi_fmul>
 8002e2e:	4603      	mov	r3, r0
 8002e30:	461a      	mov	r2, r3
 8002e32:	68bb      	ldr	r3, [r7, #8]
 8002e34:	609a      	str	r2, [r3, #8]
    for ( i = 0 ; i < f->nMFInputs ; ++i ) {
 8002e36:	68fb      	ldr	r3, [r7, #12]
 8002e38:	3301      	adds	r3, #1
 8002e3a:	60fb      	str	r3, [r7, #12]
 8002e3c:	687b      	ldr	r3, [r7, #4]
 8002e3e:	6c5b      	ldr	r3, [r3, #68]	; 0x44
 8002e40:	68fa      	ldr	r2, [r7, #12]
 8002e42:	429a      	cmp	r2, r3
 8002e44:	d3d3      	bcc.n	8002dee <qFIS_EvalInputMFs+0xe>
                                  mf->points,
                                  1u );
        /*cstat +MISRAC2012-Rule-11.3 +CERT-EXP39-C_d*/
    }
}
 8002e46:	bf00      	nop
 8002e48:	bf00      	nop
 8002e4a:	3710      	adds	r7, #16
 8002e4c:	46bd      	mov	sp, r7
 8002e4e:	bdb0      	pop	{r4, r5, r7, pc}

08002e50 <qFIS_TruncateInputs>:
/*============================================================================*/
static void qFIS_TruncateInputs( qFIS_t * const f )
{
 8002e50:	b5f0      	push	{r4, r5, r6, r7, lr}
 8002e52:	b085      	sub	sp, #20
 8002e54:	af00      	add	r7, sp, #0
 8002e56:	6078      	str	r0, [r7, #4]
    size_t i;

    for ( i = 0 ; i < f->nInputs ; ++i ) {
 8002e58:	2300      	movs	r3, #0
 8002e5a:	60fb      	str	r3, [r7, #12]
 8002e5c:	e02b      	b.n	8002eb6 <qFIS_TruncateInputs+0x66>
        f->input[ i ].b.value = qFIS_Bound( f->input[ i ].b.value,
 8002e5e:	687b      	ldr	r3, [r7, #4]
 8002e60:	6819      	ldr	r1, [r3, #0]
 8002e62:	68fa      	ldr	r2, [r7, #12]
 8002e64:	4613      	mov	r3, r2
 8002e66:	005b      	lsls	r3, r3, #1
 8002e68:	4413      	add	r3, r2
 8002e6a:	009b      	lsls	r3, r3, #2
 8002e6c:	440b      	add	r3, r1
 8002e6e:	6898      	ldr	r0, [r3, #8]
                                            f->input[ i ].b.min,
 8002e70:	687b      	ldr	r3, [r7, #4]
 8002e72:	6819      	ldr	r1, [r3, #0]
 8002e74:	68fa      	ldr	r2, [r7, #12]
 8002e76:	4613      	mov	r3, r2
 8002e78:	005b      	lsls	r3, r3, #1
 8002e7a:	4413      	add	r3, r2
 8002e7c:	009b      	lsls	r3, r3, #2
 8002e7e:	440b      	add	r3, r1
        f->input[ i ].b.value = qFIS_Bound( f->input[ i ].b.value,
 8002e80:	681d      	ldr	r5, [r3, #0]
                                            f->input[ i ].b.max );
 8002e82:	687b      	ldr	r3, [r7, #4]
 8002e84:	6819      	ldr	r1, [r3, #0]
 8002e86:	68fa      	ldr	r2, [r7, #12]
 8002e88:	4613      	mov	r3, r2
 8002e8a:	005b      	lsls	r3, r3, #1
 8002e8c:	4413      	add	r3, r2
 8002e8e:	009b      	lsls	r3, r3, #2
 8002e90:	440b      	add	r3, r1
        f->input[ i ].b.value = qFIS_Bound( f->input[ i ].b.value,
 8002e92:	685e      	ldr	r6, [r3, #4]
 8002e94:	687b      	ldr	r3, [r7, #4]
 8002e96:	6819      	ldr	r1, [r3, #0]
 8002e98:	68fa      	ldr	r2, [r7, #12]
 8002e9a:	4613      	mov	r3, r2
 8002e9c:	005b      	lsls	r3, r3, #1
 8002e9e:	4413      	add	r3, r2
 8002ea0:	009b      	lsls	r3, r3, #2
 8002ea2:	18cc      	adds	r4, r1, r3
 8002ea4:	4632      	mov	r2, r6
 8002ea6:	4629      	mov	r1, r5
 8002ea8:	f001 fc7f 	bl	80047aa <qFIS_Bound>
 8002eac:	4603      	mov	r3, r0
 8002eae:	60a3      	str	r3, [r4, #8]
    for ( i = 0 ; i < f->nInputs ; ++i ) {
 8002eb0:	68fb      	ldr	r3, [r7, #12]
 8002eb2:	3301      	adds	r3, #1
 8002eb4:	60fb      	str	r3, [r7, #12]
 8002eb6:	687b      	ldr	r3, [r7, #4]
 8002eb8:	6bdb      	ldr	r3, [r3, #60]	; 0x3c
 8002eba:	68fa      	ldr	r2, [r7, #12]
 8002ebc:	429a      	cmp	r2, r3
 8002ebe:	d3ce      	bcc.n	8002e5e <qFIS_TruncateInputs+0xe>
    }
}
 8002ec0:	bf00      	nop
 8002ec2:	bf00      	nop
 8002ec4:	3714      	adds	r7, #20
 8002ec6:	46bd      	mov	sp, r7
 8002ec8:	bdf0      	pop	{r4, r5, r6, r7, pc}

08002eca <qFIS_Fuzzify>:
/*============================================================================*/
int qFIS_Fuzzify( qFIS_t * const f )
{
 8002eca:	b580      	push	{r7, lr}
 8002ecc:	b084      	sub	sp, #16
 8002ece:	af00      	add	r7, sp, #0
 8002ed0:	6078      	str	r0, [r7, #4]
    int retVal = 0;
 8002ed2:	2300      	movs	r3, #0
 8002ed4:	60fb      	str	r3, [r7, #12]

    if ( NULL != f ) {
 8002ed6:	687b      	ldr	r3, [r7, #4]
 8002ed8:	2b00      	cmp	r3, #0
 8002eda:	d007      	beq.n	8002eec <qFIS_Fuzzify+0x22>
        qFIS_TruncateInputs( f );
 8002edc:	6878      	ldr	r0, [r7, #4]
 8002ede:	f7ff ffb7 	bl	8002e50 <qFIS_TruncateInputs>
        qFIS_EvalInputMFs( f );
 8002ee2:	6878      	ldr	r0, [r7, #4]
 8002ee4:	f7ff ff7c 	bl	8002de0 <qFIS_EvalInputMFs>
        retVal = 1;
 8002ee8:	2301      	movs	r3, #1
 8002eea:	60fb      	str	r3, [r7, #12]
    }

    return retVal;
 8002eec:	68fb      	ldr	r3, [r7, #12]
}
 8002eee:	4618      	mov	r0, r3
 8002ef0:	3710      	adds	r7, #16
 8002ef2:	46bd      	mov	sp, r7
 8002ef4:	bd80      	pop	{r7, pc}

08002ef6 <qFIS_ParseFuzzValue>:
/*============================================================================*/
static float qFIS_ParseFuzzValue( qFIS_MF_t * const mfIO,
                                  qFIS_Rules_t index )
{
 8002ef6:	b580      	push	{r7, lr}
 8002ef8:	b084      	sub	sp, #16
 8002efa:	af00      	add	r7, sp, #0
 8002efc:	6078      	str	r0, [r7, #4]
 8002efe:	460b      	mov	r3, r1
 8002f00:	807b      	strh	r3, [r7, #2]
    uint8_t neg = (uint8_t)( index < 0 );
 8002f02:	887b      	ldrh	r3, [r7, #2]
 8002f04:	0bdb      	lsrs	r3, r3, #15
 8002f06:	b2db      	uxtb	r3, r3
 8002f08:	73fb      	strb	r3, [r7, #15]
    float y;

    if ( 0u != neg ) {
 8002f0a:	7bfb      	ldrb	r3, [r7, #15]
 8002f0c:	2b00      	cmp	r3, #0
 8002f0e:	d003      	beq.n	8002f18 <qFIS_ParseFuzzValue+0x22>
        index = -index;
 8002f10:	887b      	ldrh	r3, [r7, #2]
 8002f12:	425b      	negs	r3, r3
 8002f14:	b29b      	uxth	r3, r3
 8002f16:	807b      	strh	r3, [r7, #2]
    }
    /*cstat -CERT-INT32-C_a*/
    y = qFIS_Bound( mfIO[ index - 1 ].fx, 0.0f, 1.0f );
 8002f18:	f9b7 2002 	ldrsh.w	r2, [r7, #2]
 8002f1c:	4613      	mov	r3, r2
 8002f1e:	009b      	lsls	r3, r3, #2
 8002f20:	4413      	add	r3, r2
 8002f22:	009b      	lsls	r3, r3, #2
 8002f24:	3b14      	subs	r3, #20
 8002f26:	687a      	ldr	r2, [r7, #4]
 8002f28:	4413      	add	r3, r2
 8002f2a:	689b      	ldr	r3, [r3, #8]
 8002f2c:	f04f 527e 	mov.w	r2, #1065353216	; 0x3f800000
 8002f30:	f04f 0100 	mov.w	r1, #0
 8002f34:	4618      	mov	r0, r3
 8002f36:	f001 fc38 	bl	80047aa <qFIS_Bound>
 8002f3a:	60b8      	str	r0, [r7, #8]
    /*cstat +CERT-INT32-C_a*/
    y = ( 0u != neg ) ? ( 1.0f - y ) : y ;
 8002f3c:	7bfb      	ldrb	r3, [r7, #15]
 8002f3e:	2b00      	cmp	r3, #0
 8002f40:	d006      	beq.n	8002f50 <qFIS_ParseFuzzValue+0x5a>
 8002f42:	68b9      	ldr	r1, [r7, #8]
 8002f44:	f04f 507e 	mov.w	r0, #1065353216	; 0x3f800000
 8002f48:	f7fd fdf2 	bl	8000b30 <__aeabi_fsub>
 8002f4c:	4603      	mov	r3, r0
 8002f4e:	e000      	b.n	8002f52 <qFIS_ParseFuzzValue+0x5c>
 8002f50:	68bb      	ldr	r3, [r7, #8]
 8002f52:	60bb      	str	r3, [r7, #8]

    return y;
 8002f54:	68bb      	ldr	r3, [r7, #8]
}
 8002f56:	4618      	mov	r0, r3
 8002f58:	3710      	adds	r7, #16
 8002f5a:	46bd      	mov	sp, r7
 8002f5c:	bd80      	pop	{r7, pc}
	...

08002f60 <qFIS_GetFuzzOperator>:
/*============================================================================*/
static qFIS_FuzzyOperator_t qFIS_GetFuzzOperator( const qFIS_t * const f )
{
 8002f60:	b480      	push	{r7}
 8002f62:	b085      	sub	sp, #20
 8002f64:	af00      	add	r7, sp, #0
 8002f66:	6078      	str	r0, [r7, #4]
    qFIS_FuzzyOperator_t oper;

    switch ( f->lastConnector ) {
 8002f68:	687b      	ldr	r3, [r7, #4]
 8002f6a:	f9b3 305c 	ldrsh.w	r3, [r3, #92]	; 0x5c
 8002f6e:	4a0c      	ldr	r2, [pc, #48]	; (8002fa0 <qFIS_GetFuzzOperator+0x40>)
 8002f70:	4293      	cmp	r3, r2
 8002f72:	d003      	beq.n	8002f7c <qFIS_GetFuzzOperator+0x1c>
 8002f74:	4a0b      	ldr	r2, [pc, #44]	; (8002fa4 <qFIS_GetFuzzOperator+0x44>)
 8002f76:	4293      	cmp	r3, r2
 8002f78:	d004      	beq.n	8002f84 <qFIS_GetFuzzOperator+0x24>
 8002f7a:	e007      	b.n	8002f8c <qFIS_GetFuzzOperator+0x2c>
        case _QFIS_AND:
            oper = f->andOp;
 8002f7c:	687b      	ldr	r3, [r7, #4]
 8002f7e:	691b      	ldr	r3, [r3, #16]
 8002f80:	60fb      	str	r3, [r7, #12]
            break;
 8002f82:	e006      	b.n	8002f92 <qFIS_GetFuzzOperator+0x32>
        case _QFIS_OR:
            oper = f->orOp;
 8002f84:	687b      	ldr	r3, [r7, #4]
 8002f86:	695b      	ldr	r3, [r3, #20]
 8002f88:	60fb      	str	r3, [r7, #12]
            break;
 8002f8a:	e002      	b.n	8002f92 <qFIS_GetFuzzOperator+0x32>
        default:
            oper = &qFIS_Sum;
 8002f8c:	4b06      	ldr	r3, [pc, #24]	; (8002fa8 <qFIS_GetFuzzOperator+0x48>)
 8002f8e:	60fb      	str	r3, [r7, #12]
            break;
 8002f90:	bf00      	nop
    }

    return oper;
 8002f92:	68fb      	ldr	r3, [r7, #12]
}
 8002f94:	4618      	mov	r0, r3
 8002f96:	3714      	adds	r7, #20
 8002f98:	46bd      	mov	sp, r7
 8002f9a:	bc80      	pop	{r7}
 8002f9c:	4770      	bx	lr
 8002f9e:	bf00      	nop
 8002fa0:	ffff8002 	.word	0xffff8002
 8002fa4:	ffff8003 	.word	0xffff8003
 8002fa8:	0800477f 	.word	0x0800477f

08002fac <qFIS_InferenceAntecedent>:
/*============================================================================*/
static size_t qFIS_InferenceAntecedent( struct _qFIS_s * const f,
                                        size_t i )
{
 8002fac:	b590      	push	{r4, r7, lr}
 8002fae:	b087      	sub	sp, #28
 8002fb0:	af00      	add	r7, sp, #0
 8002fb2:	6078      	str	r0, [r7, #4]
 8002fb4:	6039      	str	r1, [r7, #0]
    int16_t inIndex, MFInIndex, connector;
    qFIS_FuzzyOperator_t op;
    /*cstat -CERT-INT30-C_a*/
    inIndex = f->rules[ i ];
 8002fb6:	687b      	ldr	r3, [r7, #4]
 8002fb8:	6b5a      	ldr	r2, [r3, #52]	; 0x34
 8002fba:	683b      	ldr	r3, [r7, #0]
 8002fbc:	005b      	lsls	r3, r3, #1
 8002fbe:	4413      	add	r3, r2
 8002fc0:	881b      	ldrh	r3, [r3, #0]
 8002fc2:	82fb      	strh	r3, [r7, #22]
    MFInIndex = f->rules[ i + 1u ];
 8002fc4:	687b      	ldr	r3, [r7, #4]
 8002fc6:	6b5a      	ldr	r2, [r3, #52]	; 0x34
 8002fc8:	683b      	ldr	r3, [r7, #0]
 8002fca:	3301      	adds	r3, #1
 8002fcc:	005b      	lsls	r3, r3, #1
 8002fce:	4413      	add	r3, r2
 8002fd0:	881b      	ldrh	r3, [r3, #0]
 8002fd2:	82bb      	strh	r3, [r7, #20]
    connector = f->rules[ i + 2u ];
 8002fd4:	687b      	ldr	r3, [r7, #4]
 8002fd6:	6b5a      	ldr	r2, [r3, #52]	; 0x34
 8002fd8:	683b      	ldr	r3, [r7, #0]
 8002fda:	3302      	adds	r3, #2
 8002fdc:	005b      	lsls	r3, r3, #1
 8002fde:	4413      	add	r3, r2
 8002fe0:	881b      	ldrh	r3, [r3, #0]
 8002fe2:	827b      	strh	r3, [r7, #18]
    /*cstat -CERT-INT30-C_a*/
    op = qFIS_GetFuzzOperator( f );
 8002fe4:	6878      	ldr	r0, [r7, #4]
 8002fe6:	f7ff ffbb 	bl	8002f60 <qFIS_GetFuzzOperator>
 8002fea:	60f8      	str	r0, [r7, #12]
    f->rStrength = op( f->rStrength, qFIS_ParseFuzzValue( f->inMF, MFInIndex ) );
 8002fec:	687b      	ldr	r3, [r7, #4]
 8002fee:	6d9c      	ldr	r4, [r3, #88]	; 0x58
 8002ff0:	687b      	ldr	r3, [r7, #4]
 8002ff2:	689b      	ldr	r3, [r3, #8]
 8002ff4:	f9b7 2014 	ldrsh.w	r2, [r7, #20]
 8002ff8:	4611      	mov	r1, r2
 8002ffa:	4618      	mov	r0, r3
 8002ffc:	f7ff ff7b 	bl	8002ef6 <qFIS_ParseFuzzValue>
 8003000:	4602      	mov	r2, r0
 8003002:	68fb      	ldr	r3, [r7, #12]
 8003004:	4611      	mov	r1, r2
 8003006:	4620      	mov	r0, r4
 8003008:	4798      	blx	r3
 800300a:	4602      	mov	r2, r0
 800300c:	687b      	ldr	r3, [r7, #4]
 800300e:	659a      	str	r2, [r3, #88]	; 0x58

    if ( ( inIndex < 0 ) || ( (size_t)inIndex > f->nInputs ) ) {
 8003010:	f9b7 3016 	ldrsh.w	r3, [r7, #22]
 8003014:	2b00      	cmp	r3, #0
 8003016:	db05      	blt.n	8003024 <qFIS_InferenceAntecedent+0x78>
 8003018:	f9b7 2016 	ldrsh.w	r2, [r7, #22]
 800301c:	687b      	ldr	r3, [r7, #4]
 800301e:	6bdb      	ldr	r3, [r3, #60]	; 0x3c
 8003020:	429a      	cmp	r2, r3
 8003022:	d902      	bls.n	800302a <qFIS_InferenceAntecedent+0x7e>
        i = QFIS_INFERENCE_ERROR;
 8003024:	2300      	movs	r3, #0
 8003026:	603b      	str	r3, [r7, #0]
 8003028:	e022      	b.n	8003070 <qFIS_InferenceAntecedent+0xc4>
    }
    else {
        if ( ( _QFIS_AND == connector ) || ( _QFIS_OR == connector ) ) {
 800302a:	f9b7 3012 	ldrsh.w	r3, [r7, #18]
 800302e:	4a13      	ldr	r2, [pc, #76]	; (800307c <qFIS_InferenceAntecedent+0xd0>)
 8003030:	4293      	cmp	r3, r2
 8003032:	d004      	beq.n	800303e <qFIS_InferenceAntecedent+0x92>
 8003034:	f9b7 3012 	ldrsh.w	r3, [r7, #18]
 8003038:	4a11      	ldr	r2, [pc, #68]	; (8003080 <qFIS_InferenceAntecedent+0xd4>)
 800303a:	4293      	cmp	r3, r2
 800303c:	d10a      	bne.n	8003054 <qFIS_InferenceAntecedent+0xa8>
            f->lastConnector = connector;
 800303e:	687b      	ldr	r3, [r7, #4]
 8003040:	8a7a      	ldrh	r2, [r7, #18]
 8003042:	f8a3 205c 	strh.w	r2, [r3, #92]	; 0x5c
            f->inferenceState = &qFIS_InferenceAntecedent;
 8003046:	687b      	ldr	r3, [r7, #4]
 8003048:	4a0e      	ldr	r2, [pc, #56]	; (8003084 <qFIS_InferenceAntecedent+0xd8>)
 800304a:	621a      	str	r2, [r3, #32]
            i += 2u;
 800304c:	683b      	ldr	r3, [r7, #0]
 800304e:	3302      	adds	r3, #2
 8003050:	603b      	str	r3, [r7, #0]
 8003052:	e00d      	b.n	8003070 <qFIS_InferenceAntecedent+0xc4>
        }
        else if ( _QFIS_THEN == connector ) {
 8003054:	f9b7 3012 	ldrsh.w	r3, [r7, #18]
 8003058:	4a0b      	ldr	r2, [pc, #44]	; (8003088 <qFIS_InferenceAntecedent+0xdc>)
 800305a:	4293      	cmp	r3, r2
 800305c:	d106      	bne.n	800306c <qFIS_InferenceAntecedent+0xc0>
            f->inferenceState = &qFIS_InferenceReachEnd;
 800305e:	687b      	ldr	r3, [r7, #4]
 8003060:	4a0a      	ldr	r2, [pc, #40]	; (800308c <qFIS_InferenceAntecedent+0xe0>)
 8003062:	621a      	str	r2, [r3, #32]
            i += 2u;
 8003064:	683b      	ldr	r3, [r7, #0]
 8003066:	3302      	adds	r3, #2
 8003068:	603b      	str	r3, [r7, #0]
 800306a:	e001      	b.n	8003070 <qFIS_InferenceAntecedent+0xc4>
        }
        else {
            i = QFIS_INFERENCE_ERROR;
 800306c:	2300      	movs	r3, #0
 800306e:	603b      	str	r3, [r7, #0]
        }
    }

    return i;
 8003070:	683b      	ldr	r3, [r7, #0]
}
 8003072:	4618      	mov	r0, r3
 8003074:	371c      	adds	r7, #28
 8003076:	46bd      	mov	sp, r7
 8003078:	bd90      	pop	{r4, r7, pc}
 800307a:	bf00      	nop
 800307c:	ffff8002 	.word	0xffff8002
 8003080:	ffff8003 	.word	0xffff8003
 8003084:	08002fad 	.word	0x08002fad
 8003088:	ffff8004 	.word	0xffff8004
 800308c:	08003091 	.word	0x08003091

08003090 <qFIS_InferenceReachEnd>:
/*============================================================================*/
static size_t qFIS_InferenceReachEnd( struct _qFIS_s * const f,
                                      size_t i )
{
 8003090:	b590      	push	{r4, r7, lr}
 8003092:	b085      	sub	sp, #20
 8003094:	af00      	add	r7, sp, #0
 8003096:	6078      	str	r0, [r7, #4]
 8003098:	6039      	str	r1, [r7, #0]
    int16_t  connector;

    connector = ( f->nOutputs > 1u )? f->rules[ i + 2u ] : -1;
 800309a:	687b      	ldr	r3, [r7, #4]
 800309c:	6c1b      	ldr	r3, [r3, #64]	; 0x40
 800309e:	2b01      	cmp	r3, #1
 80030a0:	d908      	bls.n	80030b4 <qFIS_InferenceReachEnd+0x24>
 80030a2:	687b      	ldr	r3, [r7, #4]
 80030a4:	6b5a      	ldr	r2, [r3, #52]	; 0x34
 80030a6:	683b      	ldr	r3, [r7, #0]
 80030a8:	3302      	adds	r3, #2
 80030aa:	005b      	lsls	r3, r3, #1
 80030ac:	4413      	add	r3, r2
 80030ae:	f9b3 3000 	ldrsh.w	r3, [r3]
 80030b2:	e001      	b.n	80030b8 <qFIS_InferenceReachEnd+0x28>
 80030b4:	f04f 33ff 	mov.w	r3, #4294967295
 80030b8:	81fb      	strh	r3, [r7, #14]
    i += 2u;
 80030ba:	683b      	ldr	r3, [r7, #0]
 80030bc:	3302      	adds	r3, #2
 80030be:	603b      	str	r3, [r7, #0]
    if ( _QFIS_AND != connector ) {
 80030c0:	f9b7 300e 	ldrsh.w	r3, [r7, #14]
 80030c4:	4a23      	ldr	r2, [pc, #140]	; (8003154 <qFIS_InferenceReachEnd+0xc4>)
 80030c6:	4293      	cmp	r3, r2
 80030c8:	d03f      	beq.n	800314a <qFIS_InferenceReachEnd+0xba>
        f->inferenceState = &qFIS_InferenceAntecedent;
 80030ca:	687b      	ldr	r3, [r7, #4]
 80030cc:	4a22      	ldr	r2, [pc, #136]	; (8003158 <qFIS_InferenceReachEnd+0xc8>)
 80030ce:	621a      	str	r2, [r3, #32]
        f->lastConnector = -1;
 80030d0:	687b      	ldr	r3, [r7, #4]
 80030d2:	f64f 72ff 	movw	r2, #65535	; 0xffff
 80030d6:	f8a3 205c 	strh.w	r2, [r3, #92]	; 0x5c
        f->wi[ f->ruleCount ] = f->rStrength;
 80030da:	687b      	ldr	r3, [r7, #4]
 80030dc:	6b1a      	ldr	r2, [r3, #48]	; 0x30
 80030de:	687b      	ldr	r3, [r7, #4]
 80030e0:	6d5b      	ldr	r3, [r3, #84]	; 0x54
 80030e2:	009b      	lsls	r3, r3, #2
 80030e4:	4413      	add	r3, r2
 80030e6:	687a      	ldr	r2, [r7, #4]
 80030e8:	6d92      	ldr	r2, [r2, #88]	; 0x58
 80030ea:	601a      	str	r2, [r3, #0]
        if ( NULL != f->ruleWeight ) {
 80030ec:	687b      	ldr	r3, [r7, #4]
 80030ee:	6adb      	ldr	r3, [r3, #44]	; 0x2c
 80030f0:	2b00      	cmp	r3, #0
 80030f2:	d01e      	beq.n	8003132 <qFIS_InferenceReachEnd+0xa2>
            f->wi[ f->ruleCount ] *= qFIS_Bound( f->ruleWeight[ f->ruleCount ], 0.0f, 1.0f );
 80030f4:	687b      	ldr	r3, [r7, #4]
 80030f6:	6ada      	ldr	r2, [r3, #44]	; 0x2c
 80030f8:	687b      	ldr	r3, [r7, #4]
 80030fa:	6d5b      	ldr	r3, [r3, #84]	; 0x54
 80030fc:	009b      	lsls	r3, r3, #2
 80030fe:	4413      	add	r3, r2
 8003100:	681b      	ldr	r3, [r3, #0]
 8003102:	f04f 527e 	mov.w	r2, #1065353216	; 0x3f800000
 8003106:	f04f 0100 	mov.w	r1, #0
 800310a:	4618      	mov	r0, r3
 800310c:	f001 fb4d 	bl	80047aa <qFIS_Bound>
 8003110:	687b      	ldr	r3, [r7, #4]
 8003112:	6b1a      	ldr	r2, [r3, #48]	; 0x30
 8003114:	687b      	ldr	r3, [r7, #4]
 8003116:	6d5b      	ldr	r3, [r3, #84]	; 0x54
 8003118:	009b      	lsls	r3, r3, #2
 800311a:	4413      	add	r3, r2
 800311c:	6819      	ldr	r1, [r3, #0]
 800311e:	687b      	ldr	r3, [r7, #4]
 8003120:	6b1a      	ldr	r2, [r3, #48]	; 0x30
 8003122:	687b      	ldr	r3, [r7, #4]
 8003124:	6d5b      	ldr	r3, [r3, #84]	; 0x54
 8003126:	009b      	lsls	r3, r3, #2
 8003128:	18d4      	adds	r4, r2, r3
 800312a:	f7fd fe0b 	bl	8000d44 <__aeabi_fmul>
 800312e:	4603      	mov	r3, r0
 8003130:	6023      	str	r3, [r4, #0]
        }
        f->rStrength = 0.0f;
 8003132:	687b      	ldr	r3, [r7, #4]
 8003134:	f04f 0200 	mov.w	r2, #0
 8003138:	659a      	str	r2, [r3, #88]	; 0x58
        ++f->ruleCount;
 800313a:	687b      	ldr	r3, [r7, #4]
 800313c:	6d5b      	ldr	r3, [r3, #84]	; 0x54
 800313e:	1c5a      	adds	r2, r3, #1
 8003140:	687b      	ldr	r3, [r7, #4]
 8003142:	655a      	str	r2, [r3, #84]	; 0x54
        --i;
 8003144:	683b      	ldr	r3, [r7, #0]
 8003146:	3b01      	subs	r3, #1
 8003148:	603b      	str	r3, [r7, #0]
    }

    return i;
 800314a:	683b      	ldr	r3, [r7, #0]
}
 800314c:	4618      	mov	r0, r3
 800314e:	3714      	adds	r7, #20
 8003150:	46bd      	mov	sp, r7
 8003152:	bd90      	pop	{r4, r7, pc}
 8003154:	ffff8002 	.word	0xffff8002
 8003158:	08002fad 	.word	0x08002fad

0800315c <qFIS_AggregationFindConsequent>:
/*============================================================================*/
static size_t qFIS_AggregationFindConsequent( struct _qFIS_s * const f,
                                              size_t i )
{
 800315c:	b480      	push	{r7}
 800315e:	b083      	sub	sp, #12
 8003160:	af00      	add	r7, sp, #0
 8003162:	6078      	str	r0, [r7, #4]
 8003164:	6039      	str	r1, [r7, #0]
    while ( _QFIS_THEN != f->rules[ i++ ] ) {}
 8003166:	bf00      	nop
 8003168:	687b      	ldr	r3, [r7, #4]
 800316a:	6b5a      	ldr	r2, [r3, #52]	; 0x34
 800316c:	683b      	ldr	r3, [r7, #0]
 800316e:	1c59      	adds	r1, r3, #1
 8003170:	6039      	str	r1, [r7, #0]
 8003172:	005b      	lsls	r3, r3, #1
 8003174:	4413      	add	r3, r2
 8003176:	f9b3 3000 	ldrsh.w	r3, [r3]
 800317a:	4a07      	ldr	r2, [pc, #28]	; (8003198 <qFIS_AggregationFindConsequent+0x3c>)
 800317c:	4293      	cmp	r3, r2
 800317e:	d1f3      	bne.n	8003168 <qFIS_AggregationFindConsequent+0xc>
    f->aggregationState = &qFIS_InferenceConsequent;
 8003180:	687b      	ldr	r3, [r7, #4]
 8003182:	4a06      	ldr	r2, [pc, #24]	; (800319c <qFIS_AggregationFindConsequent+0x40>)
 8003184:	625a      	str	r2, [r3, #36]	; 0x24

    return --i;
 8003186:	683b      	ldr	r3, [r7, #0]
 8003188:	3b01      	subs	r3, #1
 800318a:	603b      	str	r3, [r7, #0]
 800318c:	683b      	ldr	r3, [r7, #0]
}
 800318e:	4618      	mov	r0, r3
 8003190:	370c      	adds	r7, #12
 8003192:	46bd      	mov	sp, r7
 8003194:	bc80      	pop	{r7}
 8003196:	4770      	bx	lr
 8003198:	ffff8004 	.word	0xffff8004
 800319c:	080031a1 	.word	0x080031a1

080031a0 <qFIS_InferenceConsequent>:
/*============================================================================*/
static size_t qFIS_InferenceConsequent( struct _qFIS_s * const f,
                                        size_t i )
{
 80031a0:	b5b0      	push	{r4, r5, r7, lr}
 80031a2:	b088      	sub	sp, #32
 80031a4:	af00      	add	r7, sp, #0
 80031a6:	6078      	str	r0, [r7, #4]
 80031a8:	6039      	str	r1, [r7, #0]
    int16_t outIndex, MFOutIndex, connector;
    uint8_t neg = 0u;
 80031aa:	2300      	movs	r3, #0
 80031ac:	777b      	strb	r3, [r7, #29]

    outIndex = f->rules[ i ];
 80031ae:	687b      	ldr	r3, [r7, #4]
 80031b0:	6b5a      	ldr	r2, [r3, #52]	; 0x34
 80031b2:	683b      	ldr	r3, [r7, #0]
 80031b4:	005b      	lsls	r3, r3, #1
 80031b6:	4413      	add	r3, r2
 80031b8:	881b      	ldrh	r3, [r3, #0]
 80031ba:	837b      	strh	r3, [r7, #26]
    MFOutIndex = f->rules[ i + 1u ];
 80031bc:	687b      	ldr	r3, [r7, #4]
 80031be:	6b5a      	ldr	r2, [r3, #52]	; 0x34
 80031c0:	683b      	ldr	r3, [r7, #0]
 80031c2:	3301      	adds	r3, #1
 80031c4:	005b      	lsls	r3, r3, #1
 80031c6:	4413      	add	r3, r2
 80031c8:	881b      	ldrh	r3, [r3, #0]
 80031ca:	83fb      	strh	r3, [r7, #30]
    connector = ( f->nOutputs > 1u )? f->rules[ i + 2u ] : -1;
 80031cc:	687b      	ldr	r3, [r7, #4]
 80031ce:	6c1b      	ldr	r3, [r3, #64]	; 0x40
 80031d0:	2b01      	cmp	r3, #1
 80031d2:	d908      	bls.n	80031e6 <qFIS_InferenceConsequent+0x46>
 80031d4:	687b      	ldr	r3, [r7, #4]
 80031d6:	6b5a      	ldr	r2, [r3, #52]	; 0x34
 80031d8:	683b      	ldr	r3, [r7, #0]
 80031da:	3302      	adds	r3, #2
 80031dc:	005b      	lsls	r3, r3, #1
 80031de:	4413      	add	r3, r2
 80031e0:	f9b3 3000 	ldrsh.w	r3, [r3]
 80031e4:	e001      	b.n	80031ea <qFIS_InferenceConsequent+0x4a>
 80031e6:	f04f 33ff 	mov.w	r3, #4294967295
 80031ea:	833b      	strh	r3, [r7, #24]
    if ( MFOutIndex < 0 ) {
 80031ec:	f9b7 301e 	ldrsh.w	r3, [r7, #30]
 80031f0:	2b00      	cmp	r3, #0
 80031f2:	da05      	bge.n	8003200 <qFIS_InferenceConsequent+0x60>
        MFOutIndex = -MFOutIndex;
 80031f4:	8bfb      	ldrh	r3, [r7, #30]
 80031f6:	425b      	negs	r3, r3
 80031f8:	b29b      	uxth	r3, r3
 80031fa:	83fb      	strh	r3, [r7, #30]
        neg = 1u;
 80031fc:	2301      	movs	r3, #1
 80031fe:	777b      	strb	r3, [r7, #29]
    }
    MFOutIndex -= 1;
 8003200:	8bfb      	ldrh	r3, [r7, #30]
 8003202:	3b01      	subs	r3, #1
 8003204:	b29b      	uxth	r3, r3
 8003206:	83fb      	strh	r3, [r7, #30]

    if ( f->wi[ f->ruleCount ] > 0.0f ) {
 8003208:	687b      	ldr	r3, [r7, #4]
 800320a:	6b1a      	ldr	r2, [r3, #48]	; 0x30
 800320c:	687b      	ldr	r3, [r7, #4]
 800320e:	6d5b      	ldr	r3, [r3, #84]	; 0x54
 8003210:	009b      	lsls	r3, r3, #2
 8003212:	4413      	add	r3, r2
 8003214:	681b      	ldr	r3, [r3, #0]
 8003216:	f04f 0100 	mov.w	r1, #0
 800321a:	4618      	mov	r0, r3
 800321c:	f7fd ff4e 	bl	80010bc <__aeabi_fcmpgt>
 8003220:	4603      	mov	r3, r0
 8003222:	2b00      	cmp	r3, #0
 8003224:	d07b      	beq.n	800331e <qFIS_InferenceConsequent+0x17e>
        qFIS_Output_t *o = &f->output[ outIndex ];
 8003226:	687b      	ldr	r3, [r7, #4]
 8003228:	685a      	ldr	r2, [r3, #4]
 800322a:	f9b7 301a 	ldrsh.w	r3, [r7, #26]
 800322e:	2134      	movs	r1, #52	; 0x34
 8003230:	fb01 f303 	mul.w	r3, r1, r3
 8003234:	4413      	add	r3, r2
 8003236:	617b      	str	r3, [r7, #20]
        qFIS_MF_t *m = &f->outMF[ MFOutIndex ];
 8003238:	687b      	ldr	r3, [r7, #4]
 800323a:	68d9      	ldr	r1, [r3, #12]
 800323c:	f9b7 201e 	ldrsh.w	r2, [r7, #30]
 8003240:	4613      	mov	r3, r2
 8003242:	009b      	lsls	r3, r3, #2
 8003244:	4413      	add	r3, r2
 8003246:	009b      	lsls	r3, r3, #2
 8003248:	440b      	add	r3, r1
 800324a:	613b      	str	r3, [r7, #16]

        if ( Mamdani == f->type ) {
 800324c:	687b      	ldr	r3, [r7, #4]
 800324e:	f893 305e 	ldrb.w	r3, [r3, #94]	; 0x5e
 8003252:	2b00      	cmp	r3, #0
 8003254:	d133      	bne.n	80032be <qFIS_InferenceConsequent+0x11e>
            float v;
            /*cstat -MISRAC2012-Rule-11.3 -CERT-EXP39-C_d*/
            v = m->h*m->shape( (qFIS_IO_Base_t*)o, m->points, 1u );
 8003256:	693b      	ldr	r3, [r7, #16]
 8003258:	68dc      	ldr	r4, [r3, #12]
 800325a:	693b      	ldr	r3, [r7, #16]
 800325c:	681b      	ldr	r3, [r3, #0]
 800325e:	693a      	ldr	r2, [r7, #16]
 8003260:	6851      	ldr	r1, [r2, #4]
 8003262:	2201      	movs	r2, #1
 8003264:	6978      	ldr	r0, [r7, #20]
 8003266:	4798      	blx	r3
 8003268:	4603      	mov	r3, r0
 800326a:	4619      	mov	r1, r3
 800326c:	4620      	mov	r0, r4
 800326e:	f7fd fd69 	bl	8000d44 <__aeabi_fmul>
 8003272:	4603      	mov	r3, r0
 8003274:	60bb      	str	r3, [r7, #8]
            /*cstat +MISRAC2012-Rule-11.3 +CERT-EXP39-C_d*/
            v = ( 1u == neg )? ( 1.0f - v ) : v;
 8003276:	7f7b      	ldrb	r3, [r7, #29]
 8003278:	2b01      	cmp	r3, #1
 800327a:	d106      	bne.n	800328a <qFIS_InferenceConsequent+0xea>
 800327c:	68b9      	ldr	r1, [r7, #8]
 800327e:	f04f 507e 	mov.w	r0, #1065353216	; 0x3f800000
 8003282:	f7fd fc55 	bl	8000b30 <__aeabi_fsub>
 8003286:	4603      	mov	r3, r0
 8003288:	e000      	b.n	800328c <qFIS_InferenceConsequent+0xec>
 800328a:	68bb      	ldr	r3, [r7, #8]
 800328c:	60bb      	str	r3, [r7, #8]
            o->y = f->aggregate( o->y, f->implicate( f->wi[ f->ruleCount ], v ) );
 800328e:	687b      	ldr	r3, [r7, #4]
 8003290:	69dc      	ldr	r4, [r3, #28]
 8003292:	697b      	ldr	r3, [r7, #20]
 8003294:	695d      	ldr	r5, [r3, #20]
 8003296:	687b      	ldr	r3, [r7, #4]
 8003298:	699b      	ldr	r3, [r3, #24]
 800329a:	687a      	ldr	r2, [r7, #4]
 800329c:	6b11      	ldr	r1, [r2, #48]	; 0x30
 800329e:	687a      	ldr	r2, [r7, #4]
 80032a0:	6d52      	ldr	r2, [r2, #84]	; 0x54
 80032a2:	0092      	lsls	r2, r2, #2
 80032a4:	440a      	add	r2, r1
 80032a6:	6812      	ldr	r2, [r2, #0]
 80032a8:	68b9      	ldr	r1, [r7, #8]
 80032aa:	4610      	mov	r0, r2
 80032ac:	4798      	blx	r3
 80032ae:	4603      	mov	r3, r0
 80032b0:	4619      	mov	r1, r3
 80032b2:	4628      	mov	r0, r5
 80032b4:	47a0      	blx	r4
 80032b6:	4602      	mov	r2, r0
 80032b8:	697b      	ldr	r3, [r7, #20]
 80032ba:	615a      	str	r2, [r3, #20]
 80032bc:	e02f      	b.n	800331e <qFIS_InferenceConsequent+0x17e>
        }
        else { /* Sugeno and Tsukamoto*/
            float zi;
            /*cstat -MISRAC2012-Rule-11.3 -CERT-EXP39-C_d*/
            zi = m->shape( (qFIS_IO_Base_t*)f->input, m->points, f->nInputs );
 80032be:	693b      	ldr	r3, [r7, #16]
 80032c0:	681b      	ldr	r3, [r3, #0]
 80032c2:	687a      	ldr	r2, [r7, #4]
 80032c4:	6810      	ldr	r0, [r2, #0]
 80032c6:	693a      	ldr	r2, [r7, #16]
 80032c8:	6851      	ldr	r1, [r2, #4]
 80032ca:	687a      	ldr	r2, [r7, #4]
 80032cc:	6bd2      	ldr	r2, [r2, #60]	; 0x3c
 80032ce:	4798      	blx	r3
 80032d0:	60f8      	str	r0, [r7, #12]
            /*cstat +MISRAC2012-Rule-11.3 +CERT-EXP39-C_d*/
            o->data[ 0 ] += zi*f->wi[ f->ruleCount ];
 80032d2:	697b      	ldr	r3, [r7, #20]
 80032d4:	699c      	ldr	r4, [r3, #24]
 80032d6:	687b      	ldr	r3, [r7, #4]
 80032d8:	6b1a      	ldr	r2, [r3, #48]	; 0x30
 80032da:	687b      	ldr	r3, [r7, #4]
 80032dc:	6d5b      	ldr	r3, [r3, #84]	; 0x54
 80032de:	009b      	lsls	r3, r3, #2
 80032e0:	4413      	add	r3, r2
 80032e2:	681b      	ldr	r3, [r3, #0]
 80032e4:	68f9      	ldr	r1, [r7, #12]
 80032e6:	4618      	mov	r0, r3
 80032e8:	f7fd fd2c 	bl	8000d44 <__aeabi_fmul>
 80032ec:	4603      	mov	r3, r0
 80032ee:	4619      	mov	r1, r3
 80032f0:	4620      	mov	r0, r4
 80032f2:	f7fd fc1f 	bl	8000b34 <__addsf3>
 80032f6:	4603      	mov	r3, r0
 80032f8:	461a      	mov	r2, r3
 80032fa:	697b      	ldr	r3, [r7, #20]
 80032fc:	619a      	str	r2, [r3, #24]
            o->data[ 1 ] += f->wi[ f->ruleCount ];
 80032fe:	697b      	ldr	r3, [r7, #20]
 8003300:	69d8      	ldr	r0, [r3, #28]
 8003302:	687b      	ldr	r3, [r7, #4]
 8003304:	6b1a      	ldr	r2, [r3, #48]	; 0x30
 8003306:	687b      	ldr	r3, [r7, #4]
 8003308:	6d5b      	ldr	r3, [r3, #84]	; 0x54
 800330a:	009b      	lsls	r3, r3, #2
 800330c:	4413      	add	r3, r2
 800330e:	681b      	ldr	r3, [r3, #0]
 8003310:	4619      	mov	r1, r3
 8003312:	f7fd fc0f 	bl	8000b34 <__addsf3>
 8003316:	4603      	mov	r3, r0
 8003318:	461a      	mov	r2, r3
 800331a:	697b      	ldr	r3, [r7, #20]
 800331c:	61da      	str	r2, [r3, #28]
        }
    }

    i += 2u;
 800331e:	683b      	ldr	r3, [r7, #0]
 8003320:	3302      	adds	r3, #2
 8003322:	603b      	str	r3, [r7, #0]
    if ( _QFIS_AND != connector ) {
 8003324:	f9b7 3018 	ldrsh.w	r3, [r7, #24]
 8003328:	4a09      	ldr	r2, [pc, #36]	; (8003350 <qFIS_InferenceConsequent+0x1b0>)
 800332a:	4293      	cmp	r3, r2
 800332c:	d00a      	beq.n	8003344 <qFIS_InferenceConsequent+0x1a4>
        f->aggregationState = &qFIS_AggregationFindConsequent;
 800332e:	687b      	ldr	r3, [r7, #4]
 8003330:	4a08      	ldr	r2, [pc, #32]	; (8003354 <qFIS_InferenceConsequent+0x1b4>)
 8003332:	625a      	str	r2, [r3, #36]	; 0x24
        ++f->ruleCount;
 8003334:	687b      	ldr	r3, [r7, #4]
 8003336:	6d5b      	ldr	r3, [r3, #84]	; 0x54
 8003338:	1c5a      	adds	r2, r3, #1
 800333a:	687b      	ldr	r3, [r7, #4]
 800333c:	655a      	str	r2, [r3, #84]	; 0x54
        --i;
 800333e:	683b      	ldr	r3, [r7, #0]
 8003340:	3b01      	subs	r3, #1
 8003342:	603b      	str	r3, [r7, #0]
    }

    return i;
 8003344:	683b      	ldr	r3, [r7, #0]
}
 8003346:	4618      	mov	r0, r3
 8003348:	3720      	adds	r7, #32
 800334a:	46bd      	mov	sp, r7
 800334c:	bdb0      	pop	{r4, r5, r7, pc}
 800334e:	bf00      	nop
 8003350:	ffff8002 	.word	0xffff8002
 8003354:	0800315d 	.word	0x0800315d

08003358 <qFIS_Aggregate>:
/*============================================================================*/
static void qFIS_Aggregate( qFIS_t * const f )
{
 8003358:	b580      	push	{r7, lr}
 800335a:	b084      	sub	sp, #16
 800335c:	af00      	add	r7, sp, #0
 800335e:	6078      	str	r0, [r7, #4]
    if ( NULL != f ) {
 8003360:	687b      	ldr	r3, [r7, #4]
 8003362:	2b00      	cmp	r3, #0
 8003364:	d02d      	beq.n	80033c2 <qFIS_Aggregate+0x6a>
        if ( QFIS_RULES_BEGIN == f->rules[ 0 ] ) {
 8003366:	687b      	ldr	r3, [r7, #4]
 8003368:	6b5b      	ldr	r3, [r3, #52]	; 0x34
 800336a:	f9b3 3000 	ldrsh.w	r3, [r3]
 800336e:	f513 4f00 	cmn.w	r3, #32768	; 0x8000
 8003372:	d126      	bne.n	80033c2 <qFIS_Aggregate+0x6a>
            size_t i = 1u;
 8003374:	2301      	movs	r3, #1
 8003376:	60fb      	str	r3, [r7, #12]

            f->aggregationState = &qFIS_AggregationFindConsequent;
 8003378:	687b      	ldr	r3, [r7, #4]
 800337a:	4a14      	ldr	r2, [pc, #80]	; (80033cc <qFIS_Aggregate+0x74>)
 800337c:	625a      	str	r2, [r3, #36]	; 0x24
            f->ruleCount = 0u;
 800337e:	687b      	ldr	r3, [r7, #4]
 8003380:	2200      	movs	r2, #0
 8003382:	655a      	str	r2, [r3, #84]	; 0x54
            while ( ( _QFIS_RULES_END != f->rules[ i ] ) && ( f->ruleCount < f->nRules ) ) {
 8003384:	e00b      	b.n	800339e <qFIS_Aggregate+0x46>
                i = f->aggregationState( f, i );
 8003386:	687b      	ldr	r3, [r7, #4]
 8003388:	6a5b      	ldr	r3, [r3, #36]	; 0x24
 800338a:	68f9      	ldr	r1, [r7, #12]
 800338c:	6878      	ldr	r0, [r7, #4]
 800338e:	4798      	blx	r3
 8003390:	60f8      	str	r0, [r7, #12]
                if ( QFIS_INFERENCE_ERROR == i ) {
 8003392:	68fb      	ldr	r3, [r7, #12]
 8003394:	2b00      	cmp	r3, #0
 8003396:	d013      	beq.n	80033c0 <qFIS_Aggregate+0x68>
                    break;
                }
                ++i;
 8003398:	68fb      	ldr	r3, [r7, #12]
 800339a:	3301      	adds	r3, #1
 800339c:	60fb      	str	r3, [r7, #12]
            while ( ( _QFIS_RULES_END != f->rules[ i ] ) && ( f->ruleCount < f->nRules ) ) {
 800339e:	687b      	ldr	r3, [r7, #4]
 80033a0:	6b5a      	ldr	r2, [r3, #52]	; 0x34
 80033a2:	68fb      	ldr	r3, [r7, #12]
 80033a4:	005b      	lsls	r3, r3, #1
 80033a6:	4413      	add	r3, r2
 80033a8:	f9b3 3000 	ldrsh.w	r3, [r3]
 80033ac:	4a08      	ldr	r2, [pc, #32]	; (80033d0 <qFIS_Aggregate+0x78>)
 80033ae:	4293      	cmp	r3, r2
 80033b0:	d007      	beq.n	80033c2 <qFIS_Aggregate+0x6a>
 80033b2:	687b      	ldr	r3, [r7, #4]
 80033b4:	6d5a      	ldr	r2, [r3, #84]	; 0x54
 80033b6:	687b      	ldr	r3, [r7, #4]
 80033b8:	6d1b      	ldr	r3, [r3, #80]	; 0x50
 80033ba:	429a      	cmp	r2, r3
 80033bc:	d3e3      	bcc.n	8003386 <qFIS_Aggregate+0x2e>
            }
        }
    }
}
 80033be:	e000      	b.n	80033c2 <qFIS_Aggregate+0x6a>
                    break;
 80033c0:	bf00      	nop
}
 80033c2:	bf00      	nop
 80033c4:	3710      	adds	r7, #16
 80033c6:	46bd      	mov	sp, r7
 80033c8:	bd80      	pop	{r7, pc}
 80033ca:	bf00      	nop
 80033cc:	0800315d 	.word	0x0800315d
 80033d0:	ffff8001 	.word	0xffff8001

080033d4 <qFIS_DeFuzz_Centroid>:
/*============================================================================*/
static float qFIS_DeFuzz_Centroid( qFIS_Output_t * const o,
                                   const qFIS_DeFuzzState_t stage )
{
 80033d4:	b590      	push	{r4, r7, lr}
 80033d6:	b085      	sub	sp, #20
 80033d8:	af00      	add	r7, sp, #0
 80033da:	6078      	str	r0, [r7, #4]
 80033dc:	460b      	mov	r3, r1
 80033de:	70fb      	strb	r3, [r7, #3]
    float d = 0.0f;
 80033e0:	f04f 0300 	mov.w	r3, #0
 80033e4:	60fb      	str	r3, [r7, #12]

    switch ( stage ) {
 80033e6:	78fb      	ldrb	r3, [r7, #3]
 80033e8:	2b02      	cmp	r3, #2
 80033ea:	d02e      	beq.n	800344a <qFIS_DeFuzz_Centroid+0x76>
 80033ec:	2b02      	cmp	r3, #2
 80033ee:	dc37      	bgt.n	8003460 <qFIS_DeFuzz_Centroid+0x8c>
 80033f0:	2b00      	cmp	r3, #0
 80033f2:	d021      	beq.n	8003438 <qFIS_DeFuzz_Centroid+0x64>
 80033f4:	2b01      	cmp	r3, #1
 80033f6:	d133      	bne.n	8003460 <qFIS_DeFuzz_Centroid+0x8c>
        case DeFuzz_Compute:
            o->data[ 0 ] += o->x*o->y;
 80033f8:	687b      	ldr	r3, [r7, #4]
 80033fa:	699c      	ldr	r4, [r3, #24]
 80033fc:	687b      	ldr	r3, [r7, #4]
 80033fe:	691a      	ldr	r2, [r3, #16]
 8003400:	687b      	ldr	r3, [r7, #4]
 8003402:	695b      	ldr	r3, [r3, #20]
 8003404:	4619      	mov	r1, r3
 8003406:	4610      	mov	r0, r2
 8003408:	f7fd fc9c 	bl	8000d44 <__aeabi_fmul>
 800340c:	4603      	mov	r3, r0
 800340e:	4619      	mov	r1, r3
 8003410:	4620      	mov	r0, r4
 8003412:	f7fd fb8f 	bl	8000b34 <__addsf3>
 8003416:	4603      	mov	r3, r0
 8003418:	461a      	mov	r2, r3
 800341a:	687b      	ldr	r3, [r7, #4]
 800341c:	619a      	str	r2, [r3, #24]
            o->data[ 1 ] += o->y;
 800341e:	687b      	ldr	r3, [r7, #4]
 8003420:	69da      	ldr	r2, [r3, #28]
 8003422:	687b      	ldr	r3, [r7, #4]
 8003424:	695b      	ldr	r3, [r3, #20]
 8003426:	4619      	mov	r1, r3
 8003428:	4610      	mov	r0, r2
 800342a:	f7fd fb83 	bl	8000b34 <__addsf3>
 800342e:	4603      	mov	r3, r0
 8003430:	461a      	mov	r2, r3
 8003432:	687b      	ldr	r3, [r7, #4]
 8003434:	61da      	str	r2, [r3, #28]
            break;
 8003436:	e014      	b.n	8003462 <qFIS_DeFuzz_Centroid+0x8e>
        case DeFuzz_Init:
            o->data[ 0 ] = 0.0f; /*store sum(y)*/
 8003438:	687b      	ldr	r3, [r7, #4]
 800343a:	f04f 0200 	mov.w	r2, #0
 800343e:	619a      	str	r2, [r3, #24]
            o->data[ 1 ] = 0.0f; /*store sum(x*y)*/
 8003440:	687b      	ldr	r3, [r7, #4]
 8003442:	f04f 0200 	mov.w	r2, #0
 8003446:	61da      	str	r2, [r3, #28]
            break;
 8003448:	e00b      	b.n	8003462 <qFIS_DeFuzz_Centroid+0x8e>
        case DeFuzz_End:
            d = o->data[ 0 ]/o->data[ 1 ]; /*sum(x*y)/sum(y)*/
 800344a:	687b      	ldr	r3, [r7, #4]
 800344c:	699a      	ldr	r2, [r3, #24]
 800344e:	687b      	ldr	r3, [r7, #4]
 8003450:	69db      	ldr	r3, [r3, #28]
 8003452:	4619      	mov	r1, r3
 8003454:	4610      	mov	r0, r2
 8003456:	f7fd fd29 	bl	8000eac <__aeabi_fdiv>
 800345a:	4603      	mov	r3, r0
 800345c:	60fb      	str	r3, [r7, #12]
            break;
 800345e:	e000      	b.n	8003462 <qFIS_DeFuzz_Centroid+0x8e>
        default:
            break;
 8003460:	bf00      	nop
    }

    return d;
 8003462:	68fb      	ldr	r3, [r7, #12]
}
 8003464:	4618      	mov	r0, r3
 8003466:	3714      	adds	r7, #20
 8003468:	46bd      	mov	sp, r7
 800346a:	bd90      	pop	{r4, r7, pc}

0800346c <qFIS_DeFuzz_WtAverage>:
    return d;
}
/*============================================================================*/
static float qFIS_DeFuzz_WtAverage( qFIS_Output_t * const o,
                                    const qFIS_DeFuzzState_t stage )
{
 800346c:	b580      	push	{r7, lr}
 800346e:	b084      	sub	sp, #16
 8003470:	af00      	add	r7, sp, #0
 8003472:	6078      	str	r0, [r7, #4]
 8003474:	460b      	mov	r3, r1
 8003476:	70fb      	strb	r3, [r7, #3]
    float d = 0.0f;
 8003478:	f04f 0300 	mov.w	r3, #0
 800347c:	60fb      	str	r3, [r7, #12]

    if ( DeFuzz_End == stage ) {
 800347e:	78fb      	ldrb	r3, [r7, #3]
 8003480:	2b02      	cmp	r3, #2
 8003482:	d109      	bne.n	8003498 <qFIS_DeFuzz_WtAverage+0x2c>
        d = o->data[ 0 ]/o->data[ 1 ];
 8003484:	687b      	ldr	r3, [r7, #4]
 8003486:	699a      	ldr	r2, [r3, #24]
 8003488:	687b      	ldr	r3, [r7, #4]
 800348a:	69db      	ldr	r3, [r3, #28]
 800348c:	4619      	mov	r1, r3
 800348e:	4610      	mov	r0, r2
 8003490:	f7fd fd0c 	bl	8000eac <__aeabi_fdiv>
 8003494:	4603      	mov	r3, r0
 8003496:	60fb      	str	r3, [r7, #12]
    }

    return d;
 8003498:	68fb      	ldr	r3, [r7, #12]
}
 800349a:	4618      	mov	r0, r3
 800349c:	3710      	adds	r7, #16
 800349e:	46bd      	mov	sp, r7
 80034a0:	bd80      	pop	{r7, pc}

080034a2 <qFIS_DeFuzzify>:

    return d;
}
/*============================================================================*/
int qFIS_DeFuzzify( qFIS_t * const f )
{
 80034a2:	b5b0      	push	{r4, r5, r7, lr}
 80034a4:	b086      	sub	sp, #24
 80034a6:	af00      	add	r7, sp, #0
 80034a8:	6078      	str	r0, [r7, #4]
    int retVal = 0;
 80034aa:	2300      	movs	r3, #0
 80034ac:	60fb      	str	r3, [r7, #12]

    if ( NULL != f ) {
 80034ae:	687b      	ldr	r3, [r7, #4]
 80034b0:	2b00      	cmp	r3, #0
 80034b2:	f000 8133 	beq.w	800371c <qFIS_DeFuzzify+0x27a>
        size_t i;

        for ( i = 0; i < f->nOutputs ; ++i ) {
 80034b6:	2300      	movs	r3, #0
 80034b8:	617b      	str	r3, [r7, #20]
 80034ba:	e00e      	b.n	80034da <qFIS_DeFuzzify+0x38>
            f->deFuzz( &f->output[ i ] , DeFuzz_Init );
 80034bc:	687b      	ldr	r3, [r7, #4]
 80034be:	6a9b      	ldr	r3, [r3, #40]	; 0x28
 80034c0:	687a      	ldr	r2, [r7, #4]
 80034c2:	6851      	ldr	r1, [r2, #4]
 80034c4:	697a      	ldr	r2, [r7, #20]
 80034c6:	2034      	movs	r0, #52	; 0x34
 80034c8:	fb00 f202 	mul.w	r2, r0, r2
 80034cc:	440a      	add	r2, r1
 80034ce:	2100      	movs	r1, #0
 80034d0:	4610      	mov	r0, r2
 80034d2:	4798      	blx	r3
        for ( i = 0; i < f->nOutputs ; ++i ) {
 80034d4:	697b      	ldr	r3, [r7, #20]
 80034d6:	3301      	adds	r3, #1
 80034d8:	617b      	str	r3, [r7, #20]
 80034da:	687b      	ldr	r3, [r7, #4]
 80034dc:	6c1b      	ldr	r3, [r3, #64]	; 0x40
 80034de:	697a      	ldr	r2, [r7, #20]
 80034e0:	429a      	cmp	r2, r3
 80034e2:	d3eb      	bcc.n	80034bc <qFIS_DeFuzzify+0x1a>
        }

        if ( Mamdani == f->type  ) {
 80034e4:	687b      	ldr	r3, [r7, #4]
 80034e6:	f893 305e 	ldrb.w	r3, [r3, #94]	; 0x5e
 80034ea:	2b00      	cmp	r3, #0
 80034ec:	f040 809a 	bne.w	8003624 <qFIS_DeFuzzify+0x182>
            size_t k;

            for ( k = 0u ; k < f->nPoints ; ++k ) {
 80034f0:	2300      	movs	r3, #0
 80034f2:	613b      	str	r3, [r7, #16]
 80034f4:	e08f      	b.n	8003616 <qFIS_DeFuzzify+0x174>
                for ( i = 0; i < f->nOutputs ; ++i ) { /* initialize*/
 80034f6:	2300      	movs	r3, #0
 80034f8:	617b      	str	r3, [r7, #20]
 80034fa:	e038      	b.n	800356e <qFIS_DeFuzzify+0xcc>
                    f->output[ i ].y = 0.0f;
 80034fc:	687b      	ldr	r3, [r7, #4]
 80034fe:	685a      	ldr	r2, [r3, #4]
 8003500:	697b      	ldr	r3, [r7, #20]
 8003502:	2134      	movs	r1, #52	; 0x34
 8003504:	fb01 f303 	mul.w	r3, r1, r3
 8003508:	4413      	add	r3, r2
 800350a:	f04f 0200 	mov.w	r2, #0
 800350e:	615a      	str	r2, [r3, #20]
                    f->output[ i ].x = qFIS_GetNextX( f->output[ i ].b.min,
 8003510:	687b      	ldr	r3, [r7, #4]
 8003512:	685a      	ldr	r2, [r3, #4]
 8003514:	697b      	ldr	r3, [r7, #20]
 8003516:	2134      	movs	r1, #52	; 0x34
 8003518:	fb01 f303 	mul.w	r3, r1, r3
 800351c:	4413      	add	r3, r2
 800351e:	6818      	ldr	r0, [r3, #0]
                                                      f->output[ i ].res,
 8003520:	687b      	ldr	r3, [r7, #4]
 8003522:	685a      	ldr	r2, [r3, #4]
 8003524:	697b      	ldr	r3, [r7, #20]
 8003526:	2134      	movs	r1, #52	; 0x34
 8003528:	fb01 f303 	mul.w	r3, r1, r3
 800352c:	4413      	add	r3, r2
                    f->output[ i ].x = qFIS_GetNextX( f->output[ i ].b.min,
 800352e:	68d9      	ldr	r1, [r3, #12]
 8003530:	687b      	ldr	r3, [r7, #4]
 8003532:	685a      	ldr	r2, [r3, #4]
 8003534:	697b      	ldr	r3, [r7, #20]
 8003536:	2434      	movs	r4, #52	; 0x34
 8003538:	fb04 f303 	mul.w	r3, r4, r3
 800353c:	18d4      	adds	r4, r2, r3
 800353e:	693a      	ldr	r2, [r7, #16]
 8003540:	f000 f950 	bl	80037e4 <qFIS_GetNextX>
 8003544:	4603      	mov	r3, r0
 8003546:	6123      	str	r3, [r4, #16]
                                                      k );
                    f->output[ i ].b.value = f->output[ i ].x;
 8003548:	687b      	ldr	r3, [r7, #4]
 800354a:	685a      	ldr	r2, [r3, #4]
 800354c:	697b      	ldr	r3, [r7, #20]
 800354e:	2134      	movs	r1, #52	; 0x34
 8003550:	fb01 f303 	mul.w	r3, r1, r3
 8003554:	441a      	add	r2, r3
 8003556:	687b      	ldr	r3, [r7, #4]
 8003558:	6859      	ldr	r1, [r3, #4]
 800355a:	697b      	ldr	r3, [r7, #20]
 800355c:	2034      	movs	r0, #52	; 0x34
 800355e:	fb00 f303 	mul.w	r3, r0, r3
 8003562:	440b      	add	r3, r1
 8003564:	6912      	ldr	r2, [r2, #16]
 8003566:	609a      	str	r2, [r3, #8]
                for ( i = 0; i < f->nOutputs ; ++i ) { /* initialize*/
 8003568:	697b      	ldr	r3, [r7, #20]
 800356a:	3301      	adds	r3, #1
 800356c:	617b      	str	r3, [r7, #20]
 800356e:	687b      	ldr	r3, [r7, #4]
 8003570:	6c1b      	ldr	r3, [r3, #64]	; 0x40
 8003572:	697a      	ldr	r2, [r7, #20]
 8003574:	429a      	cmp	r2, r3
 8003576:	d3c1      	bcc.n	80034fc <qFIS_DeFuzzify+0x5a>
                }
                qFIS_Aggregate( f );
 8003578:	6878      	ldr	r0, [r7, #4]
 800357a:	f7ff feed 	bl	8003358 <qFIS_Aggregate>
                for ( i = 0; i < f->nOutputs ; ++i ) {
 800357e:	2300      	movs	r3, #0
 8003580:	617b      	str	r3, [r7, #20]
 8003582:	e040      	b.n	8003606 <qFIS_DeFuzzify+0x164>
                    f->deFuzz( &f->output[ i ] , DeFuzz_Compute );
 8003584:	687b      	ldr	r3, [r7, #4]
 8003586:	6a9b      	ldr	r3, [r3, #40]	; 0x28
 8003588:	687a      	ldr	r2, [r7, #4]
 800358a:	6851      	ldr	r1, [r2, #4]
 800358c:	697a      	ldr	r2, [r7, #20]
 800358e:	2034      	movs	r0, #52	; 0x34
 8003590:	fb00 f202 	mul.w	r2, r0, r2
 8003594:	440a      	add	r2, r1
 8003596:	2101      	movs	r1, #1
 8003598:	4610      	mov	r0, r2
 800359a:	4798      	blx	r3
                    if ( NULL != f->output[ i ].xag ) { /*store aggregated*/
 800359c:	687b      	ldr	r3, [r7, #4]
 800359e:	685a      	ldr	r2, [r3, #4]
 80035a0:	697b      	ldr	r3, [r7, #20]
 80035a2:	2134      	movs	r1, #52	; 0x34
 80035a4:	fb01 f303 	mul.w	r3, r1, r3
 80035a8:	4413      	add	r3, r2
 80035aa:	6adb      	ldr	r3, [r3, #44]	; 0x2c
 80035ac:	2b00      	cmp	r3, #0
 80035ae:	d027      	beq.n	8003600 <qFIS_DeFuzzify+0x15e>
                        f->output[ i ].xag[ k ] = f->output[ i ].x;
 80035b0:	687b      	ldr	r3, [r7, #4]
 80035b2:	685a      	ldr	r2, [r3, #4]
 80035b4:	697b      	ldr	r3, [r7, #20]
 80035b6:	2134      	movs	r1, #52	; 0x34
 80035b8:	fb01 f303 	mul.w	r3, r1, r3
 80035bc:	441a      	add	r2, r3
 80035be:	687b      	ldr	r3, [r7, #4]
 80035c0:	6859      	ldr	r1, [r3, #4]
 80035c2:	697b      	ldr	r3, [r7, #20]
 80035c4:	2034      	movs	r0, #52	; 0x34
 80035c6:	fb00 f303 	mul.w	r3, r0, r3
 80035ca:	440b      	add	r3, r1
 80035cc:	6ad9      	ldr	r1, [r3, #44]	; 0x2c
 80035ce:	693b      	ldr	r3, [r7, #16]
 80035d0:	009b      	lsls	r3, r3, #2
 80035d2:	440b      	add	r3, r1
 80035d4:	6912      	ldr	r2, [r2, #16]
 80035d6:	601a      	str	r2, [r3, #0]
                        f->output[ i ].yag[ k ] = f->output[ i ].y;
 80035d8:	687b      	ldr	r3, [r7, #4]
 80035da:	685a      	ldr	r2, [r3, #4]
 80035dc:	697b      	ldr	r3, [r7, #20]
 80035de:	2134      	movs	r1, #52	; 0x34
 80035e0:	fb01 f303 	mul.w	r3, r1, r3
 80035e4:	441a      	add	r2, r3
 80035e6:	687b      	ldr	r3, [r7, #4]
 80035e8:	6859      	ldr	r1, [r3, #4]
 80035ea:	697b      	ldr	r3, [r7, #20]
 80035ec:	2034      	movs	r0, #52	; 0x34
 80035ee:	fb00 f303 	mul.w	r3, r0, r3
 80035f2:	440b      	add	r3, r1
 80035f4:	6b19      	ldr	r1, [r3, #48]	; 0x30
 80035f6:	693b      	ldr	r3, [r7, #16]
 80035f8:	009b      	lsls	r3, r3, #2
 80035fa:	440b      	add	r3, r1
 80035fc:	6952      	ldr	r2, [r2, #20]
 80035fe:	601a      	str	r2, [r3, #0]
                for ( i = 0; i < f->nOutputs ; ++i ) {
 8003600:	697b      	ldr	r3, [r7, #20]
 8003602:	3301      	adds	r3, #1
 8003604:	617b      	str	r3, [r7, #20]
 8003606:	687b      	ldr	r3, [r7, #4]
 8003608:	6c1b      	ldr	r3, [r3, #64]	; 0x40
 800360a:	697a      	ldr	r2, [r7, #20]
 800360c:	429a      	cmp	r2, r3
 800360e:	d3b9      	bcc.n	8003584 <qFIS_DeFuzzify+0xe2>
            for ( k = 0u ; k < f->nPoints ; ++k ) {
 8003610:	693b      	ldr	r3, [r7, #16]
 8003612:	3301      	adds	r3, #1
 8003614:	613b      	str	r3, [r7, #16]
 8003616:	687b      	ldr	r3, [r7, #4]
 8003618:	6cdb      	ldr	r3, [r3, #76]	; 0x4c
 800361a:	693a      	ldr	r2, [r7, #16]
 800361c:	429a      	cmp	r2, r3
 800361e:	f4ff af6a 	bcc.w	80034f6 <qFIS_DeFuzzify+0x54>
 8003622:	e038      	b.n	8003696 <qFIS_DeFuzzify+0x1f4>
                    }
                }
            }
        }
        else { /*Sugeno and Tsukamoto systems*/
            for ( i = 0; i < f->nOutputs ; ++i ) { /* initialize*/
 8003624:	2300      	movs	r3, #0
 8003626:	617b      	str	r3, [r7, #20]
 8003628:	e016      	b.n	8003658 <qFIS_DeFuzzify+0x1b6>
                f->output[ i ].data[ 0 ] = 0.0f; /*store sum wi*/
 800362a:	687b      	ldr	r3, [r7, #4]
 800362c:	685a      	ldr	r2, [r3, #4]
 800362e:	697b      	ldr	r3, [r7, #20]
 8003630:	2134      	movs	r1, #52	; 0x34
 8003632:	fb01 f303 	mul.w	r3, r1, r3
 8003636:	4413      	add	r3, r2
 8003638:	f04f 0200 	mov.w	r2, #0
 800363c:	619a      	str	r2, [r3, #24]
                f->output[ i ].data[ 1 ] = 0.0f; /*store sum zi*wi*/
 800363e:	687b      	ldr	r3, [r7, #4]
 8003640:	685a      	ldr	r2, [r3, #4]
 8003642:	697b      	ldr	r3, [r7, #20]
 8003644:	2134      	movs	r1, #52	; 0x34
 8003646:	fb01 f303 	mul.w	r3, r1, r3
 800364a:	4413      	add	r3, r2
 800364c:	f04f 0200 	mov.w	r2, #0
 8003650:	61da      	str	r2, [r3, #28]
            for ( i = 0; i < f->nOutputs ; ++i ) { /* initialize*/
 8003652:	697b      	ldr	r3, [r7, #20]
 8003654:	3301      	adds	r3, #1
 8003656:	617b      	str	r3, [r7, #20]
 8003658:	687b      	ldr	r3, [r7, #4]
 800365a:	6c1b      	ldr	r3, [r3, #64]	; 0x40
 800365c:	697a      	ldr	r2, [r7, #20]
 800365e:	429a      	cmp	r2, r3
 8003660:	d3e3      	bcc.n	800362a <qFIS_DeFuzzify+0x188>
            }
            qFIS_Aggregate( f );
 8003662:	6878      	ldr	r0, [r7, #4]
 8003664:	f7ff fe78 	bl	8003358 <qFIS_Aggregate>
            for ( i = 0; i < f->nOutputs ; ++i ) { /* initialize*/
 8003668:	2300      	movs	r3, #0
 800366a:	617b      	str	r3, [r7, #20]
 800366c:	e00e      	b.n	800368c <qFIS_DeFuzzify+0x1ea>
                f->deFuzz( &f->output[ i ] , DeFuzz_Compute );
 800366e:	687b      	ldr	r3, [r7, #4]
 8003670:	6a9b      	ldr	r3, [r3, #40]	; 0x28
 8003672:	687a      	ldr	r2, [r7, #4]
 8003674:	6851      	ldr	r1, [r2, #4]
 8003676:	697a      	ldr	r2, [r7, #20]
 8003678:	2034      	movs	r0, #52	; 0x34
 800367a:	fb00 f202 	mul.w	r2, r0, r2
 800367e:	440a      	add	r2, r1
 8003680:	2101      	movs	r1, #1
 8003682:	4610      	mov	r0, r2
 8003684:	4798      	blx	r3
            for ( i = 0; i < f->nOutputs ; ++i ) { /* initialize*/
 8003686:	697b      	ldr	r3, [r7, #20]
 8003688:	3301      	adds	r3, #1
 800368a:	617b      	str	r3, [r7, #20]
 800368c:	687b      	ldr	r3, [r7, #4]
 800368e:	6c1b      	ldr	r3, [r3, #64]	; 0x40
 8003690:	697a      	ldr	r2, [r7, #20]
 8003692:	429a      	cmp	r2, r3
 8003694:	d3eb      	bcc.n	800366e <qFIS_DeFuzzify+0x1cc>
            }
        }

        for ( i = 0; i < f->nOutputs ; ++i ) {
 8003696:	2300      	movs	r3, #0
 8003698:	617b      	str	r3, [r7, #20]
 800369a:	e03a      	b.n	8003712 <qFIS_DeFuzzify+0x270>
            f->output[ i ].b.value = f->deFuzz( &f->output[ i ] , DeFuzz_End );
 800369c:	687b      	ldr	r3, [r7, #4]
 800369e:	6a9b      	ldr	r3, [r3, #40]	; 0x28
 80036a0:	687a      	ldr	r2, [r7, #4]
 80036a2:	6851      	ldr	r1, [r2, #4]
 80036a4:	697a      	ldr	r2, [r7, #20]
 80036a6:	2034      	movs	r0, #52	; 0x34
 80036a8:	fb00 f202 	mul.w	r2, r0, r2
 80036ac:	1888      	adds	r0, r1, r2
 80036ae:	687a      	ldr	r2, [r7, #4]
 80036b0:	6851      	ldr	r1, [r2, #4]
 80036b2:	697a      	ldr	r2, [r7, #20]
 80036b4:	2434      	movs	r4, #52	; 0x34
 80036b6:	fb04 f202 	mul.w	r2, r4, r2
 80036ba:	188c      	adds	r4, r1, r2
 80036bc:	2102      	movs	r1, #2
 80036be:	4798      	blx	r3
 80036c0:	4603      	mov	r3, r0
 80036c2:	60a3      	str	r3, [r4, #8]
            f->output[ i ].b.value = qFIS_Bound( f->output[ i ].b.value,
 80036c4:	687b      	ldr	r3, [r7, #4]
 80036c6:	685a      	ldr	r2, [r3, #4]
 80036c8:	697b      	ldr	r3, [r7, #20]
 80036ca:	2134      	movs	r1, #52	; 0x34
 80036cc:	fb01 f303 	mul.w	r3, r1, r3
 80036d0:	4413      	add	r3, r2
 80036d2:	6898      	ldr	r0, [r3, #8]
                                                 f->output[ i ].b.min,
 80036d4:	687b      	ldr	r3, [r7, #4]
 80036d6:	685a      	ldr	r2, [r3, #4]
 80036d8:	697b      	ldr	r3, [r7, #20]
 80036da:	2134      	movs	r1, #52	; 0x34
 80036dc:	fb01 f303 	mul.w	r3, r1, r3
 80036e0:	4413      	add	r3, r2
            f->output[ i ].b.value = qFIS_Bound( f->output[ i ].b.value,
 80036e2:	6819      	ldr	r1, [r3, #0]
                                                 f->output[ i ].b.max );
 80036e4:	687b      	ldr	r3, [r7, #4]
 80036e6:	685a      	ldr	r2, [r3, #4]
 80036e8:	697b      	ldr	r3, [r7, #20]
 80036ea:	2434      	movs	r4, #52	; 0x34
 80036ec:	fb04 f303 	mul.w	r3, r4, r3
 80036f0:	4413      	add	r3, r2
            f->output[ i ].b.value = qFIS_Bound( f->output[ i ].b.value,
 80036f2:	685d      	ldr	r5, [r3, #4]
 80036f4:	687b      	ldr	r3, [r7, #4]
 80036f6:	685a      	ldr	r2, [r3, #4]
 80036f8:	697b      	ldr	r3, [r7, #20]
 80036fa:	2434      	movs	r4, #52	; 0x34
 80036fc:	fb04 f303 	mul.w	r3, r4, r3
 8003700:	18d4      	adds	r4, r2, r3
 8003702:	462a      	mov	r2, r5
 8003704:	f001 f851 	bl	80047aa <qFIS_Bound>
 8003708:	4603      	mov	r3, r0
 800370a:	60a3      	str	r3, [r4, #8]
        for ( i = 0; i < f->nOutputs ; ++i ) {
 800370c:	697b      	ldr	r3, [r7, #20]
 800370e:	3301      	adds	r3, #1
 8003710:	617b      	str	r3, [r7, #20]
 8003712:	687b      	ldr	r3, [r7, #4]
 8003714:	6c1b      	ldr	r3, [r3, #64]	; 0x40
 8003716:	697a      	ldr	r2, [r7, #20]
 8003718:	429a      	cmp	r2, r3
 800371a:	d3bf      	bcc.n	800369c <qFIS_DeFuzzify+0x1fa>
        }
    }

    return retVal;
 800371c:	68fb      	ldr	r3, [r7, #12]
}
 800371e:	4618      	mov	r0, r3
 8003720:	3718      	adds	r7, #24
 8003722:	46bd      	mov	sp, r7
 8003724:	bdb0      	pop	{r4, r5, r7, pc}
	...

08003728 <qFIS_Inference>:

    return retVal;
}
/*============================================================================*/
int qFIS_Inference( qFIS_t * const f )
{
 8003728:	b580      	push	{r7, lr}
 800372a:	b084      	sub	sp, #16
 800372c:	af00      	add	r7, sp, #0
 800372e:	6078      	str	r0, [r7, #4]
    int retVal = 0;
 8003730:	2300      	movs	r3, #0
 8003732:	60fb      	str	r3, [r7, #12]

    if ( NULL != f  ) {
 8003734:	687b      	ldr	r3, [r7, #4]
 8003736:	2b00      	cmp	r3, #0
 8003738:	d04a      	beq.n	80037d0 <qFIS_Inference+0xa8>
        size_t i = 0u;
 800373a:	2300      	movs	r3, #0
 800373c:	60bb      	str	r3, [r7, #8]

        if ( QFIS_RULES_BEGIN == f->rules[ 0 ] ) {
 800373e:	687b      	ldr	r3, [r7, #4]
 8003740:	6b5b      	ldr	r3, [r3, #52]	; 0x34
 8003742:	f9b3 3000 	ldrsh.w	r3, [r3]
 8003746:	f513 4f00 	cmn.w	r3, #32768	; 0x8000
 800374a:	d12f      	bne.n	80037ac <qFIS_Inference+0x84>
            f->inferenceState = &qFIS_InferenceAntecedent;
 800374c:	687b      	ldr	r3, [r7, #4]
 800374e:	4a23      	ldr	r2, [pc, #140]	; (80037dc <qFIS_Inference+0xb4>)
 8003750:	621a      	str	r2, [r3, #32]
            f->rStrength = 0.0f;
 8003752:	687b      	ldr	r3, [r7, #4]
 8003754:	f04f 0200 	mov.w	r2, #0
 8003758:	659a      	str	r2, [r3, #88]	; 0x58
            f->lastConnector = -1;
 800375a:	687b      	ldr	r3, [r7, #4]
 800375c:	f64f 72ff 	movw	r2, #65535	; 0xffff
 8003760:	f8a3 205c 	strh.w	r2, [r3, #92]	; 0x5c
            f->ruleCount = 0u;
 8003764:	687b      	ldr	r3, [r7, #4]
 8003766:	2200      	movs	r2, #0
 8003768:	655a      	str	r2, [r3, #84]	; 0x54
            i = 1u;
 800376a:	2301      	movs	r3, #1
 800376c:	60bb      	str	r3, [r7, #8]
            while ( ( _QFIS_RULES_END != f->rules[ i ] ) && ( f->ruleCount < f->nRules ) ) {
 800376e:	e00b      	b.n	8003788 <qFIS_Inference+0x60>
                i = f->inferenceState( f, i );
 8003770:	687b      	ldr	r3, [r7, #4]
 8003772:	6a1b      	ldr	r3, [r3, #32]
 8003774:	68b9      	ldr	r1, [r7, #8]
 8003776:	6878      	ldr	r0, [r7, #4]
 8003778:	4798      	blx	r3
 800377a:	60b8      	str	r0, [r7, #8]
                if ( QFIS_INFERENCE_ERROR == i ) {
 800377c:	68bb      	ldr	r3, [r7, #8]
 800377e:	2b00      	cmp	r3, #0
 8003780:	d013      	beq.n	80037aa <qFIS_Inference+0x82>
                    break;
                }
                ++i;
 8003782:	68bb      	ldr	r3, [r7, #8]
 8003784:	3301      	adds	r3, #1
 8003786:	60bb      	str	r3, [r7, #8]
            while ( ( _QFIS_RULES_END != f->rules[ i ] ) && ( f->ruleCount < f->nRules ) ) {
 8003788:	687b      	ldr	r3, [r7, #4]
 800378a:	6b5a      	ldr	r2, [r3, #52]	; 0x34
 800378c:	68bb      	ldr	r3, [r7, #8]
 800378e:	005b      	lsls	r3, r3, #1
 8003790:	4413      	add	r3, r2
 8003792:	f9b3 3000 	ldrsh.w	r3, [r3]
 8003796:	4a12      	ldr	r2, [pc, #72]	; (80037e0 <qFIS_Inference+0xb8>)
 8003798:	4293      	cmp	r3, r2
 800379a:	d007      	beq.n	80037ac <qFIS_Inference+0x84>
 800379c:	687b      	ldr	r3, [r7, #4]
 800379e:	6d5a      	ldr	r2, [r3, #84]	; 0x54
 80037a0:	687b      	ldr	r3, [r7, #4]
 80037a2:	6d1b      	ldr	r3, [r3, #80]	; 0x50
 80037a4:	429a      	cmp	r2, r3
 80037a6:	d3e3      	bcc.n	8003770 <qFIS_Inference+0x48>
 80037a8:	e000      	b.n	80037ac <qFIS_Inference+0x84>
                    break;
 80037aa:	bf00      	nop
            }
        }
        if ( ( _QFIS_RULES_END == f->rules[ i ] ) && ( f->ruleCount == f->nRules) ) {
 80037ac:	687b      	ldr	r3, [r7, #4]
 80037ae:	6b5a      	ldr	r2, [r3, #52]	; 0x34
 80037b0:	68bb      	ldr	r3, [r7, #8]
 80037b2:	005b      	lsls	r3, r3, #1
 80037b4:	4413      	add	r3, r2
 80037b6:	f9b3 3000 	ldrsh.w	r3, [r3]
 80037ba:	4a09      	ldr	r2, [pc, #36]	; (80037e0 <qFIS_Inference+0xb8>)
 80037bc:	4293      	cmp	r3, r2
 80037be:	d107      	bne.n	80037d0 <qFIS_Inference+0xa8>
 80037c0:	687b      	ldr	r3, [r7, #4]
 80037c2:	6d5a      	ldr	r2, [r3, #84]	; 0x54
 80037c4:	687b      	ldr	r3, [r7, #4]
 80037c6:	6d1b      	ldr	r3, [r3, #80]	; 0x50
 80037c8:	429a      	cmp	r2, r3
 80037ca:	d101      	bne.n	80037d0 <qFIS_Inference+0xa8>
            retVal = 1;
 80037cc:	2301      	movs	r3, #1
 80037ce:	60fb      	str	r3, [r7, #12]
        }
    }

    return retVal;
 80037d0:	68fb      	ldr	r3, [r7, #12]
}
 80037d2:	4618      	mov	r0, r3
 80037d4:	3710      	adds	r7, #16
 80037d6:	46bd      	mov	sp, r7
 80037d8:	bd80      	pop	{r7, pc}
 80037da:	bf00      	nop
 80037dc:	08002fad 	.word	0x08002fad
 80037e0:	ffff8001 	.word	0xffff8001

080037e4 <qFIS_GetNextX>:
/*============================================================================*/
static float qFIS_GetNextX( const float init,
                            const float res,
                            const size_t i )
{
 80037e4:	b580      	push	{r7, lr}
 80037e6:	b084      	sub	sp, #16
 80037e8:	af00      	add	r7, sp, #0
 80037ea:	60f8      	str	r0, [r7, #12]
 80037ec:	60b9      	str	r1, [r7, #8]
 80037ee:	607a      	str	r2, [r7, #4]
    /*cstat -CERT-FLP36-C*/
    return init + ( ( (float)i + 0.5f )*res );
 80037f0:	6878      	ldr	r0, [r7, #4]
 80037f2:	f7fd fa4f 	bl	8000c94 <__aeabi_ui2f>
 80037f6:	4603      	mov	r3, r0
 80037f8:	f04f 517c 	mov.w	r1, #1056964608	; 0x3f000000
 80037fc:	4618      	mov	r0, r3
 80037fe:	f7fd f999 	bl	8000b34 <__addsf3>
 8003802:	4603      	mov	r3, r0
 8003804:	68b9      	ldr	r1, [r7, #8]
 8003806:	4618      	mov	r0, r3
 8003808:	f7fd fa9c 	bl	8000d44 <__aeabi_fmul>
 800380c:	4603      	mov	r3, r0
 800380e:	68f9      	ldr	r1, [r7, #12]
 8003810:	4618      	mov	r0, r3
 8003812:	f7fd f98f 	bl	8000b34 <__addsf3>
 8003816:	4603      	mov	r3, r0
    /*cstat +CERT-FLP36-C*/
}
 8003818:	4618      	mov	r0, r3
 800381a:	3710      	adds	r7, #16
 800381c:	46bd      	mov	sp, r7
 800381e:	bd80      	pop	{r7, pc}

08003820 <qFIS_TriMF>:
/*============================================================================*/
static float qFIS_TriMF( const qFIS_IO_Base_t * const in,
                         const float *p,
                         const size_t n )
{
 8003820:	b5b0      	push	{r4, r5, r7, lr}
 8003822:	b08a      	sub	sp, #40	; 0x28
 8003824:	af00      	add	r7, sp, #0
 8003826:	60f8      	str	r0, [r7, #12]
 8003828:	60b9      	str	r1, [r7, #8]
 800382a:	607a      	str	r2, [r7, #4]
    float a, b, c, tmp;
    float x = in[ 0 ].value;
 800382c:	68fb      	ldr	r3, [r7, #12]
 800382e:	689b      	ldr	r3, [r3, #8]
 8003830:	627b      	str	r3, [r7, #36]	; 0x24
    (void)n;

    a = p[ 0 ];
 8003832:	68bb      	ldr	r3, [r7, #8]
 8003834:	681b      	ldr	r3, [r3, #0]
 8003836:	623b      	str	r3, [r7, #32]
    b = p[ 1 ];
 8003838:	68bb      	ldr	r3, [r7, #8]
 800383a:	3304      	adds	r3, #4
 800383c:	681b      	ldr	r3, [r3, #0]
 800383e:	61fb      	str	r3, [r7, #28]
    c = p[ 2 ];
 8003840:	68bb      	ldr	r3, [r7, #8]
 8003842:	3308      	adds	r3, #8
 8003844:	681b      	ldr	r3, [r3, #0]
 8003846:	61bb      	str	r3, [r7, #24]
    tmp = qFIS_Min( ( x - a )/( b - a ) , ( c - x )/( c - b ) );
 8003848:	6a39      	ldr	r1, [r7, #32]
 800384a:	6a78      	ldr	r0, [r7, #36]	; 0x24
 800384c:	f7fd f970 	bl	8000b30 <__aeabi_fsub>
 8003850:	4603      	mov	r3, r0
 8003852:	461c      	mov	r4, r3
 8003854:	6a39      	ldr	r1, [r7, #32]
 8003856:	69f8      	ldr	r0, [r7, #28]
 8003858:	f7fd f96a 	bl	8000b30 <__aeabi_fsub>
 800385c:	4603      	mov	r3, r0
 800385e:	4619      	mov	r1, r3
 8003860:	4620      	mov	r0, r4
 8003862:	f7fd fb23 	bl	8000eac <__aeabi_fdiv>
 8003866:	4603      	mov	r3, r0
 8003868:	461c      	mov	r4, r3
 800386a:	6a79      	ldr	r1, [r7, #36]	; 0x24
 800386c:	69b8      	ldr	r0, [r7, #24]
 800386e:	f7fd f95f 	bl	8000b30 <__aeabi_fsub>
 8003872:	4603      	mov	r3, r0
 8003874:	461d      	mov	r5, r3
 8003876:	69f9      	ldr	r1, [r7, #28]
 8003878:	69b8      	ldr	r0, [r7, #24]
 800387a:	f7fd f959 	bl	8000b30 <__aeabi_fsub>
 800387e:	4603      	mov	r3, r0
 8003880:	4619      	mov	r1, r3
 8003882:	4628      	mov	r0, r5
 8003884:	f7fd fb12 	bl	8000eac <__aeabi_fdiv>
 8003888:	4603      	mov	r3, r0
 800388a:	4619      	mov	r1, r3
 800388c:	4620      	mov	r0, r4
 800388e:	f000 ff09 	bl	80046a4 <qFIS_Min>
 8003892:	6178      	str	r0, [r7, #20]

    return qFIS_Max( tmp , 0.0f );
 8003894:	f04f 0100 	mov.w	r1, #0
 8003898:	6978      	ldr	r0, [r7, #20]
 800389a:	f000 ff1e 	bl	80046da <qFIS_Max>
 800389e:	4603      	mov	r3, r0
}
 80038a0:	4618      	mov	r0, r3
 80038a2:	3728      	adds	r7, #40	; 0x28
 80038a4:	46bd      	mov	sp, r7
 80038a6:	bdb0      	pop	{r4, r5, r7, pc}

080038a8 <qFIS_TrapMF>:
/*============================================================================*/
static float qFIS_TrapMF( const qFIS_IO_Base_t * const in,
                          const float *p,
                          const size_t n )
{
 80038a8:	b590      	push	{r4, r7, lr}
 80038aa:	b08b      	sub	sp, #44	; 0x2c
 80038ac:	af00      	add	r7, sp, #0
 80038ae:	60f8      	str	r0, [r7, #12]
 80038b0:	60b9      	str	r1, [r7, #8]
 80038b2:	607a      	str	r2, [r7, #4]
    float a, b, c, d, tmp;
    float x = in[ 0 ].value;
 80038b4:	68fb      	ldr	r3, [r7, #12]
 80038b6:	689b      	ldr	r3, [r3, #8]
 80038b8:	627b      	str	r3, [r7, #36]	; 0x24
    (void)n;

    a = p[ 0 ];
 80038ba:	68bb      	ldr	r3, [r7, #8]
 80038bc:	681b      	ldr	r3, [r3, #0]
 80038be:	623b      	str	r3, [r7, #32]
    b = p[ 1 ];
 80038c0:	68bb      	ldr	r3, [r7, #8]
 80038c2:	3304      	adds	r3, #4
 80038c4:	681b      	ldr	r3, [r3, #0]
 80038c6:	61fb      	str	r3, [r7, #28]
    c = p[ 2 ];
 80038c8:	68bb      	ldr	r3, [r7, #8]
 80038ca:	3308      	adds	r3, #8
 80038cc:	681b      	ldr	r3, [r3, #0]
 80038ce:	61bb      	str	r3, [r7, #24]
    d = p[ 3 ];
 80038d0:	68bb      	ldr	r3, [r7, #8]
 80038d2:	330c      	adds	r3, #12
 80038d4:	681b      	ldr	r3, [r3, #0]
 80038d6:	617b      	str	r3, [r7, #20]
    tmp = qFIS_Min( ( x - a )/( b - a ) , 1.0f );
 80038d8:	6a39      	ldr	r1, [r7, #32]
 80038da:	6a78      	ldr	r0, [r7, #36]	; 0x24
 80038dc:	f7fd f928 	bl	8000b30 <__aeabi_fsub>
 80038e0:	4603      	mov	r3, r0
 80038e2:	461c      	mov	r4, r3
 80038e4:	6a39      	ldr	r1, [r7, #32]
 80038e6:	69f8      	ldr	r0, [r7, #28]
 80038e8:	f7fd f922 	bl	8000b30 <__aeabi_fsub>
 80038ec:	4603      	mov	r3, r0
 80038ee:	4619      	mov	r1, r3
 80038f0:	4620      	mov	r0, r4
 80038f2:	f7fd fadb 	bl	8000eac <__aeabi_fdiv>
 80038f6:	4603      	mov	r3, r0
 80038f8:	f04f 517e 	mov.w	r1, #1065353216	; 0x3f800000
 80038fc:	4618      	mov	r0, r3
 80038fe:	f000 fed1 	bl	80046a4 <qFIS_Min>
 8003902:	6138      	str	r0, [r7, #16]
    tmp = qFIS_Min( tmp, ( d - x )/( d - c ) ) ;
 8003904:	6a79      	ldr	r1, [r7, #36]	; 0x24
 8003906:	6978      	ldr	r0, [r7, #20]
 8003908:	f7fd f912 	bl	8000b30 <__aeabi_fsub>
 800390c:	4603      	mov	r3, r0
 800390e:	461c      	mov	r4, r3
 8003910:	69b9      	ldr	r1, [r7, #24]
 8003912:	6978      	ldr	r0, [r7, #20]
 8003914:	f7fd f90c 	bl	8000b30 <__aeabi_fsub>
 8003918:	4603      	mov	r3, r0
 800391a:	4619      	mov	r1, r3
 800391c:	4620      	mov	r0, r4
 800391e:	f7fd fac5 	bl	8000eac <__aeabi_fdiv>
 8003922:	4603      	mov	r3, r0
 8003924:	4619      	mov	r1, r3
 8003926:	6938      	ldr	r0, [r7, #16]
 8003928:	f000 febc 	bl	80046a4 <qFIS_Min>
 800392c:	6138      	str	r0, [r7, #16]

    return qFIS_Max( tmp , 0.0f );
 800392e:	f04f 0100 	mov.w	r1, #0
 8003932:	6938      	ldr	r0, [r7, #16]
 8003934:	f000 fed1 	bl	80046da <qFIS_Max>
 8003938:	4603      	mov	r3, r0
}
 800393a:	4618      	mov	r0, r3
 800393c:	372c      	adds	r7, #44	; 0x2c
 800393e:	46bd      	mov	sp, r7
 8003940:	bd90      	pop	{r4, r7, pc}

08003942 <qFIS_GBellMF>:
/*============================================================================*/
static float qFIS_GBellMF( const qFIS_IO_Base_t * const in,
                           const float *p,
                           const size_t n )
{
 8003942:	b590      	push	{r4, r7, lr}
 8003944:	b089      	sub	sp, #36	; 0x24
 8003946:	af00      	add	r7, sp, #0
 8003948:	60f8      	str	r0, [r7, #12]
 800394a:	60b9      	str	r1, [r7, #8]
 800394c:	607a      	str	r2, [r7, #4]
    float a, b, c;
    float x = in[ 0 ].value;
 800394e:	68fb      	ldr	r3, [r7, #12]
 8003950:	689b      	ldr	r3, [r3, #8]
 8003952:	61fb      	str	r3, [r7, #28]
    (void)n;

    a = p[ 0 ];
 8003954:	68bb      	ldr	r3, [r7, #8]
 8003956:	681b      	ldr	r3, [r3, #0]
 8003958:	61bb      	str	r3, [r7, #24]
    b = p[ 1 ];
 800395a:	68bb      	ldr	r3, [r7, #8]
 800395c:	3304      	adds	r3, #4
 800395e:	681b      	ldr	r3, [r3, #0]
 8003960:	617b      	str	r3, [r7, #20]
    c = p[ 2 ];
 8003962:	68bb      	ldr	r3, [r7, #8]
 8003964:	3308      	adds	r3, #8
 8003966:	681b      	ldr	r3, [r3, #0]
 8003968:	613b      	str	r3, [r7, #16]

    return ( 1.0f/( 1.0f + QLIB_POW( QLIB_ABS( ( x - c )/a ) , 2.0f*b ) ) );
 800396a:	6939      	ldr	r1, [r7, #16]
 800396c:	69f8      	ldr	r0, [r7, #28]
 800396e:	f7fd f8df 	bl	8000b30 <__aeabi_fsub>
 8003972:	4603      	mov	r3, r0
 8003974:	69b9      	ldr	r1, [r7, #24]
 8003976:	4618      	mov	r0, r3
 8003978:	f7fd fa98 	bl	8000eac <__aeabi_fdiv>
 800397c:	4603      	mov	r3, r0
 800397e:	4618      	mov	r0, r3
 8003980:	f7fe fde0 	bl	8002544 <qFFMath_Abs>
 8003984:	4604      	mov	r4, r0
 8003986:	697b      	ldr	r3, [r7, #20]
 8003988:	4619      	mov	r1, r3
 800398a:	4618      	mov	r0, r3
 800398c:	f7fd f8d2 	bl	8000b34 <__addsf3>
 8003990:	4603      	mov	r3, r0
 8003992:	4619      	mov	r1, r3
 8003994:	4620      	mov	r0, r4
 8003996:	f7fe ff87 	bl	80028a8 <qFFMath_Pow>
 800399a:	4603      	mov	r3, r0
 800399c:	f04f 517e 	mov.w	r1, #1065353216	; 0x3f800000
 80039a0:	4618      	mov	r0, r3
 80039a2:	f7fd f8c7 	bl	8000b34 <__addsf3>
 80039a6:	4603      	mov	r3, r0
 80039a8:	4619      	mov	r1, r3
 80039aa:	f04f 507e 	mov.w	r0, #1065353216	; 0x3f800000
 80039ae:	f7fd fa7d 	bl	8000eac <__aeabi_fdiv>
 80039b2:	4603      	mov	r3, r0
}
 80039b4:	4618      	mov	r0, r3
 80039b6:	3724      	adds	r7, #36	; 0x24
 80039b8:	46bd      	mov	sp, r7
 80039ba:	bd90      	pop	{r4, r7, pc}

080039bc <qFIS_GaussMF>:
/*============================================================================*/
static float qFIS_GaussMF( const qFIS_IO_Base_t * const in,
                           const float *p,
                           const size_t n )
{
 80039bc:	b580      	push	{r7, lr}
 80039be:	b088      	sub	sp, #32
 80039c0:	af00      	add	r7, sp, #0
 80039c2:	60f8      	str	r0, [r7, #12]
 80039c4:	60b9      	str	r1, [r7, #8]
 80039c6:	607a      	str	r2, [r7, #4]
    float a, c, tmp;
    float x = in[ 0 ].value;
 80039c8:	68fb      	ldr	r3, [r7, #12]
 80039ca:	689b      	ldr	r3, [r3, #8]
 80039cc:	61fb      	str	r3, [r7, #28]
    (void)n;

    a = p[ 0 ];
 80039ce:	68bb      	ldr	r3, [r7, #8]
 80039d0:	681b      	ldr	r3, [r3, #0]
 80039d2:	61bb      	str	r3, [r7, #24]
    c = p[ 1 ];
 80039d4:	68bb      	ldr	r3, [r7, #8]
 80039d6:	3304      	adds	r3, #4
 80039d8:	681b      	ldr	r3, [r3, #0]
 80039da:	617b      	str	r3, [r7, #20]
    tmp = ( x - c )/a;
 80039dc:	6979      	ldr	r1, [r7, #20]
 80039de:	69f8      	ldr	r0, [r7, #28]
 80039e0:	f7fd f8a6 	bl	8000b30 <__aeabi_fsub>
 80039e4:	4603      	mov	r3, r0
 80039e6:	69b9      	ldr	r1, [r7, #24]
 80039e8:	4618      	mov	r0, r3
 80039ea:	f7fd fa5f 	bl	8000eac <__aeabi_fdiv>
 80039ee:	4603      	mov	r3, r0
 80039f0:	613b      	str	r3, [r7, #16]

    return QLIB_EXP( -0.5f*tmp*tmp );
 80039f2:	f04f 413f 	mov.w	r1, #3204448256	; 0xbf000000
 80039f6:	6938      	ldr	r0, [r7, #16]
 80039f8:	f7fd f9a4 	bl	8000d44 <__aeabi_fmul>
 80039fc:	4603      	mov	r3, r0
 80039fe:	6939      	ldr	r1, [r7, #16]
 8003a00:	4618      	mov	r0, r3
 8003a02:	f7fd f99f 	bl	8000d44 <__aeabi_fmul>
 8003a06:	4603      	mov	r3, r0
 8003a08:	4618      	mov	r0, r3
 8003a0a:	f7fe ff25 	bl	8002858 <qFFMath_Exp>
 8003a0e:	4603      	mov	r3, r0
}
 8003a10:	4618      	mov	r0, r3
 8003a12:	3720      	adds	r7, #32
 8003a14:	46bd      	mov	sp, r7
 8003a16:	bd80      	pop	{r7, pc}

08003a18 <qFIS_Gauss2MF>:
/*============================================================================*/
static float qFIS_Gauss2MF( const qFIS_IO_Base_t * const in,
                            const float *p,
                            const size_t n )
{
 8003a18:	b580      	push	{r7, lr}
 8003a1a:	b08a      	sub	sp, #40	; 0x28
 8003a1c:	af00      	add	r7, sp, #0
 8003a1e:	60f8      	str	r0, [r7, #12]
 8003a20:	60b9      	str	r1, [r7, #8]
 8003a22:	607a      	str	r2, [r7, #4]
    float c1, c2, f1, f2;
    float x = in[ 0 ].value;
 8003a24:	68fb      	ldr	r3, [r7, #12]
 8003a26:	689b      	ldr	r3, [r3, #8]
 8003a28:	627b      	str	r3, [r7, #36]	; 0x24

    c1 = p[ 1 ];
 8003a2a:	68bb      	ldr	r3, [r7, #8]
 8003a2c:	3304      	adds	r3, #4
 8003a2e:	681b      	ldr	r3, [r3, #0]
 8003a30:	623b      	str	r3, [r7, #32]
    c2 = p[ 3 ];
 8003a32:	68bb      	ldr	r3, [r7, #8]
 8003a34:	330c      	adds	r3, #12
 8003a36:	681b      	ldr	r3, [r3, #0]
 8003a38:	61fb      	str	r3, [r7, #28]
    f1 = ( x <= c1 ) ? qFIS_GaussMF( in , p, n ) : 1.0f;
 8003a3a:	6a39      	ldr	r1, [r7, #32]
 8003a3c:	6a78      	ldr	r0, [r7, #36]	; 0x24
 8003a3e:	f7fd fb29 	bl	8001094 <__aeabi_fcmple>
 8003a42:	4603      	mov	r3, r0
 8003a44:	2b00      	cmp	r3, #0
 8003a46:	d006      	beq.n	8003a56 <qFIS_Gauss2MF+0x3e>
 8003a48:	687a      	ldr	r2, [r7, #4]
 8003a4a:	68b9      	ldr	r1, [r7, #8]
 8003a4c:	68f8      	ldr	r0, [r7, #12]
 8003a4e:	f7ff ffb5 	bl	80039bc <qFIS_GaussMF>
 8003a52:	4603      	mov	r3, r0
 8003a54:	e001      	b.n	8003a5a <qFIS_Gauss2MF+0x42>
 8003a56:	f04f 537e 	mov.w	r3, #1065353216	; 0x3f800000
 8003a5a:	61bb      	str	r3, [r7, #24]
    f2 = ( x <= c2 ) ? qFIS_GaussMF( in , &p[ 2 ], n ) : 1.0f;
 8003a5c:	69f9      	ldr	r1, [r7, #28]
 8003a5e:	6a78      	ldr	r0, [r7, #36]	; 0x24
 8003a60:	f7fd fb18 	bl	8001094 <__aeabi_fcmple>
 8003a64:	4603      	mov	r3, r0
 8003a66:	2b00      	cmp	r3, #0
 8003a68:	d008      	beq.n	8003a7c <qFIS_Gauss2MF+0x64>
 8003a6a:	68bb      	ldr	r3, [r7, #8]
 8003a6c:	3308      	adds	r3, #8
 8003a6e:	687a      	ldr	r2, [r7, #4]
 8003a70:	4619      	mov	r1, r3
 8003a72:	68f8      	ldr	r0, [r7, #12]
 8003a74:	f7ff ffa2 	bl	80039bc <qFIS_GaussMF>
 8003a78:	4603      	mov	r3, r0
 8003a7a:	e001      	b.n	8003a80 <qFIS_Gauss2MF+0x68>
 8003a7c:	f04f 537e 	mov.w	r3, #1065353216	; 0x3f800000
 8003a80:	617b      	str	r3, [r7, #20]

    return f1*f2;
 8003a82:	6979      	ldr	r1, [r7, #20]
 8003a84:	69b8      	ldr	r0, [r7, #24]
 8003a86:	f7fd f95d 	bl	8000d44 <__aeabi_fmul>
 8003a8a:	4603      	mov	r3, r0
}
 8003a8c:	4618      	mov	r0, r3
 8003a8e:	3728      	adds	r7, #40	; 0x28
 8003a90:	46bd      	mov	sp, r7
 8003a92:	bd80      	pop	{r7, pc}

08003a94 <qFIS_SigMF>:
/*============================================================================*/
static float qFIS_SigMF( const qFIS_IO_Base_t * const in,
                         const float *p,
                         const size_t n )
{
 8003a94:	b590      	push	{r4, r7, lr}
 8003a96:	b089      	sub	sp, #36	; 0x24
 8003a98:	af00      	add	r7, sp, #0
 8003a9a:	60f8      	str	r0, [r7, #12]
 8003a9c:	60b9      	str	r1, [r7, #8]
 8003a9e:	607a      	str	r2, [r7, #4]
    float a, b;
    float x = in[ 0 ].value;
 8003aa0:	68fb      	ldr	r3, [r7, #12]
 8003aa2:	689b      	ldr	r3, [r3, #8]
 8003aa4:	61fb      	str	r3, [r7, #28]
    (void)n;

    a = p[ 0 ];
 8003aa6:	68bb      	ldr	r3, [r7, #8]
 8003aa8:	681b      	ldr	r3, [r3, #0]
 8003aaa:	61bb      	str	r3, [r7, #24]
    b = p[ 1 ];
 8003aac:	68bb      	ldr	r3, [r7, #8]
 8003aae:	3304      	adds	r3, #4
 8003ab0:	681b      	ldr	r3, [r3, #0]
 8003ab2:	617b      	str	r3, [r7, #20]

    return 1.0f/( 1.0f + QLIB_EXP( -a*( x - b ) ) );
 8003ab4:	69bb      	ldr	r3, [r7, #24]
 8003ab6:	f083 4400 	eor.w	r4, r3, #2147483648	; 0x80000000
 8003aba:	6979      	ldr	r1, [r7, #20]
 8003abc:	69f8      	ldr	r0, [r7, #28]
 8003abe:	f7fd f837 	bl	8000b30 <__aeabi_fsub>
 8003ac2:	4603      	mov	r3, r0
 8003ac4:	4619      	mov	r1, r3
 8003ac6:	4620      	mov	r0, r4
 8003ac8:	f7fd f93c 	bl	8000d44 <__aeabi_fmul>
 8003acc:	4603      	mov	r3, r0
 8003ace:	4618      	mov	r0, r3
 8003ad0:	f7fe fec2 	bl	8002858 <qFFMath_Exp>
 8003ad4:	4603      	mov	r3, r0
 8003ad6:	f04f 517e 	mov.w	r1, #1065353216	; 0x3f800000
 8003ada:	4618      	mov	r0, r3
 8003adc:	f7fd f82a 	bl	8000b34 <__addsf3>
 8003ae0:	4603      	mov	r3, r0
 8003ae2:	4619      	mov	r1, r3
 8003ae4:	f04f 507e 	mov.w	r0, #1065353216	; 0x3f800000
 8003ae8:	f7fd f9e0 	bl	8000eac <__aeabi_fdiv>
 8003aec:	4603      	mov	r3, r0
}
 8003aee:	4618      	mov	r0, r3
 8003af0:	3724      	adds	r7, #36	; 0x24
 8003af2:	46bd      	mov	sp, r7
 8003af4:	bd90      	pop	{r4, r7, pc}

08003af6 <qFIS_TSigMF>:
/*============================================================================*/
static float qFIS_TSigMF( const qFIS_IO_Base_t * const in,
                          const float *p,
                          const size_t n )
{
 8003af6:	b580      	push	{r7, lr}
 8003af8:	b08a      	sub	sp, #40	; 0x28
 8003afa:	af00      	add	r7, sp, #0
 8003afc:	60f8      	str	r0, [r7, #12]
 8003afe:	60b9      	str	r1, [r7, #8]
 8003b00:	607a      	str	r2, [r7, #4]
    float a, b, y;
    float x = in[ 0 ].value;
 8003b02:	68fb      	ldr	r3, [r7, #12]
 8003b04:	689b      	ldr	r3, [r3, #8]
 8003b06:	623b      	str	r3, [r7, #32]
    float min = in[ 0 ].min;
 8003b08:	68fb      	ldr	r3, [r7, #12]
 8003b0a:	681b      	ldr	r3, [r3, #0]
 8003b0c:	61fb      	str	r3, [r7, #28]
    float max = in[ 0 ].max;
 8003b0e:	68fb      	ldr	r3, [r7, #12]
 8003b10:	685b      	ldr	r3, [r3, #4]
 8003b12:	61bb      	str	r3, [r7, #24]
    (void)n;

    a = p[ 0 ]; /*slope*/
 8003b14:	68bb      	ldr	r3, [r7, #8]
 8003b16:	681b      	ldr	r3, [r3, #0]
 8003b18:	617b      	str	r3, [r7, #20]
    b = p[ 1 ]; /*inflection*/
 8003b1a:	68bb      	ldr	r3, [r7, #8]
 8003b1c:	3304      	adds	r3, #4
 8003b1e:	681b      	ldr	r3, [r3, #0]
 8003b20:	613b      	str	r3, [r7, #16]
    if ( qFMathEx_Equal( x, 1.0f ) ) {
 8003b22:	f04f 517e 	mov.w	r1, #1065353216	; 0x3f800000
 8003b26:	6a38      	ldr	r0, [r7, #32]
 8003b28:	f000 fea9 	bl	800487e <qFMathEx_Equal>
 8003b2c:	4603      	mov	r3, r0
 8003b2e:	2b00      	cmp	r3, #0
 8003b30:	d00d      	beq.n	8003b4e <qFIS_TSigMF+0x58>
        if ( a >= 0.0f ) {
 8003b32:	f04f 0100 	mov.w	r1, #0
 8003b36:	6978      	ldr	r0, [r7, #20]
 8003b38:	f7fd fab6 	bl	80010a8 <__aeabi_fcmpge>
 8003b3c:	4603      	mov	r3, r0
 8003b3e:	2b00      	cmp	r3, #0
 8003b40:	d002      	beq.n	8003b48 <qFIS_TSigMF+0x52>
            y = max;
 8003b42:	69bb      	ldr	r3, [r7, #24]
 8003b44:	627b      	str	r3, [r7, #36]	; 0x24
 8003b46:	e033      	b.n	8003bb0 <qFIS_TSigMF+0xba>
        }
        else {
            y = min;
 8003b48:	69fb      	ldr	r3, [r7, #28]
 8003b4a:	627b      	str	r3, [r7, #36]	; 0x24
 8003b4c:	e030      	b.n	8003bb0 <qFIS_TSigMF+0xba>
        }
    }
    else if ( qFMathEx_Equal( x, 0.0f ) ) {
 8003b4e:	f04f 0100 	mov.w	r1, #0
 8003b52:	6a38      	ldr	r0, [r7, #32]
 8003b54:	f000 fe93 	bl	800487e <qFMathEx_Equal>
 8003b58:	4603      	mov	r3, r0
 8003b5a:	2b00      	cmp	r3, #0
 8003b5c:	d00d      	beq.n	8003b7a <qFIS_TSigMF+0x84>
        if ( a >= 0.0f ) {
 8003b5e:	f04f 0100 	mov.w	r1, #0
 8003b62:	6978      	ldr	r0, [r7, #20]
 8003b64:	f7fd faa0 	bl	80010a8 <__aeabi_fcmpge>
 8003b68:	4603      	mov	r3, r0
 8003b6a:	2b00      	cmp	r3, #0
 8003b6c:	d002      	beq.n	8003b74 <qFIS_TSigMF+0x7e>
            y = min;
 8003b6e:	69fb      	ldr	r3, [r7, #28]
 8003b70:	627b      	str	r3, [r7, #36]	; 0x24
 8003b72:	e01d      	b.n	8003bb0 <qFIS_TSigMF+0xba>
        }
        else {
            y = max;
 8003b74:	69bb      	ldr	r3, [r7, #24]
 8003b76:	627b      	str	r3, [r7, #36]	; 0x24
 8003b78:	e01a      	b.n	8003bb0 <qFIS_TSigMF+0xba>
        }
    }
    else {
        /*cstat -MISRAC2012-Dir-4.11_a*/
        y = b - ( QLIB_LOG( ( 1.0f/x ) - 1.0f )/a );
 8003b7a:	6a39      	ldr	r1, [r7, #32]
 8003b7c:	f04f 507e 	mov.w	r0, #1065353216	; 0x3f800000
 8003b80:	f7fd f994 	bl	8000eac <__aeabi_fdiv>
 8003b84:	4603      	mov	r3, r0
 8003b86:	f04f 517e 	mov.w	r1, #1065353216	; 0x3f800000
 8003b8a:	4618      	mov	r0, r3
 8003b8c:	f7fc ffd0 	bl	8000b30 <__aeabi_fsub>
 8003b90:	4603      	mov	r3, r0
 8003b92:	4618      	mov	r0, r3
 8003b94:	f7fe fe74 	bl	8002880 <qFFMath_Log>
 8003b98:	4603      	mov	r3, r0
 8003b9a:	6979      	ldr	r1, [r7, #20]
 8003b9c:	4618      	mov	r0, r3
 8003b9e:	f7fd f985 	bl	8000eac <__aeabi_fdiv>
 8003ba2:	4603      	mov	r3, r0
 8003ba4:	4619      	mov	r1, r3
 8003ba6:	6938      	ldr	r0, [r7, #16]
 8003ba8:	f7fc ffc2 	bl	8000b30 <__aeabi_fsub>
 8003bac:	4603      	mov	r3, r0
 8003bae:	627b      	str	r3, [r7, #36]	; 0x24
        /*cstat +MISRAC2012-Dir-4.11_a*/
    }

    return y;
 8003bb0:	6a7b      	ldr	r3, [r7, #36]	; 0x24
}
 8003bb2:	4618      	mov	r0, r3
 8003bb4:	3728      	adds	r7, #40	; 0x28
 8003bb6:	46bd      	mov	sp, r7
 8003bb8:	bd80      	pop	{r7, pc}

08003bba <qFIS_DSigMF>:
/*============================================================================*/
static float qFIS_DSigMF( const qFIS_IO_Base_t * const in,
                          const float *p,
                          const size_t n )
{
 8003bba:	b590      	push	{r4, r7, lr}
 8003bbc:	b085      	sub	sp, #20
 8003bbe:	af00      	add	r7, sp, #0
 8003bc0:	60f8      	str	r0, [r7, #12]
 8003bc2:	60b9      	str	r1, [r7, #8]
 8003bc4:	607a      	str	r2, [r7, #4]
    return QLIB_ABS( qFIS_SigMF( in , p, n ) - qFIS_SigMF( in , &p[ 2 ], n ) );
 8003bc6:	687a      	ldr	r2, [r7, #4]
 8003bc8:	68b9      	ldr	r1, [r7, #8]
 8003bca:	68f8      	ldr	r0, [r7, #12]
 8003bcc:	f7ff ff62 	bl	8003a94 <qFIS_SigMF>
 8003bd0:	4604      	mov	r4, r0
 8003bd2:	68bb      	ldr	r3, [r7, #8]
 8003bd4:	3308      	adds	r3, #8
 8003bd6:	687a      	ldr	r2, [r7, #4]
 8003bd8:	4619      	mov	r1, r3
 8003bda:	68f8      	ldr	r0, [r7, #12]
 8003bdc:	f7ff ff5a 	bl	8003a94 <qFIS_SigMF>
 8003be0:	4603      	mov	r3, r0
 8003be2:	4619      	mov	r1, r3
 8003be4:	4620      	mov	r0, r4
 8003be6:	f7fc ffa3 	bl	8000b30 <__aeabi_fsub>
 8003bea:	4603      	mov	r3, r0
 8003bec:	4618      	mov	r0, r3
 8003bee:	f7fe fca9 	bl	8002544 <qFFMath_Abs>
 8003bf2:	4603      	mov	r3, r0
}
 8003bf4:	4618      	mov	r0, r3
 8003bf6:	3714      	adds	r7, #20
 8003bf8:	46bd      	mov	sp, r7
 8003bfa:	bd90      	pop	{r4, r7, pc}

08003bfc <qFIS_PSigMF>:
/*============================================================================*/
static float qFIS_PSigMF( const qFIS_IO_Base_t * const in,
                          const float *p,
                          const size_t n )
{
 8003bfc:	b590      	push	{r4, r7, lr}
 8003bfe:	b085      	sub	sp, #20
 8003c00:	af00      	add	r7, sp, #0
 8003c02:	60f8      	str	r0, [r7, #12]
 8003c04:	60b9      	str	r1, [r7, #8]
 8003c06:	607a      	str	r2, [r7, #4]
    return QLIB_ABS( qFIS_SigMF( in , p, n )*qFIS_SigMF( in , &p[ 2 ], n ) );
 8003c08:	687a      	ldr	r2, [r7, #4]
 8003c0a:	68b9      	ldr	r1, [r7, #8]
 8003c0c:	68f8      	ldr	r0, [r7, #12]
 8003c0e:	f7ff ff41 	bl	8003a94 <qFIS_SigMF>
 8003c12:	4604      	mov	r4, r0
 8003c14:	68bb      	ldr	r3, [r7, #8]
 8003c16:	3308      	adds	r3, #8
 8003c18:	687a      	ldr	r2, [r7, #4]
 8003c1a:	4619      	mov	r1, r3
 8003c1c:	68f8      	ldr	r0, [r7, #12]
 8003c1e:	f7ff ff39 	bl	8003a94 <qFIS_SigMF>
 8003c22:	4603      	mov	r3, r0
 8003c24:	4619      	mov	r1, r3
 8003c26:	4620      	mov	r0, r4
 8003c28:	f7fd f88c 	bl	8000d44 <__aeabi_fmul>
 8003c2c:	4603      	mov	r3, r0
 8003c2e:	4618      	mov	r0, r3
 8003c30:	f7fe fc88 	bl	8002544 <qFFMath_Abs>
 8003c34:	4603      	mov	r3, r0
}
 8003c36:	4618      	mov	r0, r3
 8003c38:	3714      	adds	r7, #20
 8003c3a:	46bd      	mov	sp, r7
 8003c3c:	bd90      	pop	{r4, r7, pc}

08003c3e <qFIS_SMF>:
/*============================================================================*/
static float qFIS_SMF( const qFIS_IO_Base_t * const in,
                       const float *p,
                       const size_t n )
{
 8003c3e:	b590      	push	{r4, r7, lr}
 8003c40:	b08b      	sub	sp, #44	; 0x2c
 8003c42:	af00      	add	r7, sp, #0
 8003c44:	60f8      	str	r0, [r7, #12]
 8003c46:	60b9      	str	r1, [r7, #8]
 8003c48:	607a      	str	r2, [r7, #4]
    float a, b, tmp, y;
    float x = in[ 0 ].value;
 8003c4a:	68fb      	ldr	r3, [r7, #12]
 8003c4c:	689b      	ldr	r3, [r3, #8]
 8003c4e:	623b      	str	r3, [r7, #32]
    (void)n;

    a = p[ 0 ];
 8003c50:	68bb      	ldr	r3, [r7, #8]
 8003c52:	681b      	ldr	r3, [r3, #0]
 8003c54:	61fb      	str	r3, [r7, #28]
    b = p[ 1 ];
 8003c56:	68bb      	ldr	r3, [r7, #8]
 8003c58:	3304      	adds	r3, #4
 8003c5a:	681b      	ldr	r3, [r3, #0]
 8003c5c:	61bb      	str	r3, [r7, #24]
    if ( x <= a ) {
 8003c5e:	69f9      	ldr	r1, [r7, #28]
 8003c60:	6a38      	ldr	r0, [r7, #32]
 8003c62:	f7fd fa17 	bl	8001094 <__aeabi_fcmple>
 8003c66:	4603      	mov	r3, r0
 8003c68:	2b00      	cmp	r3, #0
 8003c6a:	d003      	beq.n	8003c74 <qFIS_SMF+0x36>
        y =  0.0f;
 8003c6c:	f04f 0300 	mov.w	r3, #0
 8003c70:	627b      	str	r3, [r7, #36]	; 0x24
 8003c72:	e081      	b.n	8003d78 <qFIS_SMF+0x13a>
    }
    else if ( x >= b ) {
 8003c74:	69b9      	ldr	r1, [r7, #24]
 8003c76:	6a38      	ldr	r0, [r7, #32]
 8003c78:	f7fd fa16 	bl	80010a8 <__aeabi_fcmpge>
 8003c7c:	4603      	mov	r3, r0
 8003c7e:	2b00      	cmp	r3, #0
 8003c80:	d003      	beq.n	8003c8a <qFIS_SMF+0x4c>
        y = 1.0f;
 8003c82:	f04f 537e 	mov.w	r3, #1065353216	; 0x3f800000
 8003c86:	627b      	str	r3, [r7, #36]	; 0x24
 8003c88:	e076      	b.n	8003d78 <qFIS_SMF+0x13a>
    }
    else if ( ( x >= a ) && ( x <= ( ( a + b )*0.5f ) ) ) {
 8003c8a:	69f9      	ldr	r1, [r7, #28]
 8003c8c:	6a38      	ldr	r0, [r7, #32]
 8003c8e:	f7fd fa0b 	bl	80010a8 <__aeabi_fcmpge>
 8003c92:	4603      	mov	r3, r0
 8003c94:	2b00      	cmp	r3, #0
 8003c96:	d02f      	beq.n	8003cf8 <qFIS_SMF+0xba>
 8003c98:	69b9      	ldr	r1, [r7, #24]
 8003c9a:	69f8      	ldr	r0, [r7, #28]
 8003c9c:	f7fc ff4a 	bl	8000b34 <__addsf3>
 8003ca0:	4603      	mov	r3, r0
 8003ca2:	f04f 517c 	mov.w	r1, #1056964608	; 0x3f000000
 8003ca6:	4618      	mov	r0, r3
 8003ca8:	f7fd f84c 	bl	8000d44 <__aeabi_fmul>
 8003cac:	4603      	mov	r3, r0
 8003cae:	4619      	mov	r1, r3
 8003cb0:	6a38      	ldr	r0, [r7, #32]
 8003cb2:	f7fd f9ef 	bl	8001094 <__aeabi_fcmple>
 8003cb6:	4603      	mov	r3, r0
 8003cb8:	2b00      	cmp	r3, #0
 8003cba:	d01d      	beq.n	8003cf8 <qFIS_SMF+0xba>
        tmp = ( x - a )/( b - a );
 8003cbc:	69f9      	ldr	r1, [r7, #28]
 8003cbe:	6a38      	ldr	r0, [r7, #32]
 8003cc0:	f7fc ff36 	bl	8000b30 <__aeabi_fsub>
 8003cc4:	4603      	mov	r3, r0
 8003cc6:	461c      	mov	r4, r3
 8003cc8:	69f9      	ldr	r1, [r7, #28]
 8003cca:	69b8      	ldr	r0, [r7, #24]
 8003ccc:	f7fc ff30 	bl	8000b30 <__aeabi_fsub>
 8003cd0:	4603      	mov	r3, r0
 8003cd2:	4619      	mov	r1, r3
 8003cd4:	4620      	mov	r0, r4
 8003cd6:	f7fd f8e9 	bl	8000eac <__aeabi_fdiv>
 8003cda:	4603      	mov	r3, r0
 8003cdc:	617b      	str	r3, [r7, #20]
        y = 2.0f*tmp*tmp;
 8003cde:	697b      	ldr	r3, [r7, #20]
 8003ce0:	4619      	mov	r1, r3
 8003ce2:	4618      	mov	r0, r3
 8003ce4:	f7fc ff26 	bl	8000b34 <__addsf3>
 8003ce8:	4603      	mov	r3, r0
 8003cea:	4619      	mov	r1, r3
 8003cec:	6978      	ldr	r0, [r7, #20]
 8003cee:	f7fd f829 	bl	8000d44 <__aeabi_fmul>
 8003cf2:	4603      	mov	r3, r0
 8003cf4:	627b      	str	r3, [r7, #36]	; 0x24
 8003cf6:	e03f      	b.n	8003d78 <qFIS_SMF+0x13a>
    }
    else if ( ( x <= b ) && ( x >= ( ( a + b )*0.5f ) ) ) {
 8003cf8:	69b9      	ldr	r1, [r7, #24]
 8003cfa:	6a38      	ldr	r0, [r7, #32]
 8003cfc:	f7fd f9ca 	bl	8001094 <__aeabi_fcmple>
 8003d00:	4603      	mov	r3, r0
 8003d02:	2b00      	cmp	r3, #0
 8003d04:	d035      	beq.n	8003d72 <qFIS_SMF+0x134>
 8003d06:	69b9      	ldr	r1, [r7, #24]
 8003d08:	69f8      	ldr	r0, [r7, #28]
 8003d0a:	f7fc ff13 	bl	8000b34 <__addsf3>
 8003d0e:	4603      	mov	r3, r0
 8003d10:	f04f 517c 	mov.w	r1, #1056964608	; 0x3f000000
 8003d14:	4618      	mov	r0, r3
 8003d16:	f7fd f815 	bl	8000d44 <__aeabi_fmul>
 8003d1a:	4603      	mov	r3, r0
 8003d1c:	4619      	mov	r1, r3
 8003d1e:	6a38      	ldr	r0, [r7, #32]
 8003d20:	f7fd f9c2 	bl	80010a8 <__aeabi_fcmpge>
 8003d24:	4603      	mov	r3, r0
 8003d26:	2b00      	cmp	r3, #0
 8003d28:	d023      	beq.n	8003d72 <qFIS_SMF+0x134>
        tmp = ( x - b )/( b - a );
 8003d2a:	69b9      	ldr	r1, [r7, #24]
 8003d2c:	6a38      	ldr	r0, [r7, #32]
 8003d2e:	f7fc feff 	bl	8000b30 <__aeabi_fsub>
 8003d32:	4603      	mov	r3, r0
 8003d34:	461c      	mov	r4, r3
 8003d36:	69f9      	ldr	r1, [r7, #28]
 8003d38:	69b8      	ldr	r0, [r7, #24]
 8003d3a:	f7fc fef9 	bl	8000b30 <__aeabi_fsub>
 8003d3e:	4603      	mov	r3, r0
 8003d40:	4619      	mov	r1, r3
 8003d42:	4620      	mov	r0, r4
 8003d44:	f7fd f8b2 	bl	8000eac <__aeabi_fdiv>
 8003d48:	4603      	mov	r3, r0
 8003d4a:	617b      	str	r3, [r7, #20]
        y = ( 1.0f - ( 2.0f*tmp*tmp ) );
 8003d4c:	697b      	ldr	r3, [r7, #20]
 8003d4e:	4619      	mov	r1, r3
 8003d50:	4618      	mov	r0, r3
 8003d52:	f7fc feef 	bl	8000b34 <__addsf3>
 8003d56:	4603      	mov	r3, r0
 8003d58:	6979      	ldr	r1, [r7, #20]
 8003d5a:	4618      	mov	r0, r3
 8003d5c:	f7fc fff2 	bl	8000d44 <__aeabi_fmul>
 8003d60:	4603      	mov	r3, r0
 8003d62:	4619      	mov	r1, r3
 8003d64:	f04f 507e 	mov.w	r0, #1065353216	; 0x3f800000
 8003d68:	f7fc fee2 	bl	8000b30 <__aeabi_fsub>
 8003d6c:	4603      	mov	r3, r0
 8003d6e:	627b      	str	r3, [r7, #36]	; 0x24
 8003d70:	e002      	b.n	8003d78 <qFIS_SMF+0x13a>
    }
    else {
        y = 0.0f;
 8003d72:	f04f 0300 	mov.w	r3, #0
 8003d76:	627b      	str	r3, [r7, #36]	; 0x24
    }

    return y;
 8003d78:	6a7b      	ldr	r3, [r7, #36]	; 0x24
}
 8003d7a:	4618      	mov	r0, r3
 8003d7c:	372c      	adds	r7, #44	; 0x2c
 8003d7e:	46bd      	mov	sp, r7
 8003d80:	bd90      	pop	{r4, r7, pc}

08003d82 <qFIS_TSMF>:
/*============================================================================*/
static float qFIS_TSMF( const qFIS_IO_Base_t * const in,
                        const float *p,
                        const size_t n )
{
 8003d82:	b590      	push	{r4, r7, lr}
 8003d84:	b091      	sub	sp, #68	; 0x44
 8003d86:	af00      	add	r7, sp, #0
 8003d88:	60f8      	str	r0, [r7, #12]
 8003d8a:	60b9      	str	r1, [r7, #8]
 8003d8c:	607a      	str	r2, [r7, #4]
    float diff, a, b, ta, tb, ma, mb;
    float x = in[ 0 ].value;
 8003d8e:	68fb      	ldr	r3, [r7, #12]
 8003d90:	689b      	ldr	r3, [r3, #8]
 8003d92:	63fb      	str	r3, [r7, #60]	; 0x3c
    (void)n;
    qFIS_IO_Base_t tmp;

    a = p[ 0 ]; /*start*/
 8003d94:	68bb      	ldr	r3, [r7, #8]
 8003d96:	681b      	ldr	r3, [r3, #0]
 8003d98:	63bb      	str	r3, [r7, #56]	; 0x38
    b = p[ 1 ]; /*end*/
 8003d9a:	68bb      	ldr	r3, [r7, #8]
 8003d9c:	3304      	adds	r3, #4
 8003d9e:	681b      	ldr	r3, [r3, #0]
 8003da0:	637b      	str	r3, [r7, #52]	; 0x34
    diff = b - a;
 8003da2:	6bb9      	ldr	r1, [r7, #56]	; 0x38
 8003da4:	6b78      	ldr	r0, [r7, #52]	; 0x34
 8003da6:	f7fc fec3 	bl	8000b30 <__aeabi_fsub>
 8003daa:	4603      	mov	r3, r0
 8003dac:	633b      	str	r3, [r7, #48]	; 0x30
    diff = 0.5f*diff*diff;
 8003dae:	f04f 517c 	mov.w	r1, #1056964608	; 0x3f000000
 8003db2:	6b38      	ldr	r0, [r7, #48]	; 0x30
 8003db4:	f7fc ffc6 	bl	8000d44 <__aeabi_fmul>
 8003db8:	4603      	mov	r3, r0
 8003dba:	4619      	mov	r1, r3
 8003dbc:	6b38      	ldr	r0, [r7, #48]	; 0x30
 8003dbe:	f7fc ffc1 	bl	8000d44 <__aeabi_fmul>
 8003dc2:	4603      	mov	r3, r0
 8003dc4:	633b      	str	r3, [r7, #48]	; 0x30
    /*cstat -MISRAC2012-Dir-4.11_a -MISRAC2012-Dir-4.11_b*/
    ta = a + QLIB_SQRT( x*diff );
 8003dc6:	6b39      	ldr	r1, [r7, #48]	; 0x30
 8003dc8:	6bf8      	ldr	r0, [r7, #60]	; 0x3c
 8003dca:	f7fc ffbb 	bl	8000d44 <__aeabi_fmul>
 8003dce:	4603      	mov	r3, r0
 8003dd0:	4618      	mov	r0, r3
 8003dd2:	f7fe fbcc 	bl	800256e <qFFMath_Sqrt>
 8003dd6:	4603      	mov	r3, r0
 8003dd8:	4619      	mov	r1, r3
 8003dda:	6bb8      	ldr	r0, [r7, #56]	; 0x38
 8003ddc:	f7fc feaa 	bl	8000b34 <__addsf3>
 8003de0:	4603      	mov	r3, r0
 8003de2:	62fb      	str	r3, [r7, #44]	; 0x2c
    tmp.value = ta;
 8003de4:	6afb      	ldr	r3, [r7, #44]	; 0x2c
 8003de6:	61fb      	str	r3, [r7, #28]
    ma = qFIS_SMF( &tmp, p, n );
 8003de8:	f107 0314 	add.w	r3, r7, #20
 8003dec:	687a      	ldr	r2, [r7, #4]
 8003dee:	68b9      	ldr	r1, [r7, #8]
 8003df0:	4618      	mov	r0, r3
 8003df2:	f7ff ff24 	bl	8003c3e <qFIS_SMF>
 8003df6:	62b8      	str	r0, [r7, #40]	; 0x28
    tb = b + QLIB_SQRT( -( x - 1.0f )*diff );
 8003df8:	f04f 517e 	mov.w	r1, #1065353216	; 0x3f800000
 8003dfc:	6bf8      	ldr	r0, [r7, #60]	; 0x3c
 8003dfe:	f7fc fe97 	bl	8000b30 <__aeabi_fsub>
 8003e02:	4603      	mov	r3, r0
 8003e04:	f083 4300 	eor.w	r3, r3, #2147483648	; 0x80000000
 8003e08:	6b39      	ldr	r1, [r7, #48]	; 0x30
 8003e0a:	4618      	mov	r0, r3
 8003e0c:	f7fc ff9a 	bl	8000d44 <__aeabi_fmul>
 8003e10:	4603      	mov	r3, r0
 8003e12:	4618      	mov	r0, r3
 8003e14:	f7fe fbab 	bl	800256e <qFFMath_Sqrt>
 8003e18:	4603      	mov	r3, r0
 8003e1a:	4619      	mov	r1, r3
 8003e1c:	6b78      	ldr	r0, [r7, #52]	; 0x34
 8003e1e:	f7fc fe89 	bl	8000b34 <__addsf3>
 8003e22:	4603      	mov	r3, r0
 8003e24:	627b      	str	r3, [r7, #36]	; 0x24
    tmp.value = tb;
 8003e26:	6a7b      	ldr	r3, [r7, #36]	; 0x24
 8003e28:	61fb      	str	r3, [r7, #28]
    mb = qFIS_SMF( &tmp, p, n );
 8003e2a:	f107 0314 	add.w	r3, r7, #20
 8003e2e:	687a      	ldr	r2, [r7, #4]
 8003e30:	68b9      	ldr	r1, [r7, #8]
 8003e32:	4618      	mov	r0, r3
 8003e34:	f7ff ff03 	bl	8003c3e <qFIS_SMF>
 8003e38:	6238      	str	r0, [r7, #32]
    /*cstat +MISRAC2012-Dir-4.11_a +MISRAC2012-Dir-4.11_b*/
    return  ( QLIB_ABS( x - ma ) < QLIB_ABS( x - mb ) ) ? ta : tb;
 8003e3a:	6ab9      	ldr	r1, [r7, #40]	; 0x28
 8003e3c:	6bf8      	ldr	r0, [r7, #60]	; 0x3c
 8003e3e:	f7fc fe77 	bl	8000b30 <__aeabi_fsub>
 8003e42:	4603      	mov	r3, r0
 8003e44:	4618      	mov	r0, r3
 8003e46:	f7fe fb7d 	bl	8002544 <qFFMath_Abs>
 8003e4a:	4604      	mov	r4, r0
 8003e4c:	6a39      	ldr	r1, [r7, #32]
 8003e4e:	6bf8      	ldr	r0, [r7, #60]	; 0x3c
 8003e50:	f7fc fe6e 	bl	8000b30 <__aeabi_fsub>
 8003e54:	4603      	mov	r3, r0
 8003e56:	4618      	mov	r0, r3
 8003e58:	f7fe fb74 	bl	8002544 <qFFMath_Abs>
 8003e5c:	4603      	mov	r3, r0
 8003e5e:	4619      	mov	r1, r3
 8003e60:	4620      	mov	r0, r4
 8003e62:	f7fd f90d 	bl	8001080 <__aeabi_fcmplt>
 8003e66:	4603      	mov	r3, r0
 8003e68:	2b00      	cmp	r3, #0
 8003e6a:	d001      	beq.n	8003e70 <qFIS_TSMF+0xee>
 8003e6c:	6afb      	ldr	r3, [r7, #44]	; 0x2c
 8003e6e:	e000      	b.n	8003e72 <qFIS_TSMF+0xf0>
 8003e70:	6a7b      	ldr	r3, [r7, #36]	; 0x24
}
 8003e72:	4618      	mov	r0, r3
 8003e74:	3744      	adds	r7, #68	; 0x44
 8003e76:	46bd      	mov	sp, r7
 8003e78:	bd90      	pop	{r4, r7, pc}

08003e7a <qFIS_ZMF>:
/*============================================================================*/
static float qFIS_ZMF( const qFIS_IO_Base_t * const in,
                       const float *p,
                       const size_t n )
{
 8003e7a:	b590      	push	{r4, r7, lr}
 8003e7c:	b08b      	sub	sp, #44	; 0x2c
 8003e7e:	af00      	add	r7, sp, #0
 8003e80:	60f8      	str	r0, [r7, #12]
 8003e82:	60b9      	str	r1, [r7, #8]
 8003e84:	607a      	str	r2, [r7, #4]
    float a, b, tmp, y;
    float x = in[ 0 ].value;
 8003e86:	68fb      	ldr	r3, [r7, #12]
 8003e88:	689b      	ldr	r3, [r3, #8]
 8003e8a:	623b      	str	r3, [r7, #32]
    (void)n;

    a = p[ 0 ];
 8003e8c:	68bb      	ldr	r3, [r7, #8]
 8003e8e:	681b      	ldr	r3, [r3, #0]
 8003e90:	61fb      	str	r3, [r7, #28]
    b = p[ 1 ];
 8003e92:	68bb      	ldr	r3, [r7, #8]
 8003e94:	3304      	adds	r3, #4
 8003e96:	681b      	ldr	r3, [r3, #0]
 8003e98:	61bb      	str	r3, [r7, #24]
    if ( x <= a ) {
 8003e9a:	69f9      	ldr	r1, [r7, #28]
 8003e9c:	6a38      	ldr	r0, [r7, #32]
 8003e9e:	f7fd f8f9 	bl	8001094 <__aeabi_fcmple>
 8003ea2:	4603      	mov	r3, r0
 8003ea4:	2b00      	cmp	r3, #0
 8003ea6:	d003      	beq.n	8003eb0 <qFIS_ZMF+0x36>
        y = 1.0f;
 8003ea8:	f04f 537e 	mov.w	r3, #1065353216	; 0x3f800000
 8003eac:	627b      	str	r3, [r7, #36]	; 0x24
 8003eae:	e081      	b.n	8003fb4 <qFIS_ZMF+0x13a>
    }
    else if ( x >= b ) {
 8003eb0:	69b9      	ldr	r1, [r7, #24]
 8003eb2:	6a38      	ldr	r0, [r7, #32]
 8003eb4:	f7fd f8f8 	bl	80010a8 <__aeabi_fcmpge>
 8003eb8:	4603      	mov	r3, r0
 8003eba:	2b00      	cmp	r3, #0
 8003ebc:	d003      	beq.n	8003ec6 <qFIS_ZMF+0x4c>
        y = 0.0f;
 8003ebe:	f04f 0300 	mov.w	r3, #0
 8003ec2:	627b      	str	r3, [r7, #36]	; 0x24
 8003ec4:	e076      	b.n	8003fb4 <qFIS_ZMF+0x13a>
    }
    else if ( ( x >= a ) && ( x <= ( ( a + b )*0.5f ) ) ) {
 8003ec6:	69f9      	ldr	r1, [r7, #28]
 8003ec8:	6a38      	ldr	r0, [r7, #32]
 8003eca:	f7fd f8ed 	bl	80010a8 <__aeabi_fcmpge>
 8003ece:	4603      	mov	r3, r0
 8003ed0:	2b00      	cmp	r3, #0
 8003ed2:	d035      	beq.n	8003f40 <qFIS_ZMF+0xc6>
 8003ed4:	69b9      	ldr	r1, [r7, #24]
 8003ed6:	69f8      	ldr	r0, [r7, #28]
 8003ed8:	f7fc fe2c 	bl	8000b34 <__addsf3>
 8003edc:	4603      	mov	r3, r0
 8003ede:	f04f 517c 	mov.w	r1, #1056964608	; 0x3f000000
 8003ee2:	4618      	mov	r0, r3
 8003ee4:	f7fc ff2e 	bl	8000d44 <__aeabi_fmul>
 8003ee8:	4603      	mov	r3, r0
 8003eea:	4619      	mov	r1, r3
 8003eec:	6a38      	ldr	r0, [r7, #32]
 8003eee:	f7fd f8d1 	bl	8001094 <__aeabi_fcmple>
 8003ef2:	4603      	mov	r3, r0
 8003ef4:	2b00      	cmp	r3, #0
 8003ef6:	d023      	beq.n	8003f40 <qFIS_ZMF+0xc6>
        tmp = ( x - a )/( b - a );
 8003ef8:	69f9      	ldr	r1, [r7, #28]
 8003efa:	6a38      	ldr	r0, [r7, #32]
 8003efc:	f7fc fe18 	bl	8000b30 <__aeabi_fsub>
 8003f00:	4603      	mov	r3, r0
 8003f02:	461c      	mov	r4, r3
 8003f04:	69f9      	ldr	r1, [r7, #28]
 8003f06:	69b8      	ldr	r0, [r7, #24]
 8003f08:	f7fc fe12 	bl	8000b30 <__aeabi_fsub>
 8003f0c:	4603      	mov	r3, r0
 8003f0e:	4619      	mov	r1, r3
 8003f10:	4620      	mov	r0, r4
 8003f12:	f7fc ffcb 	bl	8000eac <__aeabi_fdiv>
 8003f16:	4603      	mov	r3, r0
 8003f18:	617b      	str	r3, [r7, #20]
        y = 1.0f - ( 2.0f*tmp*tmp );
 8003f1a:	697b      	ldr	r3, [r7, #20]
 8003f1c:	4619      	mov	r1, r3
 8003f1e:	4618      	mov	r0, r3
 8003f20:	f7fc fe08 	bl	8000b34 <__addsf3>
 8003f24:	4603      	mov	r3, r0
 8003f26:	6979      	ldr	r1, [r7, #20]
 8003f28:	4618      	mov	r0, r3
 8003f2a:	f7fc ff0b 	bl	8000d44 <__aeabi_fmul>
 8003f2e:	4603      	mov	r3, r0
 8003f30:	4619      	mov	r1, r3
 8003f32:	f04f 507e 	mov.w	r0, #1065353216	; 0x3f800000
 8003f36:	f7fc fdfb 	bl	8000b30 <__aeabi_fsub>
 8003f3a:	4603      	mov	r3, r0
 8003f3c:	627b      	str	r3, [r7, #36]	; 0x24
 8003f3e:	e039      	b.n	8003fb4 <qFIS_ZMF+0x13a>
    }
    else if ( ( x <= b ) && ( x >= ( ( a + b )*0.5f ) ) ) {
 8003f40:	69b9      	ldr	r1, [r7, #24]
 8003f42:	6a38      	ldr	r0, [r7, #32]
 8003f44:	f7fd f8a6 	bl	8001094 <__aeabi_fcmple>
 8003f48:	4603      	mov	r3, r0
 8003f4a:	2b00      	cmp	r3, #0
 8003f4c:	d02f      	beq.n	8003fae <qFIS_ZMF+0x134>
 8003f4e:	69b9      	ldr	r1, [r7, #24]
 8003f50:	69f8      	ldr	r0, [r7, #28]
 8003f52:	f7fc fdef 	bl	8000b34 <__addsf3>
 8003f56:	4603      	mov	r3, r0
 8003f58:	f04f 517c 	mov.w	r1, #1056964608	; 0x3f000000
 8003f5c:	4618      	mov	r0, r3
 8003f5e:	f7fc fef1 	bl	8000d44 <__aeabi_fmul>
 8003f62:	4603      	mov	r3, r0
 8003f64:	4619      	mov	r1, r3
 8003f66:	6a38      	ldr	r0, [r7, #32]
 8003f68:	f7fd f89e 	bl	80010a8 <__aeabi_fcmpge>
 8003f6c:	4603      	mov	r3, r0
 8003f6e:	2b00      	cmp	r3, #0
 8003f70:	d01d      	beq.n	8003fae <qFIS_ZMF+0x134>
        tmp = ( x - b )/( b - a );
 8003f72:	69b9      	ldr	r1, [r7, #24]
 8003f74:	6a38      	ldr	r0, [r7, #32]
 8003f76:	f7fc fddb 	bl	8000b30 <__aeabi_fsub>
 8003f7a:	4603      	mov	r3, r0
 8003f7c:	461c      	mov	r4, r3
 8003f7e:	69f9      	ldr	r1, [r7, #28]
 8003f80:	69b8      	ldr	r0, [r7, #24]
 8003f82:	f7fc fdd5 	bl	8000b30 <__aeabi_fsub>
 8003f86:	4603      	mov	r3, r0
 8003f88:	4619      	mov	r1, r3
 8003f8a:	4620      	mov	r0, r4
 8003f8c:	f7fc ff8e 	bl	8000eac <__aeabi_fdiv>
 8003f90:	4603      	mov	r3, r0
 8003f92:	617b      	str	r3, [r7, #20]
        y = 2.0f*tmp*tmp;
 8003f94:	697b      	ldr	r3, [r7, #20]
 8003f96:	4619      	mov	r1, r3
 8003f98:	4618      	mov	r0, r3
 8003f9a:	f7fc fdcb 	bl	8000b34 <__addsf3>
 8003f9e:	4603      	mov	r3, r0
 8003fa0:	4619      	mov	r1, r3
 8003fa2:	6978      	ldr	r0, [r7, #20]
 8003fa4:	f7fc fece 	bl	8000d44 <__aeabi_fmul>
 8003fa8:	4603      	mov	r3, r0
 8003faa:	627b      	str	r3, [r7, #36]	; 0x24
 8003fac:	e002      	b.n	8003fb4 <qFIS_ZMF+0x13a>
    }
    else {
        y = 0.0f;
 8003fae:	f04f 0300 	mov.w	r3, #0
 8003fb2:	627b      	str	r3, [r7, #36]	; 0x24
    }

    return y;
 8003fb4:	6a7b      	ldr	r3, [r7, #36]	; 0x24
}
 8003fb6:	4618      	mov	r0, r3
 8003fb8:	372c      	adds	r7, #44	; 0x2c
 8003fba:	46bd      	mov	sp, r7
 8003fbc:	bd90      	pop	{r4, r7, pc}

08003fbe <qFIS_LinSMF>:
/*============================================================================*/
static float qFIS_LinSMF( const qFIS_IO_Base_t * const in,
                          const float *p,
                          const size_t n )
{
 8003fbe:	b590      	push	{r4, r7, lr}
 8003fc0:	b089      	sub	sp, #36	; 0x24
 8003fc2:	af00      	add	r7, sp, #0
 8003fc4:	60f8      	str	r0, [r7, #12]
 8003fc6:	60b9      	str	r1, [r7, #8]
 8003fc8:	607a      	str	r2, [r7, #4]
    float a, b, y;
    float x = in[ 0 ].value;
 8003fca:	68fb      	ldr	r3, [r7, #12]
 8003fcc:	689b      	ldr	r3, [r3, #8]
 8003fce:	61bb      	str	r3, [r7, #24]
    (void)n;

    a = p[ 0 ];
 8003fd0:	68bb      	ldr	r3, [r7, #8]
 8003fd2:	681b      	ldr	r3, [r3, #0]
 8003fd4:	617b      	str	r3, [r7, #20]
    b = p[ 1 ];
 8003fd6:	68bb      	ldr	r3, [r7, #8]
 8003fd8:	3304      	adds	r3, #4
 8003fda:	681b      	ldr	r3, [r3, #0]
 8003fdc:	613b      	str	r3, [r7, #16]
    if ( a < b ) {
 8003fde:	6939      	ldr	r1, [r7, #16]
 8003fe0:	6978      	ldr	r0, [r7, #20]
 8003fe2:	f7fd f84d 	bl	8001080 <__aeabi_fcmplt>
 8003fe6:	4603      	mov	r3, r0
 8003fe8:	2b00      	cmp	r3, #0
 8003fea:	d027      	beq.n	800403c <qFIS_LinSMF+0x7e>
        if ( x < a ) {
 8003fec:	6979      	ldr	r1, [r7, #20]
 8003fee:	69b8      	ldr	r0, [r7, #24]
 8003ff0:	f7fd f846 	bl	8001080 <__aeabi_fcmplt>
 8003ff4:	4603      	mov	r3, r0
 8003ff6:	2b00      	cmp	r3, #0
 8003ff8:	d003      	beq.n	8004002 <qFIS_LinSMF+0x44>
            y = 0.0f;
 8003ffa:	f04f 0300 	mov.w	r3, #0
 8003ffe:	61fb      	str	r3, [r7, #28]
 8004000:	e034      	b.n	800406c <qFIS_LinSMF+0xae>
        }
        else if ( x > b ) {
 8004002:	6939      	ldr	r1, [r7, #16]
 8004004:	69b8      	ldr	r0, [r7, #24]
 8004006:	f7fd f859 	bl	80010bc <__aeabi_fcmpgt>
 800400a:	4603      	mov	r3, r0
 800400c:	2b00      	cmp	r3, #0
 800400e:	d003      	beq.n	8004018 <qFIS_LinSMF+0x5a>
            y = 1.0f;
 8004010:	f04f 537e 	mov.w	r3, #1065353216	; 0x3f800000
 8004014:	61fb      	str	r3, [r7, #28]
 8004016:	e029      	b.n	800406c <qFIS_LinSMF+0xae>
        }
        else {
            y = ( x - a )/( b - a );
 8004018:	6979      	ldr	r1, [r7, #20]
 800401a:	69b8      	ldr	r0, [r7, #24]
 800401c:	f7fc fd88 	bl	8000b30 <__aeabi_fsub>
 8004020:	4603      	mov	r3, r0
 8004022:	461c      	mov	r4, r3
 8004024:	6979      	ldr	r1, [r7, #20]
 8004026:	6938      	ldr	r0, [r7, #16]
 8004028:	f7fc fd82 	bl	8000b30 <__aeabi_fsub>
 800402c:	4603      	mov	r3, r0
 800402e:	4619      	mov	r1, r3
 8004030:	4620      	mov	r0, r4
 8004032:	f7fc ff3b 	bl	8000eac <__aeabi_fdiv>
 8004036:	4603      	mov	r3, r0
 8004038:	61fb      	str	r3, [r7, #28]
 800403a:	e017      	b.n	800406c <qFIS_LinSMF+0xae>
        }
    }
    else if ( qFMathEx_Equal( a, b ) ) {
 800403c:	6939      	ldr	r1, [r7, #16]
 800403e:	6978      	ldr	r0, [r7, #20]
 8004040:	f000 fc1d 	bl	800487e <qFMathEx_Equal>
 8004044:	4603      	mov	r3, r0
 8004046:	2b00      	cmp	r3, #0
 8004048:	d00d      	beq.n	8004066 <qFIS_LinSMF+0xa8>
        y = ( x < a ) ? 0.0f : 1.0f;
 800404a:	6979      	ldr	r1, [r7, #20]
 800404c:	69b8      	ldr	r0, [r7, #24]
 800404e:	f7fd f817 	bl	8001080 <__aeabi_fcmplt>
 8004052:	4603      	mov	r3, r0
 8004054:	2b00      	cmp	r3, #0
 8004056:	d002      	beq.n	800405e <qFIS_LinSMF+0xa0>
 8004058:	f04f 0300 	mov.w	r3, #0
 800405c:	e001      	b.n	8004062 <qFIS_LinSMF+0xa4>
 800405e:	f04f 537e 	mov.w	r3, #1065353216	; 0x3f800000
 8004062:	61fb      	str	r3, [r7, #28]
 8004064:	e002      	b.n	800406c <qFIS_LinSMF+0xae>
    }
    else {
        y = 0.0f;
 8004066:	f04f 0300 	mov.w	r3, #0
 800406a:	61fb      	str	r3, [r7, #28]
    }

    return y;
 800406c:	69fb      	ldr	r3, [r7, #28]
}
 800406e:	4618      	mov	r0, r3
 8004070:	3724      	adds	r7, #36	; 0x24
 8004072:	46bd      	mov	sp, r7
 8004074:	bd90      	pop	{r4, r7, pc}

08004076 <qFIS_LinZMF>:
/*============================================================================*/
static float qFIS_LinZMF( const qFIS_IO_Base_t * const in,
                          const float *p,
                          const size_t n )
{
 8004076:	b590      	push	{r4, r7, lr}
 8004078:	b089      	sub	sp, #36	; 0x24
 800407a:	af00      	add	r7, sp, #0
 800407c:	60f8      	str	r0, [r7, #12]
 800407e:	60b9      	str	r1, [r7, #8]
 8004080:	607a      	str	r2, [r7, #4]
    float a, b, y;
    float x = in[ 0 ].value;
 8004082:	68fb      	ldr	r3, [r7, #12]
 8004084:	689b      	ldr	r3, [r3, #8]
 8004086:	61bb      	str	r3, [r7, #24]
    (void)n;

    a = p[ 0 ];
 8004088:	68bb      	ldr	r3, [r7, #8]
 800408a:	681b      	ldr	r3, [r3, #0]
 800408c:	617b      	str	r3, [r7, #20]
    b = p[ 1 ];
 800408e:	68bb      	ldr	r3, [r7, #8]
 8004090:	3304      	adds	r3, #4
 8004092:	681b      	ldr	r3, [r3, #0]
 8004094:	613b      	str	r3, [r7, #16]
    if ( a < b ) {
 8004096:	6939      	ldr	r1, [r7, #16]
 8004098:	6978      	ldr	r0, [r7, #20]
 800409a:	f7fc fff1 	bl	8001080 <__aeabi_fcmplt>
 800409e:	4603      	mov	r3, r0
 80040a0:	2b00      	cmp	r3, #0
 80040a2:	d027      	beq.n	80040f4 <qFIS_LinZMF+0x7e>
        if ( x < a ) {
 80040a4:	6979      	ldr	r1, [r7, #20]
 80040a6:	69b8      	ldr	r0, [r7, #24]
 80040a8:	f7fc ffea 	bl	8001080 <__aeabi_fcmplt>
 80040ac:	4603      	mov	r3, r0
 80040ae:	2b00      	cmp	r3, #0
 80040b0:	d003      	beq.n	80040ba <qFIS_LinZMF+0x44>
            y = 1.0f;
 80040b2:	f04f 537e 	mov.w	r3, #1065353216	; 0x3f800000
 80040b6:	61fb      	str	r3, [r7, #28]
 80040b8:	e034      	b.n	8004124 <qFIS_LinZMF+0xae>
        }
        else if ( x > b ) {
 80040ba:	6939      	ldr	r1, [r7, #16]
 80040bc:	69b8      	ldr	r0, [r7, #24]
 80040be:	f7fc fffd 	bl	80010bc <__aeabi_fcmpgt>
 80040c2:	4603      	mov	r3, r0
 80040c4:	2b00      	cmp	r3, #0
 80040c6:	d003      	beq.n	80040d0 <qFIS_LinZMF+0x5a>
            y = 0.0f;
 80040c8:	f04f 0300 	mov.w	r3, #0
 80040cc:	61fb      	str	r3, [r7, #28]
 80040ce:	e029      	b.n	8004124 <qFIS_LinZMF+0xae>
        }
        else {
            y = ( a - x )/( a - b );
 80040d0:	69b9      	ldr	r1, [r7, #24]
 80040d2:	6978      	ldr	r0, [r7, #20]
 80040d4:	f7fc fd2c 	bl	8000b30 <__aeabi_fsub>
 80040d8:	4603      	mov	r3, r0
 80040da:	461c      	mov	r4, r3
 80040dc:	6939      	ldr	r1, [r7, #16]
 80040de:	6978      	ldr	r0, [r7, #20]
 80040e0:	f7fc fd26 	bl	8000b30 <__aeabi_fsub>
 80040e4:	4603      	mov	r3, r0
 80040e6:	4619      	mov	r1, r3
 80040e8:	4620      	mov	r0, r4
 80040ea:	f7fc fedf 	bl	8000eac <__aeabi_fdiv>
 80040ee:	4603      	mov	r3, r0
 80040f0:	61fb      	str	r3, [r7, #28]
 80040f2:	e017      	b.n	8004124 <qFIS_LinZMF+0xae>
        }
    }
    else if ( qFMathEx_Equal( a, b ) ) {
 80040f4:	6939      	ldr	r1, [r7, #16]
 80040f6:	6978      	ldr	r0, [r7, #20]
 80040f8:	f000 fbc1 	bl	800487e <qFMathEx_Equal>
 80040fc:	4603      	mov	r3, r0
 80040fe:	2b00      	cmp	r3, #0
 8004100:	d00d      	beq.n	800411e <qFIS_LinZMF+0xa8>
        y = ( x < a ) ? 1.0f : 0.0f;
 8004102:	6979      	ldr	r1, [r7, #20]
 8004104:	69b8      	ldr	r0, [r7, #24]
 8004106:	f7fc ffbb 	bl	8001080 <__aeabi_fcmplt>
 800410a:	4603      	mov	r3, r0
 800410c:	2b00      	cmp	r3, #0
 800410e:	d002      	beq.n	8004116 <qFIS_LinZMF+0xa0>
 8004110:	f04f 537e 	mov.w	r3, #1065353216	; 0x3f800000
 8004114:	e001      	b.n	800411a <qFIS_LinZMF+0xa4>
 8004116:	f04f 0300 	mov.w	r3, #0
 800411a:	61fb      	str	r3, [r7, #28]
 800411c:	e002      	b.n	8004124 <qFIS_LinZMF+0xae>
    }
    else {
        y = 0.0f;
 800411e:	f04f 0300 	mov.w	r3, #0
 8004122:	61fb      	str	r3, [r7, #28]
    }

    return y;
 8004124:	69fb      	ldr	r3, [r7, #28]
}
 8004126:	4618      	mov	r0, r3
 8004128:	3724      	adds	r7, #36	; 0x24
 800412a:	46bd      	mov	sp, r7
 800412c:	bd90      	pop	{r4, r7, pc}

0800412e <qFIS_TZMF>:
/*============================================================================*/
static float qFIS_TZMF( const qFIS_IO_Base_t * const in,
                        const float *p,
                        const size_t n )
{
 800412e:	b590      	push	{r4, r7, lr}
 8004130:	b091      	sub	sp, #68	; 0x44
 8004132:	af00      	add	r7, sp, #0
 8004134:	60f8      	str	r0, [r7, #12]
 8004136:	60b9      	str	r1, [r7, #8]
 8004138:	607a      	str	r2, [r7, #4]
    float diff, a, b, ta, tb, ma, mb;
    float x = in[ 0 ].value;
 800413a:	68fb      	ldr	r3, [r7, #12]
 800413c:	689b      	ldr	r3, [r3, #8]
 800413e:	63fb      	str	r3, [r7, #60]	; 0x3c
    (void)n;
    qFIS_IO_Base_t tmp;

    a = p[ 0 ]; /*start*/
 8004140:	68bb      	ldr	r3, [r7, #8]
 8004142:	681b      	ldr	r3, [r3, #0]
 8004144:	63bb      	str	r3, [r7, #56]	; 0x38
    b = p[ 1 ]; /*end*/
 8004146:	68bb      	ldr	r3, [r7, #8]
 8004148:	3304      	adds	r3, #4
 800414a:	681b      	ldr	r3, [r3, #0]
 800414c:	637b      	str	r3, [r7, #52]	; 0x34
    diff = b - a;
 800414e:	6bb9      	ldr	r1, [r7, #56]	; 0x38
 8004150:	6b78      	ldr	r0, [r7, #52]	; 0x34
 8004152:	f7fc fced 	bl	8000b30 <__aeabi_fsub>
 8004156:	4603      	mov	r3, r0
 8004158:	633b      	str	r3, [r7, #48]	; 0x30
    diff = 0.5f*diff*diff;
 800415a:	f04f 517c 	mov.w	r1, #1056964608	; 0x3f000000
 800415e:	6b38      	ldr	r0, [r7, #48]	; 0x30
 8004160:	f7fc fdf0 	bl	8000d44 <__aeabi_fmul>
 8004164:	4603      	mov	r3, r0
 8004166:	4619      	mov	r1, r3
 8004168:	6b38      	ldr	r0, [r7, #48]	; 0x30
 800416a:	f7fc fdeb 	bl	8000d44 <__aeabi_fmul>
 800416e:	4603      	mov	r3, r0
 8004170:	633b      	str	r3, [r7, #48]	; 0x30
    /*cstat -MISRAC2012-Dir-4.11_a -MISRAC2012-Dir-4.11_b*/
    ta = a + QLIB_SQRT( -( x - 1.0f )*diff );
 8004172:	f04f 517e 	mov.w	r1, #1065353216	; 0x3f800000
 8004176:	6bf8      	ldr	r0, [r7, #60]	; 0x3c
 8004178:	f7fc fcda 	bl	8000b30 <__aeabi_fsub>
 800417c:	4603      	mov	r3, r0
 800417e:	f083 4300 	eor.w	r3, r3, #2147483648	; 0x80000000
 8004182:	6b39      	ldr	r1, [r7, #48]	; 0x30
 8004184:	4618      	mov	r0, r3
 8004186:	f7fc fddd 	bl	8000d44 <__aeabi_fmul>
 800418a:	4603      	mov	r3, r0
 800418c:	4618      	mov	r0, r3
 800418e:	f7fe f9ee 	bl	800256e <qFFMath_Sqrt>
 8004192:	4603      	mov	r3, r0
 8004194:	4619      	mov	r1, r3
 8004196:	6bb8      	ldr	r0, [r7, #56]	; 0x38
 8004198:	f7fc fccc 	bl	8000b34 <__addsf3>
 800419c:	4603      	mov	r3, r0
 800419e:	62fb      	str	r3, [r7, #44]	; 0x2c
    tmp.value = ta;
 80041a0:	6afb      	ldr	r3, [r7, #44]	; 0x2c
 80041a2:	61fb      	str	r3, [r7, #28]
    ma = qFIS_SMF( &tmp, p, n );
 80041a4:	f107 0314 	add.w	r3, r7, #20
 80041a8:	687a      	ldr	r2, [r7, #4]
 80041aa:	68b9      	ldr	r1, [r7, #8]
 80041ac:	4618      	mov	r0, r3
 80041ae:	f7ff fd46 	bl	8003c3e <qFIS_SMF>
 80041b2:	62b8      	str	r0, [r7, #40]	; 0x28
    tb = b + QLIB_SQRT( x*diff );
 80041b4:	6b39      	ldr	r1, [r7, #48]	; 0x30
 80041b6:	6bf8      	ldr	r0, [r7, #60]	; 0x3c
 80041b8:	f7fc fdc4 	bl	8000d44 <__aeabi_fmul>
 80041bc:	4603      	mov	r3, r0
 80041be:	4618      	mov	r0, r3
 80041c0:	f7fe f9d5 	bl	800256e <qFFMath_Sqrt>
 80041c4:	4603      	mov	r3, r0
 80041c6:	4619      	mov	r1, r3
 80041c8:	6b78      	ldr	r0, [r7, #52]	; 0x34
 80041ca:	f7fc fcb3 	bl	8000b34 <__addsf3>
 80041ce:	4603      	mov	r3, r0
 80041d0:	627b      	str	r3, [r7, #36]	; 0x24
    tmp.value = tb;
 80041d2:	6a7b      	ldr	r3, [r7, #36]	; 0x24
 80041d4:	61fb      	str	r3, [r7, #28]
    mb = qFIS_SMF( &tmp, p, n );
 80041d6:	f107 0314 	add.w	r3, r7, #20
 80041da:	687a      	ldr	r2, [r7, #4]
 80041dc:	68b9      	ldr	r1, [r7, #8]
 80041de:	4618      	mov	r0, r3
 80041e0:	f7ff fd2d 	bl	8003c3e <qFIS_SMF>
 80041e4:	6238      	str	r0, [r7, #32]
    /*cstat +MISRAC2012-Dir-4.11_a +MISRAC2012-Dir-4.11_b*/
    return  ( QLIB_ABS( x - ma ) < QLIB_ABS( x - mb ) ) ? ta : tb;
 80041e6:	6ab9      	ldr	r1, [r7, #40]	; 0x28
 80041e8:	6bf8      	ldr	r0, [r7, #60]	; 0x3c
 80041ea:	f7fc fca1 	bl	8000b30 <__aeabi_fsub>
 80041ee:	4603      	mov	r3, r0
 80041f0:	4618      	mov	r0, r3
 80041f2:	f7fe f9a7 	bl	8002544 <qFFMath_Abs>
 80041f6:	4604      	mov	r4, r0
 80041f8:	6a39      	ldr	r1, [r7, #32]
 80041fa:	6bf8      	ldr	r0, [r7, #60]	; 0x3c
 80041fc:	f7fc fc98 	bl	8000b30 <__aeabi_fsub>
 8004200:	4603      	mov	r3, r0
 8004202:	4618      	mov	r0, r3
 8004204:	f7fe f99e 	bl	8002544 <qFFMath_Abs>
 8004208:	4603      	mov	r3, r0
 800420a:	4619      	mov	r1, r3
 800420c:	4620      	mov	r0, r4
 800420e:	f7fc ff37 	bl	8001080 <__aeabi_fcmplt>
 8004212:	4603      	mov	r3, r0
 8004214:	2b00      	cmp	r3, #0
 8004216:	d001      	beq.n	800421c <qFIS_TZMF+0xee>
 8004218:	6afb      	ldr	r3, [r7, #44]	; 0x2c
 800421a:	e000      	b.n	800421e <qFIS_TZMF+0xf0>
 800421c:	6a7b      	ldr	r3, [r7, #36]	; 0x24
}
 800421e:	4618      	mov	r0, r3
 8004220:	3744      	adds	r7, #68	; 0x44
 8004222:	46bd      	mov	sp, r7
 8004224:	bd90      	pop	{r4, r7, pc}

08004226 <qFIS_PiMF>:
/*============================================================================*/
static float qFIS_PiMF( const qFIS_IO_Base_t * const in,
                        const float *p,
                        const size_t n )
{
 8004226:	b590      	push	{r4, r7, lr}
 8004228:	b085      	sub	sp, #20
 800422a:	af00      	add	r7, sp, #0
 800422c:	60f8      	str	r0, [r7, #12]
 800422e:	60b9      	str	r1, [r7, #8]
 8004230:	607a      	str	r2, [r7, #4]
    return QLIB_ABS( qFIS_SMF( in , p, n )*qFIS_ZMF( in , &p[ 2 ], n ) );
 8004232:	687a      	ldr	r2, [r7, #4]
 8004234:	68b9      	ldr	r1, [r7, #8]
 8004236:	68f8      	ldr	r0, [r7, #12]
 8004238:	f7ff fd01 	bl	8003c3e <qFIS_SMF>
 800423c:	4604      	mov	r4, r0
 800423e:	68bb      	ldr	r3, [r7, #8]
 8004240:	3308      	adds	r3, #8
 8004242:	687a      	ldr	r2, [r7, #4]
 8004244:	4619      	mov	r1, r3
 8004246:	68f8      	ldr	r0, [r7, #12]
 8004248:	f7ff fe17 	bl	8003e7a <qFIS_ZMF>
 800424c:	4603      	mov	r3, r0
 800424e:	4619      	mov	r1, r3
 8004250:	4620      	mov	r0, r4
 8004252:	f7fc fd77 	bl	8000d44 <__aeabi_fmul>
 8004256:	4603      	mov	r3, r0
 8004258:	4618      	mov	r0, r3
 800425a:	f7fe f973 	bl	8002544 <qFFMath_Abs>
 800425e:	4603      	mov	r3, r0
}
 8004260:	4618      	mov	r0, r3
 8004262:	3714      	adds	r7, #20
 8004264:	46bd      	mov	sp, r7
 8004266:	bd90      	pop	{r4, r7, pc}

08004268 <qFIS_SingletonMF>:
/*============================================================================*/
static float qFIS_SingletonMF( const qFIS_IO_Base_t * const in,
                               const float *p,
                               const size_t n )
{
 8004268:	b580      	push	{r7, lr}
 800426a:	b086      	sub	sp, #24
 800426c:	af00      	add	r7, sp, #0
 800426e:	60f8      	str	r0, [r7, #12]
 8004270:	60b9      	str	r1, [r7, #8]
 8004272:	607a      	str	r2, [r7, #4]
    float x = in[ 0 ].value;
 8004274:	68fb      	ldr	r3, [r7, #12]
 8004276:	689b      	ldr	r3, [r3, #8]
 8004278:	617b      	str	r3, [r7, #20]
    (void)n;

    return ( qFMathEx_Equal( x, p[ 0 ] ) ) ? 1.0f : 0.0f;
 800427a:	68bb      	ldr	r3, [r7, #8]
 800427c:	681b      	ldr	r3, [r3, #0]
 800427e:	4619      	mov	r1, r3
 8004280:	6978      	ldr	r0, [r7, #20]
 8004282:	f000 fafc 	bl	800487e <qFMathEx_Equal>
 8004286:	4603      	mov	r3, r0
 8004288:	2b00      	cmp	r3, #0
 800428a:	d002      	beq.n	8004292 <qFIS_SingletonMF+0x2a>
 800428c:	f04f 537e 	mov.w	r3, #1065353216	; 0x3f800000
 8004290:	e001      	b.n	8004296 <qFIS_SingletonMF+0x2e>
 8004292:	f04f 0300 	mov.w	r3, #0
}
 8004296:	4618      	mov	r0, r3
 8004298:	3718      	adds	r7, #24
 800429a:	46bd      	mov	sp, r7
 800429c:	bd80      	pop	{r7, pc}

0800429e <qFIS_ConcaveMF>:
/*============================================================================*/
static float qFIS_ConcaveMF( const qFIS_IO_Base_t * const in,
                             const float *p,
                             const size_t n )
{
 800429e:	b590      	push	{r4, r7, lr}
 80042a0:	b089      	sub	sp, #36	; 0x24
 80042a2:	af00      	add	r7, sp, #0
 80042a4:	60f8      	str	r0, [r7, #12]
 80042a6:	60b9      	str	r1, [r7, #8]
 80042a8:	607a      	str	r2, [r7, #4]
    float x = in[ 0 ].value;
 80042aa:	68fb      	ldr	r3, [r7, #12]
 80042ac:	689b      	ldr	r3, [r3, #8]
 80042ae:	61bb      	str	r3, [r7, #24]
    float i, e, y;
    (void)n;

    i = p[ 0 ];
 80042b0:	68bb      	ldr	r3, [r7, #8]
 80042b2:	681b      	ldr	r3, [r3, #0]
 80042b4:	617b      	str	r3, [r7, #20]
    e = p[ 1 ];
 80042b6:	68bb      	ldr	r3, [r7, #8]
 80042b8:	3304      	adds	r3, #4
 80042ba:	681b      	ldr	r3, [r3, #0]
 80042bc:	613b      	str	r3, [r7, #16]
    if ( ( i <= e ) && ( x < e ) ) {
 80042be:	6939      	ldr	r1, [r7, #16]
 80042c0:	6978      	ldr	r0, [r7, #20]
 80042c2:	f7fc fee7 	bl	8001094 <__aeabi_fcmple>
 80042c6:	4603      	mov	r3, r0
 80042c8:	2b00      	cmp	r3, #0
 80042ca:	d023      	beq.n	8004314 <qFIS_ConcaveMF+0x76>
 80042cc:	6939      	ldr	r1, [r7, #16]
 80042ce:	69b8      	ldr	r0, [r7, #24]
 80042d0:	f7fc fed6 	bl	8001080 <__aeabi_fcmplt>
 80042d4:	4603      	mov	r3, r0
 80042d6:	2b00      	cmp	r3, #0
 80042d8:	d01c      	beq.n	8004314 <qFIS_ConcaveMF+0x76>
        y = ( e - i )/( ( 2.0f*e ) - i -x );
 80042da:	6979      	ldr	r1, [r7, #20]
 80042dc:	6938      	ldr	r0, [r7, #16]
 80042de:	f7fc fc27 	bl	8000b30 <__aeabi_fsub>
 80042e2:	4603      	mov	r3, r0
 80042e4:	461c      	mov	r4, r3
 80042e6:	693b      	ldr	r3, [r7, #16]
 80042e8:	4619      	mov	r1, r3
 80042ea:	4618      	mov	r0, r3
 80042ec:	f7fc fc22 	bl	8000b34 <__addsf3>
 80042f0:	4603      	mov	r3, r0
 80042f2:	6979      	ldr	r1, [r7, #20]
 80042f4:	4618      	mov	r0, r3
 80042f6:	f7fc fc1b 	bl	8000b30 <__aeabi_fsub>
 80042fa:	4603      	mov	r3, r0
 80042fc:	69b9      	ldr	r1, [r7, #24]
 80042fe:	4618      	mov	r0, r3
 8004300:	f7fc fc16 	bl	8000b30 <__aeabi_fsub>
 8004304:	4603      	mov	r3, r0
 8004306:	4619      	mov	r1, r3
 8004308:	4620      	mov	r0, r4
 800430a:	f7fc fdcf 	bl	8000eac <__aeabi_fdiv>
 800430e:	4603      	mov	r3, r0
 8004310:	61fb      	str	r3, [r7, #28]
 8004312:	e02d      	b.n	8004370 <qFIS_ConcaveMF+0xd2>
    }
    else if ( ( i > e ) && ( x > e ) ) {
 8004314:	6939      	ldr	r1, [r7, #16]
 8004316:	6978      	ldr	r0, [r7, #20]
 8004318:	f7fc fed0 	bl	80010bc <__aeabi_fcmpgt>
 800431c:	4603      	mov	r3, r0
 800431e:	2b00      	cmp	r3, #0
 8004320:	d023      	beq.n	800436a <qFIS_ConcaveMF+0xcc>
 8004322:	6939      	ldr	r1, [r7, #16]
 8004324:	69b8      	ldr	r0, [r7, #24]
 8004326:	f7fc fec9 	bl	80010bc <__aeabi_fcmpgt>
 800432a:	4603      	mov	r3, r0
 800432c:	2b00      	cmp	r3, #0
 800432e:	d01c      	beq.n	800436a <qFIS_ConcaveMF+0xcc>
        y = ( i - e )/( -( 2.0f*e ) + i +x );
 8004330:	6939      	ldr	r1, [r7, #16]
 8004332:	6978      	ldr	r0, [r7, #20]
 8004334:	f7fc fbfc 	bl	8000b30 <__aeabi_fsub>
 8004338:	4603      	mov	r3, r0
 800433a:	461c      	mov	r4, r3
 800433c:	693b      	ldr	r3, [r7, #16]
 800433e:	4619      	mov	r1, r3
 8004340:	4618      	mov	r0, r3
 8004342:	f7fc fbf7 	bl	8000b34 <__addsf3>
 8004346:	4603      	mov	r3, r0
 8004348:	4619      	mov	r1, r3
 800434a:	6978      	ldr	r0, [r7, #20]
 800434c:	f7fc fbf0 	bl	8000b30 <__aeabi_fsub>
 8004350:	4603      	mov	r3, r0
 8004352:	69b9      	ldr	r1, [r7, #24]
 8004354:	4618      	mov	r0, r3
 8004356:	f7fc fbed 	bl	8000b34 <__addsf3>
 800435a:	4603      	mov	r3, r0
 800435c:	4619      	mov	r1, r3
 800435e:	4620      	mov	r0, r4
 8004360:	f7fc fda4 	bl	8000eac <__aeabi_fdiv>
 8004364:	4603      	mov	r3, r0
 8004366:	61fb      	str	r3, [r7, #28]
 8004368:	e002      	b.n	8004370 <qFIS_ConcaveMF+0xd2>
    }
    else {
        y = 1.0f;
 800436a:	f04f 537e 	mov.w	r3, #1065353216	; 0x3f800000
 800436e:	61fb      	str	r3, [r7, #28]
    }

    return y;
 8004370:	69fb      	ldr	r3, [r7, #28]
}
 8004372:	4618      	mov	r0, r3
 8004374:	3724      	adds	r7, #36	; 0x24
 8004376:	46bd      	mov	sp, r7
 8004378:	bd90      	pop	{r4, r7, pc}

0800437a <qFIS_TConcaveMF>:
/*============================================================================*/
static float qFIS_TConcaveMF( const qFIS_IO_Base_t * const in,
                              const float *p,
                              const size_t n )
{
 800437a:	b590      	push	{r4, r7, lr}
 800437c:	b087      	sub	sp, #28
 800437e:	af00      	add	r7, sp, #0
 8004380:	60f8      	str	r0, [r7, #12]
 8004382:	60b9      	str	r1, [r7, #8]
 8004384:	607a      	str	r2, [r7, #4]
    float i, e;

    i = p[ 0 ];
 8004386:	68bb      	ldr	r3, [r7, #8]
 8004388:	681b      	ldr	r3, [r3, #0]
 800438a:	617b      	str	r3, [r7, #20]
    e = p[ 1 ];
 800438c:	68bb      	ldr	r3, [r7, #8]
 800438e:	3304      	adds	r3, #4
 8004390:	681b      	ldr	r3, [r3, #0]
 8004392:	613b      	str	r3, [r7, #16]

    return ( ( i - e )/qFIS_ConcaveMF( in, p, n ) ) + ( 2.0f*e ) - i;
 8004394:	6939      	ldr	r1, [r7, #16]
 8004396:	6978      	ldr	r0, [r7, #20]
 8004398:	f7fc fbca 	bl	8000b30 <__aeabi_fsub>
 800439c:	4603      	mov	r3, r0
 800439e:	461c      	mov	r4, r3
 80043a0:	687a      	ldr	r2, [r7, #4]
 80043a2:	68b9      	ldr	r1, [r7, #8]
 80043a4:	68f8      	ldr	r0, [r7, #12]
 80043a6:	f7ff ff7a 	bl	800429e <qFIS_ConcaveMF>
 80043aa:	4603      	mov	r3, r0
 80043ac:	4619      	mov	r1, r3
 80043ae:	4620      	mov	r0, r4
 80043b0:	f7fc fd7c 	bl	8000eac <__aeabi_fdiv>
 80043b4:	4603      	mov	r3, r0
 80043b6:	461c      	mov	r4, r3
 80043b8:	693b      	ldr	r3, [r7, #16]
 80043ba:	4619      	mov	r1, r3
 80043bc:	4618      	mov	r0, r3
 80043be:	f7fc fbb9 	bl	8000b34 <__addsf3>
 80043c2:	4603      	mov	r3, r0
 80043c4:	4619      	mov	r1, r3
 80043c6:	4620      	mov	r0, r4
 80043c8:	f7fc fbb4 	bl	8000b34 <__addsf3>
 80043cc:	4603      	mov	r3, r0
 80043ce:	6979      	ldr	r1, [r7, #20]
 80043d0:	4618      	mov	r0, r3
 80043d2:	f7fc fbad 	bl	8000b30 <__aeabi_fsub>
 80043d6:	4603      	mov	r3, r0
}
 80043d8:	4618      	mov	r0, r3
 80043da:	371c      	adds	r7, #28
 80043dc:	46bd      	mov	sp, r7
 80043de:	bd90      	pop	{r4, r7, pc}

080043e0 <qFIS_SpikeMF>:
/*============================================================================*/
static float qFIS_SpikeMF( const qFIS_IO_Base_t * const in,
                           const float *p,
                           const size_t n )
{
 80043e0:	b580      	push	{r7, lr}
 80043e2:	b088      	sub	sp, #32
 80043e4:	af00      	add	r7, sp, #0
 80043e6:	60f8      	str	r0, [r7, #12]
 80043e8:	60b9      	str	r1, [r7, #8]
 80043ea:	607a      	str	r2, [r7, #4]
    float x = in[ 0 ].value;
 80043ec:	68fb      	ldr	r3, [r7, #12]
 80043ee:	689b      	ldr	r3, [r3, #8]
 80043f0:	61fb      	str	r3, [r7, #28]
    float w, c;
    (void)n;

    w = p[ 0 ];
 80043f2:	68bb      	ldr	r3, [r7, #8]
 80043f4:	681b      	ldr	r3, [r3, #0]
 80043f6:	61bb      	str	r3, [r7, #24]
    c = p[ 1 ];
 80043f8:	68bb      	ldr	r3, [r7, #8]
 80043fa:	3304      	adds	r3, #4
 80043fc:	681b      	ldr	r3, [r3, #0]
 80043fe:	617b      	str	r3, [r7, #20]

    return QLIB_EXP( -QLIB_ABS( 10.0f*( x - c )/w ) );
 8004400:	6979      	ldr	r1, [r7, #20]
 8004402:	69f8      	ldr	r0, [r7, #28]
 8004404:	f7fc fb94 	bl	8000b30 <__aeabi_fsub>
 8004408:	4603      	mov	r3, r0
 800440a:	490c      	ldr	r1, [pc, #48]	; (800443c <qFIS_SpikeMF+0x5c>)
 800440c:	4618      	mov	r0, r3
 800440e:	f7fc fc99 	bl	8000d44 <__aeabi_fmul>
 8004412:	4603      	mov	r3, r0
 8004414:	69b9      	ldr	r1, [r7, #24]
 8004416:	4618      	mov	r0, r3
 8004418:	f7fc fd48 	bl	8000eac <__aeabi_fdiv>
 800441c:	4603      	mov	r3, r0
 800441e:	4618      	mov	r0, r3
 8004420:	f7fe f890 	bl	8002544 <qFFMath_Abs>
 8004424:	4603      	mov	r3, r0
 8004426:	f083 4300 	eor.w	r3, r3, #2147483648	; 0x80000000
 800442a:	4618      	mov	r0, r3
 800442c:	f7fe fa14 	bl	8002858 <qFFMath_Exp>
 8004430:	4603      	mov	r3, r0
}
 8004432:	4618      	mov	r0, r3
 8004434:	3720      	adds	r7, #32
 8004436:	46bd      	mov	sp, r7
 8004438:	bd80      	pop	{r7, pc}
 800443a:	bf00      	nop
 800443c:	41200000 	.word	0x41200000

08004440 <qFIS_TLinSMF>:
/*============================================================================*/
static float qFIS_TLinSMF( const qFIS_IO_Base_t * const in,
                           const float *p,
                           const size_t n )
{
 8004440:	b580      	push	{r7, lr}
 8004442:	b088      	sub	sp, #32
 8004444:	af00      	add	r7, sp, #0
 8004446:	60f8      	str	r0, [r7, #12]
 8004448:	60b9      	str	r1, [r7, #8]
 800444a:	607a      	str	r2, [r7, #4]
    float x = in[ 0 ].value;
 800444c:	68fb      	ldr	r3, [r7, #12]
 800444e:	689b      	ldr	r3, [r3, #8]
 8004450:	61fb      	str	r3, [r7, #28]
    float a, b;
    (void)n;

    a = p[ 0 ];
 8004452:	68bb      	ldr	r3, [r7, #8]
 8004454:	681b      	ldr	r3, [r3, #0]
 8004456:	61bb      	str	r3, [r7, #24]
    b = p[ 1 ];
 8004458:	68bb      	ldr	r3, [r7, #8]
 800445a:	3304      	adds	r3, #4
 800445c:	681b      	ldr	r3, [r3, #0]
 800445e:	617b      	str	r3, [r7, #20]

    return ( ( b - a )*x ) + a;
 8004460:	69b9      	ldr	r1, [r7, #24]
 8004462:	6978      	ldr	r0, [r7, #20]
 8004464:	f7fc fb64 	bl	8000b30 <__aeabi_fsub>
 8004468:	4603      	mov	r3, r0
 800446a:	69f9      	ldr	r1, [r7, #28]
 800446c:	4618      	mov	r0, r3
 800446e:	f7fc fc69 	bl	8000d44 <__aeabi_fmul>
 8004472:	4603      	mov	r3, r0
 8004474:	69b9      	ldr	r1, [r7, #24]
 8004476:	4618      	mov	r0, r3
 8004478:	f7fc fb5c 	bl	8000b34 <__addsf3>
 800447c:	4603      	mov	r3, r0
}
 800447e:	4618      	mov	r0, r3
 8004480:	3720      	adds	r7, #32
 8004482:	46bd      	mov	sp, r7
 8004484:	bd80      	pop	{r7, pc}

08004486 <qFIS_TLinZMF>:
/*============================================================================*/
static float qFIS_TLinZMF( const qFIS_IO_Base_t * const in,
                           const float *p,
                           const size_t n )
{
 8004486:	b580      	push	{r7, lr}
 8004488:	b088      	sub	sp, #32
 800448a:	af00      	add	r7, sp, #0
 800448c:	60f8      	str	r0, [r7, #12]
 800448e:	60b9      	str	r1, [r7, #8]
 8004490:	607a      	str	r2, [r7, #4]
    float x = in[ 0 ].value;
 8004492:	68fb      	ldr	r3, [r7, #12]
 8004494:	689b      	ldr	r3, [r3, #8]
 8004496:	61fb      	str	r3, [r7, #28]
    float a, b;
    (void)n;

    a = p[ 0 ];
 8004498:	68bb      	ldr	r3, [r7, #8]
 800449a:	681b      	ldr	r3, [r3, #0]
 800449c:	61bb      	str	r3, [r7, #24]
    b = p[ 1 ];
 800449e:	68bb      	ldr	r3, [r7, #8]
 80044a0:	3304      	adds	r3, #4
 80044a2:	681b      	ldr	r3, [r3, #0]
 80044a4:	617b      	str	r3, [r7, #20]

    return + a - ( ( a - b )*x );
 80044a6:	6979      	ldr	r1, [r7, #20]
 80044a8:	69b8      	ldr	r0, [r7, #24]
 80044aa:	f7fc fb41 	bl	8000b30 <__aeabi_fsub>
 80044ae:	4603      	mov	r3, r0
 80044b0:	69f9      	ldr	r1, [r7, #28]
 80044b2:	4618      	mov	r0, r3
 80044b4:	f7fc fc46 	bl	8000d44 <__aeabi_fmul>
 80044b8:	4603      	mov	r3, r0
 80044ba:	4619      	mov	r1, r3
 80044bc:	69b8      	ldr	r0, [r7, #24]
 80044be:	f7fc fb37 	bl	8000b30 <__aeabi_fsub>
 80044c2:	4603      	mov	r3, r0
}
 80044c4:	4618      	mov	r0, r3
 80044c6:	3720      	adds	r7, #32
 80044c8:	46bd      	mov	sp, r7
 80044ca:	bd80      	pop	{r7, pc}

080044cc <qFIS_RectangleMF>:
/*============================================================================*/
static float qFIS_RectangleMF( const qFIS_IO_Base_t * const in,
                               const float *p,
                               const size_t n )
{
 80044cc:	b580      	push	{r7, lr}
 80044ce:	b088      	sub	sp, #32
 80044d0:	af00      	add	r7, sp, #0
 80044d2:	60f8      	str	r0, [r7, #12]
 80044d4:	60b9      	str	r1, [r7, #8]
 80044d6:	607a      	str	r2, [r7, #4]
    float x = in[ 0 ].value;
 80044d8:	68fb      	ldr	r3, [r7, #12]
 80044da:	689b      	ldr	r3, [r3, #8]
 80044dc:	61fb      	str	r3, [r7, #28]
    float s, e;
    (void)n;

    s = p[ 0 ];
 80044de:	68bb      	ldr	r3, [r7, #8]
 80044e0:	681b      	ldr	r3, [r3, #0]
 80044e2:	61bb      	str	r3, [r7, #24]
    e = p[ 1 ];
 80044e4:	68bb      	ldr	r3, [r7, #8]
 80044e6:	3304      	adds	r3, #4
 80044e8:	681b      	ldr	r3, [r3, #0]
 80044ea:	617b      	str	r3, [r7, #20]

    return ( ( x >= s ) && ( x <= e ) ) ? 1.0f : 0.0f;
 80044ec:	69b9      	ldr	r1, [r7, #24]
 80044ee:	69f8      	ldr	r0, [r7, #28]
 80044f0:	f7fc fdda 	bl	80010a8 <__aeabi_fcmpge>
 80044f4:	4603      	mov	r3, r0
 80044f6:	2b00      	cmp	r3, #0
 80044f8:	d009      	beq.n	800450e <qFIS_RectangleMF+0x42>
 80044fa:	6979      	ldr	r1, [r7, #20]
 80044fc:	69f8      	ldr	r0, [r7, #28]
 80044fe:	f7fc fdc9 	bl	8001094 <__aeabi_fcmple>
 8004502:	4603      	mov	r3, r0
 8004504:	2b00      	cmp	r3, #0
 8004506:	d002      	beq.n	800450e <qFIS_RectangleMF+0x42>
 8004508:	f04f 537e 	mov.w	r3, #1065353216	; 0x3f800000
 800450c:	e001      	b.n	8004512 <qFIS_RectangleMF+0x46>
 800450e:	f04f 0300 	mov.w	r3, #0
}
 8004512:	4618      	mov	r0, r3
 8004514:	3720      	adds	r7, #32
 8004516:	46bd      	mov	sp, r7
 8004518:	bd80      	pop	{r7, pc}
	...

0800451c <qFIS_CosineMF>:
/*============================================================================*/
static float qFIS_CosineMF( const qFIS_IO_Base_t * const in,
                            const float *p,
                            const size_t n )
{
 800451c:	e92d 43b0 	stmdb	sp!, {r4, r5, r7, r8, r9, lr}
 8004520:	b08a      	sub	sp, #40	; 0x28
 8004522:	af00      	add	r7, sp, #0
 8004524:	60f8      	str	r0, [r7, #12]
 8004526:	60b9      	str	r1, [r7, #8]
 8004528:	607a      	str	r2, [r7, #4]
    float x = in[ 0 ].value;
 800452a:	68fb      	ldr	r3, [r7, #12]
 800452c:	689b      	ldr	r3, [r3, #8]
 800452e:	623b      	str	r3, [r7, #32]
    float c, w, y;
    const float pi = 3.14159265358979323846f;
 8004530:	4b36      	ldr	r3, [pc, #216]	; (800460c <qFIS_CosineMF+0xf0>)
 8004532:	61fb      	str	r3, [r7, #28]
    (void)n;

    c = p[ 0 ];
 8004534:	68bb      	ldr	r3, [r7, #8]
 8004536:	681b      	ldr	r3, [r3, #0]
 8004538:	61bb      	str	r3, [r7, #24]
    w = p[ 1 ];
 800453a:	68bb      	ldr	r3, [r7, #8]
 800453c:	3304      	adds	r3, #4
 800453e:	681b      	ldr	r3, [r3, #0]
 8004540:	617b      	str	r3, [r7, #20]
    if ( ( x < ( c - ( 0.5*w ) ) ) || ( x > ( c + ( 0.5f*w ) ) ) ) {
 8004542:	6a38      	ldr	r0, [r7, #32]
 8004544:	f7fb ff70 	bl	8000428 <__aeabi_f2d>
 8004548:	4604      	mov	r4, r0
 800454a:	460d      	mov	r5, r1
 800454c:	69b8      	ldr	r0, [r7, #24]
 800454e:	f7fb ff6b 	bl	8000428 <__aeabi_f2d>
 8004552:	4680      	mov	r8, r0
 8004554:	4689      	mov	r9, r1
 8004556:	6978      	ldr	r0, [r7, #20]
 8004558:	f7fb ff66 	bl	8000428 <__aeabi_f2d>
 800455c:	f04f 0200 	mov.w	r2, #0
 8004560:	4b2b      	ldr	r3, [pc, #172]	; (8004610 <qFIS_CosineMF+0xf4>)
 8004562:	f7fb ffb9 	bl	80004d8 <__aeabi_dmul>
 8004566:	4602      	mov	r2, r0
 8004568:	460b      	mov	r3, r1
 800456a:	4640      	mov	r0, r8
 800456c:	4649      	mov	r1, r9
 800456e:	f7fb fdfb 	bl	8000168 <__aeabi_dsub>
 8004572:	4602      	mov	r2, r0
 8004574:	460b      	mov	r3, r1
 8004576:	4620      	mov	r0, r4
 8004578:	4629      	mov	r1, r5
 800457a:	f7fc fa1f 	bl	80009bc <__aeabi_dcmplt>
 800457e:	4603      	mov	r3, r0
 8004580:	2b00      	cmp	r3, #0
 8004582:	d111      	bne.n	80045a8 <qFIS_CosineMF+0x8c>
 8004584:	f04f 517c 	mov.w	r1, #1056964608	; 0x3f000000
 8004588:	6978      	ldr	r0, [r7, #20]
 800458a:	f7fc fbdb 	bl	8000d44 <__aeabi_fmul>
 800458e:	4603      	mov	r3, r0
 8004590:	69b9      	ldr	r1, [r7, #24]
 8004592:	4618      	mov	r0, r3
 8004594:	f7fc face 	bl	8000b34 <__addsf3>
 8004598:	4603      	mov	r3, r0
 800459a:	4619      	mov	r1, r3
 800459c:	6a38      	ldr	r0, [r7, #32]
 800459e:	f7fc fd8d 	bl	80010bc <__aeabi_fcmpgt>
 80045a2:	4603      	mov	r3, r0
 80045a4:	2b00      	cmp	r3, #0
 80045a6:	d003      	beq.n	80045b0 <qFIS_CosineMF+0x94>
        y = 0.0f;
 80045a8:	f04f 0300 	mov.w	r3, #0
 80045ac:	627b      	str	r3, [r7, #36]	; 0x24
 80045ae:	e026      	b.n	80045fe <qFIS_CosineMF+0xe2>
    }
    else {
        y = 0.5f*( 1.0f + QLIB_COS( 2.0f/w*pi*( x - c) ) );
 80045b0:	6979      	ldr	r1, [r7, #20]
 80045b2:	f04f 4080 	mov.w	r0, #1073741824	; 0x40000000
 80045b6:	f7fc fc79 	bl	8000eac <__aeabi_fdiv>
 80045ba:	4603      	mov	r3, r0
 80045bc:	69f9      	ldr	r1, [r7, #28]
 80045be:	4618      	mov	r0, r3
 80045c0:	f7fc fbc0 	bl	8000d44 <__aeabi_fmul>
 80045c4:	4603      	mov	r3, r0
 80045c6:	461c      	mov	r4, r3
 80045c8:	69b9      	ldr	r1, [r7, #24]
 80045ca:	6a38      	ldr	r0, [r7, #32]
 80045cc:	f7fc fab0 	bl	8000b30 <__aeabi_fsub>
 80045d0:	4603      	mov	r3, r0
 80045d2:	4619      	mov	r1, r3
 80045d4:	4620      	mov	r0, r4
 80045d6:	f7fc fbb5 	bl	8000d44 <__aeabi_fmul>
 80045da:	4603      	mov	r3, r0
 80045dc:	4618      	mov	r0, r3
 80045de:	f7fe f857 	bl	8002690 <qFFMath_Cos>
 80045e2:	4603      	mov	r3, r0
 80045e4:	f04f 517e 	mov.w	r1, #1065353216	; 0x3f800000
 80045e8:	4618      	mov	r0, r3
 80045ea:	f7fc faa3 	bl	8000b34 <__addsf3>
 80045ee:	4603      	mov	r3, r0
 80045f0:	f04f 517c 	mov.w	r1, #1056964608	; 0x3f000000
 80045f4:	4618      	mov	r0, r3
 80045f6:	f7fc fba5 	bl	8000d44 <__aeabi_fmul>
 80045fa:	4603      	mov	r3, r0
 80045fc:	627b      	str	r3, [r7, #36]	; 0x24
    }

    return y;
 80045fe:	6a7b      	ldr	r3, [r7, #36]	; 0x24
}
 8004600:	4618      	mov	r0, r3
 8004602:	3728      	adds	r7, #40	; 0x28
 8004604:	46bd      	mov	sp, r7
 8004606:	e8bd 83b0 	ldmia.w	sp!, {r4, r5, r7, r8, r9, pc}
 800460a:	bf00      	nop
 800460c:	40490fdb 	.word	0x40490fdb
 8004610:	3fe00000 	.word	0x3fe00000

08004614 <qFIS_ConstantMF>:
/*============================================================================*/
static float qFIS_ConstantMF( const qFIS_IO_Base_t * const in,
                              const float *p,
                              const size_t n )
{
 8004614:	b480      	push	{r7}
 8004616:	b085      	sub	sp, #20
 8004618:	af00      	add	r7, sp, #0
 800461a:	60f8      	str	r0, [r7, #12]
 800461c:	60b9      	str	r1, [r7, #8]
 800461e:	607a      	str	r2, [r7, #4]
    (void)in;
    (void)n;
    return p[ 0 ];
 8004620:	68bb      	ldr	r3, [r7, #8]
 8004622:	681b      	ldr	r3, [r3, #0]
}
 8004624:	4618      	mov	r0, r3
 8004626:	3714      	adds	r7, #20
 8004628:	46bd      	mov	sp, r7
 800462a:	bc80      	pop	{r7}
 800462c:	4770      	bx	lr

0800462e <qFIS_LinearMF>:
/*============================================================================*/
static float qFIS_LinearMF( const qFIS_IO_Base_t * const in,
                            const float *p,
                            const size_t n )
{
 800462e:	b580      	push	{r7, lr}
 8004630:	b086      	sub	sp, #24
 8004632:	af00      	add	r7, sp, #0
 8004634:	60f8      	str	r0, [r7, #12]
 8004636:	60b9      	str	r1, [r7, #8]
 8004638:	607a      	str	r2, [r7, #4]
    float px = 0.0f;
 800463a:	f04f 0300 	mov.w	r3, #0
 800463e:	617b      	str	r3, [r7, #20]
    size_t i;

    for ( i = 0u ; i < n ; ++i ) {
 8004640:	2300      	movs	r3, #0
 8004642:	613b      	str	r3, [r7, #16]
 8004644:	e01a      	b.n	800467c <qFIS_LinearMF+0x4e>
        px += in[ i ].value*p[ i ];
 8004646:	693a      	ldr	r2, [r7, #16]
 8004648:	4613      	mov	r3, r2
 800464a:	005b      	lsls	r3, r3, #1
 800464c:	4413      	add	r3, r2
 800464e:	009b      	lsls	r3, r3, #2
 8004650:	461a      	mov	r2, r3
 8004652:	68fb      	ldr	r3, [r7, #12]
 8004654:	4413      	add	r3, r2
 8004656:	6898      	ldr	r0, [r3, #8]
 8004658:	693b      	ldr	r3, [r7, #16]
 800465a:	009b      	lsls	r3, r3, #2
 800465c:	68ba      	ldr	r2, [r7, #8]
 800465e:	4413      	add	r3, r2
 8004660:	681b      	ldr	r3, [r3, #0]
 8004662:	4619      	mov	r1, r3
 8004664:	f7fc fb6e 	bl	8000d44 <__aeabi_fmul>
 8004668:	4603      	mov	r3, r0
 800466a:	4619      	mov	r1, r3
 800466c:	6978      	ldr	r0, [r7, #20]
 800466e:	f7fc fa61 	bl	8000b34 <__addsf3>
 8004672:	4603      	mov	r3, r0
 8004674:	617b      	str	r3, [r7, #20]
    for ( i = 0u ; i < n ; ++i ) {
 8004676:	693b      	ldr	r3, [r7, #16]
 8004678:	3301      	adds	r3, #1
 800467a:	613b      	str	r3, [r7, #16]
 800467c:	693a      	ldr	r2, [r7, #16]
 800467e:	687b      	ldr	r3, [r7, #4]
 8004680:	429a      	cmp	r2, r3
 8004682:	d3e0      	bcc.n	8004646 <qFIS_LinearMF+0x18>
    }
    px += p[ i ];
 8004684:	693b      	ldr	r3, [r7, #16]
 8004686:	009b      	lsls	r3, r3, #2
 8004688:	68ba      	ldr	r2, [r7, #8]
 800468a:	4413      	add	r3, r2
 800468c:	681b      	ldr	r3, [r3, #0]
 800468e:	4619      	mov	r1, r3
 8004690:	6978      	ldr	r0, [r7, #20]
 8004692:	f7fc fa4f 	bl	8000b34 <__addsf3>
 8004696:	4603      	mov	r3, r0
 8004698:	617b      	str	r3, [r7, #20]

    return px;
 800469a:	697b      	ldr	r3, [r7, #20]
}
 800469c:	4618      	mov	r0, r3
 800469e:	3718      	adds	r7, #24
 80046a0:	46bd      	mov	sp, r7
 80046a2:	bd80      	pop	{r7, pc}

080046a4 <qFIS_Min>:
/*============================================================================*/
static float qFIS_Min( const float a,
                       const float b )
{
 80046a4:	b580      	push	{r7, lr}
 80046a6:	b082      	sub	sp, #8
 80046a8:	af00      	add	r7, sp, #0
 80046aa:	6078      	str	r0, [r7, #4]
 80046ac:	6039      	str	r1, [r7, #0]
    return qFIS_Bound( ( a < b ) ? a : b, 0.0f, 1.0f );
 80046ae:	6839      	ldr	r1, [r7, #0]
 80046b0:	6878      	ldr	r0, [r7, #4]
 80046b2:	f7fc fce5 	bl	8001080 <__aeabi_fcmplt>
 80046b6:	4603      	mov	r3, r0
 80046b8:	2b00      	cmp	r3, #0
 80046ba:	d001      	beq.n	80046c0 <qFIS_Min+0x1c>
 80046bc:	687b      	ldr	r3, [r7, #4]
 80046be:	e000      	b.n	80046c2 <qFIS_Min+0x1e>
 80046c0:	683b      	ldr	r3, [r7, #0]
 80046c2:	f04f 527e 	mov.w	r2, #1065353216	; 0x3f800000
 80046c6:	f04f 0100 	mov.w	r1, #0
 80046ca:	4618      	mov	r0, r3
 80046cc:	f000 f86d 	bl	80047aa <qFIS_Bound>
 80046d0:	4603      	mov	r3, r0
}
 80046d2:	4618      	mov	r0, r3
 80046d4:	3708      	adds	r7, #8
 80046d6:	46bd      	mov	sp, r7
 80046d8:	bd80      	pop	{r7, pc}

080046da <qFIS_Max>:
/*============================================================================*/
static float qFIS_Max( const float a,
                       const float b )
{
 80046da:	b580      	push	{r7, lr}
 80046dc:	b082      	sub	sp, #8
 80046de:	af00      	add	r7, sp, #0
 80046e0:	6078      	str	r0, [r7, #4]
 80046e2:	6039      	str	r1, [r7, #0]
    return qFIS_Bound( ( a > b ) ? a : b, 0.0f, 1.0f );
 80046e4:	6839      	ldr	r1, [r7, #0]
 80046e6:	6878      	ldr	r0, [r7, #4]
 80046e8:	f7fc fce8 	bl	80010bc <__aeabi_fcmpgt>
 80046ec:	4603      	mov	r3, r0
 80046ee:	2b00      	cmp	r3, #0
 80046f0:	d001      	beq.n	80046f6 <qFIS_Max+0x1c>
 80046f2:	687b      	ldr	r3, [r7, #4]
 80046f4:	e000      	b.n	80046f8 <qFIS_Max+0x1e>
 80046f6:	683b      	ldr	r3, [r7, #0]
 80046f8:	f04f 527e 	mov.w	r2, #1065353216	; 0x3f800000
 80046fc:	f04f 0100 	mov.w	r1, #0
 8004700:	4618      	mov	r0, r3
 8004702:	f000 f852 	bl	80047aa <qFIS_Bound>
 8004706:	4603      	mov	r3, r0
}
 8004708:	4618      	mov	r0, r3
 800470a:	3708      	adds	r7, #8
 800470c:	46bd      	mov	sp, r7
 800470e:	bd80      	pop	{r7, pc}

08004710 <qFIS_Prod>:
/*============================================================================*/
static float qFIS_Prod( const float a,
                        const float b )
{
 8004710:	b580      	push	{r7, lr}
 8004712:	b082      	sub	sp, #8
 8004714:	af00      	add	r7, sp, #0
 8004716:	6078      	str	r0, [r7, #4]
 8004718:	6039      	str	r1, [r7, #0]
    return qFIS_Bound( a*b, 0.0f, 1.0f );
 800471a:	6839      	ldr	r1, [r7, #0]
 800471c:	6878      	ldr	r0, [r7, #4]
 800471e:	f7fc fb11 	bl	8000d44 <__aeabi_fmul>
 8004722:	4603      	mov	r3, r0
 8004724:	f04f 527e 	mov.w	r2, #1065353216	; 0x3f800000
 8004728:	f04f 0100 	mov.w	r1, #0
 800472c:	4618      	mov	r0, r3
 800472e:	f000 f83c 	bl	80047aa <qFIS_Bound>
 8004732:	4603      	mov	r3, r0
}
 8004734:	4618      	mov	r0, r3
 8004736:	3708      	adds	r7, #8
 8004738:	46bd      	mov	sp, r7
 800473a:	bd80      	pop	{r7, pc}

0800473c <qFIS_ProbOR>:
/*============================================================================*/
static float qFIS_ProbOR( const float a,
                          const float b )
{
 800473c:	b590      	push	{r4, r7, lr}
 800473e:	b083      	sub	sp, #12
 8004740:	af00      	add	r7, sp, #0
 8004742:	6078      	str	r0, [r7, #4]
 8004744:	6039      	str	r1, [r7, #0]
    return qFIS_Bound( a + b - ( a*b ), 0.0f, 1.0f );
 8004746:	6839      	ldr	r1, [r7, #0]
 8004748:	6878      	ldr	r0, [r7, #4]
 800474a:	f7fc f9f3 	bl	8000b34 <__addsf3>
 800474e:	4603      	mov	r3, r0
 8004750:	461c      	mov	r4, r3
 8004752:	6839      	ldr	r1, [r7, #0]
 8004754:	6878      	ldr	r0, [r7, #4]
 8004756:	f7fc faf5 	bl	8000d44 <__aeabi_fmul>
 800475a:	4603      	mov	r3, r0
 800475c:	4619      	mov	r1, r3
 800475e:	4620      	mov	r0, r4
 8004760:	f7fc f9e6 	bl	8000b30 <__aeabi_fsub>
 8004764:	4603      	mov	r3, r0
 8004766:	f04f 527e 	mov.w	r2, #1065353216	; 0x3f800000
 800476a:	f04f 0100 	mov.w	r1, #0
 800476e:	4618      	mov	r0, r3
 8004770:	f000 f81b 	bl	80047aa <qFIS_Bound>
 8004774:	4603      	mov	r3, r0
}
 8004776:	4618      	mov	r0, r3
 8004778:	370c      	adds	r7, #12
 800477a:	46bd      	mov	sp, r7
 800477c:	bd90      	pop	{r4, r7, pc}

0800477e <qFIS_Sum>:
/*============================================================================*/
static float qFIS_Sum( const float a,
                       const float b )
{
 800477e:	b580      	push	{r7, lr}
 8004780:	b082      	sub	sp, #8
 8004782:	af00      	add	r7, sp, #0
 8004784:	6078      	str	r0, [r7, #4]
 8004786:	6039      	str	r1, [r7, #0]
    return qFIS_Bound( a + b, 0.0f, 1.0f );
 8004788:	6839      	ldr	r1, [r7, #0]
 800478a:	6878      	ldr	r0, [r7, #4]
 800478c:	f7fc f9d2 	bl	8000b34 <__addsf3>
 8004790:	4603      	mov	r3, r0
 8004792:	f04f 527e 	mov.w	r2, #1065353216	; 0x3f800000
 8004796:	f04f 0100 	mov.w	r1, #0
 800479a:	4618      	mov	r0, r3
 800479c:	f000 f805 	bl	80047aa <qFIS_Bound>
 80047a0:	4603      	mov	r3, r0
}
 80047a2:	4618      	mov	r0, r3
 80047a4:	3708      	adds	r7, #8
 80047a6:	46bd      	mov	sp, r7
 80047a8:	bd80      	pop	{r7, pc}

080047aa <qFIS_Bound>:
/*============================================================================*/
static float qFIS_Bound( float y,
                         const float yMin,
                         const float yMax )
{
 80047aa:	b580      	push	{r7, lr}
 80047ac:	b084      	sub	sp, #16
 80047ae:	af00      	add	r7, sp, #0
 80047b0:	60f8      	str	r0, [r7, #12]
 80047b2:	60b9      	str	r1, [r7, #8]
 80047b4:	607a      	str	r2, [r7, #4]
    (void)qFMathEx_InRangeCoerce( &y, yMin, yMax );
 80047b6:	f107 030c 	add.w	r3, r7, #12
 80047ba:	687a      	ldr	r2, [r7, #4]
 80047bc:	68b9      	ldr	r1, [r7, #8]
 80047be:	4618      	mov	r0, r3
 80047c0:	f000 f805 	bl	80047ce <qFMathEx_InRangeCoerce>

    return y;
 80047c4:	68fb      	ldr	r3, [r7, #12]
}
 80047c6:	4618      	mov	r0, r3
 80047c8:	3710      	adds	r7, #16
 80047ca:	46bd      	mov	sp, r7
 80047cc:	bd80      	pop	{r7, pc}

080047ce <qFMathEx_InRangeCoerce>:
}
/*============================================================================*/
bool qFMathEx_InRangeCoerce( float * const x,
                             const float lowerL,
                             const float upperL )
{
 80047ce:	b580      	push	{r7, lr}
 80047d0:	b086      	sub	sp, #24
 80047d2:	af00      	add	r7, sp, #0
 80047d4:	60f8      	str	r0, [r7, #12]
 80047d6:	60b9      	str	r1, [r7, #8]
 80047d8:	607a      	str	r2, [r7, #4]
    bool retVal = false;
 80047da:	2300      	movs	r3, #0
 80047dc:	75fb      	strb	r3, [r7, #23]

    if ( 1 == (int)QLIB_ISNAN( x[ 0 ] ) ) {
 80047de:	68fb      	ldr	r3, [r7, #12]
 80047e0:	681b      	ldr	r3, [r3, #0]
 80047e2:	4618      	mov	r0, r3
 80047e4:	f7fd fe9d 	bl	8002522 <qFFMath_IsNaN>
 80047e8:	4603      	mov	r3, r0
 80047ea:	2b00      	cmp	r3, #0
 80047ec:	d003      	beq.n	80047f6 <qFMathEx_InRangeCoerce+0x28>
        x[ 0 ] = lowerL;
 80047ee:	68fb      	ldr	r3, [r7, #12]
 80047f0:	68ba      	ldr	r2, [r7, #8]
 80047f2:	601a      	str	r2, [r3, #0]
 80047f4:	e01b      	b.n	800482e <qFMathEx_InRangeCoerce+0x60>
    }
    else {
        if ( x[ 0 ] < lowerL ) {
 80047f6:	68fb      	ldr	r3, [r7, #12]
 80047f8:	681b      	ldr	r3, [r3, #0]
 80047fa:	4619      	mov	r1, r3
 80047fc:	68b8      	ldr	r0, [r7, #8]
 80047fe:	f7fc fc5d 	bl	80010bc <__aeabi_fcmpgt>
 8004802:	4603      	mov	r3, r0
 8004804:	2b00      	cmp	r3, #0
 8004806:	d003      	beq.n	8004810 <qFMathEx_InRangeCoerce+0x42>
            x[ 0 ] = lowerL;
 8004808:	68fb      	ldr	r3, [r7, #12]
 800480a:	68ba      	ldr	r2, [r7, #8]
 800480c:	601a      	str	r2, [r3, #0]
 800480e:	e00e      	b.n	800482e <qFMathEx_InRangeCoerce+0x60>
        }
        else if ( x[ 0 ] > upperL ) {
 8004810:	68fb      	ldr	r3, [r7, #12]
 8004812:	681b      	ldr	r3, [r3, #0]
 8004814:	4619      	mov	r1, r3
 8004816:	6878      	ldr	r0, [r7, #4]
 8004818:	f7fc fc32 	bl	8001080 <__aeabi_fcmplt>
 800481c:	4603      	mov	r3, r0
 800481e:	2b00      	cmp	r3, #0
 8004820:	d003      	beq.n	800482a <qFMathEx_InRangeCoerce+0x5c>
            x[ 0 ] = upperL;
 8004822:	68fb      	ldr	r3, [r7, #12]
 8004824:	687a      	ldr	r2, [r7, #4]
 8004826:	601a      	str	r2, [r3, #0]
 8004828:	e001      	b.n	800482e <qFMathEx_InRangeCoerce+0x60>
        }
        else {
            retVal = true;
 800482a:	2301      	movs	r3, #1
 800482c:	75fb      	strb	r3, [r7, #23]
        }
    }

    return retVal;
 800482e:	7dfb      	ldrb	r3, [r7, #23]
}
 8004830:	4618      	mov	r0, r3
 8004832:	3718      	adds	r7, #24
 8004834:	46bd      	mov	sp, r7
 8004836:	bd80      	pop	{r7, pc}

08004838 <qFMathEx_AlmostEqual>:
/*============================================================================*/
bool qFMathEx_AlmostEqual( const float a,
                           const float b,
                           const float tol )
{
 8004838:	b5b0      	push	{r4, r5, r7, lr}
 800483a:	b084      	sub	sp, #16
 800483c:	af00      	add	r7, sp, #0
 800483e:	60f8      	str	r0, [r7, #12]
 8004840:	60b9      	str	r1, [r7, #8]
 8004842:	607a      	str	r2, [r7, #4]
    return ( QLIB_ABS( a - b ) <= QLIB_ABS( tol ) );
 8004844:	68b9      	ldr	r1, [r7, #8]
 8004846:	68f8      	ldr	r0, [r7, #12]
 8004848:	f7fc f972 	bl	8000b30 <__aeabi_fsub>
 800484c:	4603      	mov	r3, r0
 800484e:	4618      	mov	r0, r3
 8004850:	f7fd fe78 	bl	8002544 <qFFMath_Abs>
 8004854:	4604      	mov	r4, r0
 8004856:	6878      	ldr	r0, [r7, #4]
 8004858:	f7fd fe74 	bl	8002544 <qFFMath_Abs>
 800485c:	4603      	mov	r3, r0
 800485e:	2201      	movs	r2, #1
 8004860:	4615      	mov	r5, r2
 8004862:	4619      	mov	r1, r3
 8004864:	4620      	mov	r0, r4
 8004866:	f7fc fc15 	bl	8001094 <__aeabi_fcmple>
 800486a:	4603      	mov	r3, r0
 800486c:	2b00      	cmp	r3, #0
 800486e:	d101      	bne.n	8004874 <qFMathEx_AlmostEqual+0x3c>
 8004870:	2300      	movs	r3, #0
 8004872:	461d      	mov	r5, r3
 8004874:	b2eb      	uxtb	r3, r5
}
 8004876:	4618      	mov	r0, r3
 8004878:	3710      	adds	r7, #16
 800487a:	46bd      	mov	sp, r7
 800487c:	bdb0      	pop	{r4, r5, r7, pc}

0800487e <qFMathEx_Equal>:
/*============================================================================*/
bool qFMathEx_Equal( const float a,
                     const float b )
{
 800487e:	b580      	push	{r7, lr}
 8004880:	b082      	sub	sp, #8
 8004882:	af00      	add	r7, sp, #0
 8004884:	6078      	str	r0, [r7, #4]
 8004886:	6039      	str	r1, [r7, #0]
    return qFMathEx_AlmostEqual( a, b, FLT_MIN );
 8004888:	f44f 0200 	mov.w	r2, #8388608	; 0x800000
 800488c:	6839      	ldr	r1, [r7, #0]
 800488e:	6878      	ldr	r0, [r7, #4]
 8004890:	f7ff ffd2 	bl	8004838 <qFMathEx_AlmostEqual>
 8004894:	4603      	mov	r3, r0
}
 8004896:	4618      	mov	r0, r3
 8004898:	3708      	adds	r7, #8
 800489a:	46bd      	mov	sp, r7
 800489c:	bd80      	pop	{r7, pc}
	...

080048a0 <HAL_MspInit>:
void HAL_TIM_MspPostInit(TIM_HandleTypeDef *htim);
                                        /**
  * Initializes the Global MSP.
  */
void HAL_MspInit(void)
{
 80048a0:	b480      	push	{r7}
 80048a2:	b085      	sub	sp, #20
 80048a4:	af00      	add	r7, sp, #0
  /* USER CODE BEGIN MspInit 0 */

  /* USER CODE END MspInit 0 */

  __HAL_RCC_AFIO_CLK_ENABLE();
 80048a6:	4b15      	ldr	r3, [pc, #84]	; (80048fc <HAL_MspInit+0x5c>)
 80048a8:	699b      	ldr	r3, [r3, #24]
 80048aa:	4a14      	ldr	r2, [pc, #80]	; (80048fc <HAL_MspInit+0x5c>)
 80048ac:	f043 0301 	orr.w	r3, r3, #1
 80048b0:	6193      	str	r3, [r2, #24]
 80048b2:	4b12      	ldr	r3, [pc, #72]	; (80048fc <HAL_MspInit+0x5c>)
 80048b4:	699b      	ldr	r3, [r3, #24]
 80048b6:	f003 0301 	and.w	r3, r3, #1
 80048ba:	60bb      	str	r3, [r7, #8]
 80048bc:	68bb      	ldr	r3, [r7, #8]
  __HAL_RCC_PWR_CLK_ENABLE();
 80048be:	4b0f      	ldr	r3, [pc, #60]	; (80048fc <HAL_MspInit+0x5c>)
 80048c0:	69db      	ldr	r3, [r3, #28]
 80048c2:	4a0e      	ldr	r2, [pc, #56]	; (80048fc <HAL_MspInit+0x5c>)
 80048c4:	f043 5380 	orr.w	r3, r3, #268435456	; 0x10000000
 80048c8:	61d3      	str	r3, [r2, #28]
 80048ca:	4b0c      	ldr	r3, [pc, #48]	; (80048fc <HAL_MspInit+0x5c>)
 80048cc:	69db      	ldr	r3, [r3, #28]
 80048ce:	f003 5380 	and.w	r3, r3, #268435456	; 0x10000000
 80048d2:	607b      	str	r3, [r7, #4]
 80048d4:	687b      	ldr	r3, [r7, #4]

  /* System interrupt init*/

  /** NOJTAG: JTAG-DP Disabled and SW-DP Enabled
  */
  __HAL_AFIO_REMAP_SWJ_NOJTAG();
 80048d6:	4b0a      	ldr	r3, [pc, #40]	; (8004900 <HAL_MspInit+0x60>)
 80048d8:	685b      	ldr	r3, [r3, #4]
 80048da:	60fb      	str	r3, [r7, #12]
 80048dc:	68fb      	ldr	r3, [r7, #12]
 80048de:	f023 63e0 	bic.w	r3, r3, #117440512	; 0x7000000
 80048e2:	60fb      	str	r3, [r7, #12]
 80048e4:	68fb      	ldr	r3, [r7, #12]
 80048e6:	f043 7300 	orr.w	r3, r3, #33554432	; 0x2000000
 80048ea:	60fb      	str	r3, [r7, #12]
 80048ec:	4a04      	ldr	r2, [pc, #16]	; (8004900 <HAL_MspInit+0x60>)
 80048ee:	68fb      	ldr	r3, [r7, #12]
 80048f0:	6053      	str	r3, [r2, #4]

  /* USER CODE BEGIN MspInit 1 */

  /* USER CODE END MspInit 1 */
}
 80048f2:	bf00      	nop
 80048f4:	3714      	adds	r7, #20
 80048f6:	46bd      	mov	sp, r7
 80048f8:	bc80      	pop	{r7}
 80048fa:	4770      	bx	lr
 80048fc:	40021000 	.word	0x40021000
 8004900:	40010000 	.word	0x40010000

08004904 <HAL_I2C_MspInit>:
* This function configures the hardware resources used in this example
* @param hi2c: I2C handle pointer
* @retval None
*/
void HAL_I2C_MspInit(I2C_HandleTypeDef* hi2c)
{
 8004904:	b580      	push	{r7, lr}
 8004906:	b08a      	sub	sp, #40	; 0x28
 8004908:	af00      	add	r7, sp, #0
 800490a:	6078      	str	r0, [r7, #4]
  GPIO_InitTypeDef GPIO_InitStruct = {0};
 800490c:	f107 0314 	add.w	r3, r7, #20
 8004910:	2200      	movs	r2, #0
 8004912:	601a      	str	r2, [r3, #0]
 8004914:	605a      	str	r2, [r3, #4]
 8004916:	609a      	str	r2, [r3, #8]
 8004918:	60da      	str	r2, [r3, #12]
  if(hi2c->Instance==I2C1)
 800491a:	687b      	ldr	r3, [r7, #4]
 800491c:	681b      	ldr	r3, [r3, #0]
 800491e:	4a1d      	ldr	r2, [pc, #116]	; (8004994 <HAL_I2C_MspInit+0x90>)
 8004920:	4293      	cmp	r3, r2
 8004922:	d132      	bne.n	800498a <HAL_I2C_MspInit+0x86>
  {
  /* USER CODE BEGIN I2C1_MspInit 0 */

  /* USER CODE END I2C1_MspInit 0 */

    __HAL_RCC_GPIOB_CLK_ENABLE();
 8004924:	4b1c      	ldr	r3, [pc, #112]	; (8004998 <HAL_I2C_MspInit+0x94>)
 8004926:	699b      	ldr	r3, [r3, #24]
 8004928:	4a1b      	ldr	r2, [pc, #108]	; (8004998 <HAL_I2C_MspInit+0x94>)
 800492a:	f043 0308 	orr.w	r3, r3, #8
 800492e:	6193      	str	r3, [r2, #24]
 8004930:	4b19      	ldr	r3, [pc, #100]	; (8004998 <HAL_I2C_MspInit+0x94>)
 8004932:	699b      	ldr	r3, [r3, #24]
 8004934:	f003 0308 	and.w	r3, r3, #8
 8004938:	613b      	str	r3, [r7, #16]
 800493a:	693b      	ldr	r3, [r7, #16]
    /**I2C1 GPIO Configuration
    PB8     ------> I2C1_SCL
    PB9     ------> I2C1_SDA
    */
    GPIO_InitStruct.Pin = GPIO_PIN_8|GPIO_PIN_9;
 800493c:	f44f 7340 	mov.w	r3, #768	; 0x300
 8004940:	617b      	str	r3, [r7, #20]
    GPIO_InitStruct.Mode = GPIO_MODE_AF_OD;
 8004942:	2312      	movs	r3, #18
 8004944:	61bb      	str	r3, [r7, #24]
    GPIO_InitStruct.Speed = GPIO_SPEED_FREQ_HIGH;
 8004946:	2303      	movs	r3, #3
 8004948:	623b      	str	r3, [r7, #32]
    HAL_GPIO_Init(GPIOB, &GPIO_InitStruct);
 800494a:	f107 0314 	add.w	r3, r7, #20
 800494e:	4619      	mov	r1, r3
 8004950:	4812      	ldr	r0, [pc, #72]	; (800499c <HAL_I2C_MspInit+0x98>)
 8004952:	f000 fbf9 	bl	8005148 <HAL_GPIO_Init>

    __HAL_AFIO_REMAP_I2C1_ENABLE();
 8004956:	4b12      	ldr	r3, [pc, #72]	; (80049a0 <HAL_I2C_MspInit+0x9c>)
 8004958:	685b      	ldr	r3, [r3, #4]
 800495a:	627b      	str	r3, [r7, #36]	; 0x24
 800495c:	6a7b      	ldr	r3, [r7, #36]	; 0x24
 800495e:	f043 63e0 	orr.w	r3, r3, #117440512	; 0x7000000
 8004962:	627b      	str	r3, [r7, #36]	; 0x24
 8004964:	6a7b      	ldr	r3, [r7, #36]	; 0x24
 8004966:	f043 0302 	orr.w	r3, r3, #2
 800496a:	627b      	str	r3, [r7, #36]	; 0x24
 800496c:	4a0c      	ldr	r2, [pc, #48]	; (80049a0 <HAL_I2C_MspInit+0x9c>)
 800496e:	6a7b      	ldr	r3, [r7, #36]	; 0x24
 8004970:	6053      	str	r3, [r2, #4]

    /* Peripheral clock enable */
    __HAL_RCC_I2C1_CLK_ENABLE();
 8004972:	4b09      	ldr	r3, [pc, #36]	; (8004998 <HAL_I2C_MspInit+0x94>)
 8004974:	69db      	ldr	r3, [r3, #28]
 8004976:	4a08      	ldr	r2, [pc, #32]	; (8004998 <HAL_I2C_MspInit+0x94>)
 8004978:	f443 1300 	orr.w	r3, r3, #2097152	; 0x200000
 800497c:	61d3      	str	r3, [r2, #28]
 800497e:	4b06      	ldr	r3, [pc, #24]	; (8004998 <HAL_I2C_MspInit+0x94>)
 8004980:	69db      	ldr	r3, [r3, #28]
 8004982:	f403 1300 	and.w	r3, r3, #2097152	; 0x200000
 8004986:	60fb      	str	r3, [r7, #12]
 8004988:	68fb      	ldr	r3, [r7, #12]
  /* USER CODE BEGIN I2C1_MspInit 1 */

  /* USER CODE END I2C1_MspInit 1 */
  }

}
 800498a:	bf00      	nop
 800498c:	3728      	adds	r7, #40	; 0x28
 800498e:	46bd      	mov	sp, r7
 8004990:	bd80      	pop	{r7, pc}
 8004992:	bf00      	nop
 8004994:	40005400 	.word	0x40005400
 8004998:	40021000 	.word	0x40021000
 800499c:	40010c00 	.word	0x40010c00
 80049a0:	40010000 	.word	0x40010000

080049a4 <HAL_TIM_Base_MspInit>:
* This function configures the hardware resources used in this example
* @param htim_base: TIM_Base handle pointer
* @retval None
*/
void HAL_TIM_Base_MspInit(TIM_HandleTypeDef* htim_base)
{
 80049a4:	b580      	push	{r7, lr}
 80049a6:	b084      	sub	sp, #16
 80049a8:	af00      	add	r7, sp, #0
 80049aa:	6078      	str	r0, [r7, #4]
  if(htim_base->Instance==TIM1)
 80049ac:	687b      	ldr	r3, [r7, #4]
 80049ae:	681b      	ldr	r3, [r3, #0]
 80049b0:	4a0d      	ldr	r2, [pc, #52]	; (80049e8 <HAL_TIM_Base_MspInit+0x44>)
 80049b2:	4293      	cmp	r3, r2
 80049b4:	d113      	bne.n	80049de <HAL_TIM_Base_MspInit+0x3a>
  {
  /* USER CODE BEGIN TIM1_MspInit 0 */

  /* USER CODE END TIM1_MspInit 0 */
    /* Peripheral clock enable */
    __HAL_RCC_TIM1_CLK_ENABLE();
 80049b6:	4b0d      	ldr	r3, [pc, #52]	; (80049ec <HAL_TIM_Base_MspInit+0x48>)
 80049b8:	699b      	ldr	r3, [r3, #24]
 80049ba:	4a0c      	ldr	r2, [pc, #48]	; (80049ec <HAL_TIM_Base_MspInit+0x48>)
 80049bc:	f443 6300 	orr.w	r3, r3, #2048	; 0x800
 80049c0:	6193      	str	r3, [r2, #24]
 80049c2:	4b0a      	ldr	r3, [pc, #40]	; (80049ec <HAL_TIM_Base_MspInit+0x48>)
 80049c4:	699b      	ldr	r3, [r3, #24]
 80049c6:	f403 6300 	and.w	r3, r3, #2048	; 0x800
 80049ca:	60fb      	str	r3, [r7, #12]
 80049cc:	68fb      	ldr	r3, [r7, #12]
    /* TIM1 interrupt Init */
    HAL_NVIC_SetPriority(TIM1_UP_IRQn, 0, 0);
 80049ce:	2200      	movs	r2, #0
 80049d0:	2100      	movs	r1, #0
 80049d2:	2019      	movs	r0, #25
 80049d4:	f000 facf 	bl	8004f76 <HAL_NVIC_SetPriority>
    HAL_NVIC_EnableIRQ(TIM1_UP_IRQn);
 80049d8:	2019      	movs	r0, #25
 80049da:	f000 fae8 	bl	8004fae <HAL_NVIC_EnableIRQ>
  /* USER CODE BEGIN TIM1_MspInit 1 */

  /* USER CODE END TIM1_MspInit 1 */
  }

}
 80049de:	bf00      	nop
 80049e0:	3710      	adds	r7, #16
 80049e2:	46bd      	mov	sp, r7
 80049e4:	bd80      	pop	{r7, pc}
 80049e6:	bf00      	nop
 80049e8:	40012c00 	.word	0x40012c00
 80049ec:	40021000 	.word	0x40021000

080049f0 <HAL_TIM_PWM_MspInit>:
* This function configures the hardware resources used in this example
* @param htim_pwm: TIM_PWM handle pointer
* @retval None
*/
void HAL_TIM_PWM_MspInit(TIM_HandleTypeDef* htim_pwm)
{
 80049f0:	b480      	push	{r7}
 80049f2:	b085      	sub	sp, #20
 80049f4:	af00      	add	r7, sp, #0
 80049f6:	6078      	str	r0, [r7, #4]
  if(htim_pwm->Instance==TIM3)
 80049f8:	687b      	ldr	r3, [r7, #4]
 80049fa:	681b      	ldr	r3, [r3, #0]
 80049fc:	4a12      	ldr	r2, [pc, #72]	; (8004a48 <HAL_TIM_PWM_MspInit+0x58>)
 80049fe:	4293      	cmp	r3, r2
 8004a00:	d10c      	bne.n	8004a1c <HAL_TIM_PWM_MspInit+0x2c>
  {
  /* USER CODE BEGIN TIM3_MspInit 0 */

  /* USER CODE END TIM3_MspInit 0 */
    /* Peripheral clock enable */
    __HAL_RCC_TIM3_CLK_ENABLE();
 8004a02:	4b12      	ldr	r3, [pc, #72]	; (8004a4c <HAL_TIM_PWM_MspInit+0x5c>)
 8004a04:	69db      	ldr	r3, [r3, #28]
 8004a06:	4a11      	ldr	r2, [pc, #68]	; (8004a4c <HAL_TIM_PWM_MspInit+0x5c>)
 8004a08:	f043 0302 	orr.w	r3, r3, #2
 8004a0c:	61d3      	str	r3, [r2, #28]
 8004a0e:	4b0f      	ldr	r3, [pc, #60]	; (8004a4c <HAL_TIM_PWM_MspInit+0x5c>)
 8004a10:	69db      	ldr	r3, [r3, #28]
 8004a12:	f003 0302 	and.w	r3, r3, #2
 8004a16:	60fb      	str	r3, [r7, #12]
 8004a18:	68fb      	ldr	r3, [r7, #12]
  /* USER CODE BEGIN TIM4_MspInit 1 */

  /* USER CODE END TIM4_MspInit 1 */
  }

}
 8004a1a:	e010      	b.n	8004a3e <HAL_TIM_PWM_MspInit+0x4e>
  else if(htim_pwm->Instance==TIM4)
 8004a1c:	687b      	ldr	r3, [r7, #4]
 8004a1e:	681b      	ldr	r3, [r3, #0]
 8004a20:	4a0b      	ldr	r2, [pc, #44]	; (8004a50 <HAL_TIM_PWM_MspInit+0x60>)
 8004a22:	4293      	cmp	r3, r2
 8004a24:	d10b      	bne.n	8004a3e <HAL_TIM_PWM_MspInit+0x4e>
    __HAL_RCC_TIM4_CLK_ENABLE();
 8004a26:	4b09      	ldr	r3, [pc, #36]	; (8004a4c <HAL_TIM_PWM_MspInit+0x5c>)
 8004a28:	69db      	ldr	r3, [r3, #28]
 8004a2a:	4a08      	ldr	r2, [pc, #32]	; (8004a4c <HAL_TIM_PWM_MspInit+0x5c>)
 8004a2c:	f043 0304 	orr.w	r3, r3, #4
 8004a30:	61d3      	str	r3, [r2, #28]
 8004a32:	4b06      	ldr	r3, [pc, #24]	; (8004a4c <HAL_TIM_PWM_MspInit+0x5c>)
 8004a34:	69db      	ldr	r3, [r3, #28]
 8004a36:	f003 0304 	and.w	r3, r3, #4
 8004a3a:	60bb      	str	r3, [r7, #8]
 8004a3c:	68bb      	ldr	r3, [r7, #8]
}
 8004a3e:	bf00      	nop
 8004a40:	3714      	adds	r7, #20
 8004a42:	46bd      	mov	sp, r7
 8004a44:	bc80      	pop	{r7}
 8004a46:	4770      	bx	lr
 8004a48:	40000400 	.word	0x40000400
 8004a4c:	40021000 	.word	0x40021000
 8004a50:	40000800 	.word	0x40000800

08004a54 <HAL_TIM_MspPostInit>:

void HAL_TIM_MspPostInit(TIM_HandleTypeDef* htim)
{
 8004a54:	b580      	push	{r7, lr}
 8004a56:	b08a      	sub	sp, #40	; 0x28
 8004a58:	af00      	add	r7, sp, #0
 8004a5a:	6078      	str	r0, [r7, #4]
  GPIO_InitTypeDef GPIO_InitStruct = {0};
 8004a5c:	f107 0314 	add.w	r3, r7, #20
 8004a60:	2200      	movs	r2, #0
 8004a62:	601a      	str	r2, [r3, #0]
 8004a64:	605a      	str	r2, [r3, #4]
 8004a66:	609a      	str	r2, [r3, #8]
 8004a68:	60da      	str	r2, [r3, #12]
  if(htim->Instance==TIM3)
 8004a6a:	687b      	ldr	r3, [r7, #4]
 8004a6c:	681b      	ldr	r3, [r3, #0]
 8004a6e:	4a27      	ldr	r2, [pc, #156]	; (8004b0c <HAL_TIM_MspPostInit+0xb8>)
 8004a70:	4293      	cmp	r3, r2
 8004a72:	d12a      	bne.n	8004aca <HAL_TIM_MspPostInit+0x76>
  {
  /* USER CODE BEGIN TIM3_MspPostInit 0 */

  /* USER CODE END TIM3_MspPostInit 0 */
    __HAL_RCC_GPIOB_CLK_ENABLE();
 8004a74:	4b26      	ldr	r3, [pc, #152]	; (8004b10 <HAL_TIM_MspPostInit+0xbc>)
 8004a76:	699b      	ldr	r3, [r3, #24]
 8004a78:	4a25      	ldr	r2, [pc, #148]	; (8004b10 <HAL_TIM_MspPostInit+0xbc>)
 8004a7a:	f043 0308 	orr.w	r3, r3, #8
 8004a7e:	6193      	str	r3, [r2, #24]
 8004a80:	4b23      	ldr	r3, [pc, #140]	; (8004b10 <HAL_TIM_MspPostInit+0xbc>)
 8004a82:	699b      	ldr	r3, [r3, #24]
 8004a84:	f003 0308 	and.w	r3, r3, #8
 8004a88:	613b      	str	r3, [r7, #16]
 8004a8a:	693b      	ldr	r3, [r7, #16]
    /**TIM3 GPIO Configuration
    PB4     ------> TIM3_CH1
    PB5     ------> TIM3_CH2
    */
    GPIO_InitStruct.Pin = GPIO_PIN_4|GPIO_PIN_5;
 8004a8c:	2330      	movs	r3, #48	; 0x30
 8004a8e:	617b      	str	r3, [r7, #20]
    GPIO_InitStruct.Mode = GPIO_MODE_AF_PP;
 8004a90:	2302      	movs	r3, #2
 8004a92:	61bb      	str	r3, [r7, #24]
    GPIO_InitStruct.Speed = GPIO_SPEED_FREQ_LOW;
 8004a94:	2302      	movs	r3, #2
 8004a96:	623b      	str	r3, [r7, #32]
    HAL_GPIO_Init(GPIOB, &GPIO_InitStruct);
 8004a98:	f107 0314 	add.w	r3, r7, #20
 8004a9c:	4619      	mov	r1, r3
 8004a9e:	481d      	ldr	r0, [pc, #116]	; (8004b14 <HAL_TIM_MspPostInit+0xc0>)
 8004aa0:	f000 fb52 	bl	8005148 <HAL_GPIO_Init>

    __HAL_AFIO_REMAP_TIM3_PARTIAL();
 8004aa4:	4b1c      	ldr	r3, [pc, #112]	; (8004b18 <HAL_TIM_MspPostInit+0xc4>)
 8004aa6:	685b      	ldr	r3, [r3, #4]
 8004aa8:	627b      	str	r3, [r7, #36]	; 0x24
 8004aaa:	6a7b      	ldr	r3, [r7, #36]	; 0x24
 8004aac:	f423 6340 	bic.w	r3, r3, #3072	; 0xc00
 8004ab0:	627b      	str	r3, [r7, #36]	; 0x24
 8004ab2:	6a7b      	ldr	r3, [r7, #36]	; 0x24
 8004ab4:	f043 63e0 	orr.w	r3, r3, #117440512	; 0x7000000
 8004ab8:	627b      	str	r3, [r7, #36]	; 0x24
 8004aba:	6a7b      	ldr	r3, [r7, #36]	; 0x24
 8004abc:	f443 6300 	orr.w	r3, r3, #2048	; 0x800
 8004ac0:	627b      	str	r3, [r7, #36]	; 0x24
 8004ac2:	4a15      	ldr	r2, [pc, #84]	; (8004b18 <HAL_TIM_MspPostInit+0xc4>)
 8004ac4:	6a7b      	ldr	r3, [r7, #36]	; 0x24
 8004ac6:	6053      	str	r3, [r2, #4]
  /* USER CODE BEGIN TIM4_MspPostInit 1 */

  /* USER CODE END TIM4_MspPostInit 1 */
  }

}
 8004ac8:	e01c      	b.n	8004b04 <HAL_TIM_MspPostInit+0xb0>
  else if(htim->Instance==TIM4)
 8004aca:	687b      	ldr	r3, [r7, #4]
 8004acc:	681b      	ldr	r3, [r3, #0]
 8004ace:	4a13      	ldr	r2, [pc, #76]	; (8004b1c <HAL_TIM_MspPostInit+0xc8>)
 8004ad0:	4293      	cmp	r3, r2
 8004ad2:	d117      	bne.n	8004b04 <HAL_TIM_MspPostInit+0xb0>
    __HAL_RCC_GPIOB_CLK_ENABLE();
 8004ad4:	4b0e      	ldr	r3, [pc, #56]	; (8004b10 <HAL_TIM_MspPostInit+0xbc>)
 8004ad6:	699b      	ldr	r3, [r3, #24]
 8004ad8:	4a0d      	ldr	r2, [pc, #52]	; (8004b10 <HAL_TIM_MspPostInit+0xbc>)
 8004ada:	f043 0308 	orr.w	r3, r3, #8
 8004ade:	6193      	str	r3, [r2, #24]
 8004ae0:	4b0b      	ldr	r3, [pc, #44]	; (8004b10 <HAL_TIM_MspPostInit+0xbc>)
 8004ae2:	699b      	ldr	r3, [r3, #24]
 8004ae4:	f003 0308 	and.w	r3, r3, #8
 8004ae8:	60fb      	str	r3, [r7, #12]
 8004aea:	68fb      	ldr	r3, [r7, #12]
    GPIO_InitStruct.Pin = GPIO_PIN_6|GPIO_PIN_7;
 8004aec:	23c0      	movs	r3, #192	; 0xc0
 8004aee:	617b      	str	r3, [r7, #20]
    GPIO_InitStruct.Mode = GPIO_MODE_AF_PP;
 8004af0:	2302      	movs	r3, #2
 8004af2:	61bb      	str	r3, [r7, #24]
    GPIO_InitStruct.Speed = GPIO_SPEED_FREQ_LOW;
 8004af4:	2302      	movs	r3, #2
 8004af6:	623b      	str	r3, [r7, #32]
    HAL_GPIO_Init(GPIOB, &GPIO_InitStruct);
 8004af8:	f107 0314 	add.w	r3, r7, #20
 8004afc:	4619      	mov	r1, r3
 8004afe:	4805      	ldr	r0, [pc, #20]	; (8004b14 <HAL_TIM_MspPostInit+0xc0>)
 8004b00:	f000 fb22 	bl	8005148 <HAL_GPIO_Init>
}
 8004b04:	bf00      	nop
 8004b06:	3728      	adds	r7, #40	; 0x28
 8004b08:	46bd      	mov	sp, r7
 8004b0a:	bd80      	pop	{r7, pc}
 8004b0c:	40000400 	.word	0x40000400
 8004b10:	40021000 	.word	0x40021000
 8004b14:	40010c00 	.word	0x40010c00
 8004b18:	40010000 	.word	0x40010000
 8004b1c:	40000800 	.word	0x40000800

08004b20 <HAL_UART_MspInit>:
* This function configures the hardware resources used in this example
* @param huart: UART handle pointer
* @retval None
*/
void HAL_UART_MspInit(UART_HandleTypeDef* huart)
{
 8004b20:	b580      	push	{r7, lr}
 8004b22:	b088      	sub	sp, #32
 8004b24:	af00      	add	r7, sp, #0
 8004b26:	6078      	str	r0, [r7, #4]
  GPIO_InitTypeDef GPIO_InitStruct = {0};
 8004b28:	f107 0310 	add.w	r3, r7, #16
 8004b2c:	2200      	movs	r2, #0
 8004b2e:	601a      	str	r2, [r3, #0]
 8004b30:	605a      	str	r2, [r3, #4]
 8004b32:	609a      	str	r2, [r3, #8]
 8004b34:	60da      	str	r2, [r3, #12]
  if(huart->Instance==USART1)
 8004b36:	687b      	ldr	r3, [r7, #4]
 8004b38:	681b      	ldr	r3, [r3, #0]
 8004b3a:	4a20      	ldr	r2, [pc, #128]	; (8004bbc <HAL_UART_MspInit+0x9c>)
 8004b3c:	4293      	cmp	r3, r2
 8004b3e:	d139      	bne.n	8004bb4 <HAL_UART_MspInit+0x94>
  {
  /* USER CODE BEGIN USART1_MspInit 0 */

  /* USER CODE END USART1_MspInit 0 */
    /* Peripheral clock enable */
    __HAL_RCC_USART1_CLK_ENABLE();
 8004b40:	4b1f      	ldr	r3, [pc, #124]	; (8004bc0 <HAL_UART_MspInit+0xa0>)
 8004b42:	699b      	ldr	r3, [r3, #24]
 8004b44:	4a1e      	ldr	r2, [pc, #120]	; (8004bc0 <HAL_UART_MspInit+0xa0>)
 8004b46:	f443 4380 	orr.w	r3, r3, #16384	; 0x4000
 8004b4a:	6193      	str	r3, [r2, #24]
 8004b4c:	4b1c      	ldr	r3, [pc, #112]	; (8004bc0 <HAL_UART_MspInit+0xa0>)
 8004b4e:	699b      	ldr	r3, [r3, #24]
 8004b50:	f403 4380 	and.w	r3, r3, #16384	; 0x4000
 8004b54:	60fb      	str	r3, [r7, #12]
 8004b56:	68fb      	ldr	r3, [r7, #12]

    __HAL_RCC_GPIOA_CLK_ENABLE();
 8004b58:	4b19      	ldr	r3, [pc, #100]	; (8004bc0 <HAL_UART_MspInit+0xa0>)
 8004b5a:	699b      	ldr	r3, [r3, #24]
 8004b5c:	4a18      	ldr	r2, [pc, #96]	; (8004bc0 <HAL_UART_MspInit+0xa0>)
 8004b5e:	f043 0304 	orr.w	r3, r3, #4
 8004b62:	6193      	str	r3, [r2, #24]
 8004b64:	4b16      	ldr	r3, [pc, #88]	; (8004bc0 <HAL_UART_MspInit+0xa0>)
 8004b66:	699b      	ldr	r3, [r3, #24]
 8004b68:	f003 0304 	and.w	r3, r3, #4
 8004b6c:	60bb      	str	r3, [r7, #8]
 8004b6e:	68bb      	ldr	r3, [r7, #8]
    /**USART1 GPIO Configuration
    PA9     ------> USART1_TX
    PA10     ------> USART1_RX
    */
    GPIO_InitStruct.Pin = GPIO_PIN_9;
 8004b70:	f44f 7300 	mov.w	r3, #512	; 0x200
 8004b74:	613b      	str	r3, [r7, #16]
    GPIO_InitStruct.Mode = GPIO_MODE_AF_PP;
 8004b76:	2302      	movs	r3, #2
 8004b78:	617b      	str	r3, [r7, #20]
    GPIO_InitStruct.Speed = GPIO_SPEED_FREQ_HIGH;
 8004b7a:	2303      	movs	r3, #3
 8004b7c:	61fb      	str	r3, [r7, #28]
    HAL_GPIO_Init(GPIOA, &GPIO_InitStruct);
 8004b7e:	f107 0310 	add.w	r3, r7, #16
 8004b82:	4619      	mov	r1, r3
 8004b84:	480f      	ldr	r0, [pc, #60]	; (8004bc4 <HAL_UART_MspInit+0xa4>)
 8004b86:	f000 fadf 	bl	8005148 <HAL_GPIO_Init>

    GPIO_InitStruct.Pin = GPIO_PIN_10;
 8004b8a:	f44f 6380 	mov.w	r3, #1024	; 0x400
 8004b8e:	613b      	str	r3, [r7, #16]
    GPIO_InitStruct.Mode = GPIO_MODE_INPUT;
 8004b90:	2300      	movs	r3, #0
 8004b92:	617b      	str	r3, [r7, #20]
    GPIO_InitStruct.Pull = GPIO_NOPULL;
 8004b94:	2300      	movs	r3, #0
 8004b96:	61bb      	str	r3, [r7, #24]
    HAL_GPIO_Init(GPIOA, &GPIO_InitStruct);
 8004b98:	f107 0310 	add.w	r3, r7, #16
 8004b9c:	4619      	mov	r1, r3
 8004b9e:	4809      	ldr	r0, [pc, #36]	; (8004bc4 <HAL_UART_MspInit+0xa4>)
 8004ba0:	f000 fad2 	bl	8005148 <HAL_GPIO_Init>

    /* USART1 interrupt Init */
    HAL_NVIC_SetPriority(USART1_IRQn, 0, 0);
 8004ba4:	2200      	movs	r2, #0
 8004ba6:	2100      	movs	r1, #0
 8004ba8:	2025      	movs	r0, #37	; 0x25
 8004baa:	f000 f9e4 	bl	8004f76 <HAL_NVIC_SetPriority>
    HAL_NVIC_EnableIRQ(USART1_IRQn);
 8004bae:	2025      	movs	r0, #37	; 0x25
 8004bb0:	f000 f9fd 	bl	8004fae <HAL_NVIC_EnableIRQ>
  /* USER CODE BEGIN USART1_MspInit 1 */

  /* USER CODE END USART1_MspInit 1 */
  }

}
 8004bb4:	bf00      	nop
 8004bb6:	3720      	adds	r7, #32
 8004bb8:	46bd      	mov	sp, r7
 8004bba:	bd80      	pop	{r7, pc}
 8004bbc:	40013800 	.word	0x40013800
 8004bc0:	40021000 	.word	0x40021000
 8004bc4:	40010800 	.word	0x40010800

08004bc8 <NMI_Handler>:
/******************************************************************************/
/**
  * @brief This function handles Non maskable interrupt.
  */
void NMI_Handler(void)
{
 8004bc8:	b480      	push	{r7}
 8004bca:	af00      	add	r7, sp, #0
  /* USER CODE BEGIN NonMaskableInt_IRQn 0 */

  /* USER CODE END NonMaskableInt_IRQn 0 */
  /* USER CODE BEGIN NonMaskableInt_IRQn 1 */
   while (1)
 8004bcc:	e7fe      	b.n	8004bcc <NMI_Handler+0x4>

08004bce <HardFault_Handler>:

/**
  * @brief This function handles Hard fault interrupt.
  */
void HardFault_Handler(void)
{
 8004bce:	b480      	push	{r7}
 8004bd0:	af00      	add	r7, sp, #0
  /* USER CODE BEGIN HardFault_IRQn 0 */

  /* USER CODE END HardFault_IRQn 0 */
  while (1)
 8004bd2:	e7fe      	b.n	8004bd2 <HardFault_Handler+0x4>

08004bd4 <MemManage_Handler>:

/**
  * @brief This function handles Memory management fault.
  */
void MemManage_Handler(void)
{
 8004bd4:	b480      	push	{r7}
 8004bd6:	af00      	add	r7, sp, #0
  /* USER CODE BEGIN MemoryManagement_IRQn 0 */

  /* USER CODE END MemoryManagement_IRQn 0 */
  while (1)
 8004bd8:	e7fe      	b.n	8004bd8 <MemManage_Handler+0x4>

08004bda <BusFault_Handler>:

/**
  * @brief This function handles Prefetch fault, memory access fault.
  */
void BusFault_Handler(void)
{
 8004bda:	b480      	push	{r7}
 8004bdc:	af00      	add	r7, sp, #0
  /* USER CODE BEGIN BusFault_IRQn 0 */

  /* USER CODE END BusFault_IRQn 0 */
  while (1)
 8004bde:	e7fe      	b.n	8004bde <BusFault_Handler+0x4>

08004be0 <UsageFault_Handler>:

/**
  * @brief This function handles Undefined instruction or illegal state.
  */
void UsageFault_Handler(void)
{
 8004be0:	b480      	push	{r7}
 8004be2:	af00      	add	r7, sp, #0
  /* USER CODE BEGIN UsageFault_IRQn 0 */

  /* USER CODE END UsageFault_IRQn 0 */
  while (1)
 8004be4:	e7fe      	b.n	8004be4 <UsageFault_Handler+0x4>

08004be6 <SVC_Handler>:

/**
  * @brief This function handles System service call via SWI instruction.
  */
void SVC_Handler(void)
{
 8004be6:	b480      	push	{r7}
 8004be8:	af00      	add	r7, sp, #0

  /* USER CODE END SVCall_IRQn 0 */
  /* USER CODE BEGIN SVCall_IRQn 1 */

  /* USER CODE END SVCall_IRQn 1 */
}
 8004bea:	bf00      	nop
 8004bec:	46bd      	mov	sp, r7
 8004bee:	bc80      	pop	{r7}
 8004bf0:	4770      	bx	lr

08004bf2 <DebugMon_Handler>:

/**
  * @brief This function handles Debug monitor.
  */
void DebugMon_Handler(void)
{
 8004bf2:	b480      	push	{r7}
 8004bf4:	af00      	add	r7, sp, #0

  /* USER CODE END DebugMonitor_IRQn 0 */
  /* USER CODE BEGIN DebugMonitor_IRQn 1 */

  /* USER CODE END DebugMonitor_IRQn 1 */
}
 8004bf6:	bf00      	nop
 8004bf8:	46bd      	mov	sp, r7
 8004bfa:	bc80      	pop	{r7}
 8004bfc:	4770      	bx	lr

08004bfe <PendSV_Handler>:

/**
  * @brief This function handles Pendable request for system service.
  */
void PendSV_Handler(void)
{
 8004bfe:	b480      	push	{r7}
 8004c00:	af00      	add	r7, sp, #0

  /* USER CODE END PendSV_IRQn 0 */
  /* USER CODE BEGIN PendSV_IRQn 1 */

  /* USER CODE END PendSV_IRQn 1 */
}
 8004c02:	bf00      	nop
 8004c04:	46bd      	mov	sp, r7
 8004c06:	bc80      	pop	{r7}
 8004c08:	4770      	bx	lr

08004c0a <SysTick_Handler>:

/**
  * @brief This function handles System tick timer.
  */
void SysTick_Handler(void)
{
 8004c0a:	b580      	push	{r7, lr}
 8004c0c:	af00      	add	r7, sp, #0
  /* USER CODE BEGIN SysTick_IRQn 0 */

  /* USER CODE END SysTick_IRQn 0 */
  HAL_IncTick();
 8004c0e:	f000 f8bf 	bl	8004d90 <HAL_IncTick>
  /* USER CODE BEGIN SysTick_IRQn 1 */

  /* USER CODE END SysTick_IRQn 1 */
}
 8004c12:	bf00      	nop
 8004c14:	bd80      	pop	{r7, pc}
	...

08004c18 <TIM1_UP_IRQHandler>:

/**
  * @brief This function handles TIM1 update interrupt.
  */
void TIM1_UP_IRQHandler(void)
{
 8004c18:	b580      	push	{r7, lr}
 8004c1a:	af00      	add	r7, sp, #0
  /* USER CODE BEGIN TIM1_UP_IRQn 0 */

  /* USER CODE END TIM1_UP_IRQn 0 */
  HAL_TIM_IRQHandler(&htim1);
 8004c1c:	4802      	ldr	r0, [pc, #8]	; (8004c28 <TIM1_UP_IRQHandler+0x10>)
 8004c1e:	f002 fa2d 	bl	800707c <HAL_TIM_IRQHandler>
  /* USER CODE BEGIN TIM1_UP_IRQn 1 */

  /* USER CODE END TIM1_UP_IRQn 1 */
}
 8004c22:	bf00      	nop
 8004c24:	bd80      	pop	{r7, pc}
 8004c26:	bf00      	nop
 8004c28:	200003ec 	.word	0x200003ec

08004c2c <USART1_IRQHandler>:

/**
  * @brief This function handles USART1 global interrupt.
  */
void USART1_IRQHandler(void)
{
 8004c2c:	b580      	push	{r7, lr}
 8004c2e:	af00      	add	r7, sp, #0
  /* USER CODE BEGIN USART1_IRQn 0 */

  /* USER CODE END USART1_IRQn 0 */
  HAL_UART_IRQHandler(&huart1);
 8004c30:	4802      	ldr	r0, [pc, #8]	; (8004c3c <USART1_IRQHandler+0x10>)
 8004c32:	f003 f8c1 	bl	8007db8 <HAL_UART_IRQHandler>
  /* USER CODE BEGIN USART1_IRQn 1 */

  /* USER CODE END USART1_IRQn 1 */
}
 8004c36:	bf00      	nop
 8004c38:	bd80      	pop	{r7, pc}
 8004c3a:	bf00      	nop
 8004c3c:	200004c4 	.word	0x200004c4

08004c40 <_sbrk>:
 *
 * @param incr Memory size
 * @return Pointer to allocated memory
 */
void *_sbrk(ptrdiff_t incr)
{
 8004c40:	b580      	push	{r7, lr}
 8004c42:	b086      	sub	sp, #24
 8004c44:	af00      	add	r7, sp, #0
 8004c46:	6078      	str	r0, [r7, #4]
  extern uint8_t _end; /* Symbol defined in the linker script */
  extern uint8_t _estack; /* Symbol defined in the linker script */
  extern uint32_t _Min_Stack_Size; /* Symbol defined in the linker script */
  const uint32_t stack_limit = (uint32_t)&_estack - (uint32_t)&_Min_Stack_Size;
 8004c48:	4a14      	ldr	r2, [pc, #80]	; (8004c9c <_sbrk+0x5c>)
 8004c4a:	4b15      	ldr	r3, [pc, #84]	; (8004ca0 <_sbrk+0x60>)
 8004c4c:	1ad3      	subs	r3, r2, r3
 8004c4e:	617b      	str	r3, [r7, #20]
  const uint8_t *max_heap = (uint8_t *)stack_limit;
 8004c50:	697b      	ldr	r3, [r7, #20]
 8004c52:	613b      	str	r3, [r7, #16]
  uint8_t *prev_heap_end;

  /* Initialize heap end at first call */
  if (NULL == __sbrk_heap_end)
 8004c54:	4b13      	ldr	r3, [pc, #76]	; (8004ca4 <_sbrk+0x64>)
 8004c56:	681b      	ldr	r3, [r3, #0]
 8004c58:	2b00      	cmp	r3, #0
 8004c5a:	d102      	bne.n	8004c62 <_sbrk+0x22>
  {
    __sbrk_heap_end = &_end;
 8004c5c:	4b11      	ldr	r3, [pc, #68]	; (8004ca4 <_sbrk+0x64>)
 8004c5e:	4a12      	ldr	r2, [pc, #72]	; (8004ca8 <_sbrk+0x68>)
 8004c60:	601a      	str	r2, [r3, #0]
  }

  /* Protect heap from growing into the reserved MSP stack */
  if (__sbrk_heap_end + incr > max_heap)
 8004c62:	4b10      	ldr	r3, [pc, #64]	; (8004ca4 <_sbrk+0x64>)
 8004c64:	681a      	ldr	r2, [r3, #0]
 8004c66:	687b      	ldr	r3, [r7, #4]
 8004c68:	4413      	add	r3, r2
 8004c6a:	693a      	ldr	r2, [r7, #16]
 8004c6c:	429a      	cmp	r2, r3
 8004c6e:	d207      	bcs.n	8004c80 <_sbrk+0x40>
  {
    errno = ENOMEM;
 8004c70:	f003 fe1a 	bl	80088a8 <__errno>
 8004c74:	4603      	mov	r3, r0
 8004c76:	220c      	movs	r2, #12
 8004c78:	601a      	str	r2, [r3, #0]
    return (void *)-1;
 8004c7a:	f04f 33ff 	mov.w	r3, #4294967295
 8004c7e:	e009      	b.n	8004c94 <_sbrk+0x54>
  }

  prev_heap_end = __sbrk_heap_end;
 8004c80:	4b08      	ldr	r3, [pc, #32]	; (8004ca4 <_sbrk+0x64>)
 8004c82:	681b      	ldr	r3, [r3, #0]
 8004c84:	60fb      	str	r3, [r7, #12]
  __sbrk_heap_end += incr;
 8004c86:	4b07      	ldr	r3, [pc, #28]	; (8004ca4 <_sbrk+0x64>)
 8004c88:	681a      	ldr	r2, [r3, #0]
 8004c8a:	687b      	ldr	r3, [r7, #4]
 8004c8c:	4413      	add	r3, r2
 8004c8e:	4a05      	ldr	r2, [pc, #20]	; (8004ca4 <_sbrk+0x64>)
 8004c90:	6013      	str	r3, [r2, #0]

  return (void *)prev_heap_end;
 8004c92:	68fb      	ldr	r3, [r7, #12]
}
 8004c94:	4618      	mov	r0, r3
 8004c96:	3718      	adds	r7, #24
 8004c98:	46bd      	mov	sp, r7
 8004c9a:	bd80      	pop	{r7, pc}
 8004c9c:	20005000 	.word	0x20005000
 8004ca0:	00000400 	.word	0x00000400
 8004ca4:	200005e0 	.word	0x200005e0
 8004ca8:	20000730 	.word	0x20000730

08004cac <SystemInit>:
  * @note   This function should be used only after reset.
  * @param  None
  * @retval None
  */
void SystemInit (void)
{
 8004cac:	b480      	push	{r7}
 8004cae:	af00      	add	r7, sp, #0

  /* Configure the Vector Table location -------------------------------------*/
#if defined(USER_VECT_TAB_ADDRESS)
  SCB->VTOR = VECT_TAB_BASE_ADDRESS | VECT_TAB_OFFSET; /* Vector Table Relocation in Internal SRAM. */
#endif /* USER_VECT_TAB_ADDRESS */
}
 8004cb0:	bf00      	nop
 8004cb2:	46bd      	mov	sp, r7
 8004cb4:	bc80      	pop	{r7}
 8004cb6:	4770      	bx	lr

08004cb8 <Reset_Handler>:
  .section .text.Reset_Handler
  .weak Reset_Handler
  .type Reset_Handler, %function
Reset_Handler:

/* Call the clock system initialization function.*/    bl  SystemInit
 8004cb8:	f7ff fff8 	bl	8004cac <SystemInit>

/* Copy the data segment initializers from flash to SRAM */
  ldr r0, =_sdata
 8004cbc:	480b      	ldr	r0, [pc, #44]	; (8004cec <LoopFillZerobss+0xe>)
  ldr r1, =_edata
 8004cbe:	490c      	ldr	r1, [pc, #48]	; (8004cf0 <LoopFillZerobss+0x12>)
  ldr r2, =_sidata
 8004cc0:	4a0c      	ldr	r2, [pc, #48]	; (8004cf4 <LoopFillZerobss+0x16>)
  movs r3, #0
 8004cc2:	2300      	movs	r3, #0
  b LoopCopyDataInit
 8004cc4:	e002      	b.n	8004ccc <LoopCopyDataInit>

08004cc6 <CopyDataInit>:

CopyDataInit:
  ldr r4, [r2, r3]
 8004cc6:	58d4      	ldr	r4, [r2, r3]
  str r4, [r0, r3]
 8004cc8:	50c4      	str	r4, [r0, r3]
  adds r3, r3, #4
 8004cca:	3304      	adds	r3, #4

08004ccc <LoopCopyDataInit>:

LoopCopyDataInit:
  adds r4, r0, r3
 8004ccc:	18c4      	adds	r4, r0, r3
  cmp r4, r1
 8004cce:	428c      	cmp	r4, r1
  bcc CopyDataInit
 8004cd0:	d3f9      	bcc.n	8004cc6 <CopyDataInit>
  
/* Zero fill the bss segment. */
  ldr r2, =_sbss
 8004cd2:	4a09      	ldr	r2, [pc, #36]	; (8004cf8 <LoopFillZerobss+0x1a>)
  ldr r4, =_ebss
 8004cd4:	4c09      	ldr	r4, [pc, #36]	; (8004cfc <LoopFillZerobss+0x1e>)
  movs r3, #0
 8004cd6:	2300      	movs	r3, #0
  b LoopFillZerobss
 8004cd8:	e001      	b.n	8004cde <LoopFillZerobss>

08004cda <FillZerobss>:

FillZerobss:
  str  r3, [r2]
 8004cda:	6013      	str	r3, [r2, #0]
  adds r2, r2, #4
 8004cdc:	3204      	adds	r2, #4

08004cde <LoopFillZerobss>:

LoopFillZerobss:
  cmp r2, r4
 8004cde:	42a2      	cmp	r2, r4
  bcc FillZerobss
 8004ce0:	d3fb      	bcc.n	8004cda <FillZerobss>

/* Call static constructors */
    bl __libc_init_array
 8004ce2:	f003 fde7 	bl	80088b4 <__libc_init_array>
/* Call the application's entry point.*/
  bl main
 8004ce6:	f7fc fbd3 	bl	8001490 <main>
  bx lr
 8004cea:	4770      	bx	lr
  ldr r0, =_sdata
 8004cec:	20000000 	.word	0x20000000
  ldr r1, =_edata
 8004cf0:	20000118 	.word	0x20000118
  ldr r2, =_sidata
 8004cf4:	08009c48 	.word	0x08009c48
  ldr r2, =_sbss
 8004cf8:	20000118 	.word	0x20000118
  ldr r4, =_ebss
 8004cfc:	20000730 	.word	0x20000730

08004d00 <ADC1_2_IRQHandler>:
 * @retval : None
*/
    .section .text.Default_Handler,"ax",%progbits
Default_Handler:
Infinite_Loop:
  b Infinite_Loop
 8004d00:	e7fe      	b.n	8004d00 <ADC1_2_IRQHandler>
	...

08004d04 <HAL_Init>:
  *         need to ensure that the SysTick time base is always set to 1 millisecond
  *         to have correct HAL operation.
  * @retval HAL status
  */
HAL_StatusTypeDef HAL_Init(void)
{
 8004d04:	b580      	push	{r7, lr}
 8004d06:	af00      	add	r7, sp, #0
    defined(STM32F102x6) || defined(STM32F102xB) || \
    defined(STM32F103x6) || defined(STM32F103xB) || defined(STM32F103xE) || defined(STM32F103xG) || \
    defined(STM32F105xC) || defined(STM32F107xC)

  /* Prefetch buffer is not available on value line devices */
  __HAL_FLASH_PREFETCH_BUFFER_ENABLE();
 8004d08:	4b08      	ldr	r3, [pc, #32]	; (8004d2c <HAL_Init+0x28>)
 8004d0a:	681b      	ldr	r3, [r3, #0]
 8004d0c:	4a07      	ldr	r2, [pc, #28]	; (8004d2c <HAL_Init+0x28>)
 8004d0e:	f043 0310 	orr.w	r3, r3, #16
 8004d12:	6013      	str	r3, [r2, #0]
#endif
#endif /* PREFETCH_ENABLE */

  /* Set Interrupt Group Priority */
  HAL_NVIC_SetPriorityGrouping(NVIC_PRIORITYGROUP_4);
 8004d14:	2003      	movs	r0, #3
 8004d16:	f000 f923 	bl	8004f60 <HAL_NVIC_SetPriorityGrouping>

  /* Use systick as time base source and configure 1ms tick (default clock after Reset is HSI) */
  HAL_InitTick(TICK_INT_PRIORITY);
 8004d1a:	200f      	movs	r0, #15
 8004d1c:	f000 f808 	bl	8004d30 <HAL_InitTick>

  /* Init the low level hardware */
  HAL_MspInit();
 8004d20:	f7ff fdbe 	bl	80048a0 <HAL_MspInit>

  /* Return function status */
  return HAL_OK;
 8004d24:	2300      	movs	r3, #0
}
 8004d26:	4618      	mov	r0, r3
 8004d28:	bd80      	pop	{r7, pc}
 8004d2a:	bf00      	nop
 8004d2c:	40022000 	.word	0x40022000

08004d30 <HAL_InitTick>:
  *       implementation  in user file.
  * @param TickPriority Tick interrupt priority.
  * @retval HAL status
  */
__weak HAL_StatusTypeDef HAL_InitTick(uint32_t TickPriority)
{
 8004d30:	b580      	push	{r7, lr}
 8004d32:	b082      	sub	sp, #8
 8004d34:	af00      	add	r7, sp, #0
 8004d36:	6078      	str	r0, [r7, #4]
  /* Configure the SysTick to have interrupt in 1ms time basis*/
  if (HAL_SYSTICK_Config(SystemCoreClock / (1000U / uwTickFreq)) > 0U)
 8004d38:	4b12      	ldr	r3, [pc, #72]	; (8004d84 <HAL_InitTick+0x54>)
 8004d3a:	681a      	ldr	r2, [r3, #0]
 8004d3c:	4b12      	ldr	r3, [pc, #72]	; (8004d88 <HAL_InitTick+0x58>)
 8004d3e:	781b      	ldrb	r3, [r3, #0]
 8004d40:	4619      	mov	r1, r3
 8004d42:	f44f 737a 	mov.w	r3, #1000	; 0x3e8
 8004d46:	fbb3 f3f1 	udiv	r3, r3, r1
 8004d4a:	fbb2 f3f3 	udiv	r3, r2, r3
 8004d4e:	4618      	mov	r0, r3
 8004d50:	f000 f93b 	bl	8004fca <HAL_SYSTICK_Config>
 8004d54:	4603      	mov	r3, r0
 8004d56:	2b00      	cmp	r3, #0
 8004d58:	d001      	beq.n	8004d5e <HAL_InitTick+0x2e>
  {
    return HAL_ERROR;
 8004d5a:	2301      	movs	r3, #1
 8004d5c:	e00e      	b.n	8004d7c <HAL_InitTick+0x4c>
  }

  /* Configure the SysTick IRQ priority */
  if (TickPriority < (1UL << __NVIC_PRIO_BITS))
 8004d5e:	687b      	ldr	r3, [r7, #4]
 8004d60:	2b0f      	cmp	r3, #15
 8004d62:	d80a      	bhi.n	8004d7a <HAL_InitTick+0x4a>
  {
    HAL_NVIC_SetPriority(SysTick_IRQn, TickPriority, 0U);
 8004d64:	2200      	movs	r2, #0
 8004d66:	6879      	ldr	r1, [r7, #4]
 8004d68:	f04f 30ff 	mov.w	r0, #4294967295
 8004d6c:	f000 f903 	bl	8004f76 <HAL_NVIC_SetPriority>
    uwTickPrio = TickPriority;
 8004d70:	4a06      	ldr	r2, [pc, #24]	; (8004d8c <HAL_InitTick+0x5c>)
 8004d72:	687b      	ldr	r3, [r7, #4]
 8004d74:	6013      	str	r3, [r2, #0]
  {
    return HAL_ERROR;
  }

  /* Return function status */
  return HAL_OK;
 8004d76:	2300      	movs	r3, #0
 8004d78:	e000      	b.n	8004d7c <HAL_InitTick+0x4c>
    return HAL_ERROR;
 8004d7a:	2301      	movs	r3, #1
}
 8004d7c:	4618      	mov	r0, r3
 8004d7e:	3708      	adds	r7, #8
 8004d80:	46bd      	mov	sp, r7
 8004d82:	bd80      	pop	{r7, pc}
 8004d84:	200000ac 	.word	0x200000ac
 8004d88:	200000b4 	.word	0x200000b4
 8004d8c:	200000b0 	.word	0x200000b0

08004d90 <HAL_IncTick>:
  * @note This function is declared as __weak to be overwritten in case of other
  *      implementations in user file.
  * @retval None
  */
__weak void HAL_IncTick(void)
{
 8004d90:	b480      	push	{r7}
 8004d92:	af00      	add	r7, sp, #0
  uwTick += uwTickFreq;
 8004d94:	4b05      	ldr	r3, [pc, #20]	; (8004dac <HAL_IncTick+0x1c>)
 8004d96:	781b      	ldrb	r3, [r3, #0]
 8004d98:	461a      	mov	r2, r3
 8004d9a:	4b05      	ldr	r3, [pc, #20]	; (8004db0 <HAL_IncTick+0x20>)
 8004d9c:	681b      	ldr	r3, [r3, #0]
 8004d9e:	4413      	add	r3, r2
 8004da0:	4a03      	ldr	r2, [pc, #12]	; (8004db0 <HAL_IncTick+0x20>)
 8004da2:	6013      	str	r3, [r2, #0]
}
 8004da4:	bf00      	nop
 8004da6:	46bd      	mov	sp, r7
 8004da8:	bc80      	pop	{r7}
 8004daa:	4770      	bx	lr
 8004dac:	200000b4 	.word	0x200000b4
 8004db0:	200005e4 	.word	0x200005e4

08004db4 <HAL_GetTick>:
  * @note  This function is declared as __weak to be overwritten in case of other
  *       implementations in user file.
  * @retval tick value
  */
__weak uint32_t HAL_GetTick(void)
{
 8004db4:	b480      	push	{r7}
 8004db6:	af00      	add	r7, sp, #0
  return uwTick;
 8004db8:	4b02      	ldr	r3, [pc, #8]	; (8004dc4 <HAL_GetTick+0x10>)
 8004dba:	681b      	ldr	r3, [r3, #0]
}
 8004dbc:	4618      	mov	r0, r3
 8004dbe:	46bd      	mov	sp, r7
 8004dc0:	bc80      	pop	{r7}
 8004dc2:	4770      	bx	lr
 8004dc4:	200005e4 	.word	0x200005e4

08004dc8 <__NVIC_SetPriorityGrouping>:
           In case of a conflict between priority grouping and available
           priority bits (__NVIC_PRIO_BITS), the smallest possible priority group is set.
  \param [in]      PriorityGroup  Priority grouping field.
 */
__STATIC_INLINE void __NVIC_SetPriorityGrouping(uint32_t PriorityGroup)
{
 8004dc8:	b480      	push	{r7}
 8004dca:	b085      	sub	sp, #20
 8004dcc:	af00      	add	r7, sp, #0
 8004dce:	6078      	str	r0, [r7, #4]
  uint32_t reg_value;
  uint32_t PriorityGroupTmp = (PriorityGroup & (uint32_t)0x07UL);             /* only values 0..7 are used          */
 8004dd0:	687b      	ldr	r3, [r7, #4]
 8004dd2:	f003 0307 	and.w	r3, r3, #7
 8004dd6:	60fb      	str	r3, [r7, #12]

  reg_value  =  SCB->AIRCR;                                                   /* read old register configuration    */
 8004dd8:	4b0c      	ldr	r3, [pc, #48]	; (8004e0c <__NVIC_SetPriorityGrouping+0x44>)
 8004dda:	68db      	ldr	r3, [r3, #12]
 8004ddc:	60bb      	str	r3, [r7, #8]
  reg_value &= ~((uint32_t)(SCB_AIRCR_VECTKEY_Msk | SCB_AIRCR_PRIGROUP_Msk)); /* clear bits to change               */
 8004dde:	68ba      	ldr	r2, [r7, #8]
 8004de0:	f64f 03ff 	movw	r3, #63743	; 0xf8ff
 8004de4:	4013      	ands	r3, r2
 8004de6:	60bb      	str	r3, [r7, #8]
  reg_value  =  (reg_value                                   |
                ((uint32_t)0x5FAUL << SCB_AIRCR_VECTKEY_Pos) |
                (PriorityGroupTmp << SCB_AIRCR_PRIGROUP_Pos) );               /* Insert write key and priority group */
 8004de8:	68fb      	ldr	r3, [r7, #12]
 8004dea:	021a      	lsls	r2, r3, #8
                ((uint32_t)0x5FAUL << SCB_AIRCR_VECTKEY_Pos) |
 8004dec:	68bb      	ldr	r3, [r7, #8]
 8004dee:	4313      	orrs	r3, r2
  reg_value  =  (reg_value                                   |
 8004df0:	f043 63bf 	orr.w	r3, r3, #100139008	; 0x5f80000
 8004df4:	f443 3300 	orr.w	r3, r3, #131072	; 0x20000
 8004df8:	60bb      	str	r3, [r7, #8]
  SCB->AIRCR =  reg_value;
 8004dfa:	4a04      	ldr	r2, [pc, #16]	; (8004e0c <__NVIC_SetPriorityGrouping+0x44>)
 8004dfc:	68bb      	ldr	r3, [r7, #8]
 8004dfe:	60d3      	str	r3, [r2, #12]
}
 8004e00:	bf00      	nop
 8004e02:	3714      	adds	r7, #20
 8004e04:	46bd      	mov	sp, r7
 8004e06:	bc80      	pop	{r7}
 8004e08:	4770      	bx	lr
 8004e0a:	bf00      	nop
 8004e0c:	e000ed00 	.word	0xe000ed00

08004e10 <__NVIC_GetPriorityGrouping>:
  \brief   Get Priority Grouping
  \details Reads the priority grouping field from the NVIC Interrupt Controller.
  \return                Priority grouping field (SCB->AIRCR [10:8] PRIGROUP field).
 */
__STATIC_INLINE uint32_t __NVIC_GetPriorityGrouping(void)
{
 8004e10:	b480      	push	{r7}
 8004e12:	af00      	add	r7, sp, #0
  return ((uint32_t)((SCB->AIRCR & SCB_AIRCR_PRIGROUP_Msk) >> SCB_AIRCR_PRIGROUP_Pos));
 8004e14:	4b04      	ldr	r3, [pc, #16]	; (8004e28 <__NVIC_GetPriorityGrouping+0x18>)
 8004e16:	68db      	ldr	r3, [r3, #12]
 8004e18:	0a1b      	lsrs	r3, r3, #8
 8004e1a:	f003 0307 	and.w	r3, r3, #7
}
 8004e1e:	4618      	mov	r0, r3
 8004e20:	46bd      	mov	sp, r7
 8004e22:	bc80      	pop	{r7}
 8004e24:	4770      	bx	lr
 8004e26:	bf00      	nop
 8004e28:	e000ed00 	.word	0xe000ed00

08004e2c <__NVIC_EnableIRQ>:
  \details Enables a device specific interrupt in the NVIC interrupt controller.
  \param [in]      IRQn  Device specific interrupt number.
  \note    IRQn must not be negative.
 */
__STATIC_INLINE void __NVIC_EnableIRQ(IRQn_Type IRQn)
{
 8004e2c:	b480      	push	{r7}
 8004e2e:	b083      	sub	sp, #12
 8004e30:	af00      	add	r7, sp, #0
 8004e32:	4603      	mov	r3, r0
 8004e34:	71fb      	strb	r3, [r7, #7]
  if ((int32_t)(IRQn) >= 0)
 8004e36:	f997 3007 	ldrsb.w	r3, [r7, #7]
 8004e3a:	2b00      	cmp	r3, #0
 8004e3c:	db0b      	blt.n	8004e56 <__NVIC_EnableIRQ+0x2a>
  {
    NVIC->ISER[(((uint32_t)IRQn) >> 5UL)] = (uint32_t)(1UL << (((uint32_t)IRQn) & 0x1FUL));
 8004e3e:	79fb      	ldrb	r3, [r7, #7]
 8004e40:	f003 021f 	and.w	r2, r3, #31
 8004e44:	4906      	ldr	r1, [pc, #24]	; (8004e60 <__NVIC_EnableIRQ+0x34>)
 8004e46:	f997 3007 	ldrsb.w	r3, [r7, #7]
 8004e4a:	095b      	lsrs	r3, r3, #5
 8004e4c:	2001      	movs	r0, #1
 8004e4e:	fa00 f202 	lsl.w	r2, r0, r2
 8004e52:	f841 2023 	str.w	r2, [r1, r3, lsl #2]
  }
}
 8004e56:	bf00      	nop
 8004e58:	370c      	adds	r7, #12
 8004e5a:	46bd      	mov	sp, r7
 8004e5c:	bc80      	pop	{r7}
 8004e5e:	4770      	bx	lr
 8004e60:	e000e100 	.word	0xe000e100

08004e64 <__NVIC_SetPriority>:
  \param [in]      IRQn  Interrupt number.
  \param [in]  priority  Priority to set.
  \note    The priority cannot be set for every processor exception.
 */
__STATIC_INLINE void __NVIC_SetPriority(IRQn_Type IRQn, uint32_t priority)
{
 8004e64:	b480      	push	{r7}
 8004e66:	b083      	sub	sp, #12
 8004e68:	af00      	add	r7, sp, #0
 8004e6a:	4603      	mov	r3, r0
 8004e6c:	6039      	str	r1, [r7, #0]
 8004e6e:	71fb      	strb	r3, [r7, #7]
  if ((int32_t)(IRQn) >= 0)
 8004e70:	f997 3007 	ldrsb.w	r3, [r7, #7]
 8004e74:	2b00      	cmp	r3, #0
 8004e76:	db0a      	blt.n	8004e8e <__NVIC_SetPriority+0x2a>
  {
    NVIC->IP[((uint32_t)IRQn)]               = (uint8_t)((priority << (8U - __NVIC_PRIO_BITS)) & (uint32_t)0xFFUL);
 8004e78:	683b      	ldr	r3, [r7, #0]
 8004e7a:	b2da      	uxtb	r2, r3
 8004e7c:	490c      	ldr	r1, [pc, #48]	; (8004eb0 <__NVIC_SetPriority+0x4c>)
 8004e7e:	f997 3007 	ldrsb.w	r3, [r7, #7]
 8004e82:	0112      	lsls	r2, r2, #4
 8004e84:	b2d2      	uxtb	r2, r2
 8004e86:	440b      	add	r3, r1
 8004e88:	f883 2300 	strb.w	r2, [r3, #768]	; 0x300
  }
  else
  {
    SCB->SHP[(((uint32_t)IRQn) & 0xFUL)-4UL] = (uint8_t)((priority << (8U - __NVIC_PRIO_BITS)) & (uint32_t)0xFFUL);
  }
}
 8004e8c:	e00a      	b.n	8004ea4 <__NVIC_SetPriority+0x40>
    SCB->SHP[(((uint32_t)IRQn) & 0xFUL)-4UL] = (uint8_t)((priority << (8U - __NVIC_PRIO_BITS)) & (uint32_t)0xFFUL);
 8004e8e:	683b      	ldr	r3, [r7, #0]
 8004e90:	b2da      	uxtb	r2, r3
 8004e92:	4908      	ldr	r1, [pc, #32]	; (8004eb4 <__NVIC_SetPriority+0x50>)
 8004e94:	79fb      	ldrb	r3, [r7, #7]
 8004e96:	f003 030f 	and.w	r3, r3, #15
 8004e9a:	3b04      	subs	r3, #4
 8004e9c:	0112      	lsls	r2, r2, #4
 8004e9e:	b2d2      	uxtb	r2, r2
 8004ea0:	440b      	add	r3, r1
 8004ea2:	761a      	strb	r2, [r3, #24]
}
 8004ea4:	bf00      	nop
 8004ea6:	370c      	adds	r7, #12
 8004ea8:	46bd      	mov	sp, r7
 8004eaa:	bc80      	pop	{r7}
 8004eac:	4770      	bx	lr
 8004eae:	bf00      	nop
 8004eb0:	e000e100 	.word	0xe000e100
 8004eb4:	e000ed00 	.word	0xe000ed00

08004eb8 <NVIC_EncodePriority>:
  \param [in]   PreemptPriority  Preemptive priority value (starting from 0).
  \param [in]       SubPriority  Subpriority value (starting from 0).
  \return                        Encoded priority. Value can be used in the function \ref NVIC_SetPriority().
 */
__STATIC_INLINE uint32_t NVIC_EncodePriority (uint32_t PriorityGroup, uint32_t PreemptPriority, uint32_t SubPriority)
{
 8004eb8:	b480      	push	{r7}
 8004eba:	b089      	sub	sp, #36	; 0x24
 8004ebc:	af00      	add	r7, sp, #0
 8004ebe:	60f8      	str	r0, [r7, #12]
 8004ec0:	60b9      	str	r1, [r7, #8]
 8004ec2:	607a      	str	r2, [r7, #4]
  uint32_t PriorityGroupTmp = (PriorityGroup & (uint32_t)0x07UL);   /* only values 0..7 are used          */
 8004ec4:	68fb      	ldr	r3, [r7, #12]
 8004ec6:	f003 0307 	and.w	r3, r3, #7
 8004eca:	61fb      	str	r3, [r7, #28]
  uint32_t PreemptPriorityBits;
  uint32_t SubPriorityBits;

  PreemptPriorityBits = ((7UL - PriorityGroupTmp) > (uint32_t)(__NVIC_PRIO_BITS)) ? (uint32_t)(__NVIC_PRIO_BITS) : (uint32_t)(7UL - PriorityGroupTmp);
 8004ecc:	69fb      	ldr	r3, [r7, #28]
 8004ece:	f1c3 0307 	rsb	r3, r3, #7
 8004ed2:	2b04      	cmp	r3, #4
 8004ed4:	bf28      	it	cs
 8004ed6:	2304      	movcs	r3, #4
 8004ed8:	61bb      	str	r3, [r7, #24]
  SubPriorityBits     = ((PriorityGroupTmp + (uint32_t)(__NVIC_PRIO_BITS)) < (uint32_t)7UL) ? (uint32_t)0UL : (uint32_t)((PriorityGroupTmp - 7UL) + (uint32_t)(__NVIC_PRIO_BITS));
 8004eda:	69fb      	ldr	r3, [r7, #28]
 8004edc:	3304      	adds	r3, #4
 8004ede:	2b06      	cmp	r3, #6
 8004ee0:	d902      	bls.n	8004ee8 <NVIC_EncodePriority+0x30>
 8004ee2:	69fb      	ldr	r3, [r7, #28]
 8004ee4:	3b03      	subs	r3, #3
 8004ee6:	e000      	b.n	8004eea <NVIC_EncodePriority+0x32>
 8004ee8:	2300      	movs	r3, #0
 8004eea:	617b      	str	r3, [r7, #20]

  return (
           ((PreemptPriority & (uint32_t)((1UL << (PreemptPriorityBits)) - 1UL)) << SubPriorityBits) |
 8004eec:	f04f 32ff 	mov.w	r2, #4294967295
 8004ef0:	69bb      	ldr	r3, [r7, #24]
 8004ef2:	fa02 f303 	lsl.w	r3, r2, r3
 8004ef6:	43da      	mvns	r2, r3
 8004ef8:	68bb      	ldr	r3, [r7, #8]
 8004efa:	401a      	ands	r2, r3
 8004efc:	697b      	ldr	r3, [r7, #20]
 8004efe:	409a      	lsls	r2, r3
           ((SubPriority     & (uint32_t)((1UL << (SubPriorityBits    )) - 1UL)))
 8004f00:	f04f 31ff 	mov.w	r1, #4294967295
 8004f04:	697b      	ldr	r3, [r7, #20]
 8004f06:	fa01 f303 	lsl.w	r3, r1, r3
 8004f0a:	43d9      	mvns	r1, r3
 8004f0c:	687b      	ldr	r3, [r7, #4]
 8004f0e:	400b      	ands	r3, r1
           ((PreemptPriority & (uint32_t)((1UL << (PreemptPriorityBits)) - 1UL)) << SubPriorityBits) |
 8004f10:	4313      	orrs	r3, r2
         );
}
 8004f12:	4618      	mov	r0, r3
 8004f14:	3724      	adds	r7, #36	; 0x24
 8004f16:	46bd      	mov	sp, r7
 8004f18:	bc80      	pop	{r7}
 8004f1a:	4770      	bx	lr

08004f1c <SysTick_Config>:
  \note    When the variable <b>__Vendor_SysTickConfig</b> is set to 1, then the
           function <b>SysTick_Config</b> is not included. In this case, the file <b><i>device</i>.h</b>
           must contain a vendor-specific implementation of this function.
 */
__STATIC_INLINE uint32_t SysTick_Config(uint32_t ticks)
{
 8004f1c:	b580      	push	{r7, lr}
 8004f1e:	b082      	sub	sp, #8
 8004f20:	af00      	add	r7, sp, #0
 8004f22:	6078      	str	r0, [r7, #4]
  if ((ticks - 1UL) > SysTick_LOAD_RELOAD_Msk)
 8004f24:	687b      	ldr	r3, [r7, #4]
 8004f26:	3b01      	subs	r3, #1
 8004f28:	f1b3 7f80 	cmp.w	r3, #16777216	; 0x1000000
 8004f2c:	d301      	bcc.n	8004f32 <SysTick_Config+0x16>
  {
    return (1UL);                                                   /* Reload value impossible */
 8004f2e:	2301      	movs	r3, #1
 8004f30:	e00f      	b.n	8004f52 <SysTick_Config+0x36>
  }

  SysTick->LOAD  = (uint32_t)(ticks - 1UL);                         /* set reload register */
 8004f32:	4a0a      	ldr	r2, [pc, #40]	; (8004f5c <SysTick_Config+0x40>)
 8004f34:	687b      	ldr	r3, [r7, #4]
 8004f36:	3b01      	subs	r3, #1
 8004f38:	6053      	str	r3, [r2, #4]
  NVIC_SetPriority (SysTick_IRQn, (1UL << __NVIC_PRIO_BITS) - 1UL); /* set Priority for Systick Interrupt */
 8004f3a:	210f      	movs	r1, #15
 8004f3c:	f04f 30ff 	mov.w	r0, #4294967295
 8004f40:	f7ff ff90 	bl	8004e64 <__NVIC_SetPriority>
  SysTick->VAL   = 0UL;                                             /* Load the SysTick Counter Value */
 8004f44:	4b05      	ldr	r3, [pc, #20]	; (8004f5c <SysTick_Config+0x40>)
 8004f46:	2200      	movs	r2, #0
 8004f48:	609a      	str	r2, [r3, #8]
  SysTick->CTRL  = SysTick_CTRL_CLKSOURCE_Msk |
 8004f4a:	4b04      	ldr	r3, [pc, #16]	; (8004f5c <SysTick_Config+0x40>)
 8004f4c:	2207      	movs	r2, #7
 8004f4e:	601a      	str	r2, [r3, #0]
                   SysTick_CTRL_TICKINT_Msk   |
                   SysTick_CTRL_ENABLE_Msk;                         /* Enable SysTick IRQ and SysTick Timer */
  return (0UL);                                                     /* Function successful */
 8004f50:	2300      	movs	r3, #0
}
 8004f52:	4618      	mov	r0, r3
 8004f54:	3708      	adds	r7, #8
 8004f56:	46bd      	mov	sp, r7
 8004f58:	bd80      	pop	{r7, pc}
 8004f5a:	bf00      	nop
 8004f5c:	e000e010 	.word	0xe000e010

08004f60 <HAL_NVIC_SetPriorityGrouping>:
  * @note   When the NVIC_PriorityGroup_0 is selected, IRQ preemption is no more possible. 
  *         The pending IRQ priority will be managed only by the subpriority. 
  * @retval None
  */
void HAL_NVIC_SetPriorityGrouping(uint32_t PriorityGroup)
{
 8004f60:	b580      	push	{r7, lr}
 8004f62:	b082      	sub	sp, #8
 8004f64:	af00      	add	r7, sp, #0
 8004f66:	6078      	str	r0, [r7, #4]
  /* Check the parameters */
  assert_param(IS_NVIC_PRIORITY_GROUP(PriorityGroup));
  
  /* Set the PRIGROUP[10:8] bits according to the PriorityGroup parameter value */
  NVIC_SetPriorityGrouping(PriorityGroup);
 8004f68:	6878      	ldr	r0, [r7, #4]
 8004f6a:	f7ff ff2d 	bl	8004dc8 <__NVIC_SetPriorityGrouping>
}
 8004f6e:	bf00      	nop
 8004f70:	3708      	adds	r7, #8
 8004f72:	46bd      	mov	sp, r7
 8004f74:	bd80      	pop	{r7, pc}

08004f76 <HAL_NVIC_SetPriority>:
  *         This parameter can be a value between 0 and 15
  *         A lower priority value indicates a higher priority.          
  * @retval None
  */
void HAL_NVIC_SetPriority(IRQn_Type IRQn, uint32_t PreemptPriority, uint32_t SubPriority)
{ 
 8004f76:	b580      	push	{r7, lr}
 8004f78:	b086      	sub	sp, #24
 8004f7a:	af00      	add	r7, sp, #0
 8004f7c:	4603      	mov	r3, r0
 8004f7e:	60b9      	str	r1, [r7, #8]
 8004f80:	607a      	str	r2, [r7, #4]
 8004f82:	73fb      	strb	r3, [r7, #15]
  uint32_t prioritygroup = 0x00U;
 8004f84:	2300      	movs	r3, #0
 8004f86:	617b      	str	r3, [r7, #20]
  
  /* Check the parameters */
  assert_param(IS_NVIC_SUB_PRIORITY(SubPriority));
  assert_param(IS_NVIC_PREEMPTION_PRIORITY(PreemptPriority));
  
  prioritygroup = NVIC_GetPriorityGrouping();
 8004f88:	f7ff ff42 	bl	8004e10 <__NVIC_GetPriorityGrouping>
 8004f8c:	6178      	str	r0, [r7, #20]
  
  NVIC_SetPriority(IRQn, NVIC_EncodePriority(prioritygroup, PreemptPriority, SubPriority));
 8004f8e:	687a      	ldr	r2, [r7, #4]
 8004f90:	68b9      	ldr	r1, [r7, #8]
 8004f92:	6978      	ldr	r0, [r7, #20]
 8004f94:	f7ff ff90 	bl	8004eb8 <NVIC_EncodePriority>
 8004f98:	4602      	mov	r2, r0
 8004f9a:	f997 300f 	ldrsb.w	r3, [r7, #15]
 8004f9e:	4611      	mov	r1, r2
 8004fa0:	4618      	mov	r0, r3
 8004fa2:	f7ff ff5f 	bl	8004e64 <__NVIC_SetPriority>
}
 8004fa6:	bf00      	nop
 8004fa8:	3718      	adds	r7, #24
 8004faa:	46bd      	mov	sp, r7
 8004fac:	bd80      	pop	{r7, pc}

08004fae <HAL_NVIC_EnableIRQ>:
  *         This parameter can be an enumerator of IRQn_Type enumeration
  *         (For the complete STM32 Devices IRQ Channels list, please refer to the appropriate CMSIS device file (stm32f10xxx.h))
  * @retval None
  */
void HAL_NVIC_EnableIRQ(IRQn_Type IRQn)
{
 8004fae:	b580      	push	{r7, lr}
 8004fb0:	b082      	sub	sp, #8
 8004fb2:	af00      	add	r7, sp, #0
 8004fb4:	4603      	mov	r3, r0
 8004fb6:	71fb      	strb	r3, [r7, #7]
  /* Check the parameters */
  assert_param(IS_NVIC_DEVICE_IRQ(IRQn));

  /* Enable interrupt */
  NVIC_EnableIRQ(IRQn);
 8004fb8:	f997 3007 	ldrsb.w	r3, [r7, #7]
 8004fbc:	4618      	mov	r0, r3
 8004fbe:	f7ff ff35 	bl	8004e2c <__NVIC_EnableIRQ>
}
 8004fc2:	bf00      	nop
 8004fc4:	3708      	adds	r7, #8
 8004fc6:	46bd      	mov	sp, r7
 8004fc8:	bd80      	pop	{r7, pc}

08004fca <HAL_SYSTICK_Config>:
  * @param  TicksNumb: Specifies the ticks Number of ticks between two interrupts.
  * @retval status:  - 0  Function succeeded.
  *                  - 1  Function failed.
  */
uint32_t HAL_SYSTICK_Config(uint32_t TicksNumb)
{
 8004fca:	b580      	push	{r7, lr}
 8004fcc:	b082      	sub	sp, #8
 8004fce:	af00      	add	r7, sp, #0
 8004fd0:	6078      	str	r0, [r7, #4]
   return SysTick_Config(TicksNumb);
 8004fd2:	6878      	ldr	r0, [r7, #4]
 8004fd4:	f7ff ffa2 	bl	8004f1c <SysTick_Config>
 8004fd8:	4603      	mov	r3, r0
}
 8004fda:	4618      	mov	r0, r3
 8004fdc:	3708      	adds	r7, #8
 8004fde:	46bd      	mov	sp, r7
 8004fe0:	bd80      	pop	{r7, pc}

08004fe2 <HAL_DMA_Abort>:
  * @param  hdma: pointer to a DMA_HandleTypeDef structure that contains
  *               the configuration information for the specified DMA Channel.
  * @retval HAL status
  */
HAL_StatusTypeDef HAL_DMA_Abort(DMA_HandleTypeDef *hdma)
{
 8004fe2:	b480      	push	{r7}
 8004fe4:	b085      	sub	sp, #20
 8004fe6:	af00      	add	r7, sp, #0
 8004fe8:	6078      	str	r0, [r7, #4]
  HAL_StatusTypeDef status = HAL_OK;
 8004fea:	2300      	movs	r3, #0
 8004fec:	73fb      	strb	r3, [r7, #15]
  
  if(hdma->State != HAL_DMA_STATE_BUSY)
 8004fee:	687b      	ldr	r3, [r7, #4]
 8004ff0:	f893 3021 	ldrb.w	r3, [r3, #33]	; 0x21
 8004ff4:	b2db      	uxtb	r3, r3
 8004ff6:	2b02      	cmp	r3, #2
 8004ff8:	d008      	beq.n	800500c <HAL_DMA_Abort+0x2a>
  {
    /* no transfer ongoing */
    hdma->ErrorCode = HAL_DMA_ERROR_NO_XFER;
 8004ffa:	687b      	ldr	r3, [r7, #4]
 8004ffc:	2204      	movs	r2, #4
 8004ffe:	639a      	str	r2, [r3, #56]	; 0x38
    
    /* Process Unlocked */
    __HAL_UNLOCK(hdma);
 8005000:	687b      	ldr	r3, [r7, #4]
 8005002:	2200      	movs	r2, #0
 8005004:	f883 2020 	strb.w	r2, [r3, #32]
    
    return HAL_ERROR;
 8005008:	2301      	movs	r3, #1
 800500a:	e020      	b.n	800504e <HAL_DMA_Abort+0x6c>
  }
  else

  {
    /* Disable DMA IT */
    __HAL_DMA_DISABLE_IT(hdma, (DMA_IT_TC | DMA_IT_HT | DMA_IT_TE));
 800500c:	687b      	ldr	r3, [r7, #4]
 800500e:	681b      	ldr	r3, [r3, #0]
 8005010:	681a      	ldr	r2, [r3, #0]
 8005012:	687b      	ldr	r3, [r7, #4]
 8005014:	681b      	ldr	r3, [r3, #0]
 8005016:	f022 020e 	bic.w	r2, r2, #14
 800501a:	601a      	str	r2, [r3, #0]
      
    /* Disable the channel */
    __HAL_DMA_DISABLE(hdma);
 800501c:	687b      	ldr	r3, [r7, #4]
 800501e:	681b      	ldr	r3, [r3, #0]
 8005020:	681a      	ldr	r2, [r3, #0]
 8005022:	687b      	ldr	r3, [r7, #4]
 8005024:	681b      	ldr	r3, [r3, #0]
 8005026:	f022 0201 	bic.w	r2, r2, #1
 800502a:	601a      	str	r2, [r3, #0]
      
    /* Clear all flags */
    hdma->DmaBaseAddress->IFCR = (DMA_ISR_GIF1 << hdma->ChannelIndex);
 800502c:	687b      	ldr	r3, [r7, #4]
 800502e:	6c1a      	ldr	r2, [r3, #64]	; 0x40
 8005030:	687b      	ldr	r3, [r7, #4]
 8005032:	6bdb      	ldr	r3, [r3, #60]	; 0x3c
 8005034:	2101      	movs	r1, #1
 8005036:	fa01 f202 	lsl.w	r2, r1, r2
 800503a:	605a      	str	r2, [r3, #4]
  }
  /* Change the DMA state */
  hdma->State = HAL_DMA_STATE_READY;
 800503c:	687b      	ldr	r3, [r7, #4]
 800503e:	2201      	movs	r2, #1
 8005040:	f883 2021 	strb.w	r2, [r3, #33]	; 0x21

  /* Process Unlocked */
  __HAL_UNLOCK(hdma);      
 8005044:	687b      	ldr	r3, [r7, #4]
 8005046:	2200      	movs	r2, #0
 8005048:	f883 2020 	strb.w	r2, [r3, #32]
  
  return status; 
 800504c:	7bfb      	ldrb	r3, [r7, #15]
}
 800504e:	4618      	mov	r0, r3
 8005050:	3714      	adds	r7, #20
 8005052:	46bd      	mov	sp, r7
 8005054:	bc80      	pop	{r7}
 8005056:	4770      	bx	lr

08005058 <HAL_DMA_Abort_IT>:
  * @param  hdma  : pointer to a DMA_HandleTypeDef structure that contains
  *                 the configuration information for the specified DMA Channel.
  * @retval HAL status
  */
HAL_StatusTypeDef HAL_DMA_Abort_IT(DMA_HandleTypeDef *hdma)
{  
 8005058:	b580      	push	{r7, lr}
 800505a:	b084      	sub	sp, #16
 800505c:	af00      	add	r7, sp, #0
 800505e:	6078      	str	r0, [r7, #4]
  HAL_StatusTypeDef status = HAL_OK;
 8005060:	2300      	movs	r3, #0
 8005062:	73fb      	strb	r3, [r7, #15]
  
  if(HAL_DMA_STATE_BUSY != hdma->State)
 8005064:	687b      	ldr	r3, [r7, #4]
 8005066:	f893 3021 	ldrb.w	r3, [r3, #33]	; 0x21
 800506a:	b2db      	uxtb	r3, r3
 800506c:	2b02      	cmp	r3, #2
 800506e:	d005      	beq.n	800507c <HAL_DMA_Abort_IT+0x24>
  {
    /* no transfer ongoing */
    hdma->ErrorCode = HAL_DMA_ERROR_NO_XFER;
 8005070:	687b      	ldr	r3, [r7, #4]
 8005072:	2204      	movs	r2, #4
 8005074:	639a      	str	r2, [r3, #56]	; 0x38
        
    status = HAL_ERROR;
 8005076:	2301      	movs	r3, #1
 8005078:	73fb      	strb	r3, [r7, #15]
 800507a:	e051      	b.n	8005120 <HAL_DMA_Abort_IT+0xc8>
  }
  else
  { 
    /* Disable DMA IT */
    __HAL_DMA_DISABLE_IT(hdma, (DMA_IT_TC | DMA_IT_HT | DMA_IT_TE));
 800507c:	687b      	ldr	r3, [r7, #4]
 800507e:	681b      	ldr	r3, [r3, #0]
 8005080:	681a      	ldr	r2, [r3, #0]
 8005082:	687b      	ldr	r3, [r7, #4]
 8005084:	681b      	ldr	r3, [r3, #0]
 8005086:	f022 020e 	bic.w	r2, r2, #14
 800508a:	601a      	str	r2, [r3, #0]

    /* Disable the channel */
    __HAL_DMA_DISABLE(hdma);
 800508c:	687b      	ldr	r3, [r7, #4]
 800508e:	681b      	ldr	r3, [r3, #0]
 8005090:	681a      	ldr	r2, [r3, #0]
 8005092:	687b      	ldr	r3, [r7, #4]
 8005094:	681b      	ldr	r3, [r3, #0]
 8005096:	f022 0201 	bic.w	r2, r2, #1
 800509a:	601a      	str	r2, [r3, #0]

    /* Clear all flags */
    __HAL_DMA_CLEAR_FLAG(hdma, __HAL_DMA_GET_GI_FLAG_INDEX(hdma));
 800509c:	687b      	ldr	r3, [r7, #4]
 800509e:	681b      	ldr	r3, [r3, #0]
 80050a0:	4a22      	ldr	r2, [pc, #136]	; (800512c <HAL_DMA_Abort_IT+0xd4>)
 80050a2:	4293      	cmp	r3, r2
 80050a4:	d029      	beq.n	80050fa <HAL_DMA_Abort_IT+0xa2>
 80050a6:	687b      	ldr	r3, [r7, #4]
 80050a8:	681b      	ldr	r3, [r3, #0]
 80050aa:	4a21      	ldr	r2, [pc, #132]	; (8005130 <HAL_DMA_Abort_IT+0xd8>)
 80050ac:	4293      	cmp	r3, r2
 80050ae:	d022      	beq.n	80050f6 <HAL_DMA_Abort_IT+0x9e>
 80050b0:	687b      	ldr	r3, [r7, #4]
 80050b2:	681b      	ldr	r3, [r3, #0]
 80050b4:	4a1f      	ldr	r2, [pc, #124]	; (8005134 <HAL_DMA_Abort_IT+0xdc>)
 80050b6:	4293      	cmp	r3, r2
 80050b8:	d01a      	beq.n	80050f0 <HAL_DMA_Abort_IT+0x98>
 80050ba:	687b      	ldr	r3, [r7, #4]
 80050bc:	681b      	ldr	r3, [r3, #0]
 80050be:	4a1e      	ldr	r2, [pc, #120]	; (8005138 <HAL_DMA_Abort_IT+0xe0>)
 80050c0:	4293      	cmp	r3, r2
 80050c2:	d012      	beq.n	80050ea <HAL_DMA_Abort_IT+0x92>
 80050c4:	687b      	ldr	r3, [r7, #4]
 80050c6:	681b      	ldr	r3, [r3, #0]
 80050c8:	4a1c      	ldr	r2, [pc, #112]	; (800513c <HAL_DMA_Abort_IT+0xe4>)
 80050ca:	4293      	cmp	r3, r2
 80050cc:	d00a      	beq.n	80050e4 <HAL_DMA_Abort_IT+0x8c>
 80050ce:	687b      	ldr	r3, [r7, #4]
 80050d0:	681b      	ldr	r3, [r3, #0]
 80050d2:	4a1b      	ldr	r2, [pc, #108]	; (8005140 <HAL_DMA_Abort_IT+0xe8>)
 80050d4:	4293      	cmp	r3, r2
 80050d6:	d102      	bne.n	80050de <HAL_DMA_Abort_IT+0x86>
 80050d8:	f44f 1380 	mov.w	r3, #1048576	; 0x100000
 80050dc:	e00e      	b.n	80050fc <HAL_DMA_Abort_IT+0xa4>
 80050de:	f04f 7380 	mov.w	r3, #16777216	; 0x1000000
 80050e2:	e00b      	b.n	80050fc <HAL_DMA_Abort_IT+0xa4>
 80050e4:	f44f 3380 	mov.w	r3, #65536	; 0x10000
 80050e8:	e008      	b.n	80050fc <HAL_DMA_Abort_IT+0xa4>
 80050ea:	f44f 5380 	mov.w	r3, #4096	; 0x1000
 80050ee:	e005      	b.n	80050fc <HAL_DMA_Abort_IT+0xa4>
 80050f0:	f44f 7380 	mov.w	r3, #256	; 0x100
 80050f4:	e002      	b.n	80050fc <HAL_DMA_Abort_IT+0xa4>
 80050f6:	2310      	movs	r3, #16
 80050f8:	e000      	b.n	80050fc <HAL_DMA_Abort_IT+0xa4>
 80050fa:	2301      	movs	r3, #1
 80050fc:	4a11      	ldr	r2, [pc, #68]	; (8005144 <HAL_DMA_Abort_IT+0xec>)
 80050fe:	6053      	str	r3, [r2, #4]

    /* Change the DMA state */
    hdma->State = HAL_DMA_STATE_READY;
 8005100:	687b      	ldr	r3, [r7, #4]
 8005102:	2201      	movs	r2, #1
 8005104:	f883 2021 	strb.w	r2, [r3, #33]	; 0x21

    /* Process Unlocked */
    __HAL_UNLOCK(hdma);
 8005108:	687b      	ldr	r3, [r7, #4]
 800510a:	2200      	movs	r2, #0
 800510c:	f883 2020 	strb.w	r2, [r3, #32]

    /* Call User Abort callback */
    if(hdma->XferAbortCallback != NULL)
 8005110:	687b      	ldr	r3, [r7, #4]
 8005112:	6b5b      	ldr	r3, [r3, #52]	; 0x34
 8005114:	2b00      	cmp	r3, #0
 8005116:	d003      	beq.n	8005120 <HAL_DMA_Abort_IT+0xc8>
    {
      hdma->XferAbortCallback(hdma);
 8005118:	687b      	ldr	r3, [r7, #4]
 800511a:	6b5b      	ldr	r3, [r3, #52]	; 0x34
 800511c:	6878      	ldr	r0, [r7, #4]
 800511e:	4798      	blx	r3
    } 
  }
  return status;
 8005120:	7bfb      	ldrb	r3, [r7, #15]
}
 8005122:	4618      	mov	r0, r3
 8005124:	3710      	adds	r7, #16
 8005126:	46bd      	mov	sp, r7
 8005128:	bd80      	pop	{r7, pc}
 800512a:	bf00      	nop
 800512c:	40020008 	.word	0x40020008
 8005130:	4002001c 	.word	0x4002001c
 8005134:	40020030 	.word	0x40020030
 8005138:	40020044 	.word	0x40020044
 800513c:	40020058 	.word	0x40020058
 8005140:	4002006c 	.word	0x4002006c
 8005144:	40020000 	.word	0x40020000

08005148 <HAL_GPIO_Init>:
  * @param  GPIO_Init: pointer to a GPIO_InitTypeDef structure that contains
  *         the configuration information for the specified GPIO peripheral.
  * @retval None
  */
void HAL_GPIO_Init(GPIO_TypeDef  *GPIOx, GPIO_InitTypeDef *GPIO_Init)
{
 8005148:	b480      	push	{r7}
 800514a:	b08b      	sub	sp, #44	; 0x2c
 800514c:	af00      	add	r7, sp, #0
 800514e:	6078      	str	r0, [r7, #4]
 8005150:	6039      	str	r1, [r7, #0]
  uint32_t position = 0x00u;
 8005152:	2300      	movs	r3, #0
 8005154:	627b      	str	r3, [r7, #36]	; 0x24
  uint32_t ioposition;
  uint32_t iocurrent;
  uint32_t temp;
  uint32_t config = 0x00u;
 8005156:	2300      	movs	r3, #0
 8005158:	623b      	str	r3, [r7, #32]
  assert_param(IS_GPIO_ALL_INSTANCE(GPIOx));
  assert_param(IS_GPIO_PIN(GPIO_Init->Pin));
  assert_param(IS_GPIO_MODE(GPIO_Init->Mode));

  /* Configure the port pins */
  while (((GPIO_Init->Pin) >> position) != 0x00u)
 800515a:	e169      	b.n	8005430 <HAL_GPIO_Init+0x2e8>
  {
    /* Get the IO position */
    ioposition = (0x01uL << position);
 800515c:	2201      	movs	r2, #1
 800515e:	6a7b      	ldr	r3, [r7, #36]	; 0x24
 8005160:	fa02 f303 	lsl.w	r3, r2, r3
 8005164:	61fb      	str	r3, [r7, #28]

    /* Get the current IO position */
    iocurrent = (uint32_t)(GPIO_Init->Pin) & ioposition;
 8005166:	683b      	ldr	r3, [r7, #0]
 8005168:	681b      	ldr	r3, [r3, #0]
 800516a:	69fa      	ldr	r2, [r7, #28]
 800516c:	4013      	ands	r3, r2
 800516e:	61bb      	str	r3, [r7, #24]

    if (iocurrent == ioposition)
 8005170:	69ba      	ldr	r2, [r7, #24]
 8005172:	69fb      	ldr	r3, [r7, #28]
 8005174:	429a      	cmp	r2, r3
 8005176:	f040 8158 	bne.w	800542a <HAL_GPIO_Init+0x2e2>
    {
      /* Check the Alternate function parameters */
      assert_param(IS_GPIO_AF_INSTANCE(GPIOx));

      /* Based on the required mode, filling config variable with MODEy[1:0] and CNFy[3:2] corresponding bits */
      switch (GPIO_Init->Mode)
 800517a:	683b      	ldr	r3, [r7, #0]
 800517c:	685b      	ldr	r3, [r3, #4]
 800517e:	4a9a      	ldr	r2, [pc, #616]	; (80053e8 <HAL_GPIO_Init+0x2a0>)
 8005180:	4293      	cmp	r3, r2
 8005182:	d05e      	beq.n	8005242 <HAL_GPIO_Init+0xfa>
 8005184:	4a98      	ldr	r2, [pc, #608]	; (80053e8 <HAL_GPIO_Init+0x2a0>)
 8005186:	4293      	cmp	r3, r2
 8005188:	d875      	bhi.n	8005276 <HAL_GPIO_Init+0x12e>
 800518a:	4a98      	ldr	r2, [pc, #608]	; (80053ec <HAL_GPIO_Init+0x2a4>)
 800518c:	4293      	cmp	r3, r2
 800518e:	d058      	beq.n	8005242 <HAL_GPIO_Init+0xfa>
 8005190:	4a96      	ldr	r2, [pc, #600]	; (80053ec <HAL_GPIO_Init+0x2a4>)
 8005192:	4293      	cmp	r3, r2
 8005194:	d86f      	bhi.n	8005276 <HAL_GPIO_Init+0x12e>
 8005196:	4a96      	ldr	r2, [pc, #600]	; (80053f0 <HAL_GPIO_Init+0x2a8>)
 8005198:	4293      	cmp	r3, r2
 800519a:	d052      	beq.n	8005242 <HAL_GPIO_Init+0xfa>
 800519c:	4a94      	ldr	r2, [pc, #592]	; (80053f0 <HAL_GPIO_Init+0x2a8>)
 800519e:	4293      	cmp	r3, r2
 80051a0:	d869      	bhi.n	8005276 <HAL_GPIO_Init+0x12e>
 80051a2:	4a94      	ldr	r2, [pc, #592]	; (80053f4 <HAL_GPIO_Init+0x2ac>)
 80051a4:	4293      	cmp	r3, r2
 80051a6:	d04c      	beq.n	8005242 <HAL_GPIO_Init+0xfa>
 80051a8:	4a92      	ldr	r2, [pc, #584]	; (80053f4 <HAL_GPIO_Init+0x2ac>)
 80051aa:	4293      	cmp	r3, r2
 80051ac:	d863      	bhi.n	8005276 <HAL_GPIO_Init+0x12e>
 80051ae:	4a92      	ldr	r2, [pc, #584]	; (80053f8 <HAL_GPIO_Init+0x2b0>)
 80051b0:	4293      	cmp	r3, r2
 80051b2:	d046      	beq.n	8005242 <HAL_GPIO_Init+0xfa>
 80051b4:	4a90      	ldr	r2, [pc, #576]	; (80053f8 <HAL_GPIO_Init+0x2b0>)
 80051b6:	4293      	cmp	r3, r2
 80051b8:	d85d      	bhi.n	8005276 <HAL_GPIO_Init+0x12e>
 80051ba:	2b12      	cmp	r3, #18
 80051bc:	d82a      	bhi.n	8005214 <HAL_GPIO_Init+0xcc>
 80051be:	2b12      	cmp	r3, #18
 80051c0:	d859      	bhi.n	8005276 <HAL_GPIO_Init+0x12e>
 80051c2:	a201      	add	r2, pc, #4	; (adr r2, 80051c8 <HAL_GPIO_Init+0x80>)
 80051c4:	f852 f023 	ldr.w	pc, [r2, r3, lsl #2]
 80051c8:	08005243 	.word	0x08005243
 80051cc:	0800521d 	.word	0x0800521d
 80051d0:	0800522f 	.word	0x0800522f
 80051d4:	08005271 	.word	0x08005271
 80051d8:	08005277 	.word	0x08005277
 80051dc:	08005277 	.word	0x08005277
 80051e0:	08005277 	.word	0x08005277
 80051e4:	08005277 	.word	0x08005277
 80051e8:	08005277 	.word	0x08005277
 80051ec:	08005277 	.word	0x08005277
 80051f0:	08005277 	.word	0x08005277
 80051f4:	08005277 	.word	0x08005277
 80051f8:	08005277 	.word	0x08005277
 80051fc:	08005277 	.word	0x08005277
 8005200:	08005277 	.word	0x08005277
 8005204:	08005277 	.word	0x08005277
 8005208:	08005277 	.word	0x08005277
 800520c:	08005225 	.word	0x08005225
 8005210:	08005239 	.word	0x08005239
 8005214:	4a79      	ldr	r2, [pc, #484]	; (80053fc <HAL_GPIO_Init+0x2b4>)
 8005216:	4293      	cmp	r3, r2
 8005218:	d013      	beq.n	8005242 <HAL_GPIO_Init+0xfa>
          config = GPIO_CR_MODE_INPUT + GPIO_CR_CNF_ANALOG;
          break;

        /* Parameters are checked with assert_param */
        default:
          break;
 800521a:	e02c      	b.n	8005276 <HAL_GPIO_Init+0x12e>
          config = GPIO_Init->Speed + GPIO_CR_CNF_GP_OUTPUT_PP;
 800521c:	683b      	ldr	r3, [r7, #0]
 800521e:	68db      	ldr	r3, [r3, #12]
 8005220:	623b      	str	r3, [r7, #32]
          break;
 8005222:	e029      	b.n	8005278 <HAL_GPIO_Init+0x130>
          config = GPIO_Init->Speed + GPIO_CR_CNF_GP_OUTPUT_OD;
 8005224:	683b      	ldr	r3, [r7, #0]
 8005226:	68db      	ldr	r3, [r3, #12]
 8005228:	3304      	adds	r3, #4
 800522a:	623b      	str	r3, [r7, #32]
          break;
 800522c:	e024      	b.n	8005278 <HAL_GPIO_Init+0x130>
          config = GPIO_Init->Speed + GPIO_CR_CNF_AF_OUTPUT_PP;
 800522e:	683b      	ldr	r3, [r7, #0]
 8005230:	68db      	ldr	r3, [r3, #12]
 8005232:	3308      	adds	r3, #8
 8005234:	623b      	str	r3, [r7, #32]
          break;
 8005236:	e01f      	b.n	8005278 <HAL_GPIO_Init+0x130>
          config = GPIO_Init->Speed + GPIO_CR_CNF_AF_OUTPUT_OD;
 8005238:	683b      	ldr	r3, [r7, #0]
 800523a:	68db      	ldr	r3, [r3, #12]
 800523c:	330c      	adds	r3, #12
 800523e:	623b      	str	r3, [r7, #32]
          break;
 8005240:	e01a      	b.n	8005278 <HAL_GPIO_Init+0x130>
          if (GPIO_Init->Pull == GPIO_NOPULL)
 8005242:	683b      	ldr	r3, [r7, #0]
 8005244:	689b      	ldr	r3, [r3, #8]
 8005246:	2b00      	cmp	r3, #0
 8005248:	d102      	bne.n	8005250 <HAL_GPIO_Init+0x108>
            config = GPIO_CR_MODE_INPUT + GPIO_CR_CNF_INPUT_FLOATING;
 800524a:	2304      	movs	r3, #4
 800524c:	623b      	str	r3, [r7, #32]
          break;
 800524e:	e013      	b.n	8005278 <HAL_GPIO_Init+0x130>
          else if (GPIO_Init->Pull == GPIO_PULLUP)
 8005250:	683b      	ldr	r3, [r7, #0]
 8005252:	689b      	ldr	r3, [r3, #8]
 8005254:	2b01      	cmp	r3, #1
 8005256:	d105      	bne.n	8005264 <HAL_GPIO_Init+0x11c>
            config = GPIO_CR_MODE_INPUT + GPIO_CR_CNF_INPUT_PU_PD;
 8005258:	2308      	movs	r3, #8
 800525a:	623b      	str	r3, [r7, #32]
            GPIOx->BSRR = ioposition;
 800525c:	687b      	ldr	r3, [r7, #4]
 800525e:	69fa      	ldr	r2, [r7, #28]
 8005260:	611a      	str	r2, [r3, #16]
          break;
 8005262:	e009      	b.n	8005278 <HAL_GPIO_Init+0x130>
            config = GPIO_CR_MODE_INPUT + GPIO_CR_CNF_INPUT_PU_PD;
 8005264:	2308      	movs	r3, #8
 8005266:	623b      	str	r3, [r7, #32]
            GPIOx->BRR = ioposition;
 8005268:	687b      	ldr	r3, [r7, #4]
 800526a:	69fa      	ldr	r2, [r7, #28]
 800526c:	615a      	str	r2, [r3, #20]
          break;
 800526e:	e003      	b.n	8005278 <HAL_GPIO_Init+0x130>
          config = GPIO_CR_MODE_INPUT + GPIO_CR_CNF_ANALOG;
 8005270:	2300      	movs	r3, #0
 8005272:	623b      	str	r3, [r7, #32]
          break;
 8005274:	e000      	b.n	8005278 <HAL_GPIO_Init+0x130>
          break;
 8005276:	bf00      	nop
      }

      /* Check if the current bit belongs to first half or last half of the pin count number
       in order to address CRH or CRL register*/
      configregister = (iocurrent < GPIO_PIN_8) ? &GPIOx->CRL     : &GPIOx->CRH;
 8005278:	69bb      	ldr	r3, [r7, #24]
 800527a:	2bff      	cmp	r3, #255	; 0xff
 800527c:	d801      	bhi.n	8005282 <HAL_GPIO_Init+0x13a>
 800527e:	687b      	ldr	r3, [r7, #4]
 8005280:	e001      	b.n	8005286 <HAL_GPIO_Init+0x13e>
 8005282:	687b      	ldr	r3, [r7, #4]
 8005284:	3304      	adds	r3, #4
 8005286:	617b      	str	r3, [r7, #20]
      registeroffset = (iocurrent < GPIO_PIN_8) ? (position << 2u) : ((position - 8u) << 2u);
 8005288:	69bb      	ldr	r3, [r7, #24]
 800528a:	2bff      	cmp	r3, #255	; 0xff
 800528c:	d802      	bhi.n	8005294 <HAL_GPIO_Init+0x14c>
 800528e:	6a7b      	ldr	r3, [r7, #36]	; 0x24
 8005290:	009b      	lsls	r3, r3, #2
 8005292:	e002      	b.n	800529a <HAL_GPIO_Init+0x152>
 8005294:	6a7b      	ldr	r3, [r7, #36]	; 0x24
 8005296:	3b08      	subs	r3, #8
 8005298:	009b      	lsls	r3, r3, #2
 800529a:	613b      	str	r3, [r7, #16]

      /* Apply the new configuration of the pin to the register */
      MODIFY_REG((*configregister), ((GPIO_CRL_MODE0 | GPIO_CRL_CNF0) << registeroffset), (config << registeroffset));
 800529c:	697b      	ldr	r3, [r7, #20]
 800529e:	681a      	ldr	r2, [r3, #0]
 80052a0:	210f      	movs	r1, #15
 80052a2:	693b      	ldr	r3, [r7, #16]
 80052a4:	fa01 f303 	lsl.w	r3, r1, r3
 80052a8:	43db      	mvns	r3, r3
 80052aa:	401a      	ands	r2, r3
 80052ac:	6a39      	ldr	r1, [r7, #32]
 80052ae:	693b      	ldr	r3, [r7, #16]
 80052b0:	fa01 f303 	lsl.w	r3, r1, r3
 80052b4:	431a      	orrs	r2, r3
 80052b6:	697b      	ldr	r3, [r7, #20]
 80052b8:	601a      	str	r2, [r3, #0]

      /*--------------------- EXTI Mode Configuration ------------------------*/
      /* Configure the External Interrupt or event for the current IO */
      if ((GPIO_Init->Mode & EXTI_MODE) == EXTI_MODE)
 80052ba:	683b      	ldr	r3, [r7, #0]
 80052bc:	685b      	ldr	r3, [r3, #4]
 80052be:	f003 5380 	and.w	r3, r3, #268435456	; 0x10000000
 80052c2:	2b00      	cmp	r3, #0
 80052c4:	f000 80b1 	beq.w	800542a <HAL_GPIO_Init+0x2e2>
      {
        /* Enable AFIO Clock */
        __HAL_RCC_AFIO_CLK_ENABLE();
 80052c8:	4b4d      	ldr	r3, [pc, #308]	; (8005400 <HAL_GPIO_Init+0x2b8>)
 80052ca:	699b      	ldr	r3, [r3, #24]
 80052cc:	4a4c      	ldr	r2, [pc, #304]	; (8005400 <HAL_GPIO_Init+0x2b8>)
 80052ce:	f043 0301 	orr.w	r3, r3, #1
 80052d2:	6193      	str	r3, [r2, #24]
 80052d4:	4b4a      	ldr	r3, [pc, #296]	; (8005400 <HAL_GPIO_Init+0x2b8>)
 80052d6:	699b      	ldr	r3, [r3, #24]
 80052d8:	f003 0301 	and.w	r3, r3, #1
 80052dc:	60bb      	str	r3, [r7, #8]
 80052de:	68bb      	ldr	r3, [r7, #8]
        temp = AFIO->EXTICR[position >> 2u];
 80052e0:	4a48      	ldr	r2, [pc, #288]	; (8005404 <HAL_GPIO_Init+0x2bc>)
 80052e2:	6a7b      	ldr	r3, [r7, #36]	; 0x24
 80052e4:	089b      	lsrs	r3, r3, #2
 80052e6:	3302      	adds	r3, #2
 80052e8:	f852 3023 	ldr.w	r3, [r2, r3, lsl #2]
 80052ec:	60fb      	str	r3, [r7, #12]
        CLEAR_BIT(temp, (0x0Fu) << (4u * (position & 0x03u)));
 80052ee:	6a7b      	ldr	r3, [r7, #36]	; 0x24
 80052f0:	f003 0303 	and.w	r3, r3, #3
 80052f4:	009b      	lsls	r3, r3, #2
 80052f6:	220f      	movs	r2, #15
 80052f8:	fa02 f303 	lsl.w	r3, r2, r3
 80052fc:	43db      	mvns	r3, r3
 80052fe:	68fa      	ldr	r2, [r7, #12]
 8005300:	4013      	ands	r3, r2
 8005302:	60fb      	str	r3, [r7, #12]
        SET_BIT(temp, (GPIO_GET_INDEX(GPIOx)) << (4u * (position & 0x03u)));
 8005304:	687b      	ldr	r3, [r7, #4]
 8005306:	4a40      	ldr	r2, [pc, #256]	; (8005408 <HAL_GPIO_Init+0x2c0>)
 8005308:	4293      	cmp	r3, r2
 800530a:	d013      	beq.n	8005334 <HAL_GPIO_Init+0x1ec>
 800530c:	687b      	ldr	r3, [r7, #4]
 800530e:	4a3f      	ldr	r2, [pc, #252]	; (800540c <HAL_GPIO_Init+0x2c4>)
 8005310:	4293      	cmp	r3, r2
 8005312:	d00d      	beq.n	8005330 <HAL_GPIO_Init+0x1e8>
 8005314:	687b      	ldr	r3, [r7, #4]
 8005316:	4a3e      	ldr	r2, [pc, #248]	; (8005410 <HAL_GPIO_Init+0x2c8>)
 8005318:	4293      	cmp	r3, r2
 800531a:	d007      	beq.n	800532c <HAL_GPIO_Init+0x1e4>
 800531c:	687b      	ldr	r3, [r7, #4]
 800531e:	4a3d      	ldr	r2, [pc, #244]	; (8005414 <HAL_GPIO_Init+0x2cc>)
 8005320:	4293      	cmp	r3, r2
 8005322:	d101      	bne.n	8005328 <HAL_GPIO_Init+0x1e0>
 8005324:	2303      	movs	r3, #3
 8005326:	e006      	b.n	8005336 <HAL_GPIO_Init+0x1ee>
 8005328:	2304      	movs	r3, #4
 800532a:	e004      	b.n	8005336 <HAL_GPIO_Init+0x1ee>
 800532c:	2302      	movs	r3, #2
 800532e:	e002      	b.n	8005336 <HAL_GPIO_Init+0x1ee>
 8005330:	2301      	movs	r3, #1
 8005332:	e000      	b.n	8005336 <HAL_GPIO_Init+0x1ee>
 8005334:	2300      	movs	r3, #0
 8005336:	6a7a      	ldr	r2, [r7, #36]	; 0x24
 8005338:	f002 0203 	and.w	r2, r2, #3
 800533c:	0092      	lsls	r2, r2, #2
 800533e:	4093      	lsls	r3, r2
 8005340:	68fa      	ldr	r2, [r7, #12]
 8005342:	4313      	orrs	r3, r2
 8005344:	60fb      	str	r3, [r7, #12]
        AFIO->EXTICR[position >> 2u] = temp;
 8005346:	492f      	ldr	r1, [pc, #188]	; (8005404 <HAL_GPIO_Init+0x2bc>)
 8005348:	6a7b      	ldr	r3, [r7, #36]	; 0x24
 800534a:	089b      	lsrs	r3, r3, #2
 800534c:	3302      	adds	r3, #2
 800534e:	68fa      	ldr	r2, [r7, #12]
 8005350:	f841 2023 	str.w	r2, [r1, r3, lsl #2]


        /* Enable or disable the rising trigger */
        if ((GPIO_Init->Mode & RISING_EDGE) == RISING_EDGE)
 8005354:	683b      	ldr	r3, [r7, #0]
 8005356:	685b      	ldr	r3, [r3, #4]
 8005358:	f403 1380 	and.w	r3, r3, #1048576	; 0x100000
 800535c:	2b00      	cmp	r3, #0
 800535e:	d006      	beq.n	800536e <HAL_GPIO_Init+0x226>
        {
          SET_BIT(EXTI->RTSR, iocurrent);
 8005360:	4b2d      	ldr	r3, [pc, #180]	; (8005418 <HAL_GPIO_Init+0x2d0>)
 8005362:	689a      	ldr	r2, [r3, #8]
 8005364:	492c      	ldr	r1, [pc, #176]	; (8005418 <HAL_GPIO_Init+0x2d0>)
 8005366:	69bb      	ldr	r3, [r7, #24]
 8005368:	4313      	orrs	r3, r2
 800536a:	608b      	str	r3, [r1, #8]
 800536c:	e006      	b.n	800537c <HAL_GPIO_Init+0x234>
        }
        else
        {
          CLEAR_BIT(EXTI->RTSR, iocurrent);
 800536e:	4b2a      	ldr	r3, [pc, #168]	; (8005418 <HAL_GPIO_Init+0x2d0>)
 8005370:	689a      	ldr	r2, [r3, #8]
 8005372:	69bb      	ldr	r3, [r7, #24]
 8005374:	43db      	mvns	r3, r3
 8005376:	4928      	ldr	r1, [pc, #160]	; (8005418 <HAL_GPIO_Init+0x2d0>)
 8005378:	4013      	ands	r3, r2
 800537a:	608b      	str	r3, [r1, #8]
        }

        /* Enable or disable the falling trigger */
        if ((GPIO_Init->Mode & FALLING_EDGE) == FALLING_EDGE)
 800537c:	683b      	ldr	r3, [r7, #0]
 800537e:	685b      	ldr	r3, [r3, #4]
 8005380:	f403 1300 	and.w	r3, r3, #2097152	; 0x200000
 8005384:	2b00      	cmp	r3, #0
 8005386:	d006      	beq.n	8005396 <HAL_GPIO_Init+0x24e>
        {
          SET_BIT(EXTI->FTSR, iocurrent);
 8005388:	4b23      	ldr	r3, [pc, #140]	; (8005418 <HAL_GPIO_Init+0x2d0>)
 800538a:	68da      	ldr	r2, [r3, #12]
 800538c:	4922      	ldr	r1, [pc, #136]	; (8005418 <HAL_GPIO_Init+0x2d0>)
 800538e:	69bb      	ldr	r3, [r7, #24]
 8005390:	4313      	orrs	r3, r2
 8005392:	60cb      	str	r3, [r1, #12]
 8005394:	e006      	b.n	80053a4 <HAL_GPIO_Init+0x25c>
        }
        else
        {
          CLEAR_BIT(EXTI->FTSR, iocurrent);
 8005396:	4b20      	ldr	r3, [pc, #128]	; (8005418 <HAL_GPIO_Init+0x2d0>)
 8005398:	68da      	ldr	r2, [r3, #12]
 800539a:	69bb      	ldr	r3, [r7, #24]
 800539c:	43db      	mvns	r3, r3
 800539e:	491e      	ldr	r1, [pc, #120]	; (8005418 <HAL_GPIO_Init+0x2d0>)
 80053a0:	4013      	ands	r3, r2
 80053a2:	60cb      	str	r3, [r1, #12]
        }

        /* Configure the event mask */
        if ((GPIO_Init->Mode & GPIO_MODE_EVT) == GPIO_MODE_EVT)
 80053a4:	683b      	ldr	r3, [r7, #0]
 80053a6:	685b      	ldr	r3, [r3, #4]
 80053a8:	f403 3300 	and.w	r3, r3, #131072	; 0x20000
 80053ac:	2b00      	cmp	r3, #0
 80053ae:	d006      	beq.n	80053be <HAL_GPIO_Init+0x276>
        {
          SET_BIT(EXTI->EMR, iocurrent);
 80053b0:	4b19      	ldr	r3, [pc, #100]	; (8005418 <HAL_GPIO_Init+0x2d0>)
 80053b2:	685a      	ldr	r2, [r3, #4]
 80053b4:	4918      	ldr	r1, [pc, #96]	; (8005418 <HAL_GPIO_Init+0x2d0>)
 80053b6:	69bb      	ldr	r3, [r7, #24]
 80053b8:	4313      	orrs	r3, r2
 80053ba:	604b      	str	r3, [r1, #4]
 80053bc:	e006      	b.n	80053cc <HAL_GPIO_Init+0x284>
        }
        else
        {
          CLEAR_BIT(EXTI->EMR, iocurrent);
 80053be:	4b16      	ldr	r3, [pc, #88]	; (8005418 <HAL_GPIO_Init+0x2d0>)
 80053c0:	685a      	ldr	r2, [r3, #4]
 80053c2:	69bb      	ldr	r3, [r7, #24]
 80053c4:	43db      	mvns	r3, r3
 80053c6:	4914      	ldr	r1, [pc, #80]	; (8005418 <HAL_GPIO_Init+0x2d0>)
 80053c8:	4013      	ands	r3, r2
 80053ca:	604b      	str	r3, [r1, #4]
        }

        /* Configure the interrupt mask */
        if ((GPIO_Init->Mode & GPIO_MODE_IT) == GPIO_MODE_IT)
 80053cc:	683b      	ldr	r3, [r7, #0]
 80053ce:	685b      	ldr	r3, [r3, #4]
 80053d0:	f403 3380 	and.w	r3, r3, #65536	; 0x10000
 80053d4:	2b00      	cmp	r3, #0
 80053d6:	d021      	beq.n	800541c <HAL_GPIO_Init+0x2d4>
        {
          SET_BIT(EXTI->IMR, iocurrent);
 80053d8:	4b0f      	ldr	r3, [pc, #60]	; (8005418 <HAL_GPIO_Init+0x2d0>)
 80053da:	681a      	ldr	r2, [r3, #0]
 80053dc:	490e      	ldr	r1, [pc, #56]	; (8005418 <HAL_GPIO_Init+0x2d0>)
 80053de:	69bb      	ldr	r3, [r7, #24]
 80053e0:	4313      	orrs	r3, r2
 80053e2:	600b      	str	r3, [r1, #0]
 80053e4:	e021      	b.n	800542a <HAL_GPIO_Init+0x2e2>
 80053e6:	bf00      	nop
 80053e8:	10320000 	.word	0x10320000
 80053ec:	10310000 	.word	0x10310000
 80053f0:	10220000 	.word	0x10220000
 80053f4:	10210000 	.word	0x10210000
 80053f8:	10120000 	.word	0x10120000
 80053fc:	10110000 	.word	0x10110000
 8005400:	40021000 	.word	0x40021000
 8005404:	40010000 	.word	0x40010000
 8005408:	40010800 	.word	0x40010800
 800540c:	40010c00 	.word	0x40010c00
 8005410:	40011000 	.word	0x40011000
 8005414:	40011400 	.word	0x40011400
 8005418:	40010400 	.word	0x40010400
        }
        else
        {
          CLEAR_BIT(EXTI->IMR, iocurrent);
 800541c:	4b0b      	ldr	r3, [pc, #44]	; (800544c <HAL_GPIO_Init+0x304>)
 800541e:	681a      	ldr	r2, [r3, #0]
 8005420:	69bb      	ldr	r3, [r7, #24]
 8005422:	43db      	mvns	r3, r3
 8005424:	4909      	ldr	r1, [pc, #36]	; (800544c <HAL_GPIO_Init+0x304>)
 8005426:	4013      	ands	r3, r2
 8005428:	600b      	str	r3, [r1, #0]
        }
      }
    }

	position++;
 800542a:	6a7b      	ldr	r3, [r7, #36]	; 0x24
 800542c:	3301      	adds	r3, #1
 800542e:	627b      	str	r3, [r7, #36]	; 0x24
  while (((GPIO_Init->Pin) >> position) != 0x00u)
 8005430:	683b      	ldr	r3, [r7, #0]
 8005432:	681a      	ldr	r2, [r3, #0]
 8005434:	6a7b      	ldr	r3, [r7, #36]	; 0x24
 8005436:	fa22 f303 	lsr.w	r3, r2, r3
 800543a:	2b00      	cmp	r3, #0
 800543c:	f47f ae8e 	bne.w	800515c <HAL_GPIO_Init+0x14>
  }
}
 8005440:	bf00      	nop
 8005442:	bf00      	nop
 8005444:	372c      	adds	r7, #44	; 0x2c
 8005446:	46bd      	mov	sp, r7
 8005448:	bc80      	pop	{r7}
 800544a:	4770      	bx	lr
 800544c:	40010400 	.word	0x40010400

08005450 <HAL_GPIO_WritePin>:
  *            @arg GPIO_PIN_RESET: to clear the port pin
  *            @arg GPIO_PIN_SET: to set the port pin
  * @retval None
  */
void HAL_GPIO_WritePin(GPIO_TypeDef *GPIOx, uint16_t GPIO_Pin, GPIO_PinState PinState)
{
 8005450:	b480      	push	{r7}
 8005452:	b083      	sub	sp, #12
 8005454:	af00      	add	r7, sp, #0
 8005456:	6078      	str	r0, [r7, #4]
 8005458:	460b      	mov	r3, r1
 800545a:	807b      	strh	r3, [r7, #2]
 800545c:	4613      	mov	r3, r2
 800545e:	707b      	strb	r3, [r7, #1]
  /* Check the parameters */
  assert_param(IS_GPIO_PIN(GPIO_Pin));
  assert_param(IS_GPIO_PIN_ACTION(PinState));

  if (PinState != GPIO_PIN_RESET)
 8005460:	787b      	ldrb	r3, [r7, #1]
 8005462:	2b00      	cmp	r3, #0
 8005464:	d003      	beq.n	800546e <HAL_GPIO_WritePin+0x1e>
  {
    GPIOx->BSRR = GPIO_Pin;
 8005466:	887a      	ldrh	r2, [r7, #2]
 8005468:	687b      	ldr	r3, [r7, #4]
 800546a:	611a      	str	r2, [r3, #16]
  }
  else
  {
    GPIOx->BSRR = (uint32_t)GPIO_Pin << 16u;
  }
}
 800546c:	e003      	b.n	8005476 <HAL_GPIO_WritePin+0x26>
    GPIOx->BSRR = (uint32_t)GPIO_Pin << 16u;
 800546e:	887b      	ldrh	r3, [r7, #2]
 8005470:	041a      	lsls	r2, r3, #16
 8005472:	687b      	ldr	r3, [r7, #4]
 8005474:	611a      	str	r2, [r3, #16]
}
 8005476:	bf00      	nop
 8005478:	370c      	adds	r7, #12
 800547a:	46bd      	mov	sp, r7
 800547c:	bc80      	pop	{r7}
 800547e:	4770      	bx	lr

08005480 <HAL_I2C_Init>:
  * @param  hi2c Pointer to a I2C_HandleTypeDef structure that contains
  *                the configuration information for the specified I2C.
  * @retval HAL status
  */
HAL_StatusTypeDef HAL_I2C_Init(I2C_HandleTypeDef *hi2c)
{
 8005480:	b580      	push	{r7, lr}
 8005482:	b084      	sub	sp, #16
 8005484:	af00      	add	r7, sp, #0
 8005486:	6078      	str	r0, [r7, #4]
  uint32_t freqrange;
  uint32_t pclk1;

  /* Check the I2C handle allocation */
  if (hi2c == NULL)
 8005488:	687b      	ldr	r3, [r7, #4]
 800548a:	2b00      	cmp	r3, #0
 800548c:	d101      	bne.n	8005492 <HAL_I2C_Init+0x12>
  {
    return HAL_ERROR;
 800548e:	2301      	movs	r3, #1
 8005490:	e12b      	b.n	80056ea <HAL_I2C_Init+0x26a>
  assert_param(IS_I2C_DUAL_ADDRESS(hi2c->Init.DualAddressMode));
  assert_param(IS_I2C_OWN_ADDRESS2(hi2c->Init.OwnAddress2));
  assert_param(IS_I2C_GENERAL_CALL(hi2c->Init.GeneralCallMode));
  assert_param(IS_I2C_NO_STRETCH(hi2c->Init.NoStretchMode));

  if (hi2c->State == HAL_I2C_STATE_RESET)
 8005492:	687b      	ldr	r3, [r7, #4]
 8005494:	f893 303d 	ldrb.w	r3, [r3, #61]	; 0x3d
 8005498:	b2db      	uxtb	r3, r3
 800549a:	2b00      	cmp	r3, #0
 800549c:	d106      	bne.n	80054ac <HAL_I2C_Init+0x2c>
  {
    /* Allocate lock resource and initialize it */
    hi2c->Lock = HAL_UNLOCKED;
 800549e:	687b      	ldr	r3, [r7, #4]
 80054a0:	2200      	movs	r2, #0
 80054a2:	f883 203c 	strb.w	r2, [r3, #60]	; 0x3c

    /* Init the low level hardware : GPIO, CLOCK, NVIC */
    hi2c->MspInitCallback(hi2c);
#else
    /* Init the low level hardware : GPIO, CLOCK, NVIC */
    HAL_I2C_MspInit(hi2c);
 80054a6:	6878      	ldr	r0, [r7, #4]
 80054a8:	f7ff fa2c 	bl	8004904 <HAL_I2C_MspInit>
#endif /* USE_HAL_I2C_REGISTER_CALLBACKS */
  }

  hi2c->State = HAL_I2C_STATE_BUSY;
 80054ac:	687b      	ldr	r3, [r7, #4]
 80054ae:	2224      	movs	r2, #36	; 0x24
 80054b0:	f883 203d 	strb.w	r2, [r3, #61]	; 0x3d

  /* Disable the selected I2C peripheral */
  __HAL_I2C_DISABLE(hi2c);
 80054b4:	687b      	ldr	r3, [r7, #4]
 80054b6:	681b      	ldr	r3, [r3, #0]
 80054b8:	681a      	ldr	r2, [r3, #0]
 80054ba:	687b      	ldr	r3, [r7, #4]
 80054bc:	681b      	ldr	r3, [r3, #0]
 80054be:	f022 0201 	bic.w	r2, r2, #1
 80054c2:	601a      	str	r2, [r3, #0]

  /*Reset I2C*/
  hi2c->Instance->CR1 |= I2C_CR1_SWRST;
 80054c4:	687b      	ldr	r3, [r7, #4]
 80054c6:	681b      	ldr	r3, [r3, #0]
 80054c8:	681a      	ldr	r2, [r3, #0]
 80054ca:	687b      	ldr	r3, [r7, #4]
 80054cc:	681b      	ldr	r3, [r3, #0]
 80054ce:	f442 4200 	orr.w	r2, r2, #32768	; 0x8000
 80054d2:	601a      	str	r2, [r3, #0]
  hi2c->Instance->CR1 &= ~I2C_CR1_SWRST;
 80054d4:	687b      	ldr	r3, [r7, #4]
 80054d6:	681b      	ldr	r3, [r3, #0]
 80054d8:	681a      	ldr	r2, [r3, #0]
 80054da:	687b      	ldr	r3, [r7, #4]
 80054dc:	681b      	ldr	r3, [r3, #0]
 80054de:	f422 4200 	bic.w	r2, r2, #32768	; 0x8000
 80054e2:	601a      	str	r2, [r3, #0]

  /* Get PCLK1 frequency */
  pclk1 = HAL_RCC_GetPCLK1Freq();
 80054e4:	f001 fbf0 	bl	8006cc8 <HAL_RCC_GetPCLK1Freq>
 80054e8:	60f8      	str	r0, [r7, #12]

  /* Check the minimum allowed PCLK1 frequency */
  if (I2C_MIN_PCLK_FREQ(pclk1, hi2c->Init.ClockSpeed) == 1U)
 80054ea:	687b      	ldr	r3, [r7, #4]
 80054ec:	685b      	ldr	r3, [r3, #4]
 80054ee:	4a81      	ldr	r2, [pc, #516]	; (80056f4 <HAL_I2C_Init+0x274>)
 80054f0:	4293      	cmp	r3, r2
 80054f2:	d807      	bhi.n	8005504 <HAL_I2C_Init+0x84>
 80054f4:	68fb      	ldr	r3, [r7, #12]
 80054f6:	4a80      	ldr	r2, [pc, #512]	; (80056f8 <HAL_I2C_Init+0x278>)
 80054f8:	4293      	cmp	r3, r2
 80054fa:	bf94      	ite	ls
 80054fc:	2301      	movls	r3, #1
 80054fe:	2300      	movhi	r3, #0
 8005500:	b2db      	uxtb	r3, r3
 8005502:	e006      	b.n	8005512 <HAL_I2C_Init+0x92>
 8005504:	68fb      	ldr	r3, [r7, #12]
 8005506:	4a7d      	ldr	r2, [pc, #500]	; (80056fc <HAL_I2C_Init+0x27c>)
 8005508:	4293      	cmp	r3, r2
 800550a:	bf94      	ite	ls
 800550c:	2301      	movls	r3, #1
 800550e:	2300      	movhi	r3, #0
 8005510:	b2db      	uxtb	r3, r3
 8005512:	2b00      	cmp	r3, #0
 8005514:	d001      	beq.n	800551a <HAL_I2C_Init+0x9a>
  {
    return HAL_ERROR;
 8005516:	2301      	movs	r3, #1
 8005518:	e0e7      	b.n	80056ea <HAL_I2C_Init+0x26a>
  }

  /* Calculate frequency range */
  freqrange = I2C_FREQRANGE(pclk1);
 800551a:	68fb      	ldr	r3, [r7, #12]
 800551c:	4a78      	ldr	r2, [pc, #480]	; (8005700 <HAL_I2C_Init+0x280>)
 800551e:	fba2 2303 	umull	r2, r3, r2, r3
 8005522:	0c9b      	lsrs	r3, r3, #18
 8005524:	60bb      	str	r3, [r7, #8]

  /*---------------------------- I2Cx CR2 Configuration ----------------------*/
  /* Configure I2Cx: Frequency range */
  MODIFY_REG(hi2c->Instance->CR2, I2C_CR2_FREQ, freqrange);
 8005526:	687b      	ldr	r3, [r7, #4]
 8005528:	681b      	ldr	r3, [r3, #0]
 800552a:	685b      	ldr	r3, [r3, #4]
 800552c:	f023 013f 	bic.w	r1, r3, #63	; 0x3f
 8005530:	687b      	ldr	r3, [r7, #4]
 8005532:	681b      	ldr	r3, [r3, #0]
 8005534:	68ba      	ldr	r2, [r7, #8]
 8005536:	430a      	orrs	r2, r1
 8005538:	605a      	str	r2, [r3, #4]

  /*---------------------------- I2Cx TRISE Configuration --------------------*/
  /* Configure I2Cx: Rise Time */
  MODIFY_REG(hi2c->Instance->TRISE, I2C_TRISE_TRISE, I2C_RISE_TIME(freqrange, hi2c->Init.ClockSpeed));
 800553a:	687b      	ldr	r3, [r7, #4]
 800553c:	681b      	ldr	r3, [r3, #0]
 800553e:	6a1b      	ldr	r3, [r3, #32]
 8005540:	f023 013f 	bic.w	r1, r3, #63	; 0x3f
 8005544:	687b      	ldr	r3, [r7, #4]
 8005546:	685b      	ldr	r3, [r3, #4]
 8005548:	4a6a      	ldr	r2, [pc, #424]	; (80056f4 <HAL_I2C_Init+0x274>)
 800554a:	4293      	cmp	r3, r2
 800554c:	d802      	bhi.n	8005554 <HAL_I2C_Init+0xd4>
 800554e:	68bb      	ldr	r3, [r7, #8]
 8005550:	3301      	adds	r3, #1
 8005552:	e009      	b.n	8005568 <HAL_I2C_Init+0xe8>
 8005554:	68bb      	ldr	r3, [r7, #8]
 8005556:	f44f 7296 	mov.w	r2, #300	; 0x12c
 800555a:	fb02 f303 	mul.w	r3, r2, r3
 800555e:	4a69      	ldr	r2, [pc, #420]	; (8005704 <HAL_I2C_Init+0x284>)
 8005560:	fba2 2303 	umull	r2, r3, r2, r3
 8005564:	099b      	lsrs	r3, r3, #6
 8005566:	3301      	adds	r3, #1
 8005568:	687a      	ldr	r2, [r7, #4]
 800556a:	6812      	ldr	r2, [r2, #0]
 800556c:	430b      	orrs	r3, r1
 800556e:	6213      	str	r3, [r2, #32]

  /*---------------------------- I2Cx CCR Configuration ----------------------*/
  /* Configure I2Cx: Speed */
  MODIFY_REG(hi2c->Instance->CCR, (I2C_CCR_FS | I2C_CCR_DUTY | I2C_CCR_CCR), I2C_SPEED(pclk1, hi2c->Init.ClockSpeed, hi2c->Init.DutyCycle));
 8005570:	687b      	ldr	r3, [r7, #4]
 8005572:	681b      	ldr	r3, [r3, #0]
 8005574:	69db      	ldr	r3, [r3, #28]
 8005576:	f423 424f 	bic.w	r2, r3, #52992	; 0xcf00
 800557a:	f022 02ff 	bic.w	r2, r2, #255	; 0xff
 800557e:	687b      	ldr	r3, [r7, #4]
 8005580:	685b      	ldr	r3, [r3, #4]
 8005582:	495c      	ldr	r1, [pc, #368]	; (80056f4 <HAL_I2C_Init+0x274>)
 8005584:	428b      	cmp	r3, r1
 8005586:	d819      	bhi.n	80055bc <HAL_I2C_Init+0x13c>
 8005588:	68fb      	ldr	r3, [r7, #12]
 800558a:	1e59      	subs	r1, r3, #1
 800558c:	687b      	ldr	r3, [r7, #4]
 800558e:	685b      	ldr	r3, [r3, #4]
 8005590:	005b      	lsls	r3, r3, #1
 8005592:	fbb1 f3f3 	udiv	r3, r1, r3
 8005596:	1c59      	adds	r1, r3, #1
 8005598:	f640 73fc 	movw	r3, #4092	; 0xffc
 800559c:	400b      	ands	r3, r1
 800559e:	2b00      	cmp	r3, #0
 80055a0:	d00a      	beq.n	80055b8 <HAL_I2C_Init+0x138>
 80055a2:	68fb      	ldr	r3, [r7, #12]
 80055a4:	1e59      	subs	r1, r3, #1
 80055a6:	687b      	ldr	r3, [r7, #4]
 80055a8:	685b      	ldr	r3, [r3, #4]
 80055aa:	005b      	lsls	r3, r3, #1
 80055ac:	fbb1 f3f3 	udiv	r3, r1, r3
 80055b0:	3301      	adds	r3, #1
 80055b2:	f3c3 030b 	ubfx	r3, r3, #0, #12
 80055b6:	e051      	b.n	800565c <HAL_I2C_Init+0x1dc>
 80055b8:	2304      	movs	r3, #4
 80055ba:	e04f      	b.n	800565c <HAL_I2C_Init+0x1dc>
 80055bc:	687b      	ldr	r3, [r7, #4]
 80055be:	689b      	ldr	r3, [r3, #8]
 80055c0:	2b00      	cmp	r3, #0
 80055c2:	d111      	bne.n	80055e8 <HAL_I2C_Init+0x168>
 80055c4:	68fb      	ldr	r3, [r7, #12]
 80055c6:	1e58      	subs	r0, r3, #1
 80055c8:	687b      	ldr	r3, [r7, #4]
 80055ca:	6859      	ldr	r1, [r3, #4]
 80055cc:	460b      	mov	r3, r1
 80055ce:	005b      	lsls	r3, r3, #1
 80055d0:	440b      	add	r3, r1
 80055d2:	fbb0 f3f3 	udiv	r3, r0, r3
 80055d6:	3301      	adds	r3, #1
 80055d8:	f3c3 030b 	ubfx	r3, r3, #0, #12
 80055dc:	2b00      	cmp	r3, #0
 80055de:	bf0c      	ite	eq
 80055e0:	2301      	moveq	r3, #1
 80055e2:	2300      	movne	r3, #0
 80055e4:	b2db      	uxtb	r3, r3
 80055e6:	e012      	b.n	800560e <HAL_I2C_Init+0x18e>
 80055e8:	68fb      	ldr	r3, [r7, #12]
 80055ea:	1e58      	subs	r0, r3, #1
 80055ec:	687b      	ldr	r3, [r7, #4]
 80055ee:	6859      	ldr	r1, [r3, #4]
 80055f0:	460b      	mov	r3, r1
 80055f2:	009b      	lsls	r3, r3, #2
 80055f4:	440b      	add	r3, r1
 80055f6:	0099      	lsls	r1, r3, #2
 80055f8:	440b      	add	r3, r1
 80055fa:	fbb0 f3f3 	udiv	r3, r0, r3
 80055fe:	3301      	adds	r3, #1
 8005600:	f3c3 030b 	ubfx	r3, r3, #0, #12
 8005604:	2b00      	cmp	r3, #0
 8005606:	bf0c      	ite	eq
 8005608:	2301      	moveq	r3, #1
 800560a:	2300      	movne	r3, #0
 800560c:	b2db      	uxtb	r3, r3
 800560e:	2b00      	cmp	r3, #0
 8005610:	d001      	beq.n	8005616 <HAL_I2C_Init+0x196>
 8005612:	2301      	movs	r3, #1
 8005614:	e022      	b.n	800565c <HAL_I2C_Init+0x1dc>
 8005616:	687b      	ldr	r3, [r7, #4]
 8005618:	689b      	ldr	r3, [r3, #8]
 800561a:	2b00      	cmp	r3, #0
 800561c:	d10e      	bne.n	800563c <HAL_I2C_Init+0x1bc>
 800561e:	68fb      	ldr	r3, [r7, #12]
 8005620:	1e58      	subs	r0, r3, #1
 8005622:	687b      	ldr	r3, [r7, #4]
 8005624:	6859      	ldr	r1, [r3, #4]
 8005626:	460b      	mov	r3, r1
 8005628:	005b      	lsls	r3, r3, #1
 800562a:	440b      	add	r3, r1
 800562c:	fbb0 f3f3 	udiv	r3, r0, r3
 8005630:	3301      	adds	r3, #1
 8005632:	f3c3 030b 	ubfx	r3, r3, #0, #12
 8005636:	f443 4300 	orr.w	r3, r3, #32768	; 0x8000
 800563a:	e00f      	b.n	800565c <HAL_I2C_Init+0x1dc>
 800563c:	68fb      	ldr	r3, [r7, #12]
 800563e:	1e58      	subs	r0, r3, #1
 8005640:	687b      	ldr	r3, [r7, #4]
 8005642:	6859      	ldr	r1, [r3, #4]
 8005644:	460b      	mov	r3, r1
 8005646:	009b      	lsls	r3, r3, #2
 8005648:	440b      	add	r3, r1
 800564a:	0099      	lsls	r1, r3, #2
 800564c:	440b      	add	r3, r1
 800564e:	fbb0 f3f3 	udiv	r3, r0, r3
 8005652:	3301      	adds	r3, #1
 8005654:	f3c3 030b 	ubfx	r3, r3, #0, #12
 8005658:	f443 4340 	orr.w	r3, r3, #49152	; 0xc000
 800565c:	6879      	ldr	r1, [r7, #4]
 800565e:	6809      	ldr	r1, [r1, #0]
 8005660:	4313      	orrs	r3, r2
 8005662:	61cb      	str	r3, [r1, #28]

  /*---------------------------- I2Cx CR1 Configuration ----------------------*/
  /* Configure I2Cx: Generalcall and NoStretch mode */
  MODIFY_REG(hi2c->Instance->CR1, (I2C_CR1_ENGC | I2C_CR1_NOSTRETCH), (hi2c->Init.GeneralCallMode | hi2c->Init.NoStretchMode));
 8005664:	687b      	ldr	r3, [r7, #4]
 8005666:	681b      	ldr	r3, [r3, #0]
 8005668:	681b      	ldr	r3, [r3, #0]
 800566a:	f023 01c0 	bic.w	r1, r3, #192	; 0xc0
 800566e:	687b      	ldr	r3, [r7, #4]
 8005670:	69da      	ldr	r2, [r3, #28]
 8005672:	687b      	ldr	r3, [r7, #4]
 8005674:	6a1b      	ldr	r3, [r3, #32]
 8005676:	431a      	orrs	r2, r3
 8005678:	687b      	ldr	r3, [r7, #4]
 800567a:	681b      	ldr	r3, [r3, #0]
 800567c:	430a      	orrs	r2, r1
 800567e:	601a      	str	r2, [r3, #0]

  /*---------------------------- I2Cx OAR1 Configuration ---------------------*/
  /* Configure I2Cx: Own Address1 and addressing mode */
  MODIFY_REG(hi2c->Instance->OAR1, (I2C_OAR1_ADDMODE | I2C_OAR1_ADD8_9 | I2C_OAR1_ADD1_7 | I2C_OAR1_ADD0), (hi2c->Init.AddressingMode | hi2c->Init.OwnAddress1));
 8005680:	687b      	ldr	r3, [r7, #4]
 8005682:	681b      	ldr	r3, [r3, #0]
 8005684:	689b      	ldr	r3, [r3, #8]
 8005686:	f423 4303 	bic.w	r3, r3, #33536	; 0x8300
 800568a:	f023 03ff 	bic.w	r3, r3, #255	; 0xff
 800568e:	687a      	ldr	r2, [r7, #4]
 8005690:	6911      	ldr	r1, [r2, #16]
 8005692:	687a      	ldr	r2, [r7, #4]
 8005694:	68d2      	ldr	r2, [r2, #12]
 8005696:	4311      	orrs	r1, r2
 8005698:	687a      	ldr	r2, [r7, #4]
 800569a:	6812      	ldr	r2, [r2, #0]
 800569c:	430b      	orrs	r3, r1
 800569e:	6093      	str	r3, [r2, #8]

  /*---------------------------- I2Cx OAR2 Configuration ---------------------*/
  /* Configure I2Cx: Dual mode and Own Address2 */
  MODIFY_REG(hi2c->Instance->OAR2, (I2C_OAR2_ENDUAL | I2C_OAR2_ADD2), (hi2c->Init.DualAddressMode | hi2c->Init.OwnAddress2));
 80056a0:	687b      	ldr	r3, [r7, #4]
 80056a2:	681b      	ldr	r3, [r3, #0]
 80056a4:	68db      	ldr	r3, [r3, #12]
 80056a6:	f023 01ff 	bic.w	r1, r3, #255	; 0xff
 80056aa:	687b      	ldr	r3, [r7, #4]
 80056ac:	695a      	ldr	r2, [r3, #20]
 80056ae:	687b      	ldr	r3, [r7, #4]
 80056b0:	699b      	ldr	r3, [r3, #24]
 80056b2:	431a      	orrs	r2, r3
 80056b4:	687b      	ldr	r3, [r7, #4]
 80056b6:	681b      	ldr	r3, [r3, #0]
 80056b8:	430a      	orrs	r2, r1
 80056ba:	60da      	str	r2, [r3, #12]

  /* Enable the selected I2C peripheral */
  __HAL_I2C_ENABLE(hi2c);
 80056bc:	687b      	ldr	r3, [r7, #4]
 80056be:	681b      	ldr	r3, [r3, #0]
 80056c0:	681a      	ldr	r2, [r3, #0]
 80056c2:	687b      	ldr	r3, [r7, #4]
 80056c4:	681b      	ldr	r3, [r3, #0]
 80056c6:	f042 0201 	orr.w	r2, r2, #1
 80056ca:	601a      	str	r2, [r3, #0]

  hi2c->ErrorCode = HAL_I2C_ERROR_NONE;
 80056cc:	687b      	ldr	r3, [r7, #4]
 80056ce:	2200      	movs	r2, #0
 80056d0:	641a      	str	r2, [r3, #64]	; 0x40
  hi2c->State = HAL_I2C_STATE_READY;
 80056d2:	687b      	ldr	r3, [r7, #4]
 80056d4:	2220      	movs	r2, #32
 80056d6:	f883 203d 	strb.w	r2, [r3, #61]	; 0x3d
  hi2c->PreviousState = I2C_STATE_NONE;
 80056da:	687b      	ldr	r3, [r7, #4]
 80056dc:	2200      	movs	r2, #0
 80056de:	631a      	str	r2, [r3, #48]	; 0x30
  hi2c->Mode = HAL_I2C_MODE_NONE;
 80056e0:	687b      	ldr	r3, [r7, #4]
 80056e2:	2200      	movs	r2, #0
 80056e4:	f883 203e 	strb.w	r2, [r3, #62]	; 0x3e

  return HAL_OK;
 80056e8:	2300      	movs	r3, #0
}
 80056ea:	4618      	mov	r0, r3
 80056ec:	3710      	adds	r7, #16
 80056ee:	46bd      	mov	sp, r7
 80056f0:	bd80      	pop	{r7, pc}
 80056f2:	bf00      	nop
 80056f4:	000186a0 	.word	0x000186a0
 80056f8:	001e847f 	.word	0x001e847f
 80056fc:	003d08ff 	.word	0x003d08ff
 8005700:	431bde83 	.word	0x431bde83
 8005704:	10624dd3 	.word	0x10624dd3

08005708 <HAL_I2C_Mem_Write>:
  * @param  Size Amount of data to be sent
  * @param  Timeout Timeout duration
  * @retval HAL status
  */
HAL_StatusTypeDef HAL_I2C_Mem_Write(I2C_HandleTypeDef *hi2c, uint16_t DevAddress, uint16_t MemAddress, uint16_t MemAddSize, uint8_t *pData, uint16_t Size, uint32_t Timeout)
{
 8005708:	b580      	push	{r7, lr}
 800570a:	b088      	sub	sp, #32
 800570c:	af02      	add	r7, sp, #8
 800570e:	60f8      	str	r0, [r7, #12]
 8005710:	4608      	mov	r0, r1
 8005712:	4611      	mov	r1, r2
 8005714:	461a      	mov	r2, r3
 8005716:	4603      	mov	r3, r0
 8005718:	817b      	strh	r3, [r7, #10]
 800571a:	460b      	mov	r3, r1
 800571c:	813b      	strh	r3, [r7, #8]
 800571e:	4613      	mov	r3, r2
 8005720:	80fb      	strh	r3, [r7, #6]
  /* Init tickstart for timeout management*/
  uint32_t tickstart = HAL_GetTick();
 8005722:	f7ff fb47 	bl	8004db4 <HAL_GetTick>
 8005726:	6178      	str	r0, [r7, #20]

  /* Check the parameters */
  assert_param(IS_I2C_MEMADD_SIZE(MemAddSize));

  if (hi2c->State == HAL_I2C_STATE_READY)
 8005728:	68fb      	ldr	r3, [r7, #12]
 800572a:	f893 303d 	ldrb.w	r3, [r3, #61]	; 0x3d
 800572e:	b2db      	uxtb	r3, r3
 8005730:	2b20      	cmp	r3, #32
 8005732:	f040 80d9 	bne.w	80058e8 <HAL_I2C_Mem_Write+0x1e0>
  {
    /* Wait until BUSY flag is reset */
    if (I2C_WaitOnFlagUntilTimeout(hi2c, I2C_FLAG_BUSY, SET, I2C_TIMEOUT_BUSY_FLAG, tickstart) != HAL_OK)
 8005736:	697b      	ldr	r3, [r7, #20]
 8005738:	9300      	str	r3, [sp, #0]
 800573a:	2319      	movs	r3, #25
 800573c:	2201      	movs	r2, #1
 800573e:	496d      	ldr	r1, [pc, #436]	; (80058f4 <HAL_I2C_Mem_Write+0x1ec>)
 8005740:	68f8      	ldr	r0, [r7, #12]
 8005742:	f000 fcc1 	bl	80060c8 <I2C_WaitOnFlagUntilTimeout>
 8005746:	4603      	mov	r3, r0
 8005748:	2b00      	cmp	r3, #0
 800574a:	d001      	beq.n	8005750 <HAL_I2C_Mem_Write+0x48>
    {
      return HAL_BUSY;
 800574c:	2302      	movs	r3, #2
 800574e:	e0cc      	b.n	80058ea <HAL_I2C_Mem_Write+0x1e2>
    }

    /* Process Locked */
    __HAL_LOCK(hi2c);
 8005750:	68fb      	ldr	r3, [r7, #12]
 8005752:	f893 303c 	ldrb.w	r3, [r3, #60]	; 0x3c
 8005756:	2b01      	cmp	r3, #1
 8005758:	d101      	bne.n	800575e <HAL_I2C_Mem_Write+0x56>
 800575a:	2302      	movs	r3, #2
 800575c:	e0c5      	b.n	80058ea <HAL_I2C_Mem_Write+0x1e2>
 800575e:	68fb      	ldr	r3, [r7, #12]
 8005760:	2201      	movs	r2, #1
 8005762:	f883 203c 	strb.w	r2, [r3, #60]	; 0x3c

    /* Check if the I2C is already enabled */
    if ((hi2c->Instance->CR1 & I2C_CR1_PE) != I2C_CR1_PE)
 8005766:	68fb      	ldr	r3, [r7, #12]
 8005768:	681b      	ldr	r3, [r3, #0]
 800576a:	681b      	ldr	r3, [r3, #0]
 800576c:	f003 0301 	and.w	r3, r3, #1
 8005770:	2b01      	cmp	r3, #1
 8005772:	d007      	beq.n	8005784 <HAL_I2C_Mem_Write+0x7c>
    {
      /* Enable I2C peripheral */
      __HAL_I2C_ENABLE(hi2c);
 8005774:	68fb      	ldr	r3, [r7, #12]
 8005776:	681b      	ldr	r3, [r3, #0]
 8005778:	681a      	ldr	r2, [r3, #0]
 800577a:	68fb      	ldr	r3, [r7, #12]
 800577c:	681b      	ldr	r3, [r3, #0]
 800577e:	f042 0201 	orr.w	r2, r2, #1
 8005782:	601a      	str	r2, [r3, #0]
    }

    /* Disable Pos */
    CLEAR_BIT(hi2c->Instance->CR1, I2C_CR1_POS);
 8005784:	68fb      	ldr	r3, [r7, #12]
 8005786:	681b      	ldr	r3, [r3, #0]
 8005788:	681a      	ldr	r2, [r3, #0]
 800578a:	68fb      	ldr	r3, [r7, #12]
 800578c:	681b      	ldr	r3, [r3, #0]
 800578e:	f422 6200 	bic.w	r2, r2, #2048	; 0x800
 8005792:	601a      	str	r2, [r3, #0]

    hi2c->State     = HAL_I2C_STATE_BUSY_TX;
 8005794:	68fb      	ldr	r3, [r7, #12]
 8005796:	2221      	movs	r2, #33	; 0x21
 8005798:	f883 203d 	strb.w	r2, [r3, #61]	; 0x3d
    hi2c->Mode      = HAL_I2C_MODE_MEM;
 800579c:	68fb      	ldr	r3, [r7, #12]
 800579e:	2240      	movs	r2, #64	; 0x40
 80057a0:	f883 203e 	strb.w	r2, [r3, #62]	; 0x3e
    hi2c->ErrorCode = HAL_I2C_ERROR_NONE;
 80057a4:	68fb      	ldr	r3, [r7, #12]
 80057a6:	2200      	movs	r2, #0
 80057a8:	641a      	str	r2, [r3, #64]	; 0x40

    /* Prepare transfer parameters */
    hi2c->pBuffPtr    = pData;
 80057aa:	68fb      	ldr	r3, [r7, #12]
 80057ac:	6a3a      	ldr	r2, [r7, #32]
 80057ae:	625a      	str	r2, [r3, #36]	; 0x24
    hi2c->XferCount   = Size;
 80057b0:	68fb      	ldr	r3, [r7, #12]
 80057b2:	8cba      	ldrh	r2, [r7, #36]	; 0x24
 80057b4:	855a      	strh	r2, [r3, #42]	; 0x2a
    hi2c->XferSize    = hi2c->XferCount;
 80057b6:	68fb      	ldr	r3, [r7, #12]
 80057b8:	8d5b      	ldrh	r3, [r3, #42]	; 0x2a
 80057ba:	b29a      	uxth	r2, r3
 80057bc:	68fb      	ldr	r3, [r7, #12]
 80057be:	851a      	strh	r2, [r3, #40]	; 0x28
    hi2c->XferOptions = I2C_NO_OPTION_FRAME;
 80057c0:	68fb      	ldr	r3, [r7, #12]
 80057c2:	4a4d      	ldr	r2, [pc, #308]	; (80058f8 <HAL_I2C_Mem_Write+0x1f0>)
 80057c4:	62da      	str	r2, [r3, #44]	; 0x2c

    /* Send Slave Address and Memory Address */
    if (I2C_RequestMemoryWrite(hi2c, DevAddress, MemAddress, MemAddSize, Timeout, tickstart) != HAL_OK)
 80057c6:	88f8      	ldrh	r0, [r7, #6]
 80057c8:	893a      	ldrh	r2, [r7, #8]
 80057ca:	8979      	ldrh	r1, [r7, #10]
 80057cc:	697b      	ldr	r3, [r7, #20]
 80057ce:	9301      	str	r3, [sp, #4]
 80057d0:	6abb      	ldr	r3, [r7, #40]	; 0x28
 80057d2:	9300      	str	r3, [sp, #0]
 80057d4:	4603      	mov	r3, r0
 80057d6:	68f8      	ldr	r0, [r7, #12]
 80057d8:	f000 faf8 	bl	8005dcc <I2C_RequestMemoryWrite>
 80057dc:	4603      	mov	r3, r0
 80057de:	2b00      	cmp	r3, #0
 80057e0:	d052      	beq.n	8005888 <HAL_I2C_Mem_Write+0x180>
    {
      return HAL_ERROR;
 80057e2:	2301      	movs	r3, #1
 80057e4:	e081      	b.n	80058ea <HAL_I2C_Mem_Write+0x1e2>
    }

    while (hi2c->XferSize > 0U)
    {
      /* Wait until TXE flag is set */
      if (I2C_WaitOnTXEFlagUntilTimeout(hi2c, Timeout, tickstart) != HAL_OK)
 80057e6:	697a      	ldr	r2, [r7, #20]
 80057e8:	6ab9      	ldr	r1, [r7, #40]	; 0x28
 80057ea:	68f8      	ldr	r0, [r7, #12]
 80057ec:	f000 fd86 	bl	80062fc <I2C_WaitOnTXEFlagUntilTimeout>
 80057f0:	4603      	mov	r3, r0
 80057f2:	2b00      	cmp	r3, #0
 80057f4:	d00d      	beq.n	8005812 <HAL_I2C_Mem_Write+0x10a>
      {
        if (hi2c->ErrorCode == HAL_I2C_ERROR_AF)
 80057f6:	68fb      	ldr	r3, [r7, #12]
 80057f8:	6c1b      	ldr	r3, [r3, #64]	; 0x40
 80057fa:	2b04      	cmp	r3, #4
 80057fc:	d107      	bne.n	800580e <HAL_I2C_Mem_Write+0x106>
        {
          /* Generate Stop */
          SET_BIT(hi2c->Instance->CR1, I2C_CR1_STOP);
 80057fe:	68fb      	ldr	r3, [r7, #12]
 8005800:	681b      	ldr	r3, [r3, #0]
 8005802:	681a      	ldr	r2, [r3, #0]
 8005804:	68fb      	ldr	r3, [r7, #12]
 8005806:	681b      	ldr	r3, [r3, #0]
 8005808:	f442 7200 	orr.w	r2, r2, #512	; 0x200
 800580c:	601a      	str	r2, [r3, #0]
        }
        return HAL_ERROR;
 800580e:	2301      	movs	r3, #1
 8005810:	e06b      	b.n	80058ea <HAL_I2C_Mem_Write+0x1e2>
      }

      /* Write data to DR */
      hi2c->Instance->DR = *hi2c->pBuffPtr;
 8005812:	68fb      	ldr	r3, [r7, #12]
 8005814:	6a5b      	ldr	r3, [r3, #36]	; 0x24
 8005816:	781a      	ldrb	r2, [r3, #0]
 8005818:	68fb      	ldr	r3, [r7, #12]
 800581a:	681b      	ldr	r3, [r3, #0]
 800581c:	611a      	str	r2, [r3, #16]

      /* Increment Buffer pointer */
      hi2c->pBuffPtr++;
 800581e:	68fb      	ldr	r3, [r7, #12]
 8005820:	6a5b      	ldr	r3, [r3, #36]	; 0x24
 8005822:	1c5a      	adds	r2, r3, #1
 8005824:	68fb      	ldr	r3, [r7, #12]
 8005826:	625a      	str	r2, [r3, #36]	; 0x24

      /* Update counter */
      hi2c->XferSize--;
 8005828:	68fb      	ldr	r3, [r7, #12]
 800582a:	8d1b      	ldrh	r3, [r3, #40]	; 0x28
 800582c:	3b01      	subs	r3, #1
 800582e:	b29a      	uxth	r2, r3
 8005830:	68fb      	ldr	r3, [r7, #12]
 8005832:	851a      	strh	r2, [r3, #40]	; 0x28
      hi2c->XferCount--;
 8005834:	68fb      	ldr	r3, [r7, #12]
 8005836:	8d5b      	ldrh	r3, [r3, #42]	; 0x2a
 8005838:	b29b      	uxth	r3, r3
 800583a:	3b01      	subs	r3, #1
 800583c:	b29a      	uxth	r2, r3
 800583e:	68fb      	ldr	r3, [r7, #12]
 8005840:	855a      	strh	r2, [r3, #42]	; 0x2a

      if ((__HAL_I2C_GET_FLAG(hi2c, I2C_FLAG_BTF) == SET) && (hi2c->XferSize != 0U))
 8005842:	68fb      	ldr	r3, [r7, #12]
 8005844:	681b      	ldr	r3, [r3, #0]
 8005846:	695b      	ldr	r3, [r3, #20]
 8005848:	f003 0304 	and.w	r3, r3, #4
 800584c:	2b04      	cmp	r3, #4
 800584e:	d11b      	bne.n	8005888 <HAL_I2C_Mem_Write+0x180>
 8005850:	68fb      	ldr	r3, [r7, #12]
 8005852:	8d1b      	ldrh	r3, [r3, #40]	; 0x28
 8005854:	2b00      	cmp	r3, #0
 8005856:	d017      	beq.n	8005888 <HAL_I2C_Mem_Write+0x180>
      {
        /* Write data to DR */
        hi2c->Instance->DR = *hi2c->pBuffPtr;
 8005858:	68fb      	ldr	r3, [r7, #12]
 800585a:	6a5b      	ldr	r3, [r3, #36]	; 0x24
 800585c:	781a      	ldrb	r2, [r3, #0]
 800585e:	68fb      	ldr	r3, [r7, #12]
 8005860:	681b      	ldr	r3, [r3, #0]
 8005862:	611a      	str	r2, [r3, #16]

        /* Increment Buffer pointer */
        hi2c->pBuffPtr++;
 8005864:	68fb      	ldr	r3, [r7, #12]
 8005866:	6a5b      	ldr	r3, [r3, #36]	; 0x24
 8005868:	1c5a      	adds	r2, r3, #1
 800586a:	68fb      	ldr	r3, [r7, #12]
 800586c:	625a      	str	r2, [r3, #36]	; 0x24

        /* Update counter */
        hi2c->XferSize--;
 800586e:	68fb      	ldr	r3, [r7, #12]
 8005870:	8d1b      	ldrh	r3, [r3, #40]	; 0x28
 8005872:	3b01      	subs	r3, #1
 8005874:	b29a      	uxth	r2, r3
 8005876:	68fb      	ldr	r3, [r7, #12]
 8005878:	851a      	strh	r2, [r3, #40]	; 0x28
        hi2c->XferCount--;
 800587a:	68fb      	ldr	r3, [r7, #12]
 800587c:	8d5b      	ldrh	r3, [r3, #42]	; 0x2a
 800587e:	b29b      	uxth	r3, r3
 8005880:	3b01      	subs	r3, #1
 8005882:	b29a      	uxth	r2, r3
 8005884:	68fb      	ldr	r3, [r7, #12]
 8005886:	855a      	strh	r2, [r3, #42]	; 0x2a
    while (hi2c->XferSize > 0U)
 8005888:	68fb      	ldr	r3, [r7, #12]
 800588a:	8d1b      	ldrh	r3, [r3, #40]	; 0x28
 800588c:	2b00      	cmp	r3, #0
 800588e:	d1aa      	bne.n	80057e6 <HAL_I2C_Mem_Write+0xde>
      }
    }

    /* Wait until BTF flag is set */
    if (I2C_WaitOnBTFFlagUntilTimeout(hi2c, Timeout, tickstart) != HAL_OK)
 8005890:	697a      	ldr	r2, [r7, #20]
 8005892:	6ab9      	ldr	r1, [r7, #40]	; 0x28
 8005894:	68f8      	ldr	r0, [r7, #12]
 8005896:	f000 fd79 	bl	800638c <I2C_WaitOnBTFFlagUntilTimeout>
 800589a:	4603      	mov	r3, r0
 800589c:	2b00      	cmp	r3, #0
 800589e:	d00d      	beq.n	80058bc <HAL_I2C_Mem_Write+0x1b4>
    {
      if (hi2c->ErrorCode == HAL_I2C_ERROR_AF)
 80058a0:	68fb      	ldr	r3, [r7, #12]
 80058a2:	6c1b      	ldr	r3, [r3, #64]	; 0x40
 80058a4:	2b04      	cmp	r3, #4
 80058a6:	d107      	bne.n	80058b8 <HAL_I2C_Mem_Write+0x1b0>
      {
        /* Generate Stop */
        SET_BIT(hi2c->Instance->CR1, I2C_CR1_STOP);
 80058a8:	68fb      	ldr	r3, [r7, #12]
 80058aa:	681b      	ldr	r3, [r3, #0]
 80058ac:	681a      	ldr	r2, [r3, #0]
 80058ae:	68fb      	ldr	r3, [r7, #12]
 80058b0:	681b      	ldr	r3, [r3, #0]
 80058b2:	f442 7200 	orr.w	r2, r2, #512	; 0x200
 80058b6:	601a      	str	r2, [r3, #0]
      }
      return HAL_ERROR;
 80058b8:	2301      	movs	r3, #1
 80058ba:	e016      	b.n	80058ea <HAL_I2C_Mem_Write+0x1e2>
    }

    /* Generate Stop */
    SET_BIT(hi2c->Instance->CR1, I2C_CR1_STOP);
 80058bc:	68fb      	ldr	r3, [r7, #12]
 80058be:	681b      	ldr	r3, [r3, #0]
 80058c0:	681a      	ldr	r2, [r3, #0]
 80058c2:	68fb      	ldr	r3, [r7, #12]
 80058c4:	681b      	ldr	r3, [r3, #0]
 80058c6:	f442 7200 	orr.w	r2, r2, #512	; 0x200
 80058ca:	601a      	str	r2, [r3, #0]

    hi2c->State = HAL_I2C_STATE_READY;
 80058cc:	68fb      	ldr	r3, [r7, #12]
 80058ce:	2220      	movs	r2, #32
 80058d0:	f883 203d 	strb.w	r2, [r3, #61]	; 0x3d
    hi2c->Mode = HAL_I2C_MODE_NONE;
 80058d4:	68fb      	ldr	r3, [r7, #12]
 80058d6:	2200      	movs	r2, #0
 80058d8:	f883 203e 	strb.w	r2, [r3, #62]	; 0x3e

    /* Process Unlocked */
    __HAL_UNLOCK(hi2c);
 80058dc:	68fb      	ldr	r3, [r7, #12]
 80058de:	2200      	movs	r2, #0
 80058e0:	f883 203c 	strb.w	r2, [r3, #60]	; 0x3c

    return HAL_OK;
 80058e4:	2300      	movs	r3, #0
 80058e6:	e000      	b.n	80058ea <HAL_I2C_Mem_Write+0x1e2>
  }
  else
  {
    return HAL_BUSY;
 80058e8:	2302      	movs	r3, #2
  }
}
 80058ea:	4618      	mov	r0, r3
 80058ec:	3718      	adds	r7, #24
 80058ee:	46bd      	mov	sp, r7
 80058f0:	bd80      	pop	{r7, pc}
 80058f2:	bf00      	nop
 80058f4:	00100002 	.word	0x00100002
 80058f8:	ffff0000 	.word	0xffff0000

080058fc <HAL_I2C_Mem_Read>:
  * @param  Size Amount of data to be sent
  * @param  Timeout Timeout duration
  * @retval HAL status
  */
HAL_StatusTypeDef HAL_I2C_Mem_Read(I2C_HandleTypeDef *hi2c, uint16_t DevAddress, uint16_t MemAddress, uint16_t MemAddSize, uint8_t *pData, uint16_t Size, uint32_t Timeout)
{
 80058fc:	b580      	push	{r7, lr}
 80058fe:	b08c      	sub	sp, #48	; 0x30
 8005900:	af02      	add	r7, sp, #8
 8005902:	60f8      	str	r0, [r7, #12]
 8005904:	4608      	mov	r0, r1
 8005906:	4611      	mov	r1, r2
 8005908:	461a      	mov	r2, r3
 800590a:	4603      	mov	r3, r0
 800590c:	817b      	strh	r3, [r7, #10]
 800590e:	460b      	mov	r3, r1
 8005910:	813b      	strh	r3, [r7, #8]
 8005912:	4613      	mov	r3, r2
 8005914:	80fb      	strh	r3, [r7, #6]
  __IO uint32_t count = 0U;
 8005916:	2300      	movs	r3, #0
 8005918:	623b      	str	r3, [r7, #32]

  /* Init tickstart for timeout management*/
  uint32_t tickstart = HAL_GetTick();
 800591a:	f7ff fa4b 	bl	8004db4 <HAL_GetTick>
 800591e:	6278      	str	r0, [r7, #36]	; 0x24

  /* Check the parameters */
  assert_param(IS_I2C_MEMADD_SIZE(MemAddSize));

  if (hi2c->State == HAL_I2C_STATE_READY)
 8005920:	68fb      	ldr	r3, [r7, #12]
 8005922:	f893 303d 	ldrb.w	r3, [r3, #61]	; 0x3d
 8005926:	b2db      	uxtb	r3, r3
 8005928:	2b20      	cmp	r3, #32
 800592a:	f040 8244 	bne.w	8005db6 <HAL_I2C_Mem_Read+0x4ba>
  {
    /* Wait until BUSY flag is reset */
    if (I2C_WaitOnFlagUntilTimeout(hi2c, I2C_FLAG_BUSY, SET, I2C_TIMEOUT_BUSY_FLAG, tickstart) != HAL_OK)
 800592e:	6a7b      	ldr	r3, [r7, #36]	; 0x24
 8005930:	9300      	str	r3, [sp, #0]
 8005932:	2319      	movs	r3, #25
 8005934:	2201      	movs	r2, #1
 8005936:	4982      	ldr	r1, [pc, #520]	; (8005b40 <HAL_I2C_Mem_Read+0x244>)
 8005938:	68f8      	ldr	r0, [r7, #12]
 800593a:	f000 fbc5 	bl	80060c8 <I2C_WaitOnFlagUntilTimeout>
 800593e:	4603      	mov	r3, r0
 8005940:	2b00      	cmp	r3, #0
 8005942:	d001      	beq.n	8005948 <HAL_I2C_Mem_Read+0x4c>
    {
      return HAL_BUSY;
 8005944:	2302      	movs	r3, #2
 8005946:	e237      	b.n	8005db8 <HAL_I2C_Mem_Read+0x4bc>
    }

    /* Process Locked */
    __HAL_LOCK(hi2c);
 8005948:	68fb      	ldr	r3, [r7, #12]
 800594a:	f893 303c 	ldrb.w	r3, [r3, #60]	; 0x3c
 800594e:	2b01      	cmp	r3, #1
 8005950:	d101      	bne.n	8005956 <HAL_I2C_Mem_Read+0x5a>
 8005952:	2302      	movs	r3, #2
 8005954:	e230      	b.n	8005db8 <HAL_I2C_Mem_Read+0x4bc>
 8005956:	68fb      	ldr	r3, [r7, #12]
 8005958:	2201      	movs	r2, #1
 800595a:	f883 203c 	strb.w	r2, [r3, #60]	; 0x3c

    /* Check if the I2C is already enabled */
    if ((hi2c->Instance->CR1 & I2C_CR1_PE) != I2C_CR1_PE)
 800595e:	68fb      	ldr	r3, [r7, #12]
 8005960:	681b      	ldr	r3, [r3, #0]
 8005962:	681b      	ldr	r3, [r3, #0]
 8005964:	f003 0301 	and.w	r3, r3, #1
 8005968:	2b01      	cmp	r3, #1
 800596a:	d007      	beq.n	800597c <HAL_I2C_Mem_Read+0x80>
    {
      /* Enable I2C peripheral */
      __HAL_I2C_ENABLE(hi2c);
 800596c:	68fb      	ldr	r3, [r7, #12]
 800596e:	681b      	ldr	r3, [r3, #0]
 8005970:	681a      	ldr	r2, [r3, #0]
 8005972:	68fb      	ldr	r3, [r7, #12]
 8005974:	681b      	ldr	r3, [r3, #0]
 8005976:	f042 0201 	orr.w	r2, r2, #1
 800597a:	601a      	str	r2, [r3, #0]
    }

    /* Disable Pos */
    CLEAR_BIT(hi2c->Instance->CR1, I2C_CR1_POS);
 800597c:	68fb      	ldr	r3, [r7, #12]
 800597e:	681b      	ldr	r3, [r3, #0]
 8005980:	681a      	ldr	r2, [r3, #0]
 8005982:	68fb      	ldr	r3, [r7, #12]
 8005984:	681b      	ldr	r3, [r3, #0]
 8005986:	f422 6200 	bic.w	r2, r2, #2048	; 0x800
 800598a:	601a      	str	r2, [r3, #0]

    hi2c->State     = HAL_I2C_STATE_BUSY_RX;
 800598c:	68fb      	ldr	r3, [r7, #12]
 800598e:	2222      	movs	r2, #34	; 0x22
 8005990:	f883 203d 	strb.w	r2, [r3, #61]	; 0x3d
    hi2c->Mode      = HAL_I2C_MODE_MEM;
 8005994:	68fb      	ldr	r3, [r7, #12]
 8005996:	2240      	movs	r2, #64	; 0x40
 8005998:	f883 203e 	strb.w	r2, [r3, #62]	; 0x3e
    hi2c->ErrorCode = HAL_I2C_ERROR_NONE;
 800599c:	68fb      	ldr	r3, [r7, #12]
 800599e:	2200      	movs	r2, #0
 80059a0:	641a      	str	r2, [r3, #64]	; 0x40

    /* Prepare transfer parameters */
    hi2c->pBuffPtr    = pData;
 80059a2:	68fb      	ldr	r3, [r7, #12]
 80059a4:	6b3a      	ldr	r2, [r7, #48]	; 0x30
 80059a6:	625a      	str	r2, [r3, #36]	; 0x24
    hi2c->XferCount   = Size;
 80059a8:	68fb      	ldr	r3, [r7, #12]
 80059aa:	8eba      	ldrh	r2, [r7, #52]	; 0x34
 80059ac:	855a      	strh	r2, [r3, #42]	; 0x2a
    hi2c->XferSize    = hi2c->XferCount;
 80059ae:	68fb      	ldr	r3, [r7, #12]
 80059b0:	8d5b      	ldrh	r3, [r3, #42]	; 0x2a
 80059b2:	b29a      	uxth	r2, r3
 80059b4:	68fb      	ldr	r3, [r7, #12]
 80059b6:	851a      	strh	r2, [r3, #40]	; 0x28
    hi2c->XferOptions = I2C_NO_OPTION_FRAME;
 80059b8:	68fb      	ldr	r3, [r7, #12]
 80059ba:	4a62      	ldr	r2, [pc, #392]	; (8005b44 <HAL_I2C_Mem_Read+0x248>)
 80059bc:	62da      	str	r2, [r3, #44]	; 0x2c

    /* Send Slave Address and Memory Address */
    if (I2C_RequestMemoryRead(hi2c, DevAddress, MemAddress, MemAddSize, Timeout, tickstart) != HAL_OK)
 80059be:	88f8      	ldrh	r0, [r7, #6]
 80059c0:	893a      	ldrh	r2, [r7, #8]
 80059c2:	8979      	ldrh	r1, [r7, #10]
 80059c4:	6a7b      	ldr	r3, [r7, #36]	; 0x24
 80059c6:	9301      	str	r3, [sp, #4]
 80059c8:	6bbb      	ldr	r3, [r7, #56]	; 0x38
 80059ca:	9300      	str	r3, [sp, #0]
 80059cc:	4603      	mov	r3, r0
 80059ce:	68f8      	ldr	r0, [r7, #12]
 80059d0:	f000 fa92 	bl	8005ef8 <I2C_RequestMemoryRead>
 80059d4:	4603      	mov	r3, r0
 80059d6:	2b00      	cmp	r3, #0
 80059d8:	d001      	beq.n	80059de <HAL_I2C_Mem_Read+0xe2>
    {
      return HAL_ERROR;
 80059da:	2301      	movs	r3, #1
 80059dc:	e1ec      	b.n	8005db8 <HAL_I2C_Mem_Read+0x4bc>
    }

    if (hi2c->XferSize == 0U)
 80059de:	68fb      	ldr	r3, [r7, #12]
 80059e0:	8d1b      	ldrh	r3, [r3, #40]	; 0x28
 80059e2:	2b00      	cmp	r3, #0
 80059e4:	d113      	bne.n	8005a0e <HAL_I2C_Mem_Read+0x112>
    {
      /* Clear ADDR flag */
      __HAL_I2C_CLEAR_ADDRFLAG(hi2c);
 80059e6:	2300      	movs	r3, #0
 80059e8:	61fb      	str	r3, [r7, #28]
 80059ea:	68fb      	ldr	r3, [r7, #12]
 80059ec:	681b      	ldr	r3, [r3, #0]
 80059ee:	695b      	ldr	r3, [r3, #20]
 80059f0:	61fb      	str	r3, [r7, #28]
 80059f2:	68fb      	ldr	r3, [r7, #12]
 80059f4:	681b      	ldr	r3, [r3, #0]
 80059f6:	699b      	ldr	r3, [r3, #24]
 80059f8:	61fb      	str	r3, [r7, #28]
 80059fa:	69fb      	ldr	r3, [r7, #28]

      /* Generate Stop */
      SET_BIT(hi2c->Instance->CR1, I2C_CR1_STOP);
 80059fc:	68fb      	ldr	r3, [r7, #12]
 80059fe:	681b      	ldr	r3, [r3, #0]
 8005a00:	681a      	ldr	r2, [r3, #0]
 8005a02:	68fb      	ldr	r3, [r7, #12]
 8005a04:	681b      	ldr	r3, [r3, #0]
 8005a06:	f442 7200 	orr.w	r2, r2, #512	; 0x200
 8005a0a:	601a      	str	r2, [r3, #0]
 8005a0c:	e1c0      	b.n	8005d90 <HAL_I2C_Mem_Read+0x494>
    }
    else if (hi2c->XferSize == 1U)
 8005a0e:	68fb      	ldr	r3, [r7, #12]
 8005a10:	8d1b      	ldrh	r3, [r3, #40]	; 0x28
 8005a12:	2b01      	cmp	r3, #1
 8005a14:	d11e      	bne.n	8005a54 <HAL_I2C_Mem_Read+0x158>
    {
      /* Disable Acknowledge */
      CLEAR_BIT(hi2c->Instance->CR1, I2C_CR1_ACK);
 8005a16:	68fb      	ldr	r3, [r7, #12]
 8005a18:	681b      	ldr	r3, [r3, #0]
 8005a1a:	681a      	ldr	r2, [r3, #0]
 8005a1c:	68fb      	ldr	r3, [r7, #12]
 8005a1e:	681b      	ldr	r3, [r3, #0]
 8005a20:	f422 6280 	bic.w	r2, r2, #1024	; 0x400
 8005a24:	601a      	str	r2, [r3, #0]
  __ASM volatile ("cpsid i" : : : "memory");
 8005a26:	b672      	cpsid	i
}
 8005a28:	bf00      	nop
      /* Disable all active IRQs around ADDR clearing and STOP programming because the EV6_3
         software sequence must complete before the current byte end of transfer */
      __disable_irq();

      /* Clear ADDR flag */
      __HAL_I2C_CLEAR_ADDRFLAG(hi2c);
 8005a2a:	2300      	movs	r3, #0
 8005a2c:	61bb      	str	r3, [r7, #24]
 8005a2e:	68fb      	ldr	r3, [r7, #12]
 8005a30:	681b      	ldr	r3, [r3, #0]
 8005a32:	695b      	ldr	r3, [r3, #20]
 8005a34:	61bb      	str	r3, [r7, #24]
 8005a36:	68fb      	ldr	r3, [r7, #12]
 8005a38:	681b      	ldr	r3, [r3, #0]
 8005a3a:	699b      	ldr	r3, [r3, #24]
 8005a3c:	61bb      	str	r3, [r7, #24]
 8005a3e:	69bb      	ldr	r3, [r7, #24]

      /* Generate Stop */
      SET_BIT(hi2c->Instance->CR1, I2C_CR1_STOP);
 8005a40:	68fb      	ldr	r3, [r7, #12]
 8005a42:	681b      	ldr	r3, [r3, #0]
 8005a44:	681a      	ldr	r2, [r3, #0]
 8005a46:	68fb      	ldr	r3, [r7, #12]
 8005a48:	681b      	ldr	r3, [r3, #0]
 8005a4a:	f442 7200 	orr.w	r2, r2, #512	; 0x200
 8005a4e:	601a      	str	r2, [r3, #0]
  __ASM volatile ("cpsie i" : : : "memory");
 8005a50:	b662      	cpsie	i
}
 8005a52:	e035      	b.n	8005ac0 <HAL_I2C_Mem_Read+0x1c4>

      /* Re-enable IRQs */
      __enable_irq();
    }
    else if (hi2c->XferSize == 2U)
 8005a54:	68fb      	ldr	r3, [r7, #12]
 8005a56:	8d1b      	ldrh	r3, [r3, #40]	; 0x28
 8005a58:	2b02      	cmp	r3, #2
 8005a5a:	d11e      	bne.n	8005a9a <HAL_I2C_Mem_Read+0x19e>
    {
      /* Enable Pos */
      SET_BIT(hi2c->Instance->CR1, I2C_CR1_POS);
 8005a5c:	68fb      	ldr	r3, [r7, #12]
 8005a5e:	681b      	ldr	r3, [r3, #0]
 8005a60:	681a      	ldr	r2, [r3, #0]
 8005a62:	68fb      	ldr	r3, [r7, #12]
 8005a64:	681b      	ldr	r3, [r3, #0]
 8005a66:	f442 6200 	orr.w	r2, r2, #2048	; 0x800
 8005a6a:	601a      	str	r2, [r3, #0]
  __ASM volatile ("cpsid i" : : : "memory");
 8005a6c:	b672      	cpsid	i
}
 8005a6e:	bf00      	nop
      /* Disable all active IRQs around ADDR clearing and STOP programming because the EV6_3
         software sequence must complete before the current byte end of transfer */
      __disable_irq();

      /* Clear ADDR flag */
      __HAL_I2C_CLEAR_ADDRFLAG(hi2c);
 8005a70:	2300      	movs	r3, #0
 8005a72:	617b      	str	r3, [r7, #20]
 8005a74:	68fb      	ldr	r3, [r7, #12]
 8005a76:	681b      	ldr	r3, [r3, #0]
 8005a78:	695b      	ldr	r3, [r3, #20]
 8005a7a:	617b      	str	r3, [r7, #20]
 8005a7c:	68fb      	ldr	r3, [r7, #12]
 8005a7e:	681b      	ldr	r3, [r3, #0]
 8005a80:	699b      	ldr	r3, [r3, #24]
 8005a82:	617b      	str	r3, [r7, #20]
 8005a84:	697b      	ldr	r3, [r7, #20]

      /* Disable Acknowledge */
      CLEAR_BIT(hi2c->Instance->CR1, I2C_CR1_ACK);
 8005a86:	68fb      	ldr	r3, [r7, #12]
 8005a88:	681b      	ldr	r3, [r3, #0]
 8005a8a:	681a      	ldr	r2, [r3, #0]
 8005a8c:	68fb      	ldr	r3, [r7, #12]
 8005a8e:	681b      	ldr	r3, [r3, #0]
 8005a90:	f422 6280 	bic.w	r2, r2, #1024	; 0x400
 8005a94:	601a      	str	r2, [r3, #0]
  __ASM volatile ("cpsie i" : : : "memory");
 8005a96:	b662      	cpsie	i
}
 8005a98:	e012      	b.n	8005ac0 <HAL_I2C_Mem_Read+0x1c4>
      __enable_irq();
    }
    else
    {
      /* Enable Acknowledge */
      SET_BIT(hi2c->Instance->CR1, I2C_CR1_ACK);
 8005a9a:	68fb      	ldr	r3, [r7, #12]
 8005a9c:	681b      	ldr	r3, [r3, #0]
 8005a9e:	681a      	ldr	r2, [r3, #0]
 8005aa0:	68fb      	ldr	r3, [r7, #12]
 8005aa2:	681b      	ldr	r3, [r3, #0]
 8005aa4:	f442 6280 	orr.w	r2, r2, #1024	; 0x400
 8005aa8:	601a      	str	r2, [r3, #0]
      /* Clear ADDR flag */
      __HAL_I2C_CLEAR_ADDRFLAG(hi2c);
 8005aaa:	2300      	movs	r3, #0
 8005aac:	613b      	str	r3, [r7, #16]
 8005aae:	68fb      	ldr	r3, [r7, #12]
 8005ab0:	681b      	ldr	r3, [r3, #0]
 8005ab2:	695b      	ldr	r3, [r3, #20]
 8005ab4:	613b      	str	r3, [r7, #16]
 8005ab6:	68fb      	ldr	r3, [r7, #12]
 8005ab8:	681b      	ldr	r3, [r3, #0]
 8005aba:	699b      	ldr	r3, [r3, #24]
 8005abc:	613b      	str	r3, [r7, #16]
 8005abe:	693b      	ldr	r3, [r7, #16]
    }

    while (hi2c->XferSize > 0U)
 8005ac0:	e166      	b.n	8005d90 <HAL_I2C_Mem_Read+0x494>
    {
      if (hi2c->XferSize <= 3U)
 8005ac2:	68fb      	ldr	r3, [r7, #12]
 8005ac4:	8d1b      	ldrh	r3, [r3, #40]	; 0x28
 8005ac6:	2b03      	cmp	r3, #3
 8005ac8:	f200 811f 	bhi.w	8005d0a <HAL_I2C_Mem_Read+0x40e>
      {
        /* One byte */
        if (hi2c->XferSize == 1U)
 8005acc:	68fb      	ldr	r3, [r7, #12]
 8005ace:	8d1b      	ldrh	r3, [r3, #40]	; 0x28
 8005ad0:	2b01      	cmp	r3, #1
 8005ad2:	d123      	bne.n	8005b1c <HAL_I2C_Mem_Read+0x220>
        {
          /* Wait until RXNE flag is set */
          if (I2C_WaitOnRXNEFlagUntilTimeout(hi2c, Timeout, tickstart) != HAL_OK)
 8005ad4:	6a7a      	ldr	r2, [r7, #36]	; 0x24
 8005ad6:	6bb9      	ldr	r1, [r7, #56]	; 0x38
 8005ad8:	68f8      	ldr	r0, [r7, #12]
 8005ada:	f000 fc9f 	bl	800641c <I2C_WaitOnRXNEFlagUntilTimeout>
 8005ade:	4603      	mov	r3, r0
 8005ae0:	2b00      	cmp	r3, #0
 8005ae2:	d001      	beq.n	8005ae8 <HAL_I2C_Mem_Read+0x1ec>
          {
            return HAL_ERROR;
 8005ae4:	2301      	movs	r3, #1
 8005ae6:	e167      	b.n	8005db8 <HAL_I2C_Mem_Read+0x4bc>
          }

          /* Read data from DR */
          *hi2c->pBuffPtr = (uint8_t)hi2c->Instance->DR;
 8005ae8:	68fb      	ldr	r3, [r7, #12]
 8005aea:	681b      	ldr	r3, [r3, #0]
 8005aec:	691a      	ldr	r2, [r3, #16]
 8005aee:	68fb      	ldr	r3, [r7, #12]
 8005af0:	6a5b      	ldr	r3, [r3, #36]	; 0x24
 8005af2:	b2d2      	uxtb	r2, r2
 8005af4:	701a      	strb	r2, [r3, #0]

          /* Increment Buffer pointer */
          hi2c->pBuffPtr++;
 8005af6:	68fb      	ldr	r3, [r7, #12]
 8005af8:	6a5b      	ldr	r3, [r3, #36]	; 0x24
 8005afa:	1c5a      	adds	r2, r3, #1
 8005afc:	68fb      	ldr	r3, [r7, #12]
 8005afe:	625a      	str	r2, [r3, #36]	; 0x24

          /* Update counter */
          hi2c->XferSize--;
 8005b00:	68fb      	ldr	r3, [r7, #12]
 8005b02:	8d1b      	ldrh	r3, [r3, #40]	; 0x28
 8005b04:	3b01      	subs	r3, #1
 8005b06:	b29a      	uxth	r2, r3
 8005b08:	68fb      	ldr	r3, [r7, #12]
 8005b0a:	851a      	strh	r2, [r3, #40]	; 0x28
          hi2c->XferCount--;
 8005b0c:	68fb      	ldr	r3, [r7, #12]
 8005b0e:	8d5b      	ldrh	r3, [r3, #42]	; 0x2a
 8005b10:	b29b      	uxth	r3, r3
 8005b12:	3b01      	subs	r3, #1
 8005b14:	b29a      	uxth	r2, r3
 8005b16:	68fb      	ldr	r3, [r7, #12]
 8005b18:	855a      	strh	r2, [r3, #42]	; 0x2a
 8005b1a:	e139      	b.n	8005d90 <HAL_I2C_Mem_Read+0x494>
        }
        /* Two bytes */
        else if (hi2c->XferSize == 2U)
 8005b1c:	68fb      	ldr	r3, [r7, #12]
 8005b1e:	8d1b      	ldrh	r3, [r3, #40]	; 0x28
 8005b20:	2b02      	cmp	r3, #2
 8005b22:	d152      	bne.n	8005bca <HAL_I2C_Mem_Read+0x2ce>
        {
          /* Wait until BTF flag is set */
          if (I2C_WaitOnFlagUntilTimeout(hi2c, I2C_FLAG_BTF, RESET, Timeout, tickstart) != HAL_OK)
 8005b24:	6a7b      	ldr	r3, [r7, #36]	; 0x24
 8005b26:	9300      	str	r3, [sp, #0]
 8005b28:	6bbb      	ldr	r3, [r7, #56]	; 0x38
 8005b2a:	2200      	movs	r2, #0
 8005b2c:	4906      	ldr	r1, [pc, #24]	; (8005b48 <HAL_I2C_Mem_Read+0x24c>)
 8005b2e:	68f8      	ldr	r0, [r7, #12]
 8005b30:	f000 faca 	bl	80060c8 <I2C_WaitOnFlagUntilTimeout>
 8005b34:	4603      	mov	r3, r0
 8005b36:	2b00      	cmp	r3, #0
 8005b38:	d008      	beq.n	8005b4c <HAL_I2C_Mem_Read+0x250>
          {
            return HAL_ERROR;
 8005b3a:	2301      	movs	r3, #1
 8005b3c:	e13c      	b.n	8005db8 <HAL_I2C_Mem_Read+0x4bc>
 8005b3e:	bf00      	nop
 8005b40:	00100002 	.word	0x00100002
 8005b44:	ffff0000 	.word	0xffff0000
 8005b48:	00010004 	.word	0x00010004
  __ASM volatile ("cpsid i" : : : "memory");
 8005b4c:	b672      	cpsid	i
}
 8005b4e:	bf00      	nop
          /* Disable all active IRQs around ADDR clearing and STOP programming because the EV6_3
             software sequence must complete before the current byte end of transfer */
          __disable_irq();

          /* Generate Stop */
          SET_BIT(hi2c->Instance->CR1, I2C_CR1_STOP);
 8005b50:	68fb      	ldr	r3, [r7, #12]
 8005b52:	681b      	ldr	r3, [r3, #0]
 8005b54:	681a      	ldr	r2, [r3, #0]
 8005b56:	68fb      	ldr	r3, [r7, #12]
 8005b58:	681b      	ldr	r3, [r3, #0]
 8005b5a:	f442 7200 	orr.w	r2, r2, #512	; 0x200
 8005b5e:	601a      	str	r2, [r3, #0]

          /* Read data from DR */
          *hi2c->pBuffPtr = (uint8_t)hi2c->Instance->DR;
 8005b60:	68fb      	ldr	r3, [r7, #12]
 8005b62:	681b      	ldr	r3, [r3, #0]
 8005b64:	691a      	ldr	r2, [r3, #16]
 8005b66:	68fb      	ldr	r3, [r7, #12]
 8005b68:	6a5b      	ldr	r3, [r3, #36]	; 0x24
 8005b6a:	b2d2      	uxtb	r2, r2
 8005b6c:	701a      	strb	r2, [r3, #0]

          /* Increment Buffer pointer */
          hi2c->pBuffPtr++;
 8005b6e:	68fb      	ldr	r3, [r7, #12]
 8005b70:	6a5b      	ldr	r3, [r3, #36]	; 0x24
 8005b72:	1c5a      	adds	r2, r3, #1
 8005b74:	68fb      	ldr	r3, [r7, #12]
 8005b76:	625a      	str	r2, [r3, #36]	; 0x24

          /* Update counter */
          hi2c->XferSize--;
 8005b78:	68fb      	ldr	r3, [r7, #12]
 8005b7a:	8d1b      	ldrh	r3, [r3, #40]	; 0x28
 8005b7c:	3b01      	subs	r3, #1
 8005b7e:	b29a      	uxth	r2, r3
 8005b80:	68fb      	ldr	r3, [r7, #12]
 8005b82:	851a      	strh	r2, [r3, #40]	; 0x28
          hi2c->XferCount--;
 8005b84:	68fb      	ldr	r3, [r7, #12]
 8005b86:	8d5b      	ldrh	r3, [r3, #42]	; 0x2a
 8005b88:	b29b      	uxth	r3, r3
 8005b8a:	3b01      	subs	r3, #1
 8005b8c:	b29a      	uxth	r2, r3
 8005b8e:	68fb      	ldr	r3, [r7, #12]
 8005b90:	855a      	strh	r2, [r3, #42]	; 0x2a
  __ASM volatile ("cpsie i" : : : "memory");
 8005b92:	b662      	cpsie	i
}
 8005b94:	bf00      	nop

          /* Re-enable IRQs */
          __enable_irq();

          /* Read data from DR */
          *hi2c->pBuffPtr = (uint8_t)hi2c->Instance->DR;
 8005b96:	68fb      	ldr	r3, [r7, #12]
 8005b98:	681b      	ldr	r3, [r3, #0]
 8005b9a:	691a      	ldr	r2, [r3, #16]
 8005b9c:	68fb      	ldr	r3, [r7, #12]
 8005b9e:	6a5b      	ldr	r3, [r3, #36]	; 0x24
 8005ba0:	b2d2      	uxtb	r2, r2
 8005ba2:	701a      	strb	r2, [r3, #0]

          /* Increment Buffer pointer */
          hi2c->pBuffPtr++;
 8005ba4:	68fb      	ldr	r3, [r7, #12]
 8005ba6:	6a5b      	ldr	r3, [r3, #36]	; 0x24
 8005ba8:	1c5a      	adds	r2, r3, #1
 8005baa:	68fb      	ldr	r3, [r7, #12]
 8005bac:	625a      	str	r2, [r3, #36]	; 0x24

          /* Update counter */
          hi2c->XferSize--;
 8005bae:	68fb      	ldr	r3, [r7, #12]
 8005bb0:	8d1b      	ldrh	r3, [r3, #40]	; 0x28
 8005bb2:	3b01      	subs	r3, #1
 8005bb4:	b29a      	uxth	r2, r3
 8005bb6:	68fb      	ldr	r3, [r7, #12]
 8005bb8:	851a      	strh	r2, [r3, #40]	; 0x28
          hi2c->XferCount--;
 8005bba:	68fb      	ldr	r3, [r7, #12]
 8005bbc:	8d5b      	ldrh	r3, [r3, #42]	; 0x2a
 8005bbe:	b29b      	uxth	r3, r3
 8005bc0:	3b01      	subs	r3, #1
 8005bc2:	b29a      	uxth	r2, r3
 8005bc4:	68fb      	ldr	r3, [r7, #12]
 8005bc6:	855a      	strh	r2, [r3, #42]	; 0x2a
 8005bc8:	e0e2      	b.n	8005d90 <HAL_I2C_Mem_Read+0x494>
        }
        /* 3 Last bytes */
        else
        {
          /* Wait until BTF flag is set */
          if (I2C_WaitOnFlagUntilTimeout(hi2c, I2C_FLAG_BTF, RESET, Timeout, tickstart) != HAL_OK)
 8005bca:	6a7b      	ldr	r3, [r7, #36]	; 0x24
 8005bcc:	9300      	str	r3, [sp, #0]
 8005bce:	6bbb      	ldr	r3, [r7, #56]	; 0x38
 8005bd0:	2200      	movs	r2, #0
 8005bd2:	497b      	ldr	r1, [pc, #492]	; (8005dc0 <HAL_I2C_Mem_Read+0x4c4>)
 8005bd4:	68f8      	ldr	r0, [r7, #12]
 8005bd6:	f000 fa77 	bl	80060c8 <I2C_WaitOnFlagUntilTimeout>
 8005bda:	4603      	mov	r3, r0
 8005bdc:	2b00      	cmp	r3, #0
 8005bde:	d001      	beq.n	8005be4 <HAL_I2C_Mem_Read+0x2e8>
          {
            return HAL_ERROR;
 8005be0:	2301      	movs	r3, #1
 8005be2:	e0e9      	b.n	8005db8 <HAL_I2C_Mem_Read+0x4bc>
          }

          /* Disable Acknowledge */
          CLEAR_BIT(hi2c->Instance->CR1, I2C_CR1_ACK);
 8005be4:	68fb      	ldr	r3, [r7, #12]
 8005be6:	681b      	ldr	r3, [r3, #0]
 8005be8:	681a      	ldr	r2, [r3, #0]
 8005bea:	68fb      	ldr	r3, [r7, #12]
 8005bec:	681b      	ldr	r3, [r3, #0]
 8005bee:	f422 6280 	bic.w	r2, r2, #1024	; 0x400
 8005bf2:	601a      	str	r2, [r3, #0]
  __ASM volatile ("cpsid i" : : : "memory");
 8005bf4:	b672      	cpsid	i
}
 8005bf6:	bf00      	nop
          /* Disable all active IRQs around ADDR clearing and STOP programming because the EV6_3
             software sequence must complete before the current byte end of transfer */
          __disable_irq();

          /* Read data from DR */
          *hi2c->pBuffPtr = (uint8_t)hi2c->Instance->DR;
 8005bf8:	68fb      	ldr	r3, [r7, #12]
 8005bfa:	681b      	ldr	r3, [r3, #0]
 8005bfc:	691a      	ldr	r2, [r3, #16]
 8005bfe:	68fb      	ldr	r3, [r7, #12]
 8005c00:	6a5b      	ldr	r3, [r3, #36]	; 0x24
 8005c02:	b2d2      	uxtb	r2, r2
 8005c04:	701a      	strb	r2, [r3, #0]

          /* Increment Buffer pointer */
          hi2c->pBuffPtr++;
 8005c06:	68fb      	ldr	r3, [r7, #12]
 8005c08:	6a5b      	ldr	r3, [r3, #36]	; 0x24
 8005c0a:	1c5a      	adds	r2, r3, #1
 8005c0c:	68fb      	ldr	r3, [r7, #12]
 8005c0e:	625a      	str	r2, [r3, #36]	; 0x24

          /* Update counter */
          hi2c->XferSize--;
 8005c10:	68fb      	ldr	r3, [r7, #12]
 8005c12:	8d1b      	ldrh	r3, [r3, #40]	; 0x28
 8005c14:	3b01      	subs	r3, #1
 8005c16:	b29a      	uxth	r2, r3
 8005c18:	68fb      	ldr	r3, [r7, #12]
 8005c1a:	851a      	strh	r2, [r3, #40]	; 0x28
          hi2c->XferCount--;
 8005c1c:	68fb      	ldr	r3, [r7, #12]
 8005c1e:	8d5b      	ldrh	r3, [r3, #42]	; 0x2a
 8005c20:	b29b      	uxth	r3, r3
 8005c22:	3b01      	subs	r3, #1
 8005c24:	b29a      	uxth	r2, r3
 8005c26:	68fb      	ldr	r3, [r7, #12]
 8005c28:	855a      	strh	r2, [r3, #42]	; 0x2a

          /* Wait until BTF flag is set */
          count = I2C_TIMEOUT_FLAG * (SystemCoreClock / 25U / 1000U);
 8005c2a:	4b66      	ldr	r3, [pc, #408]	; (8005dc4 <HAL_I2C_Mem_Read+0x4c8>)
 8005c2c:	681b      	ldr	r3, [r3, #0]
 8005c2e:	08db      	lsrs	r3, r3, #3
 8005c30:	4a65      	ldr	r2, [pc, #404]	; (8005dc8 <HAL_I2C_Mem_Read+0x4cc>)
 8005c32:	fba2 2303 	umull	r2, r3, r2, r3
 8005c36:	0a1a      	lsrs	r2, r3, #8
 8005c38:	4613      	mov	r3, r2
 8005c3a:	009b      	lsls	r3, r3, #2
 8005c3c:	4413      	add	r3, r2
 8005c3e:	00da      	lsls	r2, r3, #3
 8005c40:	1ad3      	subs	r3, r2, r3
 8005c42:	623b      	str	r3, [r7, #32]
          do
          {
            count--;
 8005c44:	6a3b      	ldr	r3, [r7, #32]
 8005c46:	3b01      	subs	r3, #1
 8005c48:	623b      	str	r3, [r7, #32]
            if (count == 0U)
 8005c4a:	6a3b      	ldr	r3, [r7, #32]
 8005c4c:	2b00      	cmp	r3, #0
 8005c4e:	d118      	bne.n	8005c82 <HAL_I2C_Mem_Read+0x386>
            {
              hi2c->PreviousState       = I2C_STATE_NONE;
 8005c50:	68fb      	ldr	r3, [r7, #12]
 8005c52:	2200      	movs	r2, #0
 8005c54:	631a      	str	r2, [r3, #48]	; 0x30
              hi2c->State               = HAL_I2C_STATE_READY;
 8005c56:	68fb      	ldr	r3, [r7, #12]
 8005c58:	2220      	movs	r2, #32
 8005c5a:	f883 203d 	strb.w	r2, [r3, #61]	; 0x3d
              hi2c->Mode                = HAL_I2C_MODE_NONE;
 8005c5e:	68fb      	ldr	r3, [r7, #12]
 8005c60:	2200      	movs	r2, #0
 8005c62:	f883 203e 	strb.w	r2, [r3, #62]	; 0x3e
              hi2c->ErrorCode           |= HAL_I2C_ERROR_TIMEOUT;
 8005c66:	68fb      	ldr	r3, [r7, #12]
 8005c68:	6c1b      	ldr	r3, [r3, #64]	; 0x40
 8005c6a:	f043 0220 	orr.w	r2, r3, #32
 8005c6e:	68fb      	ldr	r3, [r7, #12]
 8005c70:	641a      	str	r2, [r3, #64]	; 0x40
  __ASM volatile ("cpsie i" : : : "memory");
 8005c72:	b662      	cpsie	i
}
 8005c74:	bf00      	nop

              /* Re-enable IRQs */
              __enable_irq();

              /* Process Unlocked */
              __HAL_UNLOCK(hi2c);
 8005c76:	68fb      	ldr	r3, [r7, #12]
 8005c78:	2200      	movs	r2, #0
 8005c7a:	f883 203c 	strb.w	r2, [r3, #60]	; 0x3c

              return HAL_ERROR;
 8005c7e:	2301      	movs	r3, #1
 8005c80:	e09a      	b.n	8005db8 <HAL_I2C_Mem_Read+0x4bc>
            }
          }
          while (__HAL_I2C_GET_FLAG(hi2c, I2C_FLAG_BTF) == RESET);
 8005c82:	68fb      	ldr	r3, [r7, #12]
 8005c84:	681b      	ldr	r3, [r3, #0]
 8005c86:	695b      	ldr	r3, [r3, #20]
 8005c88:	f003 0304 	and.w	r3, r3, #4
 8005c8c:	2b04      	cmp	r3, #4
 8005c8e:	d1d9      	bne.n	8005c44 <HAL_I2C_Mem_Read+0x348>

          /* Generate Stop */
          SET_BIT(hi2c->Instance->CR1, I2C_CR1_STOP);
 8005c90:	68fb      	ldr	r3, [r7, #12]
 8005c92:	681b      	ldr	r3, [r3, #0]
 8005c94:	681a      	ldr	r2, [r3, #0]
 8005c96:	68fb      	ldr	r3, [r7, #12]
 8005c98:	681b      	ldr	r3, [r3, #0]
 8005c9a:	f442 7200 	orr.w	r2, r2, #512	; 0x200
 8005c9e:	601a      	str	r2, [r3, #0]

          /* Read data from DR */
          *hi2c->pBuffPtr = (uint8_t)hi2c->Instance->DR;
 8005ca0:	68fb      	ldr	r3, [r7, #12]
 8005ca2:	681b      	ldr	r3, [r3, #0]
 8005ca4:	691a      	ldr	r2, [r3, #16]
 8005ca6:	68fb      	ldr	r3, [r7, #12]
 8005ca8:	6a5b      	ldr	r3, [r3, #36]	; 0x24
 8005caa:	b2d2      	uxtb	r2, r2
 8005cac:	701a      	strb	r2, [r3, #0]

          /* Increment Buffer pointer */
          hi2c->pBuffPtr++;
 8005cae:	68fb      	ldr	r3, [r7, #12]
 8005cb0:	6a5b      	ldr	r3, [r3, #36]	; 0x24
 8005cb2:	1c5a      	adds	r2, r3, #1
 8005cb4:	68fb      	ldr	r3, [r7, #12]
 8005cb6:	625a      	str	r2, [r3, #36]	; 0x24

          /* Update counter */
          hi2c->XferSize--;
 8005cb8:	68fb      	ldr	r3, [r7, #12]
 8005cba:	8d1b      	ldrh	r3, [r3, #40]	; 0x28
 8005cbc:	3b01      	subs	r3, #1
 8005cbe:	b29a      	uxth	r2, r3
 8005cc0:	68fb      	ldr	r3, [r7, #12]
 8005cc2:	851a      	strh	r2, [r3, #40]	; 0x28
          hi2c->XferCount--;
 8005cc4:	68fb      	ldr	r3, [r7, #12]
 8005cc6:	8d5b      	ldrh	r3, [r3, #42]	; 0x2a
 8005cc8:	b29b      	uxth	r3, r3
 8005cca:	3b01      	subs	r3, #1
 8005ccc:	b29a      	uxth	r2, r3
 8005cce:	68fb      	ldr	r3, [r7, #12]
 8005cd0:	855a      	strh	r2, [r3, #42]	; 0x2a
  __ASM volatile ("cpsie i" : : : "memory");
 8005cd2:	b662      	cpsie	i
}
 8005cd4:	bf00      	nop

          /* Re-enable IRQs */
          __enable_irq();

          /* Read data from DR */
          *hi2c->pBuffPtr = (uint8_t)hi2c->Instance->DR;
 8005cd6:	68fb      	ldr	r3, [r7, #12]
 8005cd8:	681b      	ldr	r3, [r3, #0]
 8005cda:	691a      	ldr	r2, [r3, #16]
 8005cdc:	68fb      	ldr	r3, [r7, #12]
 8005cde:	6a5b      	ldr	r3, [r3, #36]	; 0x24
 8005ce0:	b2d2      	uxtb	r2, r2
 8005ce2:	701a      	strb	r2, [r3, #0]

          /* Increment Buffer pointer */
          hi2c->pBuffPtr++;
 8005ce4:	68fb      	ldr	r3, [r7, #12]
 8005ce6:	6a5b      	ldr	r3, [r3, #36]	; 0x24
 8005ce8:	1c5a      	adds	r2, r3, #1
 8005cea:	68fb      	ldr	r3, [r7, #12]
 8005cec:	625a      	str	r2, [r3, #36]	; 0x24

          /* Update counter */
          hi2c->XferSize--;
 8005cee:	68fb      	ldr	r3, [r7, #12]
 8005cf0:	8d1b      	ldrh	r3, [r3, #40]	; 0x28
 8005cf2:	3b01      	subs	r3, #1
 8005cf4:	b29a      	uxth	r2, r3
 8005cf6:	68fb      	ldr	r3, [r7, #12]
 8005cf8:	851a      	strh	r2, [r3, #40]	; 0x28
          hi2c->XferCount--;
 8005cfa:	68fb      	ldr	r3, [r7, #12]
 8005cfc:	8d5b      	ldrh	r3, [r3, #42]	; 0x2a
 8005cfe:	b29b      	uxth	r3, r3
 8005d00:	3b01      	subs	r3, #1
 8005d02:	b29a      	uxth	r2, r3
 8005d04:	68fb      	ldr	r3, [r7, #12]
 8005d06:	855a      	strh	r2, [r3, #42]	; 0x2a
 8005d08:	e042      	b.n	8005d90 <HAL_I2C_Mem_Read+0x494>
        }
      }
      else
      {
        /* Wait until RXNE flag is set */
        if (I2C_WaitOnRXNEFlagUntilTimeout(hi2c, Timeout, tickstart) != HAL_OK)
 8005d0a:	6a7a      	ldr	r2, [r7, #36]	; 0x24
 8005d0c:	6bb9      	ldr	r1, [r7, #56]	; 0x38
 8005d0e:	68f8      	ldr	r0, [r7, #12]
 8005d10:	f000 fb84 	bl	800641c <I2C_WaitOnRXNEFlagUntilTimeout>
 8005d14:	4603      	mov	r3, r0
 8005d16:	2b00      	cmp	r3, #0
 8005d18:	d001      	beq.n	8005d1e <HAL_I2C_Mem_Read+0x422>
        {
          return HAL_ERROR;
 8005d1a:	2301      	movs	r3, #1
 8005d1c:	e04c      	b.n	8005db8 <HAL_I2C_Mem_Read+0x4bc>
        }

        /* Read data from DR */
        *hi2c->pBuffPtr = (uint8_t)hi2c->Instance->DR;
 8005d1e:	68fb      	ldr	r3, [r7, #12]
 8005d20:	681b      	ldr	r3, [r3, #0]
 8005d22:	691a      	ldr	r2, [r3, #16]
 8005d24:	68fb      	ldr	r3, [r7, #12]
 8005d26:	6a5b      	ldr	r3, [r3, #36]	; 0x24
 8005d28:	b2d2      	uxtb	r2, r2
 8005d2a:	701a      	strb	r2, [r3, #0]

        /* Increment Buffer pointer */
        hi2c->pBuffPtr++;
 8005d2c:	68fb      	ldr	r3, [r7, #12]
 8005d2e:	6a5b      	ldr	r3, [r3, #36]	; 0x24
 8005d30:	1c5a      	adds	r2, r3, #1
 8005d32:	68fb      	ldr	r3, [r7, #12]
 8005d34:	625a      	str	r2, [r3, #36]	; 0x24

        /* Update counter */
        hi2c->XferSize--;
 8005d36:	68fb      	ldr	r3, [r7, #12]
 8005d38:	8d1b      	ldrh	r3, [r3, #40]	; 0x28
 8005d3a:	3b01      	subs	r3, #1
 8005d3c:	b29a      	uxth	r2, r3
 8005d3e:	68fb      	ldr	r3, [r7, #12]
 8005d40:	851a      	strh	r2, [r3, #40]	; 0x28
        hi2c->XferCount--;
 8005d42:	68fb      	ldr	r3, [r7, #12]
 8005d44:	8d5b      	ldrh	r3, [r3, #42]	; 0x2a
 8005d46:	b29b      	uxth	r3, r3
 8005d48:	3b01      	subs	r3, #1
 8005d4a:	b29a      	uxth	r2, r3
 8005d4c:	68fb      	ldr	r3, [r7, #12]
 8005d4e:	855a      	strh	r2, [r3, #42]	; 0x2a

        if (__HAL_I2C_GET_FLAG(hi2c, I2C_FLAG_BTF) == SET)
 8005d50:	68fb      	ldr	r3, [r7, #12]
 8005d52:	681b      	ldr	r3, [r3, #0]
 8005d54:	695b      	ldr	r3, [r3, #20]
 8005d56:	f003 0304 	and.w	r3, r3, #4
 8005d5a:	2b04      	cmp	r3, #4
 8005d5c:	d118      	bne.n	8005d90 <HAL_I2C_Mem_Read+0x494>
        {
          /* Read data from DR */
          *hi2c->pBuffPtr = (uint8_t)hi2c->Instance->DR;
 8005d5e:	68fb      	ldr	r3, [r7, #12]
 8005d60:	681b      	ldr	r3, [r3, #0]
 8005d62:	691a      	ldr	r2, [r3, #16]
 8005d64:	68fb      	ldr	r3, [r7, #12]
 8005d66:	6a5b      	ldr	r3, [r3, #36]	; 0x24
 8005d68:	b2d2      	uxtb	r2, r2
 8005d6a:	701a      	strb	r2, [r3, #0]

          /* Increment Buffer pointer */
          hi2c->pBuffPtr++;
 8005d6c:	68fb      	ldr	r3, [r7, #12]
 8005d6e:	6a5b      	ldr	r3, [r3, #36]	; 0x24
 8005d70:	1c5a      	adds	r2, r3, #1
 8005d72:	68fb      	ldr	r3, [r7, #12]
 8005d74:	625a      	str	r2, [r3, #36]	; 0x24

          /* Update counter */
          hi2c->XferSize--;
 8005d76:	68fb      	ldr	r3, [r7, #12]
 8005d78:	8d1b      	ldrh	r3, [r3, #40]	; 0x28
 8005d7a:	3b01      	subs	r3, #1
 8005d7c:	b29a      	uxth	r2, r3
 8005d7e:	68fb      	ldr	r3, [r7, #12]
 8005d80:	851a      	strh	r2, [r3, #40]	; 0x28
          hi2c->XferCount--;
 8005d82:	68fb      	ldr	r3, [r7, #12]
 8005d84:	8d5b      	ldrh	r3, [r3, #42]	; 0x2a
 8005d86:	b29b      	uxth	r3, r3
 8005d88:	3b01      	subs	r3, #1
 8005d8a:	b29a      	uxth	r2, r3
 8005d8c:	68fb      	ldr	r3, [r7, #12]
 8005d8e:	855a      	strh	r2, [r3, #42]	; 0x2a
    while (hi2c->XferSize > 0U)
 8005d90:	68fb      	ldr	r3, [r7, #12]
 8005d92:	8d1b      	ldrh	r3, [r3, #40]	; 0x28
 8005d94:	2b00      	cmp	r3, #0
 8005d96:	f47f ae94 	bne.w	8005ac2 <HAL_I2C_Mem_Read+0x1c6>
        }
      }
    }

    hi2c->State = HAL_I2C_STATE_READY;
 8005d9a:	68fb      	ldr	r3, [r7, #12]
 8005d9c:	2220      	movs	r2, #32
 8005d9e:	f883 203d 	strb.w	r2, [r3, #61]	; 0x3d
    hi2c->Mode = HAL_I2C_MODE_NONE;
 8005da2:	68fb      	ldr	r3, [r7, #12]
 8005da4:	2200      	movs	r2, #0
 8005da6:	f883 203e 	strb.w	r2, [r3, #62]	; 0x3e

    /* Process Unlocked */
    __HAL_UNLOCK(hi2c);
 8005daa:	68fb      	ldr	r3, [r7, #12]
 8005dac:	2200      	movs	r2, #0
 8005dae:	f883 203c 	strb.w	r2, [r3, #60]	; 0x3c

    return HAL_OK;
 8005db2:	2300      	movs	r3, #0
 8005db4:	e000      	b.n	8005db8 <HAL_I2C_Mem_Read+0x4bc>
  }
  else
  {
    return HAL_BUSY;
 8005db6:	2302      	movs	r3, #2
  }
}
 8005db8:	4618      	mov	r0, r3
 8005dba:	3728      	adds	r7, #40	; 0x28
 8005dbc:	46bd      	mov	sp, r7
 8005dbe:	bd80      	pop	{r7, pc}
 8005dc0:	00010004 	.word	0x00010004
 8005dc4:	200000ac 	.word	0x200000ac
 8005dc8:	14f8b589 	.word	0x14f8b589

08005dcc <I2C_RequestMemoryWrite>:
  * @param  Timeout Timeout duration
  * @param  Tickstart Tick start value
  * @retval HAL status
  */
static HAL_StatusTypeDef I2C_RequestMemoryWrite(I2C_HandleTypeDef *hi2c, uint16_t DevAddress, uint16_t MemAddress, uint16_t MemAddSize, uint32_t Timeout, uint32_t Tickstart)
{
 8005dcc:	b580      	push	{r7, lr}
 8005dce:	b088      	sub	sp, #32
 8005dd0:	af02      	add	r7, sp, #8
 8005dd2:	60f8      	str	r0, [r7, #12]
 8005dd4:	4608      	mov	r0, r1
 8005dd6:	4611      	mov	r1, r2
 8005dd8:	461a      	mov	r2, r3
 8005dda:	4603      	mov	r3, r0
 8005ddc:	817b      	strh	r3, [r7, #10]
 8005dde:	460b      	mov	r3, r1
 8005de0:	813b      	strh	r3, [r7, #8]
 8005de2:	4613      	mov	r3, r2
 8005de4:	80fb      	strh	r3, [r7, #6]
  /* Generate Start */
  SET_BIT(hi2c->Instance->CR1, I2C_CR1_START);
 8005de6:	68fb      	ldr	r3, [r7, #12]
 8005de8:	681b      	ldr	r3, [r3, #0]
 8005dea:	681a      	ldr	r2, [r3, #0]
 8005dec:	68fb      	ldr	r3, [r7, #12]
 8005dee:	681b      	ldr	r3, [r3, #0]
 8005df0:	f442 7280 	orr.w	r2, r2, #256	; 0x100
 8005df4:	601a      	str	r2, [r3, #0]

  /* Wait until SB flag is set */
  if (I2C_WaitOnFlagUntilTimeout(hi2c, I2C_FLAG_SB, RESET, Timeout, Tickstart) != HAL_OK)
 8005df6:	6a7b      	ldr	r3, [r7, #36]	; 0x24
 8005df8:	9300      	str	r3, [sp, #0]
 8005dfa:	6a3b      	ldr	r3, [r7, #32]
 8005dfc:	2200      	movs	r2, #0
 8005dfe:	f04f 1101 	mov.w	r1, #65537	; 0x10001
 8005e02:	68f8      	ldr	r0, [r7, #12]
 8005e04:	f000 f960 	bl	80060c8 <I2C_WaitOnFlagUntilTimeout>
 8005e08:	4603      	mov	r3, r0
 8005e0a:	2b00      	cmp	r3, #0
 8005e0c:	d00d      	beq.n	8005e2a <I2C_RequestMemoryWrite+0x5e>
  {
    if (READ_BIT(hi2c->Instance->CR1, I2C_CR1_START) == I2C_CR1_START)
 8005e0e:	68fb      	ldr	r3, [r7, #12]
 8005e10:	681b      	ldr	r3, [r3, #0]
 8005e12:	681b      	ldr	r3, [r3, #0]
 8005e14:	f403 7380 	and.w	r3, r3, #256	; 0x100
 8005e18:	f5b3 7f80 	cmp.w	r3, #256	; 0x100
 8005e1c:	d103      	bne.n	8005e26 <I2C_RequestMemoryWrite+0x5a>
    {
      hi2c->ErrorCode = HAL_I2C_WRONG_START;
 8005e1e:	68fb      	ldr	r3, [r7, #12]
 8005e20:	f44f 7200 	mov.w	r2, #512	; 0x200
 8005e24:	641a      	str	r2, [r3, #64]	; 0x40
    }
    return HAL_TIMEOUT;
 8005e26:	2303      	movs	r3, #3
 8005e28:	e05f      	b.n	8005eea <I2C_RequestMemoryWrite+0x11e>
  }

  /* Send slave address */
  hi2c->Instance->DR = I2C_7BIT_ADD_WRITE(DevAddress);
 8005e2a:	897b      	ldrh	r3, [r7, #10]
 8005e2c:	b2db      	uxtb	r3, r3
 8005e2e:	461a      	mov	r2, r3
 8005e30:	68fb      	ldr	r3, [r7, #12]
 8005e32:	681b      	ldr	r3, [r3, #0]
 8005e34:	f002 02fe 	and.w	r2, r2, #254	; 0xfe
 8005e38:	611a      	str	r2, [r3, #16]

  /* Wait until ADDR flag is set */
  if (I2C_WaitOnMasterAddressFlagUntilTimeout(hi2c, I2C_FLAG_ADDR, Timeout, Tickstart) != HAL_OK)
 8005e3a:	6a7b      	ldr	r3, [r7, #36]	; 0x24
 8005e3c:	6a3a      	ldr	r2, [r7, #32]
 8005e3e:	492d      	ldr	r1, [pc, #180]	; (8005ef4 <I2C_RequestMemoryWrite+0x128>)
 8005e40:	68f8      	ldr	r0, [r7, #12]
 8005e42:	f000 f9bb 	bl	80061bc <I2C_WaitOnMasterAddressFlagUntilTimeout>
 8005e46:	4603      	mov	r3, r0
 8005e48:	2b00      	cmp	r3, #0
 8005e4a:	d001      	beq.n	8005e50 <I2C_RequestMemoryWrite+0x84>
  {
    return HAL_ERROR;
 8005e4c:	2301      	movs	r3, #1
 8005e4e:	e04c      	b.n	8005eea <I2C_RequestMemoryWrite+0x11e>
  }

  /* Clear ADDR flag */
  __HAL_I2C_CLEAR_ADDRFLAG(hi2c);
 8005e50:	2300      	movs	r3, #0
 8005e52:	617b      	str	r3, [r7, #20]
 8005e54:	68fb      	ldr	r3, [r7, #12]
 8005e56:	681b      	ldr	r3, [r3, #0]
 8005e58:	695b      	ldr	r3, [r3, #20]
 8005e5a:	617b      	str	r3, [r7, #20]
 8005e5c:	68fb      	ldr	r3, [r7, #12]
 8005e5e:	681b      	ldr	r3, [r3, #0]
 8005e60:	699b      	ldr	r3, [r3, #24]
 8005e62:	617b      	str	r3, [r7, #20]
 8005e64:	697b      	ldr	r3, [r7, #20]

  /* Wait until TXE flag is set */
  if (I2C_WaitOnTXEFlagUntilTimeout(hi2c, Timeout, Tickstart) != HAL_OK)
 8005e66:	6a7a      	ldr	r2, [r7, #36]	; 0x24
 8005e68:	6a39      	ldr	r1, [r7, #32]
 8005e6a:	68f8      	ldr	r0, [r7, #12]
 8005e6c:	f000 fa46 	bl	80062fc <I2C_WaitOnTXEFlagUntilTimeout>
 8005e70:	4603      	mov	r3, r0
 8005e72:	2b00      	cmp	r3, #0
 8005e74:	d00d      	beq.n	8005e92 <I2C_RequestMemoryWrite+0xc6>
  {
    if (hi2c->ErrorCode == HAL_I2C_ERROR_AF)
 8005e76:	68fb      	ldr	r3, [r7, #12]
 8005e78:	6c1b      	ldr	r3, [r3, #64]	; 0x40
 8005e7a:	2b04      	cmp	r3, #4
 8005e7c:	d107      	bne.n	8005e8e <I2C_RequestMemoryWrite+0xc2>
    {
      /* Generate Stop */
      SET_BIT(hi2c->Instance->CR1, I2C_CR1_STOP);
 8005e7e:	68fb      	ldr	r3, [r7, #12]
 8005e80:	681b      	ldr	r3, [r3, #0]
 8005e82:	681a      	ldr	r2, [r3, #0]
 8005e84:	68fb      	ldr	r3, [r7, #12]
 8005e86:	681b      	ldr	r3, [r3, #0]
 8005e88:	f442 7200 	orr.w	r2, r2, #512	; 0x200
 8005e8c:	601a      	str	r2, [r3, #0]
    }
    return HAL_ERROR;
 8005e8e:	2301      	movs	r3, #1
 8005e90:	e02b      	b.n	8005eea <I2C_RequestMemoryWrite+0x11e>
  }

  /* If Memory address size is 8Bit */
  if (MemAddSize == I2C_MEMADD_SIZE_8BIT)
 8005e92:	88fb      	ldrh	r3, [r7, #6]
 8005e94:	2b01      	cmp	r3, #1
 8005e96:	d105      	bne.n	8005ea4 <I2C_RequestMemoryWrite+0xd8>
  {
    /* Send Memory Address */
    hi2c->Instance->DR = I2C_MEM_ADD_LSB(MemAddress);
 8005e98:	893b      	ldrh	r3, [r7, #8]
 8005e9a:	b2da      	uxtb	r2, r3
 8005e9c:	68fb      	ldr	r3, [r7, #12]
 8005e9e:	681b      	ldr	r3, [r3, #0]
 8005ea0:	611a      	str	r2, [r3, #16]
 8005ea2:	e021      	b.n	8005ee8 <I2C_RequestMemoryWrite+0x11c>
  }
  /* If Memory address size is 16Bit */
  else
  {
    /* Send MSB of Memory Address */
    hi2c->Instance->DR = I2C_MEM_ADD_MSB(MemAddress);
 8005ea4:	893b      	ldrh	r3, [r7, #8]
 8005ea6:	0a1b      	lsrs	r3, r3, #8
 8005ea8:	b29b      	uxth	r3, r3
 8005eaa:	b2da      	uxtb	r2, r3
 8005eac:	68fb      	ldr	r3, [r7, #12]
 8005eae:	681b      	ldr	r3, [r3, #0]
 8005eb0:	611a      	str	r2, [r3, #16]

    /* Wait until TXE flag is set */
    if (I2C_WaitOnTXEFlagUntilTimeout(hi2c, Timeout, Tickstart) != HAL_OK)
 8005eb2:	6a7a      	ldr	r2, [r7, #36]	; 0x24
 8005eb4:	6a39      	ldr	r1, [r7, #32]
 8005eb6:	68f8      	ldr	r0, [r7, #12]
 8005eb8:	f000 fa20 	bl	80062fc <I2C_WaitOnTXEFlagUntilTimeout>
 8005ebc:	4603      	mov	r3, r0
 8005ebe:	2b00      	cmp	r3, #0
 8005ec0:	d00d      	beq.n	8005ede <I2C_RequestMemoryWrite+0x112>
    {
      if (hi2c->ErrorCode == HAL_I2C_ERROR_AF)
 8005ec2:	68fb      	ldr	r3, [r7, #12]
 8005ec4:	6c1b      	ldr	r3, [r3, #64]	; 0x40
 8005ec6:	2b04      	cmp	r3, #4
 8005ec8:	d107      	bne.n	8005eda <I2C_RequestMemoryWrite+0x10e>
      {
        /* Generate Stop */
        SET_BIT(hi2c->Instance->CR1, I2C_CR1_STOP);
 8005eca:	68fb      	ldr	r3, [r7, #12]
 8005ecc:	681b      	ldr	r3, [r3, #0]
 8005ece:	681a      	ldr	r2, [r3, #0]
 8005ed0:	68fb      	ldr	r3, [r7, #12]
 8005ed2:	681b      	ldr	r3, [r3, #0]
 8005ed4:	f442 7200 	orr.w	r2, r2, #512	; 0x200
 8005ed8:	601a      	str	r2, [r3, #0]
      }
      return HAL_ERROR;
 8005eda:	2301      	movs	r3, #1
 8005edc:	e005      	b.n	8005eea <I2C_RequestMemoryWrite+0x11e>
    }

    /* Send LSB of Memory Address */
    hi2c->Instance->DR = I2C_MEM_ADD_LSB(MemAddress);
 8005ede:	893b      	ldrh	r3, [r7, #8]
 8005ee0:	b2da      	uxtb	r2, r3
 8005ee2:	68fb      	ldr	r3, [r7, #12]
 8005ee4:	681b      	ldr	r3, [r3, #0]
 8005ee6:	611a      	str	r2, [r3, #16]
  }

  return HAL_OK;
 8005ee8:	2300      	movs	r3, #0
}
 8005eea:	4618      	mov	r0, r3
 8005eec:	3718      	adds	r7, #24
 8005eee:	46bd      	mov	sp, r7
 8005ef0:	bd80      	pop	{r7, pc}
 8005ef2:	bf00      	nop
 8005ef4:	00010002 	.word	0x00010002

08005ef8 <I2C_RequestMemoryRead>:
  * @param  Timeout Timeout duration
  * @param  Tickstart Tick start value
  * @retval HAL status
  */
static HAL_StatusTypeDef I2C_RequestMemoryRead(I2C_HandleTypeDef *hi2c, uint16_t DevAddress, uint16_t MemAddress, uint16_t MemAddSize, uint32_t Timeout, uint32_t Tickstart)
{
 8005ef8:	b580      	push	{r7, lr}
 8005efa:	b088      	sub	sp, #32
 8005efc:	af02      	add	r7, sp, #8
 8005efe:	60f8      	str	r0, [r7, #12]
 8005f00:	4608      	mov	r0, r1
 8005f02:	4611      	mov	r1, r2
 8005f04:	461a      	mov	r2, r3
 8005f06:	4603      	mov	r3, r0
 8005f08:	817b      	strh	r3, [r7, #10]
 8005f0a:	460b      	mov	r3, r1
 8005f0c:	813b      	strh	r3, [r7, #8]
 8005f0e:	4613      	mov	r3, r2
 8005f10:	80fb      	strh	r3, [r7, #6]
  /* Enable Acknowledge */
  SET_BIT(hi2c->Instance->CR1, I2C_CR1_ACK);
 8005f12:	68fb      	ldr	r3, [r7, #12]
 8005f14:	681b      	ldr	r3, [r3, #0]
 8005f16:	681a      	ldr	r2, [r3, #0]
 8005f18:	68fb      	ldr	r3, [r7, #12]
 8005f1a:	681b      	ldr	r3, [r3, #0]
 8005f1c:	f442 6280 	orr.w	r2, r2, #1024	; 0x400
 8005f20:	601a      	str	r2, [r3, #0]

  /* Generate Start */
  SET_BIT(hi2c->Instance->CR1, I2C_CR1_START);
 8005f22:	68fb      	ldr	r3, [r7, #12]
 8005f24:	681b      	ldr	r3, [r3, #0]
 8005f26:	681a      	ldr	r2, [r3, #0]
 8005f28:	68fb      	ldr	r3, [r7, #12]
 8005f2a:	681b      	ldr	r3, [r3, #0]
 8005f2c:	f442 7280 	orr.w	r2, r2, #256	; 0x100
 8005f30:	601a      	str	r2, [r3, #0]

  /* Wait until SB flag is set */
  if (I2C_WaitOnFlagUntilTimeout(hi2c, I2C_FLAG_SB, RESET, Timeout, Tickstart) != HAL_OK)
 8005f32:	6a7b      	ldr	r3, [r7, #36]	; 0x24
 8005f34:	9300      	str	r3, [sp, #0]
 8005f36:	6a3b      	ldr	r3, [r7, #32]
 8005f38:	2200      	movs	r2, #0
 8005f3a:	f04f 1101 	mov.w	r1, #65537	; 0x10001
 8005f3e:	68f8      	ldr	r0, [r7, #12]
 8005f40:	f000 f8c2 	bl	80060c8 <I2C_WaitOnFlagUntilTimeout>
 8005f44:	4603      	mov	r3, r0
 8005f46:	2b00      	cmp	r3, #0
 8005f48:	d00d      	beq.n	8005f66 <I2C_RequestMemoryRead+0x6e>
  {
    if (READ_BIT(hi2c->Instance->CR1, I2C_CR1_START) == I2C_CR1_START)
 8005f4a:	68fb      	ldr	r3, [r7, #12]
 8005f4c:	681b      	ldr	r3, [r3, #0]
 8005f4e:	681b      	ldr	r3, [r3, #0]
 8005f50:	f403 7380 	and.w	r3, r3, #256	; 0x100
 8005f54:	f5b3 7f80 	cmp.w	r3, #256	; 0x100
 8005f58:	d103      	bne.n	8005f62 <I2C_RequestMemoryRead+0x6a>
    {
      hi2c->ErrorCode = HAL_I2C_WRONG_START;
 8005f5a:	68fb      	ldr	r3, [r7, #12]
 8005f5c:	f44f 7200 	mov.w	r2, #512	; 0x200
 8005f60:	641a      	str	r2, [r3, #64]	; 0x40
    }
    return HAL_TIMEOUT;
 8005f62:	2303      	movs	r3, #3
 8005f64:	e0aa      	b.n	80060bc <I2C_RequestMemoryRead+0x1c4>
  }

  /* Send slave address */
  hi2c->Instance->DR = I2C_7BIT_ADD_WRITE(DevAddress);
 8005f66:	897b      	ldrh	r3, [r7, #10]
 8005f68:	b2db      	uxtb	r3, r3
 8005f6a:	461a      	mov	r2, r3
 8005f6c:	68fb      	ldr	r3, [r7, #12]
 8005f6e:	681b      	ldr	r3, [r3, #0]
 8005f70:	f002 02fe 	and.w	r2, r2, #254	; 0xfe
 8005f74:	611a      	str	r2, [r3, #16]

  /* Wait until ADDR flag is set */
  if (I2C_WaitOnMasterAddressFlagUntilTimeout(hi2c, I2C_FLAG_ADDR, Timeout, Tickstart) != HAL_OK)
 8005f76:	6a7b      	ldr	r3, [r7, #36]	; 0x24
 8005f78:	6a3a      	ldr	r2, [r7, #32]
 8005f7a:	4952      	ldr	r1, [pc, #328]	; (80060c4 <I2C_RequestMemoryRead+0x1cc>)
 8005f7c:	68f8      	ldr	r0, [r7, #12]
 8005f7e:	f000 f91d 	bl	80061bc <I2C_WaitOnMasterAddressFlagUntilTimeout>
 8005f82:	4603      	mov	r3, r0
 8005f84:	2b00      	cmp	r3, #0
 8005f86:	d001      	beq.n	8005f8c <I2C_RequestMemoryRead+0x94>
  {
    return HAL_ERROR;
 8005f88:	2301      	movs	r3, #1
 8005f8a:	e097      	b.n	80060bc <I2C_RequestMemoryRead+0x1c4>
  }

  /* Clear ADDR flag */
  __HAL_I2C_CLEAR_ADDRFLAG(hi2c);
 8005f8c:	2300      	movs	r3, #0
 8005f8e:	617b      	str	r3, [r7, #20]
 8005f90:	68fb      	ldr	r3, [r7, #12]
 8005f92:	681b      	ldr	r3, [r3, #0]
 8005f94:	695b      	ldr	r3, [r3, #20]
 8005f96:	617b      	str	r3, [r7, #20]
 8005f98:	68fb      	ldr	r3, [r7, #12]
 8005f9a:	681b      	ldr	r3, [r3, #0]
 8005f9c:	699b      	ldr	r3, [r3, #24]
 8005f9e:	617b      	str	r3, [r7, #20]
 8005fa0:	697b      	ldr	r3, [r7, #20]

  /* Wait until TXE flag is set */
  if (I2C_WaitOnTXEFlagUntilTimeout(hi2c, Timeout, Tickstart) != HAL_OK)
 8005fa2:	6a7a      	ldr	r2, [r7, #36]	; 0x24
 8005fa4:	6a39      	ldr	r1, [r7, #32]
 8005fa6:	68f8      	ldr	r0, [r7, #12]
 8005fa8:	f000 f9a8 	bl	80062fc <I2C_WaitOnTXEFlagUntilTimeout>
 8005fac:	4603      	mov	r3, r0
 8005fae:	2b00      	cmp	r3, #0
 8005fb0:	d00d      	beq.n	8005fce <I2C_RequestMemoryRead+0xd6>
  {
    if (hi2c->ErrorCode == HAL_I2C_ERROR_AF)
 8005fb2:	68fb      	ldr	r3, [r7, #12]
 8005fb4:	6c1b      	ldr	r3, [r3, #64]	; 0x40
 8005fb6:	2b04      	cmp	r3, #4
 8005fb8:	d107      	bne.n	8005fca <I2C_RequestMemoryRead+0xd2>
    {
      /* Generate Stop */
      SET_BIT(hi2c->Instance->CR1, I2C_CR1_STOP);
 8005fba:	68fb      	ldr	r3, [r7, #12]
 8005fbc:	681b      	ldr	r3, [r3, #0]
 8005fbe:	681a      	ldr	r2, [r3, #0]
 8005fc0:	68fb      	ldr	r3, [r7, #12]
 8005fc2:	681b      	ldr	r3, [r3, #0]
 8005fc4:	f442 7200 	orr.w	r2, r2, #512	; 0x200
 8005fc8:	601a      	str	r2, [r3, #0]
    }
    return HAL_ERROR;
 8005fca:	2301      	movs	r3, #1
 8005fcc:	e076      	b.n	80060bc <I2C_RequestMemoryRead+0x1c4>
  }

  /* If Memory address size is 8Bit */
  if (MemAddSize == I2C_MEMADD_SIZE_8BIT)
 8005fce:	88fb      	ldrh	r3, [r7, #6]
 8005fd0:	2b01      	cmp	r3, #1
 8005fd2:	d105      	bne.n	8005fe0 <I2C_RequestMemoryRead+0xe8>
  {
    /* Send Memory Address */
    hi2c->Instance->DR = I2C_MEM_ADD_LSB(MemAddress);
 8005fd4:	893b      	ldrh	r3, [r7, #8]
 8005fd6:	b2da      	uxtb	r2, r3
 8005fd8:	68fb      	ldr	r3, [r7, #12]
 8005fda:	681b      	ldr	r3, [r3, #0]
 8005fdc:	611a      	str	r2, [r3, #16]
 8005fde:	e021      	b.n	8006024 <I2C_RequestMemoryRead+0x12c>
  }
  /* If Memory address size is 16Bit */
  else
  {
    /* Send MSB of Memory Address */
    hi2c->Instance->DR = I2C_MEM_ADD_MSB(MemAddress);
 8005fe0:	893b      	ldrh	r3, [r7, #8]
 8005fe2:	0a1b      	lsrs	r3, r3, #8
 8005fe4:	b29b      	uxth	r3, r3
 8005fe6:	b2da      	uxtb	r2, r3
 8005fe8:	68fb      	ldr	r3, [r7, #12]
 8005fea:	681b      	ldr	r3, [r3, #0]
 8005fec:	611a      	str	r2, [r3, #16]

    /* Wait until TXE flag is set */
    if (I2C_WaitOnTXEFlagUntilTimeout(hi2c, Timeout, Tickstart) != HAL_OK)
 8005fee:	6a7a      	ldr	r2, [r7, #36]	; 0x24
 8005ff0:	6a39      	ldr	r1, [r7, #32]
 8005ff2:	68f8      	ldr	r0, [r7, #12]
 8005ff4:	f000 f982 	bl	80062fc <I2C_WaitOnTXEFlagUntilTimeout>
 8005ff8:	4603      	mov	r3, r0
 8005ffa:	2b00      	cmp	r3, #0
 8005ffc:	d00d      	beq.n	800601a <I2C_RequestMemoryRead+0x122>
    {
      if (hi2c->ErrorCode == HAL_I2C_ERROR_AF)
 8005ffe:	68fb      	ldr	r3, [r7, #12]
 8006000:	6c1b      	ldr	r3, [r3, #64]	; 0x40
 8006002:	2b04      	cmp	r3, #4
 8006004:	d107      	bne.n	8006016 <I2C_RequestMemoryRead+0x11e>
      {
        /* Generate Stop */
        SET_BIT(hi2c->Instance->CR1, I2C_CR1_STOP);
 8006006:	68fb      	ldr	r3, [r7, #12]
 8006008:	681b      	ldr	r3, [r3, #0]
 800600a:	681a      	ldr	r2, [r3, #0]
 800600c:	68fb      	ldr	r3, [r7, #12]
 800600e:	681b      	ldr	r3, [r3, #0]
 8006010:	f442 7200 	orr.w	r2, r2, #512	; 0x200
 8006014:	601a      	str	r2, [r3, #0]
      }
      return HAL_ERROR;
 8006016:	2301      	movs	r3, #1
 8006018:	e050      	b.n	80060bc <I2C_RequestMemoryRead+0x1c4>
    }

    /* Send LSB of Memory Address */
    hi2c->Instance->DR = I2C_MEM_ADD_LSB(MemAddress);
 800601a:	893b      	ldrh	r3, [r7, #8]
 800601c:	b2da      	uxtb	r2, r3
 800601e:	68fb      	ldr	r3, [r7, #12]
 8006020:	681b      	ldr	r3, [r3, #0]
 8006022:	611a      	str	r2, [r3, #16]
  }

  /* Wait until TXE flag is set */
  if (I2C_WaitOnTXEFlagUntilTimeout(hi2c, Timeout, Tickstart) != HAL_OK)
 8006024:	6a7a      	ldr	r2, [r7, #36]	; 0x24
 8006026:	6a39      	ldr	r1, [r7, #32]
 8006028:	68f8      	ldr	r0, [r7, #12]
 800602a:	f000 f967 	bl	80062fc <I2C_WaitOnTXEFlagUntilTimeout>
 800602e:	4603      	mov	r3, r0
 8006030:	2b00      	cmp	r3, #0
 8006032:	d00d      	beq.n	8006050 <I2C_RequestMemoryRead+0x158>
  {
    if (hi2c->ErrorCode == HAL_I2C_ERROR_AF)
 8006034:	68fb      	ldr	r3, [r7, #12]
 8006036:	6c1b      	ldr	r3, [r3, #64]	; 0x40
 8006038:	2b04      	cmp	r3, #4
 800603a:	d107      	bne.n	800604c <I2C_RequestMemoryRead+0x154>
    {
      /* Generate Stop */
      SET_BIT(hi2c->Instance->CR1, I2C_CR1_STOP);
 800603c:	68fb      	ldr	r3, [r7, #12]
 800603e:	681b      	ldr	r3, [r3, #0]
 8006040:	681a      	ldr	r2, [r3, #0]
 8006042:	68fb      	ldr	r3, [r7, #12]
 8006044:	681b      	ldr	r3, [r3, #0]
 8006046:	f442 7200 	orr.w	r2, r2, #512	; 0x200
 800604a:	601a      	str	r2, [r3, #0]
    }
    return HAL_ERROR;
 800604c:	2301      	movs	r3, #1
 800604e:	e035      	b.n	80060bc <I2C_RequestMemoryRead+0x1c4>
  }

  /* Generate Restart */
  SET_BIT(hi2c->Instance->CR1, I2C_CR1_START);
 8006050:	68fb      	ldr	r3, [r7, #12]
 8006052:	681b      	ldr	r3, [r3, #0]
 8006054:	681a      	ldr	r2, [r3, #0]
 8006056:	68fb      	ldr	r3, [r7, #12]
 8006058:	681b      	ldr	r3, [r3, #0]
 800605a:	f442 7280 	orr.w	r2, r2, #256	; 0x100
 800605e:	601a      	str	r2, [r3, #0]

  /* Wait until SB flag is set */
  if (I2C_WaitOnFlagUntilTimeout(hi2c, I2C_FLAG_SB, RESET, Timeout, Tickstart) != HAL_OK)
 8006060:	6a7b      	ldr	r3, [r7, #36]	; 0x24
 8006062:	9300      	str	r3, [sp, #0]
 8006064:	6a3b      	ldr	r3, [r7, #32]
 8006066:	2200      	movs	r2, #0
 8006068:	f04f 1101 	mov.w	r1, #65537	; 0x10001
 800606c:	68f8      	ldr	r0, [r7, #12]
 800606e:	f000 f82b 	bl	80060c8 <I2C_WaitOnFlagUntilTimeout>
 8006072:	4603      	mov	r3, r0
 8006074:	2b00      	cmp	r3, #0
 8006076:	d00d      	beq.n	8006094 <I2C_RequestMemoryRead+0x19c>
  {
    if (READ_BIT(hi2c->Instance->CR1, I2C_CR1_START) == I2C_CR1_START)
 8006078:	68fb      	ldr	r3, [r7, #12]
 800607a:	681b      	ldr	r3, [r3, #0]
 800607c:	681b      	ldr	r3, [r3, #0]
 800607e:	f403 7380 	and.w	r3, r3, #256	; 0x100
 8006082:	f5b3 7f80 	cmp.w	r3, #256	; 0x100
 8006086:	d103      	bne.n	8006090 <I2C_RequestMemoryRead+0x198>
    {
      hi2c->ErrorCode = HAL_I2C_WRONG_START;
 8006088:	68fb      	ldr	r3, [r7, #12]
 800608a:	f44f 7200 	mov.w	r2, #512	; 0x200
 800608e:	641a      	str	r2, [r3, #64]	; 0x40
    }
    return HAL_TIMEOUT;
 8006090:	2303      	movs	r3, #3
 8006092:	e013      	b.n	80060bc <I2C_RequestMemoryRead+0x1c4>
  }

  /* Send slave address */
  hi2c->Instance->DR = I2C_7BIT_ADD_READ(DevAddress);
 8006094:	897b      	ldrh	r3, [r7, #10]
 8006096:	b2db      	uxtb	r3, r3
 8006098:	f043 0301 	orr.w	r3, r3, #1
 800609c:	b2da      	uxtb	r2, r3
 800609e:	68fb      	ldr	r3, [r7, #12]
 80060a0:	681b      	ldr	r3, [r3, #0]
 80060a2:	611a      	str	r2, [r3, #16]

  /* Wait until ADDR flag is set */
  if (I2C_WaitOnMasterAddressFlagUntilTimeout(hi2c, I2C_FLAG_ADDR, Timeout, Tickstart) != HAL_OK)
 80060a4:	6a7b      	ldr	r3, [r7, #36]	; 0x24
 80060a6:	6a3a      	ldr	r2, [r7, #32]
 80060a8:	4906      	ldr	r1, [pc, #24]	; (80060c4 <I2C_RequestMemoryRead+0x1cc>)
 80060aa:	68f8      	ldr	r0, [r7, #12]
 80060ac:	f000 f886 	bl	80061bc <I2C_WaitOnMasterAddressFlagUntilTimeout>
 80060b0:	4603      	mov	r3, r0
 80060b2:	2b00      	cmp	r3, #0
 80060b4:	d001      	beq.n	80060ba <I2C_RequestMemoryRead+0x1c2>
  {
    return HAL_ERROR;
 80060b6:	2301      	movs	r3, #1
 80060b8:	e000      	b.n	80060bc <I2C_RequestMemoryRead+0x1c4>
  }

  return HAL_OK;
 80060ba:	2300      	movs	r3, #0
}
 80060bc:	4618      	mov	r0, r3
 80060be:	3718      	adds	r7, #24
 80060c0:	46bd      	mov	sp, r7
 80060c2:	bd80      	pop	{r7, pc}
 80060c4:	00010002 	.word	0x00010002

080060c8 <I2C_WaitOnFlagUntilTimeout>:
  * @param  Timeout Timeout duration
  * @param  Tickstart Tick start value
  * @retval HAL status
  */
static HAL_StatusTypeDef I2C_WaitOnFlagUntilTimeout(I2C_HandleTypeDef *hi2c, uint32_t Flag, FlagStatus Status, uint32_t Timeout, uint32_t Tickstart)
{
 80060c8:	b580      	push	{r7, lr}
 80060ca:	b084      	sub	sp, #16
 80060cc:	af00      	add	r7, sp, #0
 80060ce:	60f8      	str	r0, [r7, #12]
 80060d0:	60b9      	str	r1, [r7, #8]
 80060d2:	603b      	str	r3, [r7, #0]
 80060d4:	4613      	mov	r3, r2
 80060d6:	71fb      	strb	r3, [r7, #7]
  /* Wait until flag is set */
  while (__HAL_I2C_GET_FLAG(hi2c, Flag) == Status)
 80060d8:	e048      	b.n	800616c <I2C_WaitOnFlagUntilTimeout+0xa4>
  {
    /* Check for the Timeout */
    if (Timeout != HAL_MAX_DELAY)
 80060da:	683b      	ldr	r3, [r7, #0]
 80060dc:	f1b3 3fff 	cmp.w	r3, #4294967295
 80060e0:	d044      	beq.n	800616c <I2C_WaitOnFlagUntilTimeout+0xa4>
    {
      if (((HAL_GetTick() - Tickstart) > Timeout) || (Timeout == 0U))
 80060e2:	f7fe fe67 	bl	8004db4 <HAL_GetTick>
 80060e6:	4602      	mov	r2, r0
 80060e8:	69bb      	ldr	r3, [r7, #24]
 80060ea:	1ad3      	subs	r3, r2, r3
 80060ec:	683a      	ldr	r2, [r7, #0]
 80060ee:	429a      	cmp	r2, r3
 80060f0:	d302      	bcc.n	80060f8 <I2C_WaitOnFlagUntilTimeout+0x30>
 80060f2:	683b      	ldr	r3, [r7, #0]
 80060f4:	2b00      	cmp	r3, #0
 80060f6:	d139      	bne.n	800616c <I2C_WaitOnFlagUntilTimeout+0xa4>
      {
        if ((__HAL_I2C_GET_FLAG(hi2c, Flag) == Status))
 80060f8:	68bb      	ldr	r3, [r7, #8]
 80060fa:	0c1b      	lsrs	r3, r3, #16
 80060fc:	b2db      	uxtb	r3, r3
 80060fe:	2b01      	cmp	r3, #1
 8006100:	d10d      	bne.n	800611e <I2C_WaitOnFlagUntilTimeout+0x56>
 8006102:	68fb      	ldr	r3, [r7, #12]
 8006104:	681b      	ldr	r3, [r3, #0]
 8006106:	695b      	ldr	r3, [r3, #20]
 8006108:	43da      	mvns	r2, r3
 800610a:	68bb      	ldr	r3, [r7, #8]
 800610c:	4013      	ands	r3, r2
 800610e:	b29b      	uxth	r3, r3
 8006110:	2b00      	cmp	r3, #0
 8006112:	bf0c      	ite	eq
 8006114:	2301      	moveq	r3, #1
 8006116:	2300      	movne	r3, #0
 8006118:	b2db      	uxtb	r3, r3
 800611a:	461a      	mov	r2, r3
 800611c:	e00c      	b.n	8006138 <I2C_WaitOnFlagUntilTimeout+0x70>
 800611e:	68fb      	ldr	r3, [r7, #12]
 8006120:	681b      	ldr	r3, [r3, #0]
 8006122:	699b      	ldr	r3, [r3, #24]
 8006124:	43da      	mvns	r2, r3
 8006126:	68bb      	ldr	r3, [r7, #8]
 8006128:	4013      	ands	r3, r2
 800612a:	b29b      	uxth	r3, r3
 800612c:	2b00      	cmp	r3, #0
 800612e:	bf0c      	ite	eq
 8006130:	2301      	moveq	r3, #1
 8006132:	2300      	movne	r3, #0
 8006134:	b2db      	uxtb	r3, r3
 8006136:	461a      	mov	r2, r3
 8006138:	79fb      	ldrb	r3, [r7, #7]
 800613a:	429a      	cmp	r2, r3
 800613c:	d116      	bne.n	800616c <I2C_WaitOnFlagUntilTimeout+0xa4>
        {
          hi2c->PreviousState     = I2C_STATE_NONE;
 800613e:	68fb      	ldr	r3, [r7, #12]
 8006140:	2200      	movs	r2, #0
 8006142:	631a      	str	r2, [r3, #48]	; 0x30
          hi2c->State             = HAL_I2C_STATE_READY;
 8006144:	68fb      	ldr	r3, [r7, #12]
 8006146:	2220      	movs	r2, #32
 8006148:	f883 203d 	strb.w	r2, [r3, #61]	; 0x3d
          hi2c->Mode              = HAL_I2C_MODE_NONE;
 800614c:	68fb      	ldr	r3, [r7, #12]
 800614e:	2200      	movs	r2, #0
 8006150:	f883 203e 	strb.w	r2, [r3, #62]	; 0x3e
          hi2c->ErrorCode         |= HAL_I2C_ERROR_TIMEOUT;
 8006154:	68fb      	ldr	r3, [r7, #12]
 8006156:	6c1b      	ldr	r3, [r3, #64]	; 0x40
 8006158:	f043 0220 	orr.w	r2, r3, #32
 800615c:	68fb      	ldr	r3, [r7, #12]
 800615e:	641a      	str	r2, [r3, #64]	; 0x40

          /* Process Unlocked */
          __HAL_UNLOCK(hi2c);
 8006160:	68fb      	ldr	r3, [r7, #12]
 8006162:	2200      	movs	r2, #0
 8006164:	f883 203c 	strb.w	r2, [r3, #60]	; 0x3c

          return HAL_ERROR;
 8006168:	2301      	movs	r3, #1
 800616a:	e023      	b.n	80061b4 <I2C_WaitOnFlagUntilTimeout+0xec>
  while (__HAL_I2C_GET_FLAG(hi2c, Flag) == Status)
 800616c:	68bb      	ldr	r3, [r7, #8]
 800616e:	0c1b      	lsrs	r3, r3, #16
 8006170:	b2db      	uxtb	r3, r3
 8006172:	2b01      	cmp	r3, #1
 8006174:	d10d      	bne.n	8006192 <I2C_WaitOnFlagUntilTimeout+0xca>
 8006176:	68fb      	ldr	r3, [r7, #12]
 8006178:	681b      	ldr	r3, [r3, #0]
 800617a:	695b      	ldr	r3, [r3, #20]
 800617c:	43da      	mvns	r2, r3
 800617e:	68bb      	ldr	r3, [r7, #8]
 8006180:	4013      	ands	r3, r2
 8006182:	b29b      	uxth	r3, r3
 8006184:	2b00      	cmp	r3, #0
 8006186:	bf0c      	ite	eq
 8006188:	2301      	moveq	r3, #1
 800618a:	2300      	movne	r3, #0
 800618c:	b2db      	uxtb	r3, r3
 800618e:	461a      	mov	r2, r3
 8006190:	e00c      	b.n	80061ac <I2C_WaitOnFlagUntilTimeout+0xe4>
 8006192:	68fb      	ldr	r3, [r7, #12]
 8006194:	681b      	ldr	r3, [r3, #0]
 8006196:	699b      	ldr	r3, [r3, #24]
 8006198:	43da      	mvns	r2, r3
 800619a:	68bb      	ldr	r3, [r7, #8]
 800619c:	4013      	ands	r3, r2
 800619e:	b29b      	uxth	r3, r3
 80061a0:	2b00      	cmp	r3, #0
 80061a2:	bf0c      	ite	eq
 80061a4:	2301      	moveq	r3, #1
 80061a6:	2300      	movne	r3, #0
 80061a8:	b2db      	uxtb	r3, r3
 80061aa:	461a      	mov	r2, r3
 80061ac:	79fb      	ldrb	r3, [r7, #7]
 80061ae:	429a      	cmp	r2, r3
 80061b0:	d093      	beq.n	80060da <I2C_WaitOnFlagUntilTimeout+0x12>
        }
      }
    }
  }
  return HAL_OK;
 80061b2:	2300      	movs	r3, #0
}
 80061b4:	4618      	mov	r0, r3
 80061b6:	3710      	adds	r7, #16
 80061b8:	46bd      	mov	sp, r7
 80061ba:	bd80      	pop	{r7, pc}

080061bc <I2C_WaitOnMasterAddressFlagUntilTimeout>:
  * @param  Timeout Timeout duration
  * @param  Tickstart Tick start value
  * @retval HAL status
  */
static HAL_StatusTypeDef I2C_WaitOnMasterAddressFlagUntilTimeout(I2C_HandleTypeDef *hi2c, uint32_t Flag, uint32_t Timeout, uint32_t Tickstart)
{
 80061bc:	b580      	push	{r7, lr}
 80061be:	b084      	sub	sp, #16
 80061c0:	af00      	add	r7, sp, #0
 80061c2:	60f8      	str	r0, [r7, #12]
 80061c4:	60b9      	str	r1, [r7, #8]
 80061c6:	607a      	str	r2, [r7, #4]
 80061c8:	603b      	str	r3, [r7, #0]
  while (__HAL_I2C_GET_FLAG(hi2c, Flag) == RESET)
 80061ca:	e071      	b.n	80062b0 <I2C_WaitOnMasterAddressFlagUntilTimeout+0xf4>
  {
    if (__HAL_I2C_GET_FLAG(hi2c, I2C_FLAG_AF) == SET)
 80061cc:	68fb      	ldr	r3, [r7, #12]
 80061ce:	681b      	ldr	r3, [r3, #0]
 80061d0:	695b      	ldr	r3, [r3, #20]
 80061d2:	f403 6380 	and.w	r3, r3, #1024	; 0x400
 80061d6:	f5b3 6f80 	cmp.w	r3, #1024	; 0x400
 80061da:	d123      	bne.n	8006224 <I2C_WaitOnMasterAddressFlagUntilTimeout+0x68>
    {
      /* Generate Stop */
      SET_BIT(hi2c->Instance->CR1, I2C_CR1_STOP);
 80061dc:	68fb      	ldr	r3, [r7, #12]
 80061de:	681b      	ldr	r3, [r3, #0]
 80061e0:	681a      	ldr	r2, [r3, #0]
 80061e2:	68fb      	ldr	r3, [r7, #12]
 80061e4:	681b      	ldr	r3, [r3, #0]
 80061e6:	f442 7200 	orr.w	r2, r2, #512	; 0x200
 80061ea:	601a      	str	r2, [r3, #0]

      /* Clear AF Flag */
      __HAL_I2C_CLEAR_FLAG(hi2c, I2C_FLAG_AF);
 80061ec:	68fb      	ldr	r3, [r7, #12]
 80061ee:	681b      	ldr	r3, [r3, #0]
 80061f0:	f46f 6280 	mvn.w	r2, #1024	; 0x400
 80061f4:	615a      	str	r2, [r3, #20]

      hi2c->PreviousState       = I2C_STATE_NONE;
 80061f6:	68fb      	ldr	r3, [r7, #12]
 80061f8:	2200      	movs	r2, #0
 80061fa:	631a      	str	r2, [r3, #48]	; 0x30
      hi2c->State               = HAL_I2C_STATE_READY;
 80061fc:	68fb      	ldr	r3, [r7, #12]
 80061fe:	2220      	movs	r2, #32
 8006200:	f883 203d 	strb.w	r2, [r3, #61]	; 0x3d
      hi2c->Mode                = HAL_I2C_MODE_NONE;
 8006204:	68fb      	ldr	r3, [r7, #12]
 8006206:	2200      	movs	r2, #0
 8006208:	f883 203e 	strb.w	r2, [r3, #62]	; 0x3e
      hi2c->ErrorCode           |= HAL_I2C_ERROR_AF;
 800620c:	68fb      	ldr	r3, [r7, #12]
 800620e:	6c1b      	ldr	r3, [r3, #64]	; 0x40
 8006210:	f043 0204 	orr.w	r2, r3, #4
 8006214:	68fb      	ldr	r3, [r7, #12]
 8006216:	641a      	str	r2, [r3, #64]	; 0x40

      /* Process Unlocked */
      __HAL_UNLOCK(hi2c);
 8006218:	68fb      	ldr	r3, [r7, #12]
 800621a:	2200      	movs	r2, #0
 800621c:	f883 203c 	strb.w	r2, [r3, #60]	; 0x3c

      return HAL_ERROR;
 8006220:	2301      	movs	r3, #1
 8006222:	e067      	b.n	80062f4 <I2C_WaitOnMasterAddressFlagUntilTimeout+0x138>
    }

    /* Check for the Timeout */
    if (Timeout != HAL_MAX_DELAY)
 8006224:	687b      	ldr	r3, [r7, #4]
 8006226:	f1b3 3fff 	cmp.w	r3, #4294967295
 800622a:	d041      	beq.n	80062b0 <I2C_WaitOnMasterAddressFlagUntilTimeout+0xf4>
    {
      if (((HAL_GetTick() - Tickstart) > Timeout) || (Timeout == 0U))
 800622c:	f7fe fdc2 	bl	8004db4 <HAL_GetTick>
 8006230:	4602      	mov	r2, r0
 8006232:	683b      	ldr	r3, [r7, #0]
 8006234:	1ad3      	subs	r3, r2, r3
 8006236:	687a      	ldr	r2, [r7, #4]
 8006238:	429a      	cmp	r2, r3
 800623a:	d302      	bcc.n	8006242 <I2C_WaitOnMasterAddressFlagUntilTimeout+0x86>
 800623c:	687b      	ldr	r3, [r7, #4]
 800623e:	2b00      	cmp	r3, #0
 8006240:	d136      	bne.n	80062b0 <I2C_WaitOnMasterAddressFlagUntilTimeout+0xf4>
      {
        if ((__HAL_I2C_GET_FLAG(hi2c, Flag) == RESET))
 8006242:	68bb      	ldr	r3, [r7, #8]
 8006244:	0c1b      	lsrs	r3, r3, #16
 8006246:	b2db      	uxtb	r3, r3
 8006248:	2b01      	cmp	r3, #1
 800624a:	d10c      	bne.n	8006266 <I2C_WaitOnMasterAddressFlagUntilTimeout+0xaa>
 800624c:	68fb      	ldr	r3, [r7, #12]
 800624e:	681b      	ldr	r3, [r3, #0]
 8006250:	695b      	ldr	r3, [r3, #20]
 8006252:	43da      	mvns	r2, r3
 8006254:	68bb      	ldr	r3, [r7, #8]
 8006256:	4013      	ands	r3, r2
 8006258:	b29b      	uxth	r3, r3
 800625a:	2b00      	cmp	r3, #0
 800625c:	bf14      	ite	ne
 800625e:	2301      	movne	r3, #1
 8006260:	2300      	moveq	r3, #0
 8006262:	b2db      	uxtb	r3, r3
 8006264:	e00b      	b.n	800627e <I2C_WaitOnMasterAddressFlagUntilTimeout+0xc2>
 8006266:	68fb      	ldr	r3, [r7, #12]
 8006268:	681b      	ldr	r3, [r3, #0]
 800626a:	699b      	ldr	r3, [r3, #24]
 800626c:	43da      	mvns	r2, r3
 800626e:	68bb      	ldr	r3, [r7, #8]
 8006270:	4013      	ands	r3, r2
 8006272:	b29b      	uxth	r3, r3
 8006274:	2b00      	cmp	r3, #0
 8006276:	bf14      	ite	ne
 8006278:	2301      	movne	r3, #1
 800627a:	2300      	moveq	r3, #0
 800627c:	b2db      	uxtb	r3, r3
 800627e:	2b00      	cmp	r3, #0
 8006280:	d016      	beq.n	80062b0 <I2C_WaitOnMasterAddressFlagUntilTimeout+0xf4>
        {
          hi2c->PreviousState       = I2C_STATE_NONE;
 8006282:	68fb      	ldr	r3, [r7, #12]
 8006284:	2200      	movs	r2, #0
 8006286:	631a      	str	r2, [r3, #48]	; 0x30
          hi2c->State               = HAL_I2C_STATE_READY;
 8006288:	68fb      	ldr	r3, [r7, #12]
 800628a:	2220      	movs	r2, #32
 800628c:	f883 203d 	strb.w	r2, [r3, #61]	; 0x3d
          hi2c->Mode                = HAL_I2C_MODE_NONE;
 8006290:	68fb      	ldr	r3, [r7, #12]
 8006292:	2200      	movs	r2, #0
 8006294:	f883 203e 	strb.w	r2, [r3, #62]	; 0x3e
          hi2c->ErrorCode           |= HAL_I2C_ERROR_TIMEOUT;
 8006298:	68fb      	ldr	r3, [r7, #12]
 800629a:	6c1b      	ldr	r3, [r3, #64]	; 0x40
 800629c:	f043 0220 	orr.w	r2, r3, #32
 80062a0:	68fb      	ldr	r3, [r7, #12]
 80062a2:	641a      	str	r2, [r3, #64]	; 0x40

          /* Process Unlocked */
          __HAL_UNLOCK(hi2c);
 80062a4:	68fb      	ldr	r3, [r7, #12]
 80062a6:	2200      	movs	r2, #0
 80062a8:	f883 203c 	strb.w	r2, [r3, #60]	; 0x3c

          return HAL_ERROR;
 80062ac:	2301      	movs	r3, #1
 80062ae:	e021      	b.n	80062f4 <I2C_WaitOnMasterAddressFlagUntilTimeout+0x138>
  while (__HAL_I2C_GET_FLAG(hi2c, Flag) == RESET)
 80062b0:	68bb      	ldr	r3, [r7, #8]
 80062b2:	0c1b      	lsrs	r3, r3, #16
 80062b4:	b2db      	uxtb	r3, r3
 80062b6:	2b01      	cmp	r3, #1
 80062b8:	d10c      	bne.n	80062d4 <I2C_WaitOnMasterAddressFlagUntilTimeout+0x118>
 80062ba:	68fb      	ldr	r3, [r7, #12]
 80062bc:	681b      	ldr	r3, [r3, #0]
 80062be:	695b      	ldr	r3, [r3, #20]
 80062c0:	43da      	mvns	r2, r3
 80062c2:	68bb      	ldr	r3, [r7, #8]
 80062c4:	4013      	ands	r3, r2
 80062c6:	b29b      	uxth	r3, r3
 80062c8:	2b00      	cmp	r3, #0
 80062ca:	bf14      	ite	ne
 80062cc:	2301      	movne	r3, #1
 80062ce:	2300      	moveq	r3, #0
 80062d0:	b2db      	uxtb	r3, r3
 80062d2:	e00b      	b.n	80062ec <I2C_WaitOnMasterAddressFlagUntilTimeout+0x130>
 80062d4:	68fb      	ldr	r3, [r7, #12]
 80062d6:	681b      	ldr	r3, [r3, #0]
 80062d8:	699b      	ldr	r3, [r3, #24]
 80062da:	43da      	mvns	r2, r3
 80062dc:	68bb      	ldr	r3, [r7, #8]
 80062de:	4013      	ands	r3, r2
 80062e0:	b29b      	uxth	r3, r3
 80062e2:	2b00      	cmp	r3, #0
 80062e4:	bf14      	ite	ne
 80062e6:	2301      	movne	r3, #1
 80062e8:	2300      	moveq	r3, #0
 80062ea:	b2db      	uxtb	r3, r3
 80062ec:	2b00      	cmp	r3, #0
 80062ee:	f47f af6d 	bne.w	80061cc <I2C_WaitOnMasterAddressFlagUntilTimeout+0x10>
        }
      }
    }
  }
  return HAL_OK;
 80062f2:	2300      	movs	r3, #0
}
 80062f4:	4618      	mov	r0, r3
 80062f6:	3710      	adds	r7, #16
 80062f8:	46bd      	mov	sp, r7
 80062fa:	bd80      	pop	{r7, pc}

080062fc <I2C_WaitOnTXEFlagUntilTimeout>:
  * @param  Timeout Timeout duration
  * @param  Tickstart Tick start value
  * @retval HAL status
  */
static HAL_StatusTypeDef I2C_WaitOnTXEFlagUntilTimeout(I2C_HandleTypeDef *hi2c, uint32_t Timeout, uint32_t Tickstart)
{
 80062fc:	b580      	push	{r7, lr}
 80062fe:	b084      	sub	sp, #16
 8006300:	af00      	add	r7, sp, #0
 8006302:	60f8      	str	r0, [r7, #12]
 8006304:	60b9      	str	r1, [r7, #8]
 8006306:	607a      	str	r2, [r7, #4]
  while (__HAL_I2C_GET_FLAG(hi2c, I2C_FLAG_TXE) == RESET)
 8006308:	e034      	b.n	8006374 <I2C_WaitOnTXEFlagUntilTimeout+0x78>
  {
    /* Check if a NACK is detected */
    if (I2C_IsAcknowledgeFailed(hi2c) != HAL_OK)
 800630a:	68f8      	ldr	r0, [r7, #12]
 800630c:	f000 f8e3 	bl	80064d6 <I2C_IsAcknowledgeFailed>
 8006310:	4603      	mov	r3, r0
 8006312:	2b00      	cmp	r3, #0
 8006314:	d001      	beq.n	800631a <I2C_WaitOnTXEFlagUntilTimeout+0x1e>
    {
      return HAL_ERROR;
 8006316:	2301      	movs	r3, #1
 8006318:	e034      	b.n	8006384 <I2C_WaitOnTXEFlagUntilTimeout+0x88>
    }

    /* Check for the Timeout */
    if (Timeout != HAL_MAX_DELAY)
 800631a:	68bb      	ldr	r3, [r7, #8]
 800631c:	f1b3 3fff 	cmp.w	r3, #4294967295
 8006320:	d028      	beq.n	8006374 <I2C_WaitOnTXEFlagUntilTimeout+0x78>
    {
      if (((HAL_GetTick() - Tickstart) > Timeout) || (Timeout == 0U))
 8006322:	f7fe fd47 	bl	8004db4 <HAL_GetTick>
 8006326:	4602      	mov	r2, r0
 8006328:	687b      	ldr	r3, [r7, #4]
 800632a:	1ad3      	subs	r3, r2, r3
 800632c:	68ba      	ldr	r2, [r7, #8]
 800632e:	429a      	cmp	r2, r3
 8006330:	d302      	bcc.n	8006338 <I2C_WaitOnTXEFlagUntilTimeout+0x3c>
 8006332:	68bb      	ldr	r3, [r7, #8]
 8006334:	2b00      	cmp	r3, #0
 8006336:	d11d      	bne.n	8006374 <I2C_WaitOnTXEFlagUntilTimeout+0x78>
      {
        if ((__HAL_I2C_GET_FLAG(hi2c, I2C_FLAG_TXE) == RESET))
 8006338:	68fb      	ldr	r3, [r7, #12]
 800633a:	681b      	ldr	r3, [r3, #0]
 800633c:	695b      	ldr	r3, [r3, #20]
 800633e:	f003 0380 	and.w	r3, r3, #128	; 0x80
 8006342:	2b80      	cmp	r3, #128	; 0x80
 8006344:	d016      	beq.n	8006374 <I2C_WaitOnTXEFlagUntilTimeout+0x78>
        {
          hi2c->PreviousState       = I2C_STATE_NONE;
 8006346:	68fb      	ldr	r3, [r7, #12]
 8006348:	2200      	movs	r2, #0
 800634a:	631a      	str	r2, [r3, #48]	; 0x30
          hi2c->State               = HAL_I2C_STATE_READY;
 800634c:	68fb      	ldr	r3, [r7, #12]
 800634e:	2220      	movs	r2, #32
 8006350:	f883 203d 	strb.w	r2, [r3, #61]	; 0x3d
          hi2c->Mode                = HAL_I2C_MODE_NONE;
 8006354:	68fb      	ldr	r3, [r7, #12]
 8006356:	2200      	movs	r2, #0
 8006358:	f883 203e 	strb.w	r2, [r3, #62]	; 0x3e
          hi2c->ErrorCode           |= HAL_I2C_ERROR_TIMEOUT;
 800635c:	68fb      	ldr	r3, [r7, #12]
 800635e:	6c1b      	ldr	r3, [r3, #64]	; 0x40
 8006360:	f043 0220 	orr.w	r2, r3, #32
 8006364:	68fb      	ldr	r3, [r7, #12]
 8006366:	641a      	str	r2, [r3, #64]	; 0x40

          /* Process Unlocked */
          __HAL_UNLOCK(hi2c);
 8006368:	68fb      	ldr	r3, [r7, #12]
 800636a:	2200      	movs	r2, #0
 800636c:	f883 203c 	strb.w	r2, [r3, #60]	; 0x3c

          return HAL_ERROR;
 8006370:	2301      	movs	r3, #1
 8006372:	e007      	b.n	8006384 <I2C_WaitOnTXEFlagUntilTimeout+0x88>
  while (__HAL_I2C_GET_FLAG(hi2c, I2C_FLAG_TXE) == RESET)
 8006374:	68fb      	ldr	r3, [r7, #12]
 8006376:	681b      	ldr	r3, [r3, #0]
 8006378:	695b      	ldr	r3, [r3, #20]
 800637a:	f003 0380 	and.w	r3, r3, #128	; 0x80
 800637e:	2b80      	cmp	r3, #128	; 0x80
 8006380:	d1c3      	bne.n	800630a <I2C_WaitOnTXEFlagUntilTimeout+0xe>
        }
      }
    }
  }
  return HAL_OK;
 8006382:	2300      	movs	r3, #0
}
 8006384:	4618      	mov	r0, r3
 8006386:	3710      	adds	r7, #16
 8006388:	46bd      	mov	sp, r7
 800638a:	bd80      	pop	{r7, pc}

0800638c <I2C_WaitOnBTFFlagUntilTimeout>:
  * @param  Timeout Timeout duration
  * @param  Tickstart Tick start value
  * @retval HAL status
  */
static HAL_StatusTypeDef I2C_WaitOnBTFFlagUntilTimeout(I2C_HandleTypeDef *hi2c, uint32_t Timeout, uint32_t Tickstart)
{
 800638c:	b580      	push	{r7, lr}
 800638e:	b084      	sub	sp, #16
 8006390:	af00      	add	r7, sp, #0
 8006392:	60f8      	str	r0, [r7, #12]
 8006394:	60b9      	str	r1, [r7, #8]
 8006396:	607a      	str	r2, [r7, #4]
  while (__HAL_I2C_GET_FLAG(hi2c, I2C_FLAG_BTF) == RESET)
 8006398:	e034      	b.n	8006404 <I2C_WaitOnBTFFlagUntilTimeout+0x78>
  {
    /* Check if a NACK is detected */
    if (I2C_IsAcknowledgeFailed(hi2c) != HAL_OK)
 800639a:	68f8      	ldr	r0, [r7, #12]
 800639c:	f000 f89b 	bl	80064d6 <I2C_IsAcknowledgeFailed>
 80063a0:	4603      	mov	r3, r0
 80063a2:	2b00      	cmp	r3, #0
 80063a4:	d001      	beq.n	80063aa <I2C_WaitOnBTFFlagUntilTimeout+0x1e>
    {
      return HAL_ERROR;
 80063a6:	2301      	movs	r3, #1
 80063a8:	e034      	b.n	8006414 <I2C_WaitOnBTFFlagUntilTimeout+0x88>
    }

    /* Check for the Timeout */
    if (Timeout != HAL_MAX_DELAY)
 80063aa:	68bb      	ldr	r3, [r7, #8]
 80063ac:	f1b3 3fff 	cmp.w	r3, #4294967295
 80063b0:	d028      	beq.n	8006404 <I2C_WaitOnBTFFlagUntilTimeout+0x78>
    {
      if (((HAL_GetTick() - Tickstart) > Timeout) || (Timeout == 0U))
 80063b2:	f7fe fcff 	bl	8004db4 <HAL_GetTick>
 80063b6:	4602      	mov	r2, r0
 80063b8:	687b      	ldr	r3, [r7, #4]
 80063ba:	1ad3      	subs	r3, r2, r3
 80063bc:	68ba      	ldr	r2, [r7, #8]
 80063be:	429a      	cmp	r2, r3
 80063c0:	d302      	bcc.n	80063c8 <I2C_WaitOnBTFFlagUntilTimeout+0x3c>
 80063c2:	68bb      	ldr	r3, [r7, #8]
 80063c4:	2b00      	cmp	r3, #0
 80063c6:	d11d      	bne.n	8006404 <I2C_WaitOnBTFFlagUntilTimeout+0x78>
      {
        if ((__HAL_I2C_GET_FLAG(hi2c, I2C_FLAG_BTF) == RESET))
 80063c8:	68fb      	ldr	r3, [r7, #12]
 80063ca:	681b      	ldr	r3, [r3, #0]
 80063cc:	695b      	ldr	r3, [r3, #20]
 80063ce:	f003 0304 	and.w	r3, r3, #4
 80063d2:	2b04      	cmp	r3, #4
 80063d4:	d016      	beq.n	8006404 <I2C_WaitOnBTFFlagUntilTimeout+0x78>
        {
          hi2c->PreviousState       = I2C_STATE_NONE;
 80063d6:	68fb      	ldr	r3, [r7, #12]
 80063d8:	2200      	movs	r2, #0
 80063da:	631a      	str	r2, [r3, #48]	; 0x30
          hi2c->State               = HAL_I2C_STATE_READY;
 80063dc:	68fb      	ldr	r3, [r7, #12]
 80063de:	2220      	movs	r2, #32
 80063e0:	f883 203d 	strb.w	r2, [r3, #61]	; 0x3d
          hi2c->Mode                = HAL_I2C_MODE_NONE;
 80063e4:	68fb      	ldr	r3, [r7, #12]
 80063e6:	2200      	movs	r2, #0
 80063e8:	f883 203e 	strb.w	r2, [r3, #62]	; 0x3e
          hi2c->ErrorCode           |= HAL_I2C_ERROR_TIMEOUT;
 80063ec:	68fb      	ldr	r3, [r7, #12]
 80063ee:	6c1b      	ldr	r3, [r3, #64]	; 0x40
 80063f0:	f043 0220 	orr.w	r2, r3, #32
 80063f4:	68fb      	ldr	r3, [r7, #12]
 80063f6:	641a      	str	r2, [r3, #64]	; 0x40

          /* Process Unlocked */
          __HAL_UNLOCK(hi2c);
 80063f8:	68fb      	ldr	r3, [r7, #12]
 80063fa:	2200      	movs	r2, #0
 80063fc:	f883 203c 	strb.w	r2, [r3, #60]	; 0x3c

          return HAL_ERROR;
 8006400:	2301      	movs	r3, #1
 8006402:	e007      	b.n	8006414 <I2C_WaitOnBTFFlagUntilTimeout+0x88>
  while (__HAL_I2C_GET_FLAG(hi2c, I2C_FLAG_BTF) == RESET)
 8006404:	68fb      	ldr	r3, [r7, #12]
 8006406:	681b      	ldr	r3, [r3, #0]
 8006408:	695b      	ldr	r3, [r3, #20]
 800640a:	f003 0304 	and.w	r3, r3, #4
 800640e:	2b04      	cmp	r3, #4
 8006410:	d1c3      	bne.n	800639a <I2C_WaitOnBTFFlagUntilTimeout+0xe>
        }
      }
    }
  }
  return HAL_OK;
 8006412:	2300      	movs	r3, #0
}
 8006414:	4618      	mov	r0, r3
 8006416:	3710      	adds	r7, #16
 8006418:	46bd      	mov	sp, r7
 800641a:	bd80      	pop	{r7, pc}

0800641c <I2C_WaitOnRXNEFlagUntilTimeout>:
  * @param  Timeout Timeout duration
  * @param  Tickstart Tick start value
  * @retval HAL status
  */
static HAL_StatusTypeDef I2C_WaitOnRXNEFlagUntilTimeout(I2C_HandleTypeDef *hi2c, uint32_t Timeout, uint32_t Tickstart)
{
 800641c:	b580      	push	{r7, lr}
 800641e:	b084      	sub	sp, #16
 8006420:	af00      	add	r7, sp, #0
 8006422:	60f8      	str	r0, [r7, #12]
 8006424:	60b9      	str	r1, [r7, #8]
 8006426:	607a      	str	r2, [r7, #4]

  while (__HAL_I2C_GET_FLAG(hi2c, I2C_FLAG_RXNE) == RESET)
 8006428:	e049      	b.n	80064be <I2C_WaitOnRXNEFlagUntilTimeout+0xa2>
  {
    /* Check if a STOPF is detected */
    if (__HAL_I2C_GET_FLAG(hi2c, I2C_FLAG_STOPF) == SET)
 800642a:	68fb      	ldr	r3, [r7, #12]
 800642c:	681b      	ldr	r3, [r3, #0]
 800642e:	695b      	ldr	r3, [r3, #20]
 8006430:	f003 0310 	and.w	r3, r3, #16
 8006434:	2b10      	cmp	r3, #16
 8006436:	d119      	bne.n	800646c <I2C_WaitOnRXNEFlagUntilTimeout+0x50>
    {
      /* Clear STOP Flag */
      __HAL_I2C_CLEAR_FLAG(hi2c, I2C_FLAG_STOPF);
 8006438:	68fb      	ldr	r3, [r7, #12]
 800643a:	681b      	ldr	r3, [r3, #0]
 800643c:	f06f 0210 	mvn.w	r2, #16
 8006440:	615a      	str	r2, [r3, #20]

      hi2c->PreviousState       = I2C_STATE_NONE;
 8006442:	68fb      	ldr	r3, [r7, #12]
 8006444:	2200      	movs	r2, #0
 8006446:	631a      	str	r2, [r3, #48]	; 0x30
      hi2c->State               = HAL_I2C_STATE_READY;
 8006448:	68fb      	ldr	r3, [r7, #12]
 800644a:	2220      	movs	r2, #32
 800644c:	f883 203d 	strb.w	r2, [r3, #61]	; 0x3d
      hi2c->Mode                = HAL_I2C_MODE_NONE;
 8006450:	68fb      	ldr	r3, [r7, #12]
 8006452:	2200      	movs	r2, #0
 8006454:	f883 203e 	strb.w	r2, [r3, #62]	; 0x3e
      hi2c->ErrorCode           |= HAL_I2C_ERROR_NONE;
 8006458:	68fb      	ldr	r3, [r7, #12]
 800645a:	6c1a      	ldr	r2, [r3, #64]	; 0x40
 800645c:	68fb      	ldr	r3, [r7, #12]
 800645e:	641a      	str	r2, [r3, #64]	; 0x40

      /* Process Unlocked */
      __HAL_UNLOCK(hi2c);
 8006460:	68fb      	ldr	r3, [r7, #12]
 8006462:	2200      	movs	r2, #0
 8006464:	f883 203c 	strb.w	r2, [r3, #60]	; 0x3c

      return HAL_ERROR;
 8006468:	2301      	movs	r3, #1
 800646a:	e030      	b.n	80064ce <I2C_WaitOnRXNEFlagUntilTimeout+0xb2>
    }

    /* Check for the Timeout */
    if (((HAL_GetTick() - Tickstart) > Timeout) || (Timeout == 0U))
 800646c:	f7fe fca2 	bl	8004db4 <HAL_GetTick>
 8006470:	4602      	mov	r2, r0
 8006472:	687b      	ldr	r3, [r7, #4]
 8006474:	1ad3      	subs	r3, r2, r3
 8006476:	68ba      	ldr	r2, [r7, #8]
 8006478:	429a      	cmp	r2, r3
 800647a:	d302      	bcc.n	8006482 <I2C_WaitOnRXNEFlagUntilTimeout+0x66>
 800647c:	68bb      	ldr	r3, [r7, #8]
 800647e:	2b00      	cmp	r3, #0
 8006480:	d11d      	bne.n	80064be <I2C_WaitOnRXNEFlagUntilTimeout+0xa2>
    {
      if ((__HAL_I2C_GET_FLAG(hi2c, I2C_FLAG_RXNE) == RESET))
 8006482:	68fb      	ldr	r3, [r7, #12]
 8006484:	681b      	ldr	r3, [r3, #0]
 8006486:	695b      	ldr	r3, [r3, #20]
 8006488:	f003 0340 	and.w	r3, r3, #64	; 0x40
 800648c:	2b40      	cmp	r3, #64	; 0x40
 800648e:	d016      	beq.n	80064be <I2C_WaitOnRXNEFlagUntilTimeout+0xa2>
      {
        hi2c->PreviousState       = I2C_STATE_NONE;
 8006490:	68fb      	ldr	r3, [r7, #12]
 8006492:	2200      	movs	r2, #0
 8006494:	631a      	str	r2, [r3, #48]	; 0x30
        hi2c->State               = HAL_I2C_STATE_READY;
 8006496:	68fb      	ldr	r3, [r7, #12]
 8006498:	2220      	movs	r2, #32
 800649a:	f883 203d 	strb.w	r2, [r3, #61]	; 0x3d
        hi2c->Mode                = HAL_I2C_MODE_NONE;
 800649e:	68fb      	ldr	r3, [r7, #12]
 80064a0:	2200      	movs	r2, #0
 80064a2:	f883 203e 	strb.w	r2, [r3, #62]	; 0x3e
        hi2c->ErrorCode           |= HAL_I2C_ERROR_TIMEOUT;
 80064a6:	68fb      	ldr	r3, [r7, #12]
 80064a8:	6c1b      	ldr	r3, [r3, #64]	; 0x40
 80064aa:	f043 0220 	orr.w	r2, r3, #32
 80064ae:	68fb      	ldr	r3, [r7, #12]
 80064b0:	641a      	str	r2, [r3, #64]	; 0x40

        /* Process Unlocked */
        __HAL_UNLOCK(hi2c);
 80064b2:	68fb      	ldr	r3, [r7, #12]
 80064b4:	2200      	movs	r2, #0
 80064b6:	f883 203c 	strb.w	r2, [r3, #60]	; 0x3c

        return HAL_ERROR;
 80064ba:	2301      	movs	r3, #1
 80064bc:	e007      	b.n	80064ce <I2C_WaitOnRXNEFlagUntilTimeout+0xb2>
  while (__HAL_I2C_GET_FLAG(hi2c, I2C_FLAG_RXNE) == RESET)
 80064be:	68fb      	ldr	r3, [r7, #12]
 80064c0:	681b      	ldr	r3, [r3, #0]
 80064c2:	695b      	ldr	r3, [r3, #20]
 80064c4:	f003 0340 	and.w	r3, r3, #64	; 0x40
 80064c8:	2b40      	cmp	r3, #64	; 0x40
 80064ca:	d1ae      	bne.n	800642a <I2C_WaitOnRXNEFlagUntilTimeout+0xe>
      }
    }
  }
  return HAL_OK;
 80064cc:	2300      	movs	r3, #0
}
 80064ce:	4618      	mov	r0, r3
 80064d0:	3710      	adds	r7, #16
 80064d2:	46bd      	mov	sp, r7
 80064d4:	bd80      	pop	{r7, pc}

080064d6 <I2C_IsAcknowledgeFailed>:
  * @param  hi2c Pointer to a I2C_HandleTypeDef structure that contains
  *                the configuration information for the specified I2C.
  * @retval HAL status
  */
static HAL_StatusTypeDef I2C_IsAcknowledgeFailed(I2C_HandleTypeDef *hi2c)
{
 80064d6:	b480      	push	{r7}
 80064d8:	b083      	sub	sp, #12
 80064da:	af00      	add	r7, sp, #0
 80064dc:	6078      	str	r0, [r7, #4]
  if (__HAL_I2C_GET_FLAG(hi2c, I2C_FLAG_AF) == SET)
 80064de:	687b      	ldr	r3, [r7, #4]
 80064e0:	681b      	ldr	r3, [r3, #0]
 80064e2:	695b      	ldr	r3, [r3, #20]
 80064e4:	f403 6380 	and.w	r3, r3, #1024	; 0x400
 80064e8:	f5b3 6f80 	cmp.w	r3, #1024	; 0x400
 80064ec:	d11b      	bne.n	8006526 <I2C_IsAcknowledgeFailed+0x50>
  {
    /* Clear NACKF Flag */
    __HAL_I2C_CLEAR_FLAG(hi2c, I2C_FLAG_AF);
 80064ee:	687b      	ldr	r3, [r7, #4]
 80064f0:	681b      	ldr	r3, [r3, #0]
 80064f2:	f46f 6280 	mvn.w	r2, #1024	; 0x400
 80064f6:	615a      	str	r2, [r3, #20]

    hi2c->PreviousState       = I2C_STATE_NONE;
 80064f8:	687b      	ldr	r3, [r7, #4]
 80064fa:	2200      	movs	r2, #0
 80064fc:	631a      	str	r2, [r3, #48]	; 0x30
    hi2c->State               = HAL_I2C_STATE_READY;
 80064fe:	687b      	ldr	r3, [r7, #4]
 8006500:	2220      	movs	r2, #32
 8006502:	f883 203d 	strb.w	r2, [r3, #61]	; 0x3d
    hi2c->Mode                = HAL_I2C_MODE_NONE;
 8006506:	687b      	ldr	r3, [r7, #4]
 8006508:	2200      	movs	r2, #0
 800650a:	f883 203e 	strb.w	r2, [r3, #62]	; 0x3e
    hi2c->ErrorCode           |= HAL_I2C_ERROR_AF;
 800650e:	687b      	ldr	r3, [r7, #4]
 8006510:	6c1b      	ldr	r3, [r3, #64]	; 0x40
 8006512:	f043 0204 	orr.w	r2, r3, #4
 8006516:	687b      	ldr	r3, [r7, #4]
 8006518:	641a      	str	r2, [r3, #64]	; 0x40

    /* Process Unlocked */
    __HAL_UNLOCK(hi2c);
 800651a:	687b      	ldr	r3, [r7, #4]
 800651c:	2200      	movs	r2, #0
 800651e:	f883 203c 	strb.w	r2, [r3, #60]	; 0x3c

    return HAL_ERROR;
 8006522:	2301      	movs	r3, #1
 8006524:	e000      	b.n	8006528 <I2C_IsAcknowledgeFailed+0x52>
  }
  return HAL_OK;
 8006526:	2300      	movs	r3, #0
}
 8006528:	4618      	mov	r0, r3
 800652a:	370c      	adds	r7, #12
 800652c:	46bd      	mov	sp, r7
 800652e:	bc80      	pop	{r7}
 8006530:	4770      	bx	lr
	...

08006534 <HAL_RCC_OscConfig>:
  *         supported by this macro. User should request a transition to HSE Off
  *         first and then HSE On or HSE Bypass.
  * @retval HAL status
  */
HAL_StatusTypeDef HAL_RCC_OscConfig(RCC_OscInitTypeDef  *RCC_OscInitStruct)
{
 8006534:	b580      	push	{r7, lr}
 8006536:	b086      	sub	sp, #24
 8006538:	af00      	add	r7, sp, #0
 800653a:	6078      	str	r0, [r7, #4]
  uint32_t tickstart;
  uint32_t pll_config;

  /* Check Null pointer */
  if (RCC_OscInitStruct == NULL)
 800653c:	687b      	ldr	r3, [r7, #4]
 800653e:	2b00      	cmp	r3, #0
 8006540:	d101      	bne.n	8006546 <HAL_RCC_OscConfig+0x12>
  {
    return HAL_ERROR;
 8006542:	2301      	movs	r3, #1
 8006544:	e272      	b.n	8006a2c <HAL_RCC_OscConfig+0x4f8>

  /* Check the parameters */
  assert_param(IS_RCC_OSCILLATORTYPE(RCC_OscInitStruct->OscillatorType));

  /*------------------------------- HSE Configuration ------------------------*/
  if (((RCC_OscInitStruct->OscillatorType) & RCC_OSCILLATORTYPE_HSE) == RCC_OSCILLATORTYPE_HSE)
 8006546:	687b      	ldr	r3, [r7, #4]
 8006548:	681b      	ldr	r3, [r3, #0]
 800654a:	f003 0301 	and.w	r3, r3, #1
 800654e:	2b00      	cmp	r3, #0
 8006550:	f000 8087 	beq.w	8006662 <HAL_RCC_OscConfig+0x12e>
  {
    /* Check the parameters */
    assert_param(IS_RCC_HSE(RCC_OscInitStruct->HSEState));

    /* When the HSE is used as system clock or clock source for PLL in these cases it is not allowed to be disabled */
    if ((__HAL_RCC_GET_SYSCLK_SOURCE() == RCC_SYSCLKSOURCE_STATUS_HSE)
 8006554:	4b92      	ldr	r3, [pc, #584]	; (80067a0 <HAL_RCC_OscConfig+0x26c>)
 8006556:	685b      	ldr	r3, [r3, #4]
 8006558:	f003 030c 	and.w	r3, r3, #12
 800655c:	2b04      	cmp	r3, #4
 800655e:	d00c      	beq.n	800657a <HAL_RCC_OscConfig+0x46>
        || ((__HAL_RCC_GET_SYSCLK_SOURCE() == RCC_SYSCLKSOURCE_STATUS_PLLCLK) && (__HAL_RCC_GET_PLL_OSCSOURCE() == RCC_PLLSOURCE_HSE)))
 8006560:	4b8f      	ldr	r3, [pc, #572]	; (80067a0 <HAL_RCC_OscConfig+0x26c>)
 8006562:	685b      	ldr	r3, [r3, #4]
 8006564:	f003 030c 	and.w	r3, r3, #12
 8006568:	2b08      	cmp	r3, #8
 800656a:	d112      	bne.n	8006592 <HAL_RCC_OscConfig+0x5e>
 800656c:	4b8c      	ldr	r3, [pc, #560]	; (80067a0 <HAL_RCC_OscConfig+0x26c>)
 800656e:	685b      	ldr	r3, [r3, #4]
 8006570:	f403 3380 	and.w	r3, r3, #65536	; 0x10000
 8006574:	f5b3 3f80 	cmp.w	r3, #65536	; 0x10000
 8006578:	d10b      	bne.n	8006592 <HAL_RCC_OscConfig+0x5e>
    {
      if ((__HAL_RCC_GET_FLAG(RCC_FLAG_HSERDY) != RESET) && (RCC_OscInitStruct->HSEState == RCC_HSE_OFF))
 800657a:	4b89      	ldr	r3, [pc, #548]	; (80067a0 <HAL_RCC_OscConfig+0x26c>)
 800657c:	681b      	ldr	r3, [r3, #0]
 800657e:	f403 3300 	and.w	r3, r3, #131072	; 0x20000
 8006582:	2b00      	cmp	r3, #0
 8006584:	d06c      	beq.n	8006660 <HAL_RCC_OscConfig+0x12c>
 8006586:	687b      	ldr	r3, [r7, #4]
 8006588:	685b      	ldr	r3, [r3, #4]
 800658a:	2b00      	cmp	r3, #0
 800658c:	d168      	bne.n	8006660 <HAL_RCC_OscConfig+0x12c>
      {
        return HAL_ERROR;
 800658e:	2301      	movs	r3, #1
 8006590:	e24c      	b.n	8006a2c <HAL_RCC_OscConfig+0x4f8>
      }
    }
    else
    {
      /* Set the new HSE configuration ---------------------------------------*/
      __HAL_RCC_HSE_CONFIG(RCC_OscInitStruct->HSEState);
 8006592:	687b      	ldr	r3, [r7, #4]
 8006594:	685b      	ldr	r3, [r3, #4]
 8006596:	f5b3 3f80 	cmp.w	r3, #65536	; 0x10000
 800659a:	d106      	bne.n	80065aa <HAL_RCC_OscConfig+0x76>
 800659c:	4b80      	ldr	r3, [pc, #512]	; (80067a0 <HAL_RCC_OscConfig+0x26c>)
 800659e:	681b      	ldr	r3, [r3, #0]
 80065a0:	4a7f      	ldr	r2, [pc, #508]	; (80067a0 <HAL_RCC_OscConfig+0x26c>)
 80065a2:	f443 3380 	orr.w	r3, r3, #65536	; 0x10000
 80065a6:	6013      	str	r3, [r2, #0]
 80065a8:	e02e      	b.n	8006608 <HAL_RCC_OscConfig+0xd4>
 80065aa:	687b      	ldr	r3, [r7, #4]
 80065ac:	685b      	ldr	r3, [r3, #4]
 80065ae:	2b00      	cmp	r3, #0
 80065b0:	d10c      	bne.n	80065cc <HAL_RCC_OscConfig+0x98>
 80065b2:	4b7b      	ldr	r3, [pc, #492]	; (80067a0 <HAL_RCC_OscConfig+0x26c>)
 80065b4:	681b      	ldr	r3, [r3, #0]
 80065b6:	4a7a      	ldr	r2, [pc, #488]	; (80067a0 <HAL_RCC_OscConfig+0x26c>)
 80065b8:	f423 3380 	bic.w	r3, r3, #65536	; 0x10000
 80065bc:	6013      	str	r3, [r2, #0]
 80065be:	4b78      	ldr	r3, [pc, #480]	; (80067a0 <HAL_RCC_OscConfig+0x26c>)
 80065c0:	681b      	ldr	r3, [r3, #0]
 80065c2:	4a77      	ldr	r2, [pc, #476]	; (80067a0 <HAL_RCC_OscConfig+0x26c>)
 80065c4:	f423 2380 	bic.w	r3, r3, #262144	; 0x40000
 80065c8:	6013      	str	r3, [r2, #0]
 80065ca:	e01d      	b.n	8006608 <HAL_RCC_OscConfig+0xd4>
 80065cc:	687b      	ldr	r3, [r7, #4]
 80065ce:	685b      	ldr	r3, [r3, #4]
 80065d0:	f5b3 2fa0 	cmp.w	r3, #327680	; 0x50000
 80065d4:	d10c      	bne.n	80065f0 <HAL_RCC_OscConfig+0xbc>
 80065d6:	4b72      	ldr	r3, [pc, #456]	; (80067a0 <HAL_RCC_OscConfig+0x26c>)
 80065d8:	681b      	ldr	r3, [r3, #0]
 80065da:	4a71      	ldr	r2, [pc, #452]	; (80067a0 <HAL_RCC_OscConfig+0x26c>)
 80065dc:	f443 2380 	orr.w	r3, r3, #262144	; 0x40000
 80065e0:	6013      	str	r3, [r2, #0]
 80065e2:	4b6f      	ldr	r3, [pc, #444]	; (80067a0 <HAL_RCC_OscConfig+0x26c>)
 80065e4:	681b      	ldr	r3, [r3, #0]
 80065e6:	4a6e      	ldr	r2, [pc, #440]	; (80067a0 <HAL_RCC_OscConfig+0x26c>)
 80065e8:	f443 3380 	orr.w	r3, r3, #65536	; 0x10000
 80065ec:	6013      	str	r3, [r2, #0]
 80065ee:	e00b      	b.n	8006608 <HAL_RCC_OscConfig+0xd4>
 80065f0:	4b6b      	ldr	r3, [pc, #428]	; (80067a0 <HAL_RCC_OscConfig+0x26c>)
 80065f2:	681b      	ldr	r3, [r3, #0]
 80065f4:	4a6a      	ldr	r2, [pc, #424]	; (80067a0 <HAL_RCC_OscConfig+0x26c>)
 80065f6:	f423 3380 	bic.w	r3, r3, #65536	; 0x10000
 80065fa:	6013      	str	r3, [r2, #0]
 80065fc:	4b68      	ldr	r3, [pc, #416]	; (80067a0 <HAL_RCC_OscConfig+0x26c>)
 80065fe:	681b      	ldr	r3, [r3, #0]
 8006600:	4a67      	ldr	r2, [pc, #412]	; (80067a0 <HAL_RCC_OscConfig+0x26c>)
 8006602:	f423 2380 	bic.w	r3, r3, #262144	; 0x40000
 8006606:	6013      	str	r3, [r2, #0]


      /* Check the HSE State */
      if (RCC_OscInitStruct->HSEState != RCC_HSE_OFF)
 8006608:	687b      	ldr	r3, [r7, #4]
 800660a:	685b      	ldr	r3, [r3, #4]
 800660c:	2b00      	cmp	r3, #0
 800660e:	d013      	beq.n	8006638 <HAL_RCC_OscConfig+0x104>
      {
        /* Get Start Tick */
        tickstart = HAL_GetTick();
 8006610:	f7fe fbd0 	bl	8004db4 <HAL_GetTick>
 8006614:	6138      	str	r0, [r7, #16]

        /* Wait till HSE is ready */
        while (__HAL_RCC_GET_FLAG(RCC_FLAG_HSERDY) == RESET)
 8006616:	e008      	b.n	800662a <HAL_RCC_OscConfig+0xf6>
        {
          if ((HAL_GetTick() - tickstart) > HSE_TIMEOUT_VALUE)
 8006618:	f7fe fbcc 	bl	8004db4 <HAL_GetTick>
 800661c:	4602      	mov	r2, r0
 800661e:	693b      	ldr	r3, [r7, #16]
 8006620:	1ad3      	subs	r3, r2, r3
 8006622:	2b64      	cmp	r3, #100	; 0x64
 8006624:	d901      	bls.n	800662a <HAL_RCC_OscConfig+0xf6>
          {
            return HAL_TIMEOUT;
 8006626:	2303      	movs	r3, #3
 8006628:	e200      	b.n	8006a2c <HAL_RCC_OscConfig+0x4f8>
        while (__HAL_RCC_GET_FLAG(RCC_FLAG_HSERDY) == RESET)
 800662a:	4b5d      	ldr	r3, [pc, #372]	; (80067a0 <HAL_RCC_OscConfig+0x26c>)
 800662c:	681b      	ldr	r3, [r3, #0]
 800662e:	f403 3300 	and.w	r3, r3, #131072	; 0x20000
 8006632:	2b00      	cmp	r3, #0
 8006634:	d0f0      	beq.n	8006618 <HAL_RCC_OscConfig+0xe4>
 8006636:	e014      	b.n	8006662 <HAL_RCC_OscConfig+0x12e>
        }
      }
      else
      {
        /* Get Start Tick */
        tickstart = HAL_GetTick();
 8006638:	f7fe fbbc 	bl	8004db4 <HAL_GetTick>
 800663c:	6138      	str	r0, [r7, #16]

        /* Wait till HSE is disabled */
        while (__HAL_RCC_GET_FLAG(RCC_FLAG_HSERDY) != RESET)
 800663e:	e008      	b.n	8006652 <HAL_RCC_OscConfig+0x11e>
        {
          if ((HAL_GetTick() - tickstart) > HSE_TIMEOUT_VALUE)
 8006640:	f7fe fbb8 	bl	8004db4 <HAL_GetTick>
 8006644:	4602      	mov	r2, r0
 8006646:	693b      	ldr	r3, [r7, #16]
 8006648:	1ad3      	subs	r3, r2, r3
 800664a:	2b64      	cmp	r3, #100	; 0x64
 800664c:	d901      	bls.n	8006652 <HAL_RCC_OscConfig+0x11e>
          {
            return HAL_TIMEOUT;
 800664e:	2303      	movs	r3, #3
 8006650:	e1ec      	b.n	8006a2c <HAL_RCC_OscConfig+0x4f8>
        while (__HAL_RCC_GET_FLAG(RCC_FLAG_HSERDY) != RESET)
 8006652:	4b53      	ldr	r3, [pc, #332]	; (80067a0 <HAL_RCC_OscConfig+0x26c>)
 8006654:	681b      	ldr	r3, [r3, #0]
 8006656:	f403 3300 	and.w	r3, r3, #131072	; 0x20000
 800665a:	2b00      	cmp	r3, #0
 800665c:	d1f0      	bne.n	8006640 <HAL_RCC_OscConfig+0x10c>
 800665e:	e000      	b.n	8006662 <HAL_RCC_OscConfig+0x12e>
      if ((__HAL_RCC_GET_FLAG(RCC_FLAG_HSERDY) != RESET) && (RCC_OscInitStruct->HSEState == RCC_HSE_OFF))
 8006660:	bf00      	nop
        }
      }
    }
  }
  /*----------------------------- HSI Configuration --------------------------*/
  if (((RCC_OscInitStruct->OscillatorType) & RCC_OSCILLATORTYPE_HSI) == RCC_OSCILLATORTYPE_HSI)
 8006662:	687b      	ldr	r3, [r7, #4]
 8006664:	681b      	ldr	r3, [r3, #0]
 8006666:	f003 0302 	and.w	r3, r3, #2
 800666a:	2b00      	cmp	r3, #0
 800666c:	d063      	beq.n	8006736 <HAL_RCC_OscConfig+0x202>
    /* Check the parameters */
    assert_param(IS_RCC_HSI(RCC_OscInitStruct->HSIState));
    assert_param(IS_RCC_CALIBRATION_VALUE(RCC_OscInitStruct->HSICalibrationValue));

    /* Check if HSI is used as system clock or as PLL source when PLL is selected as system clock */
    if ((__HAL_RCC_GET_SYSCLK_SOURCE() == RCC_SYSCLKSOURCE_STATUS_HSI)
 800666e:	4b4c      	ldr	r3, [pc, #304]	; (80067a0 <HAL_RCC_OscConfig+0x26c>)
 8006670:	685b      	ldr	r3, [r3, #4]
 8006672:	f003 030c 	and.w	r3, r3, #12
 8006676:	2b00      	cmp	r3, #0
 8006678:	d00b      	beq.n	8006692 <HAL_RCC_OscConfig+0x15e>
        || ((__HAL_RCC_GET_SYSCLK_SOURCE() == RCC_SYSCLKSOURCE_STATUS_PLLCLK) && (__HAL_RCC_GET_PLL_OSCSOURCE() == RCC_PLLSOURCE_HSI_DIV2)))
 800667a:	4b49      	ldr	r3, [pc, #292]	; (80067a0 <HAL_RCC_OscConfig+0x26c>)
 800667c:	685b      	ldr	r3, [r3, #4]
 800667e:	f003 030c 	and.w	r3, r3, #12
 8006682:	2b08      	cmp	r3, #8
 8006684:	d11c      	bne.n	80066c0 <HAL_RCC_OscConfig+0x18c>
 8006686:	4b46      	ldr	r3, [pc, #280]	; (80067a0 <HAL_RCC_OscConfig+0x26c>)
 8006688:	685b      	ldr	r3, [r3, #4]
 800668a:	f403 3380 	and.w	r3, r3, #65536	; 0x10000
 800668e:	2b00      	cmp	r3, #0
 8006690:	d116      	bne.n	80066c0 <HAL_RCC_OscConfig+0x18c>
    {
      /* When HSI is used as system clock it will not disabled */
      if ((__HAL_RCC_GET_FLAG(RCC_FLAG_HSIRDY) != RESET) && (RCC_OscInitStruct->HSIState != RCC_HSI_ON))
 8006692:	4b43      	ldr	r3, [pc, #268]	; (80067a0 <HAL_RCC_OscConfig+0x26c>)
 8006694:	681b      	ldr	r3, [r3, #0]
 8006696:	f003 0302 	and.w	r3, r3, #2
 800669a:	2b00      	cmp	r3, #0
 800669c:	d005      	beq.n	80066aa <HAL_RCC_OscConfig+0x176>
 800669e:	687b      	ldr	r3, [r7, #4]
 80066a0:	691b      	ldr	r3, [r3, #16]
 80066a2:	2b01      	cmp	r3, #1
 80066a4:	d001      	beq.n	80066aa <HAL_RCC_OscConfig+0x176>
      {
        return HAL_ERROR;
 80066a6:	2301      	movs	r3, #1
 80066a8:	e1c0      	b.n	8006a2c <HAL_RCC_OscConfig+0x4f8>
      }
      /* Otherwise, just the calibration is allowed */
      else
      {
        /* Adjusts the Internal High Speed oscillator (HSI) calibration value.*/
        __HAL_RCC_HSI_CALIBRATIONVALUE_ADJUST(RCC_OscInitStruct->HSICalibrationValue);
 80066aa:	4b3d      	ldr	r3, [pc, #244]	; (80067a0 <HAL_RCC_OscConfig+0x26c>)
 80066ac:	681b      	ldr	r3, [r3, #0]
 80066ae:	f023 02f8 	bic.w	r2, r3, #248	; 0xf8
 80066b2:	687b      	ldr	r3, [r7, #4]
 80066b4:	695b      	ldr	r3, [r3, #20]
 80066b6:	00db      	lsls	r3, r3, #3
 80066b8:	4939      	ldr	r1, [pc, #228]	; (80067a0 <HAL_RCC_OscConfig+0x26c>)
 80066ba:	4313      	orrs	r3, r2
 80066bc:	600b      	str	r3, [r1, #0]
      if ((__HAL_RCC_GET_FLAG(RCC_FLAG_HSIRDY) != RESET) && (RCC_OscInitStruct->HSIState != RCC_HSI_ON))
 80066be:	e03a      	b.n	8006736 <HAL_RCC_OscConfig+0x202>
      }
    }
    else
    {
      /* Check the HSI State */
      if (RCC_OscInitStruct->HSIState != RCC_HSI_OFF)
 80066c0:	687b      	ldr	r3, [r7, #4]
 80066c2:	691b      	ldr	r3, [r3, #16]
 80066c4:	2b00      	cmp	r3, #0
 80066c6:	d020      	beq.n	800670a <HAL_RCC_OscConfig+0x1d6>
      {
        /* Enable the Internal High Speed oscillator (HSI). */
        __HAL_RCC_HSI_ENABLE();
 80066c8:	4b36      	ldr	r3, [pc, #216]	; (80067a4 <HAL_RCC_OscConfig+0x270>)
 80066ca:	2201      	movs	r2, #1
 80066cc:	601a      	str	r2, [r3, #0]

        /* Get Start Tick */
        tickstart = HAL_GetTick();
 80066ce:	f7fe fb71 	bl	8004db4 <HAL_GetTick>
 80066d2:	6138      	str	r0, [r7, #16]

        /* Wait till HSI is ready */
        while (__HAL_RCC_GET_FLAG(RCC_FLAG_HSIRDY) == RESET)
 80066d4:	e008      	b.n	80066e8 <HAL_RCC_OscConfig+0x1b4>
        {
          if ((HAL_GetTick() - tickstart) > HSI_TIMEOUT_VALUE)
 80066d6:	f7fe fb6d 	bl	8004db4 <HAL_GetTick>
 80066da:	4602      	mov	r2, r0
 80066dc:	693b      	ldr	r3, [r7, #16]
 80066de:	1ad3      	subs	r3, r2, r3
 80066e0:	2b02      	cmp	r3, #2
 80066e2:	d901      	bls.n	80066e8 <HAL_RCC_OscConfig+0x1b4>
          {
            return HAL_TIMEOUT;
 80066e4:	2303      	movs	r3, #3
 80066e6:	e1a1      	b.n	8006a2c <HAL_RCC_OscConfig+0x4f8>
        while (__HAL_RCC_GET_FLAG(RCC_FLAG_HSIRDY) == RESET)
 80066e8:	4b2d      	ldr	r3, [pc, #180]	; (80067a0 <HAL_RCC_OscConfig+0x26c>)
 80066ea:	681b      	ldr	r3, [r3, #0]
 80066ec:	f003 0302 	and.w	r3, r3, #2
 80066f0:	2b00      	cmp	r3, #0
 80066f2:	d0f0      	beq.n	80066d6 <HAL_RCC_OscConfig+0x1a2>
          }
        }

        /* Adjusts the Internal High Speed oscillator (HSI) calibration value.*/
        __HAL_RCC_HSI_CALIBRATIONVALUE_ADJUST(RCC_OscInitStruct->HSICalibrationValue);
 80066f4:	4b2a      	ldr	r3, [pc, #168]	; (80067a0 <HAL_RCC_OscConfig+0x26c>)
 80066f6:	681b      	ldr	r3, [r3, #0]
 80066f8:	f023 02f8 	bic.w	r2, r3, #248	; 0xf8
 80066fc:	687b      	ldr	r3, [r7, #4]
 80066fe:	695b      	ldr	r3, [r3, #20]
 8006700:	00db      	lsls	r3, r3, #3
 8006702:	4927      	ldr	r1, [pc, #156]	; (80067a0 <HAL_RCC_OscConfig+0x26c>)
 8006704:	4313      	orrs	r3, r2
 8006706:	600b      	str	r3, [r1, #0]
 8006708:	e015      	b.n	8006736 <HAL_RCC_OscConfig+0x202>
      }
      else
      {
        /* Disable the Internal High Speed oscillator (HSI). */
        __HAL_RCC_HSI_DISABLE();
 800670a:	4b26      	ldr	r3, [pc, #152]	; (80067a4 <HAL_RCC_OscConfig+0x270>)
 800670c:	2200      	movs	r2, #0
 800670e:	601a      	str	r2, [r3, #0]

        /* Get Start Tick */
        tickstart = HAL_GetTick();
 8006710:	f7fe fb50 	bl	8004db4 <HAL_GetTick>
 8006714:	6138      	str	r0, [r7, #16]

        /* Wait till HSI is disabled */
        while (__HAL_RCC_GET_FLAG(RCC_FLAG_HSIRDY) != RESET)
 8006716:	e008      	b.n	800672a <HAL_RCC_OscConfig+0x1f6>
        {
          if ((HAL_GetTick() - tickstart) > HSI_TIMEOUT_VALUE)
 8006718:	f7fe fb4c 	bl	8004db4 <HAL_GetTick>
 800671c:	4602      	mov	r2, r0
 800671e:	693b      	ldr	r3, [r7, #16]
 8006720:	1ad3      	subs	r3, r2, r3
 8006722:	2b02      	cmp	r3, #2
 8006724:	d901      	bls.n	800672a <HAL_RCC_OscConfig+0x1f6>
          {
            return HAL_TIMEOUT;
 8006726:	2303      	movs	r3, #3
 8006728:	e180      	b.n	8006a2c <HAL_RCC_OscConfig+0x4f8>
        while (__HAL_RCC_GET_FLAG(RCC_FLAG_HSIRDY) != RESET)
 800672a:	4b1d      	ldr	r3, [pc, #116]	; (80067a0 <HAL_RCC_OscConfig+0x26c>)
 800672c:	681b      	ldr	r3, [r3, #0]
 800672e:	f003 0302 	and.w	r3, r3, #2
 8006732:	2b00      	cmp	r3, #0
 8006734:	d1f0      	bne.n	8006718 <HAL_RCC_OscConfig+0x1e4>
        }
      }
    }
  }
  /*------------------------------ LSI Configuration -------------------------*/
  if (((RCC_OscInitStruct->OscillatorType) & RCC_OSCILLATORTYPE_LSI) == RCC_OSCILLATORTYPE_LSI)
 8006736:	687b      	ldr	r3, [r7, #4]
 8006738:	681b      	ldr	r3, [r3, #0]
 800673a:	f003 0308 	and.w	r3, r3, #8
 800673e:	2b00      	cmp	r3, #0
 8006740:	d03a      	beq.n	80067b8 <HAL_RCC_OscConfig+0x284>
  {
    /* Check the parameters */
    assert_param(IS_RCC_LSI(RCC_OscInitStruct->LSIState));

    /* Check the LSI State */
    if (RCC_OscInitStruct->LSIState != RCC_LSI_OFF)
 8006742:	687b      	ldr	r3, [r7, #4]
 8006744:	699b      	ldr	r3, [r3, #24]
 8006746:	2b00      	cmp	r3, #0
 8006748:	d019      	beq.n	800677e <HAL_RCC_OscConfig+0x24a>
    {
      /* Enable the Internal Low Speed oscillator (LSI). */
      __HAL_RCC_LSI_ENABLE();
 800674a:	4b17      	ldr	r3, [pc, #92]	; (80067a8 <HAL_RCC_OscConfig+0x274>)
 800674c:	2201      	movs	r2, #1
 800674e:	601a      	str	r2, [r3, #0]

      /* Get Start Tick */
      tickstart = HAL_GetTick();
 8006750:	f7fe fb30 	bl	8004db4 <HAL_GetTick>
 8006754:	6138      	str	r0, [r7, #16]

      /* Wait till LSI is ready */
      while (__HAL_RCC_GET_FLAG(RCC_FLAG_LSIRDY) == RESET)
 8006756:	e008      	b.n	800676a <HAL_RCC_OscConfig+0x236>
      {
        if ((HAL_GetTick() - tickstart) > LSI_TIMEOUT_VALUE)
 8006758:	f7fe fb2c 	bl	8004db4 <HAL_GetTick>
 800675c:	4602      	mov	r2, r0
 800675e:	693b      	ldr	r3, [r7, #16]
 8006760:	1ad3      	subs	r3, r2, r3
 8006762:	2b02      	cmp	r3, #2
 8006764:	d901      	bls.n	800676a <HAL_RCC_OscConfig+0x236>
        {
          return HAL_TIMEOUT;
 8006766:	2303      	movs	r3, #3
 8006768:	e160      	b.n	8006a2c <HAL_RCC_OscConfig+0x4f8>
      while (__HAL_RCC_GET_FLAG(RCC_FLAG_LSIRDY) == RESET)
 800676a:	4b0d      	ldr	r3, [pc, #52]	; (80067a0 <HAL_RCC_OscConfig+0x26c>)
 800676c:	6a5b      	ldr	r3, [r3, #36]	; 0x24
 800676e:	f003 0302 	and.w	r3, r3, #2
 8006772:	2b00      	cmp	r3, #0
 8006774:	d0f0      	beq.n	8006758 <HAL_RCC_OscConfig+0x224>
        }
      }
      /*  To have a fully stabilized clock in the specified range, a software delay of 1ms
          should be added.*/
      RCC_Delay(1);
 8006776:	2001      	movs	r0, #1
 8006778:	f000 face 	bl	8006d18 <RCC_Delay>
 800677c:	e01c      	b.n	80067b8 <HAL_RCC_OscConfig+0x284>
    }
    else
    {
      /* Disable the Internal Low Speed oscillator (LSI). */
      __HAL_RCC_LSI_DISABLE();
 800677e:	4b0a      	ldr	r3, [pc, #40]	; (80067a8 <HAL_RCC_OscConfig+0x274>)
 8006780:	2200      	movs	r2, #0
 8006782:	601a      	str	r2, [r3, #0]

      /* Get Start Tick */
      tickstart = HAL_GetTick();
 8006784:	f7fe fb16 	bl	8004db4 <HAL_GetTick>
 8006788:	6138      	str	r0, [r7, #16]

      /* Wait till LSI is disabled */
      while (__HAL_RCC_GET_FLAG(RCC_FLAG_LSIRDY) != RESET)
 800678a:	e00f      	b.n	80067ac <HAL_RCC_OscConfig+0x278>
      {
        if ((HAL_GetTick() - tickstart) > LSI_TIMEOUT_VALUE)
 800678c:	f7fe fb12 	bl	8004db4 <HAL_GetTick>
 8006790:	4602      	mov	r2, r0
 8006792:	693b      	ldr	r3, [r7, #16]
 8006794:	1ad3      	subs	r3, r2, r3
 8006796:	2b02      	cmp	r3, #2
 8006798:	d908      	bls.n	80067ac <HAL_RCC_OscConfig+0x278>
        {
          return HAL_TIMEOUT;
 800679a:	2303      	movs	r3, #3
 800679c:	e146      	b.n	8006a2c <HAL_RCC_OscConfig+0x4f8>
 800679e:	bf00      	nop
 80067a0:	40021000 	.word	0x40021000
 80067a4:	42420000 	.word	0x42420000
 80067a8:	42420480 	.word	0x42420480
      while (__HAL_RCC_GET_FLAG(RCC_FLAG_LSIRDY) != RESET)
 80067ac:	4b92      	ldr	r3, [pc, #584]	; (80069f8 <HAL_RCC_OscConfig+0x4c4>)
 80067ae:	6a5b      	ldr	r3, [r3, #36]	; 0x24
 80067b0:	f003 0302 	and.w	r3, r3, #2
 80067b4:	2b00      	cmp	r3, #0
 80067b6:	d1e9      	bne.n	800678c <HAL_RCC_OscConfig+0x258>
        }
      }
    }
  }
  /*------------------------------ LSE Configuration -------------------------*/
  if (((RCC_OscInitStruct->OscillatorType) & RCC_OSCILLATORTYPE_LSE) == RCC_OSCILLATORTYPE_LSE)
 80067b8:	687b      	ldr	r3, [r7, #4]
 80067ba:	681b      	ldr	r3, [r3, #0]
 80067bc:	f003 0304 	and.w	r3, r3, #4
 80067c0:	2b00      	cmp	r3, #0
 80067c2:	f000 80a6 	beq.w	8006912 <HAL_RCC_OscConfig+0x3de>
  {
    FlagStatus       pwrclkchanged = RESET;
 80067c6:	2300      	movs	r3, #0
 80067c8:	75fb      	strb	r3, [r7, #23]
    /* Check the parameters */
    assert_param(IS_RCC_LSE(RCC_OscInitStruct->LSEState));

    /* Update LSE configuration in Backup Domain control register    */
    /* Requires to enable write access to Backup Domain of necessary */
    if (__HAL_RCC_PWR_IS_CLK_DISABLED())
 80067ca:	4b8b      	ldr	r3, [pc, #556]	; (80069f8 <HAL_RCC_OscConfig+0x4c4>)
 80067cc:	69db      	ldr	r3, [r3, #28]
 80067ce:	f003 5380 	and.w	r3, r3, #268435456	; 0x10000000
 80067d2:	2b00      	cmp	r3, #0
 80067d4:	d10d      	bne.n	80067f2 <HAL_RCC_OscConfig+0x2be>
    {
      __HAL_RCC_PWR_CLK_ENABLE();
 80067d6:	4b88      	ldr	r3, [pc, #544]	; (80069f8 <HAL_RCC_OscConfig+0x4c4>)
 80067d8:	69db      	ldr	r3, [r3, #28]
 80067da:	4a87      	ldr	r2, [pc, #540]	; (80069f8 <HAL_RCC_OscConfig+0x4c4>)
 80067dc:	f043 5380 	orr.w	r3, r3, #268435456	; 0x10000000
 80067e0:	61d3      	str	r3, [r2, #28]
 80067e2:	4b85      	ldr	r3, [pc, #532]	; (80069f8 <HAL_RCC_OscConfig+0x4c4>)
 80067e4:	69db      	ldr	r3, [r3, #28]
 80067e6:	f003 5380 	and.w	r3, r3, #268435456	; 0x10000000
 80067ea:	60bb      	str	r3, [r7, #8]
 80067ec:	68bb      	ldr	r3, [r7, #8]
      pwrclkchanged = SET;
 80067ee:	2301      	movs	r3, #1
 80067f0:	75fb      	strb	r3, [r7, #23]
    }

    if (HAL_IS_BIT_CLR(PWR->CR, PWR_CR_DBP))
 80067f2:	4b82      	ldr	r3, [pc, #520]	; (80069fc <HAL_RCC_OscConfig+0x4c8>)
 80067f4:	681b      	ldr	r3, [r3, #0]
 80067f6:	f403 7380 	and.w	r3, r3, #256	; 0x100
 80067fa:	2b00      	cmp	r3, #0
 80067fc:	d118      	bne.n	8006830 <HAL_RCC_OscConfig+0x2fc>
    {
      /* Enable write access to Backup domain */
      SET_BIT(PWR->CR, PWR_CR_DBP);
 80067fe:	4b7f      	ldr	r3, [pc, #508]	; (80069fc <HAL_RCC_OscConfig+0x4c8>)
 8006800:	681b      	ldr	r3, [r3, #0]
 8006802:	4a7e      	ldr	r2, [pc, #504]	; (80069fc <HAL_RCC_OscConfig+0x4c8>)
 8006804:	f443 7380 	orr.w	r3, r3, #256	; 0x100
 8006808:	6013      	str	r3, [r2, #0]

      /* Wait for Backup domain Write protection disable */
      tickstart = HAL_GetTick();
 800680a:	f7fe fad3 	bl	8004db4 <HAL_GetTick>
 800680e:	6138      	str	r0, [r7, #16]

      while (HAL_IS_BIT_CLR(PWR->CR, PWR_CR_DBP))
 8006810:	e008      	b.n	8006824 <HAL_RCC_OscConfig+0x2f0>
      {
        if ((HAL_GetTick() - tickstart) > RCC_DBP_TIMEOUT_VALUE)
 8006812:	f7fe facf 	bl	8004db4 <HAL_GetTick>
 8006816:	4602      	mov	r2, r0
 8006818:	693b      	ldr	r3, [r7, #16]
 800681a:	1ad3      	subs	r3, r2, r3
 800681c:	2b64      	cmp	r3, #100	; 0x64
 800681e:	d901      	bls.n	8006824 <HAL_RCC_OscConfig+0x2f0>
        {
          return HAL_TIMEOUT;
 8006820:	2303      	movs	r3, #3
 8006822:	e103      	b.n	8006a2c <HAL_RCC_OscConfig+0x4f8>
      while (HAL_IS_BIT_CLR(PWR->CR, PWR_CR_DBP))
 8006824:	4b75      	ldr	r3, [pc, #468]	; (80069fc <HAL_RCC_OscConfig+0x4c8>)
 8006826:	681b      	ldr	r3, [r3, #0]
 8006828:	f403 7380 	and.w	r3, r3, #256	; 0x100
 800682c:	2b00      	cmp	r3, #0
 800682e:	d0f0      	beq.n	8006812 <HAL_RCC_OscConfig+0x2de>
        }
      }
    }

    /* Set the new LSE configuration -----------------------------------------*/
    __HAL_RCC_LSE_CONFIG(RCC_OscInitStruct->LSEState);
 8006830:	687b      	ldr	r3, [r7, #4]
 8006832:	68db      	ldr	r3, [r3, #12]
 8006834:	2b01      	cmp	r3, #1
 8006836:	d106      	bne.n	8006846 <HAL_RCC_OscConfig+0x312>
 8006838:	4b6f      	ldr	r3, [pc, #444]	; (80069f8 <HAL_RCC_OscConfig+0x4c4>)
 800683a:	6a1b      	ldr	r3, [r3, #32]
 800683c:	4a6e      	ldr	r2, [pc, #440]	; (80069f8 <HAL_RCC_OscConfig+0x4c4>)
 800683e:	f043 0301 	orr.w	r3, r3, #1
 8006842:	6213      	str	r3, [r2, #32]
 8006844:	e02d      	b.n	80068a2 <HAL_RCC_OscConfig+0x36e>
 8006846:	687b      	ldr	r3, [r7, #4]
 8006848:	68db      	ldr	r3, [r3, #12]
 800684a:	2b00      	cmp	r3, #0
 800684c:	d10c      	bne.n	8006868 <HAL_RCC_OscConfig+0x334>
 800684e:	4b6a      	ldr	r3, [pc, #424]	; (80069f8 <HAL_RCC_OscConfig+0x4c4>)
 8006850:	6a1b      	ldr	r3, [r3, #32]
 8006852:	4a69      	ldr	r2, [pc, #420]	; (80069f8 <HAL_RCC_OscConfig+0x4c4>)
 8006854:	f023 0301 	bic.w	r3, r3, #1
 8006858:	6213      	str	r3, [r2, #32]
 800685a:	4b67      	ldr	r3, [pc, #412]	; (80069f8 <HAL_RCC_OscConfig+0x4c4>)
 800685c:	6a1b      	ldr	r3, [r3, #32]
 800685e:	4a66      	ldr	r2, [pc, #408]	; (80069f8 <HAL_RCC_OscConfig+0x4c4>)
 8006860:	f023 0304 	bic.w	r3, r3, #4
 8006864:	6213      	str	r3, [r2, #32]
 8006866:	e01c      	b.n	80068a2 <HAL_RCC_OscConfig+0x36e>
 8006868:	687b      	ldr	r3, [r7, #4]
 800686a:	68db      	ldr	r3, [r3, #12]
 800686c:	2b05      	cmp	r3, #5
 800686e:	d10c      	bne.n	800688a <HAL_RCC_OscConfig+0x356>
 8006870:	4b61      	ldr	r3, [pc, #388]	; (80069f8 <HAL_RCC_OscConfig+0x4c4>)
 8006872:	6a1b      	ldr	r3, [r3, #32]
 8006874:	4a60      	ldr	r2, [pc, #384]	; (80069f8 <HAL_RCC_OscConfig+0x4c4>)
 8006876:	f043 0304 	orr.w	r3, r3, #4
 800687a:	6213      	str	r3, [r2, #32]
 800687c:	4b5e      	ldr	r3, [pc, #376]	; (80069f8 <HAL_RCC_OscConfig+0x4c4>)
 800687e:	6a1b      	ldr	r3, [r3, #32]
 8006880:	4a5d      	ldr	r2, [pc, #372]	; (80069f8 <HAL_RCC_OscConfig+0x4c4>)
 8006882:	f043 0301 	orr.w	r3, r3, #1
 8006886:	6213      	str	r3, [r2, #32]
 8006888:	e00b      	b.n	80068a2 <HAL_RCC_OscConfig+0x36e>
 800688a:	4b5b      	ldr	r3, [pc, #364]	; (80069f8 <HAL_RCC_OscConfig+0x4c4>)
 800688c:	6a1b      	ldr	r3, [r3, #32]
 800688e:	4a5a      	ldr	r2, [pc, #360]	; (80069f8 <HAL_RCC_OscConfig+0x4c4>)
 8006890:	f023 0301 	bic.w	r3, r3, #1
 8006894:	6213      	str	r3, [r2, #32]
 8006896:	4b58      	ldr	r3, [pc, #352]	; (80069f8 <HAL_RCC_OscConfig+0x4c4>)
 8006898:	6a1b      	ldr	r3, [r3, #32]
 800689a:	4a57      	ldr	r2, [pc, #348]	; (80069f8 <HAL_RCC_OscConfig+0x4c4>)
 800689c:	f023 0304 	bic.w	r3, r3, #4
 80068a0:	6213      	str	r3, [r2, #32]
    /* Check the LSE State */
    if (RCC_OscInitStruct->LSEState != RCC_LSE_OFF)
 80068a2:	687b      	ldr	r3, [r7, #4]
 80068a4:	68db      	ldr	r3, [r3, #12]
 80068a6:	2b00      	cmp	r3, #0
 80068a8:	d015      	beq.n	80068d6 <HAL_RCC_OscConfig+0x3a2>
    {
      /* Get Start Tick */
      tickstart = HAL_GetTick();
 80068aa:	f7fe fa83 	bl	8004db4 <HAL_GetTick>
 80068ae:	6138      	str	r0, [r7, #16]

      /* Wait till LSE is ready */
      while (__HAL_RCC_GET_FLAG(RCC_FLAG_LSERDY) == RESET)
 80068b0:	e00a      	b.n	80068c8 <HAL_RCC_OscConfig+0x394>
      {
        if ((HAL_GetTick() - tickstart) > RCC_LSE_TIMEOUT_VALUE)
 80068b2:	f7fe fa7f 	bl	8004db4 <HAL_GetTick>
 80068b6:	4602      	mov	r2, r0
 80068b8:	693b      	ldr	r3, [r7, #16]
 80068ba:	1ad3      	subs	r3, r2, r3
 80068bc:	f241 3288 	movw	r2, #5000	; 0x1388
 80068c0:	4293      	cmp	r3, r2
 80068c2:	d901      	bls.n	80068c8 <HAL_RCC_OscConfig+0x394>
        {
          return HAL_TIMEOUT;
 80068c4:	2303      	movs	r3, #3
 80068c6:	e0b1      	b.n	8006a2c <HAL_RCC_OscConfig+0x4f8>
      while (__HAL_RCC_GET_FLAG(RCC_FLAG_LSERDY) == RESET)
 80068c8:	4b4b      	ldr	r3, [pc, #300]	; (80069f8 <HAL_RCC_OscConfig+0x4c4>)
 80068ca:	6a1b      	ldr	r3, [r3, #32]
 80068cc:	f003 0302 	and.w	r3, r3, #2
 80068d0:	2b00      	cmp	r3, #0
 80068d2:	d0ee      	beq.n	80068b2 <HAL_RCC_OscConfig+0x37e>
 80068d4:	e014      	b.n	8006900 <HAL_RCC_OscConfig+0x3cc>
      }
    }
    else
    {
      /* Get Start Tick */
      tickstart = HAL_GetTick();
 80068d6:	f7fe fa6d 	bl	8004db4 <HAL_GetTick>
 80068da:	6138      	str	r0, [r7, #16]

      /* Wait till LSE is disabled */
      while (__HAL_RCC_GET_FLAG(RCC_FLAG_LSERDY) != RESET)
 80068dc:	e00a      	b.n	80068f4 <HAL_RCC_OscConfig+0x3c0>
      {
        if ((HAL_GetTick() - tickstart) > RCC_LSE_TIMEOUT_VALUE)
 80068de:	f7fe fa69 	bl	8004db4 <HAL_GetTick>
 80068e2:	4602      	mov	r2, r0
 80068e4:	693b      	ldr	r3, [r7, #16]
 80068e6:	1ad3      	subs	r3, r2, r3
 80068e8:	f241 3288 	movw	r2, #5000	; 0x1388
 80068ec:	4293      	cmp	r3, r2
 80068ee:	d901      	bls.n	80068f4 <HAL_RCC_OscConfig+0x3c0>
        {
          return HAL_TIMEOUT;
 80068f0:	2303      	movs	r3, #3
 80068f2:	e09b      	b.n	8006a2c <HAL_RCC_OscConfig+0x4f8>
      while (__HAL_RCC_GET_FLAG(RCC_FLAG_LSERDY) != RESET)
 80068f4:	4b40      	ldr	r3, [pc, #256]	; (80069f8 <HAL_RCC_OscConfig+0x4c4>)
 80068f6:	6a1b      	ldr	r3, [r3, #32]
 80068f8:	f003 0302 	and.w	r3, r3, #2
 80068fc:	2b00      	cmp	r3, #0
 80068fe:	d1ee      	bne.n	80068de <HAL_RCC_OscConfig+0x3aa>
        }
      }
    }

    /* Require to disable power clock if necessary */
    if (pwrclkchanged == SET)
 8006900:	7dfb      	ldrb	r3, [r7, #23]
 8006902:	2b01      	cmp	r3, #1
 8006904:	d105      	bne.n	8006912 <HAL_RCC_OscConfig+0x3de>
    {
      __HAL_RCC_PWR_CLK_DISABLE();
 8006906:	4b3c      	ldr	r3, [pc, #240]	; (80069f8 <HAL_RCC_OscConfig+0x4c4>)
 8006908:	69db      	ldr	r3, [r3, #28]
 800690a:	4a3b      	ldr	r2, [pc, #236]	; (80069f8 <HAL_RCC_OscConfig+0x4c4>)
 800690c:	f023 5380 	bic.w	r3, r3, #268435456	; 0x10000000
 8006910:	61d3      	str	r3, [r2, #28]

#endif /* RCC_CR_PLL2ON */
  /*-------------------------------- PLL Configuration -----------------------*/
  /* Check the parameters */
  assert_param(IS_RCC_PLL(RCC_OscInitStruct->PLL.PLLState));
  if ((RCC_OscInitStruct->PLL.PLLState) != RCC_PLL_NONE)
 8006912:	687b      	ldr	r3, [r7, #4]
 8006914:	69db      	ldr	r3, [r3, #28]
 8006916:	2b00      	cmp	r3, #0
 8006918:	f000 8087 	beq.w	8006a2a <HAL_RCC_OscConfig+0x4f6>
  {
    /* Check if the PLL is used as system clock or not */
    if (__HAL_RCC_GET_SYSCLK_SOURCE() != RCC_SYSCLKSOURCE_STATUS_PLLCLK)
 800691c:	4b36      	ldr	r3, [pc, #216]	; (80069f8 <HAL_RCC_OscConfig+0x4c4>)
 800691e:	685b      	ldr	r3, [r3, #4]
 8006920:	f003 030c 	and.w	r3, r3, #12
 8006924:	2b08      	cmp	r3, #8
 8006926:	d061      	beq.n	80069ec <HAL_RCC_OscConfig+0x4b8>
    {
      if ((RCC_OscInitStruct->PLL.PLLState) == RCC_PLL_ON)
 8006928:	687b      	ldr	r3, [r7, #4]
 800692a:	69db      	ldr	r3, [r3, #28]
 800692c:	2b02      	cmp	r3, #2
 800692e:	d146      	bne.n	80069be <HAL_RCC_OscConfig+0x48a>
        /* Check the parameters */
        assert_param(IS_RCC_PLLSOURCE(RCC_OscInitStruct->PLL.PLLSource));
        assert_param(IS_RCC_PLL_MUL(RCC_OscInitStruct->PLL.PLLMUL));

        /* Disable the main PLL. */
        __HAL_RCC_PLL_DISABLE();
 8006930:	4b33      	ldr	r3, [pc, #204]	; (8006a00 <HAL_RCC_OscConfig+0x4cc>)
 8006932:	2200      	movs	r2, #0
 8006934:	601a      	str	r2, [r3, #0]

        /* Get Start Tick */
        tickstart = HAL_GetTick();
 8006936:	f7fe fa3d 	bl	8004db4 <HAL_GetTick>
 800693a:	6138      	str	r0, [r7, #16]

        /* Wait till PLL is disabled */
        while (__HAL_RCC_GET_FLAG(RCC_FLAG_PLLRDY)  != RESET)
 800693c:	e008      	b.n	8006950 <HAL_RCC_OscConfig+0x41c>
        {
          if ((HAL_GetTick() - tickstart) > PLL_TIMEOUT_VALUE)
 800693e:	f7fe fa39 	bl	8004db4 <HAL_GetTick>
 8006942:	4602      	mov	r2, r0
 8006944:	693b      	ldr	r3, [r7, #16]
 8006946:	1ad3      	subs	r3, r2, r3
 8006948:	2b02      	cmp	r3, #2
 800694a:	d901      	bls.n	8006950 <HAL_RCC_OscConfig+0x41c>
          {
            return HAL_TIMEOUT;
 800694c:	2303      	movs	r3, #3
 800694e:	e06d      	b.n	8006a2c <HAL_RCC_OscConfig+0x4f8>
        while (__HAL_RCC_GET_FLAG(RCC_FLAG_PLLRDY)  != RESET)
 8006950:	4b29      	ldr	r3, [pc, #164]	; (80069f8 <HAL_RCC_OscConfig+0x4c4>)
 8006952:	681b      	ldr	r3, [r3, #0]
 8006954:	f003 7300 	and.w	r3, r3, #33554432	; 0x2000000
 8006958:	2b00      	cmp	r3, #0
 800695a:	d1f0      	bne.n	800693e <HAL_RCC_OscConfig+0x40a>
          }
        }

        /* Configure the HSE prediv factor --------------------------------*/
        /* It can be written only when the PLL is disabled. Not used in PLL source is different than HSE */
        if (RCC_OscInitStruct->PLL.PLLSource == RCC_PLLSOURCE_HSE)
 800695c:	687b      	ldr	r3, [r7, #4]
 800695e:	6a1b      	ldr	r3, [r3, #32]
 8006960:	f5b3 3f80 	cmp.w	r3, #65536	; 0x10000
 8006964:	d108      	bne.n	8006978 <HAL_RCC_OscConfig+0x444>
          /* Set PREDIV1 source */
          SET_BIT(RCC->CFGR2, RCC_OscInitStruct->Prediv1Source);
#endif /* RCC_CFGR2_PREDIV1SRC */

          /* Set PREDIV1 Value */
          __HAL_RCC_HSE_PREDIV_CONFIG(RCC_OscInitStruct->HSEPredivValue);
 8006966:	4b24      	ldr	r3, [pc, #144]	; (80069f8 <HAL_RCC_OscConfig+0x4c4>)
 8006968:	685b      	ldr	r3, [r3, #4]
 800696a:	f423 3200 	bic.w	r2, r3, #131072	; 0x20000
 800696e:	687b      	ldr	r3, [r7, #4]
 8006970:	689b      	ldr	r3, [r3, #8]
 8006972:	4921      	ldr	r1, [pc, #132]	; (80069f8 <HAL_RCC_OscConfig+0x4c4>)
 8006974:	4313      	orrs	r3, r2
 8006976:	604b      	str	r3, [r1, #4]
        }

        /* Configure the main PLL clock source and multiplication factors. */
        __HAL_RCC_PLL_CONFIG(RCC_OscInitStruct->PLL.PLLSource,
 8006978:	4b1f      	ldr	r3, [pc, #124]	; (80069f8 <HAL_RCC_OscConfig+0x4c4>)
 800697a:	685b      	ldr	r3, [r3, #4]
 800697c:	f423 1274 	bic.w	r2, r3, #3997696	; 0x3d0000
 8006980:	687b      	ldr	r3, [r7, #4]
 8006982:	6a19      	ldr	r1, [r3, #32]
 8006984:	687b      	ldr	r3, [r7, #4]
 8006986:	6a5b      	ldr	r3, [r3, #36]	; 0x24
 8006988:	430b      	orrs	r3, r1
 800698a:	491b      	ldr	r1, [pc, #108]	; (80069f8 <HAL_RCC_OscConfig+0x4c4>)
 800698c:	4313      	orrs	r3, r2
 800698e:	604b      	str	r3, [r1, #4]
                             RCC_OscInitStruct->PLL.PLLMUL);
        /* Enable the main PLL. */
        __HAL_RCC_PLL_ENABLE();
 8006990:	4b1b      	ldr	r3, [pc, #108]	; (8006a00 <HAL_RCC_OscConfig+0x4cc>)
 8006992:	2201      	movs	r2, #1
 8006994:	601a      	str	r2, [r3, #0]

        /* Get Start Tick */
        tickstart = HAL_GetTick();
 8006996:	f7fe fa0d 	bl	8004db4 <HAL_GetTick>
 800699a:	6138      	str	r0, [r7, #16]

        /* Wait till PLL is ready */
        while (__HAL_RCC_GET_FLAG(RCC_FLAG_PLLRDY)  == RESET)
 800699c:	e008      	b.n	80069b0 <HAL_RCC_OscConfig+0x47c>
        {
          if ((HAL_GetTick() - tickstart) > PLL_TIMEOUT_VALUE)
 800699e:	f7fe fa09 	bl	8004db4 <HAL_GetTick>
 80069a2:	4602      	mov	r2, r0
 80069a4:	693b      	ldr	r3, [r7, #16]
 80069a6:	1ad3      	subs	r3, r2, r3
 80069a8:	2b02      	cmp	r3, #2
 80069aa:	d901      	bls.n	80069b0 <HAL_RCC_OscConfig+0x47c>
          {
            return HAL_TIMEOUT;
 80069ac:	2303      	movs	r3, #3
 80069ae:	e03d      	b.n	8006a2c <HAL_RCC_OscConfig+0x4f8>
        while (__HAL_RCC_GET_FLAG(RCC_FLAG_PLLRDY)  == RESET)
 80069b0:	4b11      	ldr	r3, [pc, #68]	; (80069f8 <HAL_RCC_OscConfig+0x4c4>)
 80069b2:	681b      	ldr	r3, [r3, #0]
 80069b4:	f003 7300 	and.w	r3, r3, #33554432	; 0x2000000
 80069b8:	2b00      	cmp	r3, #0
 80069ba:	d0f0      	beq.n	800699e <HAL_RCC_OscConfig+0x46a>
 80069bc:	e035      	b.n	8006a2a <HAL_RCC_OscConfig+0x4f6>
        }
      }
      else
      {
        /* Disable the main PLL. */
        __HAL_RCC_PLL_DISABLE();
 80069be:	4b10      	ldr	r3, [pc, #64]	; (8006a00 <HAL_RCC_OscConfig+0x4cc>)
 80069c0:	2200      	movs	r2, #0
 80069c2:	601a      	str	r2, [r3, #0]

        /* Get Start Tick */
        tickstart = HAL_GetTick();
 80069c4:	f7fe f9f6 	bl	8004db4 <HAL_GetTick>
 80069c8:	6138      	str	r0, [r7, #16]

        /* Wait till PLL is disabled */
        while (__HAL_RCC_GET_FLAG(RCC_FLAG_PLLRDY)  != RESET)
 80069ca:	e008      	b.n	80069de <HAL_RCC_OscConfig+0x4aa>
        {
          if ((HAL_GetTick() - tickstart) > PLL_TIMEOUT_VALUE)
 80069cc:	f7fe f9f2 	bl	8004db4 <HAL_GetTick>
 80069d0:	4602      	mov	r2, r0
 80069d2:	693b      	ldr	r3, [r7, #16]
 80069d4:	1ad3      	subs	r3, r2, r3
 80069d6:	2b02      	cmp	r3, #2
 80069d8:	d901      	bls.n	80069de <HAL_RCC_OscConfig+0x4aa>
          {
            return HAL_TIMEOUT;
 80069da:	2303      	movs	r3, #3
 80069dc:	e026      	b.n	8006a2c <HAL_RCC_OscConfig+0x4f8>
        while (__HAL_RCC_GET_FLAG(RCC_FLAG_PLLRDY)  != RESET)
 80069de:	4b06      	ldr	r3, [pc, #24]	; (80069f8 <HAL_RCC_OscConfig+0x4c4>)
 80069e0:	681b      	ldr	r3, [r3, #0]
 80069e2:	f003 7300 	and.w	r3, r3, #33554432	; 0x2000000
 80069e6:	2b00      	cmp	r3, #0
 80069e8:	d1f0      	bne.n	80069cc <HAL_RCC_OscConfig+0x498>
 80069ea:	e01e      	b.n	8006a2a <HAL_RCC_OscConfig+0x4f6>
      }
    }
    else
    {
      /* Check if there is a request to disable the PLL used as System clock source */
      if ((RCC_OscInitStruct->PLL.PLLState) == RCC_PLL_OFF)
 80069ec:	687b      	ldr	r3, [r7, #4]
 80069ee:	69db      	ldr	r3, [r3, #28]
 80069f0:	2b01      	cmp	r3, #1
 80069f2:	d107      	bne.n	8006a04 <HAL_RCC_OscConfig+0x4d0>
      {
        return HAL_ERROR;
 80069f4:	2301      	movs	r3, #1
 80069f6:	e019      	b.n	8006a2c <HAL_RCC_OscConfig+0x4f8>
 80069f8:	40021000 	.word	0x40021000
 80069fc:	40007000 	.word	0x40007000
 8006a00:	42420060 	.word	0x42420060
      }
      else
      {
        /* Do not return HAL_ERROR if request repeats the current configuration */
        pll_config = RCC->CFGR;
 8006a04:	4b0b      	ldr	r3, [pc, #44]	; (8006a34 <HAL_RCC_OscConfig+0x500>)
 8006a06:	685b      	ldr	r3, [r3, #4]
 8006a08:	60fb      	str	r3, [r7, #12]
        if ((READ_BIT(pll_config, RCC_CFGR_PLLSRC) != RCC_OscInitStruct->PLL.PLLSource) ||
 8006a0a:	68fb      	ldr	r3, [r7, #12]
 8006a0c:	f403 3280 	and.w	r2, r3, #65536	; 0x10000
 8006a10:	687b      	ldr	r3, [r7, #4]
 8006a12:	6a1b      	ldr	r3, [r3, #32]
 8006a14:	429a      	cmp	r2, r3
 8006a16:	d106      	bne.n	8006a26 <HAL_RCC_OscConfig+0x4f2>
            (READ_BIT(pll_config, RCC_CFGR_PLLMULL) != RCC_OscInitStruct->PLL.PLLMUL))
 8006a18:	68fb      	ldr	r3, [r7, #12]
 8006a1a:	f403 1270 	and.w	r2, r3, #3932160	; 0x3c0000
 8006a1e:	687b      	ldr	r3, [r7, #4]
 8006a20:	6a5b      	ldr	r3, [r3, #36]	; 0x24
        if ((READ_BIT(pll_config, RCC_CFGR_PLLSRC) != RCC_OscInitStruct->PLL.PLLSource) ||
 8006a22:	429a      	cmp	r2, r3
 8006a24:	d001      	beq.n	8006a2a <HAL_RCC_OscConfig+0x4f6>
        {
          return HAL_ERROR;
 8006a26:	2301      	movs	r3, #1
 8006a28:	e000      	b.n	8006a2c <HAL_RCC_OscConfig+0x4f8>
        }
      }
    }
  }

  return HAL_OK;
 8006a2a:	2300      	movs	r3, #0
}
 8006a2c:	4618      	mov	r0, r3
 8006a2e:	3718      	adds	r7, #24
 8006a30:	46bd      	mov	sp, r7
 8006a32:	bd80      	pop	{r7, pc}
 8006a34:	40021000 	.word	0x40021000

08006a38 <HAL_RCC_ClockConfig>:
  *         You can use @ref HAL_RCC_GetClockConfig() function to know which clock is
  *         currently used as system clock source.
  * @retval HAL status
  */
HAL_StatusTypeDef HAL_RCC_ClockConfig(RCC_ClkInitTypeDef  *RCC_ClkInitStruct, uint32_t FLatency)
{
 8006a38:	b580      	push	{r7, lr}
 8006a3a:	b084      	sub	sp, #16
 8006a3c:	af00      	add	r7, sp, #0
 8006a3e:	6078      	str	r0, [r7, #4]
 8006a40:	6039      	str	r1, [r7, #0]
  uint32_t tickstart;

  /* Check Null pointer */
  if (RCC_ClkInitStruct == NULL)
 8006a42:	687b      	ldr	r3, [r7, #4]
 8006a44:	2b00      	cmp	r3, #0
 8006a46:	d101      	bne.n	8006a4c <HAL_RCC_ClockConfig+0x14>
  {
    return HAL_ERROR;
 8006a48:	2301      	movs	r3, #1
 8006a4a:	e0d0      	b.n	8006bee <HAL_RCC_ClockConfig+0x1b6>
  must be correctly programmed according to the frequency of the CPU clock
    (HCLK) of the device. */

#if defined(FLASH_ACR_LATENCY)
  /* Increasing the number of wait states because of higher CPU frequency */
  if (FLatency > __HAL_FLASH_GET_LATENCY())
 8006a4c:	4b6a      	ldr	r3, [pc, #424]	; (8006bf8 <HAL_RCC_ClockConfig+0x1c0>)
 8006a4e:	681b      	ldr	r3, [r3, #0]
 8006a50:	f003 0307 	and.w	r3, r3, #7
 8006a54:	683a      	ldr	r2, [r7, #0]
 8006a56:	429a      	cmp	r2, r3
 8006a58:	d910      	bls.n	8006a7c <HAL_RCC_ClockConfig+0x44>
  {
    /* Program the new number of wait states to the LATENCY bits in the FLASH_ACR register */
    __HAL_FLASH_SET_LATENCY(FLatency);
 8006a5a:	4b67      	ldr	r3, [pc, #412]	; (8006bf8 <HAL_RCC_ClockConfig+0x1c0>)
 8006a5c:	681b      	ldr	r3, [r3, #0]
 8006a5e:	f023 0207 	bic.w	r2, r3, #7
 8006a62:	4965      	ldr	r1, [pc, #404]	; (8006bf8 <HAL_RCC_ClockConfig+0x1c0>)
 8006a64:	683b      	ldr	r3, [r7, #0]
 8006a66:	4313      	orrs	r3, r2
 8006a68:	600b      	str	r3, [r1, #0]

    /* Check that the new number of wait states is taken into account to access the Flash
    memory by reading the FLASH_ACR register */
    if (__HAL_FLASH_GET_LATENCY() != FLatency)
 8006a6a:	4b63      	ldr	r3, [pc, #396]	; (8006bf8 <HAL_RCC_ClockConfig+0x1c0>)
 8006a6c:	681b      	ldr	r3, [r3, #0]
 8006a6e:	f003 0307 	and.w	r3, r3, #7
 8006a72:	683a      	ldr	r2, [r7, #0]
 8006a74:	429a      	cmp	r2, r3
 8006a76:	d001      	beq.n	8006a7c <HAL_RCC_ClockConfig+0x44>
  {
    return HAL_ERROR;
 8006a78:	2301      	movs	r3, #1
 8006a7a:	e0b8      	b.n	8006bee <HAL_RCC_ClockConfig+0x1b6>
  }
}

#endif /* FLASH_ACR_LATENCY */
/*-------------------------- HCLK Configuration --------------------------*/
if (((RCC_ClkInitStruct->ClockType) & RCC_CLOCKTYPE_HCLK) == RCC_CLOCKTYPE_HCLK)
 8006a7c:	687b      	ldr	r3, [r7, #4]
 8006a7e:	681b      	ldr	r3, [r3, #0]
 8006a80:	f003 0302 	and.w	r3, r3, #2
 8006a84:	2b00      	cmp	r3, #0
 8006a86:	d020      	beq.n	8006aca <HAL_RCC_ClockConfig+0x92>
  {
    /* Set the highest APBx dividers in order to ensure that we do not go through
    a non-spec phase whatever we decrease or increase HCLK. */
    if (((RCC_ClkInitStruct->ClockType) & RCC_CLOCKTYPE_PCLK1) == RCC_CLOCKTYPE_PCLK1)
 8006a88:	687b      	ldr	r3, [r7, #4]
 8006a8a:	681b      	ldr	r3, [r3, #0]
 8006a8c:	f003 0304 	and.w	r3, r3, #4
 8006a90:	2b00      	cmp	r3, #0
 8006a92:	d005      	beq.n	8006aa0 <HAL_RCC_ClockConfig+0x68>
    {
      MODIFY_REG(RCC->CFGR, RCC_CFGR_PPRE1, RCC_HCLK_DIV16);
 8006a94:	4b59      	ldr	r3, [pc, #356]	; (8006bfc <HAL_RCC_ClockConfig+0x1c4>)
 8006a96:	685b      	ldr	r3, [r3, #4]
 8006a98:	4a58      	ldr	r2, [pc, #352]	; (8006bfc <HAL_RCC_ClockConfig+0x1c4>)
 8006a9a:	f443 63e0 	orr.w	r3, r3, #1792	; 0x700
 8006a9e:	6053      	str	r3, [r2, #4]
    }

    if (((RCC_ClkInitStruct->ClockType) & RCC_CLOCKTYPE_PCLK2) == RCC_CLOCKTYPE_PCLK2)
 8006aa0:	687b      	ldr	r3, [r7, #4]
 8006aa2:	681b      	ldr	r3, [r3, #0]
 8006aa4:	f003 0308 	and.w	r3, r3, #8
 8006aa8:	2b00      	cmp	r3, #0
 8006aaa:	d005      	beq.n	8006ab8 <HAL_RCC_ClockConfig+0x80>
    {
      MODIFY_REG(RCC->CFGR, RCC_CFGR_PPRE2, (RCC_HCLK_DIV16 << 3));
 8006aac:	4b53      	ldr	r3, [pc, #332]	; (8006bfc <HAL_RCC_ClockConfig+0x1c4>)
 8006aae:	685b      	ldr	r3, [r3, #4]
 8006ab0:	4a52      	ldr	r2, [pc, #328]	; (8006bfc <HAL_RCC_ClockConfig+0x1c4>)
 8006ab2:	f443 5360 	orr.w	r3, r3, #14336	; 0x3800
 8006ab6:	6053      	str	r3, [r2, #4]
    }

    /* Set the new HCLK clock divider */
    assert_param(IS_RCC_HCLK(RCC_ClkInitStruct->AHBCLKDivider));
    MODIFY_REG(RCC->CFGR, RCC_CFGR_HPRE, RCC_ClkInitStruct->AHBCLKDivider);
 8006ab8:	4b50      	ldr	r3, [pc, #320]	; (8006bfc <HAL_RCC_ClockConfig+0x1c4>)
 8006aba:	685b      	ldr	r3, [r3, #4]
 8006abc:	f023 02f0 	bic.w	r2, r3, #240	; 0xf0
 8006ac0:	687b      	ldr	r3, [r7, #4]
 8006ac2:	689b      	ldr	r3, [r3, #8]
 8006ac4:	494d      	ldr	r1, [pc, #308]	; (8006bfc <HAL_RCC_ClockConfig+0x1c4>)
 8006ac6:	4313      	orrs	r3, r2
 8006ac8:	604b      	str	r3, [r1, #4]
  }

  /*------------------------- SYSCLK Configuration ---------------------------*/
  if (((RCC_ClkInitStruct->ClockType) & RCC_CLOCKTYPE_SYSCLK) == RCC_CLOCKTYPE_SYSCLK)
 8006aca:	687b      	ldr	r3, [r7, #4]
 8006acc:	681b      	ldr	r3, [r3, #0]
 8006ace:	f003 0301 	and.w	r3, r3, #1
 8006ad2:	2b00      	cmp	r3, #0
 8006ad4:	d040      	beq.n	8006b58 <HAL_RCC_ClockConfig+0x120>
  {
    assert_param(IS_RCC_SYSCLKSOURCE(RCC_ClkInitStruct->SYSCLKSource));

    /* HSE is selected as System Clock Source */
    if (RCC_ClkInitStruct->SYSCLKSource == RCC_SYSCLKSOURCE_HSE)
 8006ad6:	687b      	ldr	r3, [r7, #4]
 8006ad8:	685b      	ldr	r3, [r3, #4]
 8006ada:	2b01      	cmp	r3, #1
 8006adc:	d107      	bne.n	8006aee <HAL_RCC_ClockConfig+0xb6>
    {
      /* Check the HSE ready flag */
      if (__HAL_RCC_GET_FLAG(RCC_FLAG_HSERDY) == RESET)
 8006ade:	4b47      	ldr	r3, [pc, #284]	; (8006bfc <HAL_RCC_ClockConfig+0x1c4>)
 8006ae0:	681b      	ldr	r3, [r3, #0]
 8006ae2:	f403 3300 	and.w	r3, r3, #131072	; 0x20000
 8006ae6:	2b00      	cmp	r3, #0
 8006ae8:	d115      	bne.n	8006b16 <HAL_RCC_ClockConfig+0xde>
      {
        return HAL_ERROR;
 8006aea:	2301      	movs	r3, #1
 8006aec:	e07f      	b.n	8006bee <HAL_RCC_ClockConfig+0x1b6>
      }
    }
    /* PLL is selected as System Clock Source */
    else if (RCC_ClkInitStruct->SYSCLKSource == RCC_SYSCLKSOURCE_PLLCLK)
 8006aee:	687b      	ldr	r3, [r7, #4]
 8006af0:	685b      	ldr	r3, [r3, #4]
 8006af2:	2b02      	cmp	r3, #2
 8006af4:	d107      	bne.n	8006b06 <HAL_RCC_ClockConfig+0xce>
    {
      /* Check the PLL ready flag */
      if (__HAL_RCC_GET_FLAG(RCC_FLAG_PLLRDY) == RESET)
 8006af6:	4b41      	ldr	r3, [pc, #260]	; (8006bfc <HAL_RCC_ClockConfig+0x1c4>)
 8006af8:	681b      	ldr	r3, [r3, #0]
 8006afa:	f003 7300 	and.w	r3, r3, #33554432	; 0x2000000
 8006afe:	2b00      	cmp	r3, #0
 8006b00:	d109      	bne.n	8006b16 <HAL_RCC_ClockConfig+0xde>
      {
        return HAL_ERROR;
 8006b02:	2301      	movs	r3, #1
 8006b04:	e073      	b.n	8006bee <HAL_RCC_ClockConfig+0x1b6>
    }
    /* HSI is selected as System Clock Source */
    else
    {
      /* Check the HSI ready flag */
      if (__HAL_RCC_GET_FLAG(RCC_FLAG_HSIRDY) == RESET)
 8006b06:	4b3d      	ldr	r3, [pc, #244]	; (8006bfc <HAL_RCC_ClockConfig+0x1c4>)
 8006b08:	681b      	ldr	r3, [r3, #0]
 8006b0a:	f003 0302 	and.w	r3, r3, #2
 8006b0e:	2b00      	cmp	r3, #0
 8006b10:	d101      	bne.n	8006b16 <HAL_RCC_ClockConfig+0xde>
      {
        return HAL_ERROR;
 8006b12:	2301      	movs	r3, #1
 8006b14:	e06b      	b.n	8006bee <HAL_RCC_ClockConfig+0x1b6>
      }
    }
    __HAL_RCC_SYSCLK_CONFIG(RCC_ClkInitStruct->SYSCLKSource);
 8006b16:	4b39      	ldr	r3, [pc, #228]	; (8006bfc <HAL_RCC_ClockConfig+0x1c4>)
 8006b18:	685b      	ldr	r3, [r3, #4]
 8006b1a:	f023 0203 	bic.w	r2, r3, #3
 8006b1e:	687b      	ldr	r3, [r7, #4]
 8006b20:	685b      	ldr	r3, [r3, #4]
 8006b22:	4936      	ldr	r1, [pc, #216]	; (8006bfc <HAL_RCC_ClockConfig+0x1c4>)
 8006b24:	4313      	orrs	r3, r2
 8006b26:	604b      	str	r3, [r1, #4]

    /* Get Start Tick */
    tickstart = HAL_GetTick();
 8006b28:	f7fe f944 	bl	8004db4 <HAL_GetTick>
 8006b2c:	60f8      	str	r0, [r7, #12]

    while (__HAL_RCC_GET_SYSCLK_SOURCE() != (RCC_ClkInitStruct->SYSCLKSource << RCC_CFGR_SWS_Pos))
 8006b2e:	e00a      	b.n	8006b46 <HAL_RCC_ClockConfig+0x10e>
    {
      if ((HAL_GetTick() - tickstart) > CLOCKSWITCH_TIMEOUT_VALUE)
 8006b30:	f7fe f940 	bl	8004db4 <HAL_GetTick>
 8006b34:	4602      	mov	r2, r0
 8006b36:	68fb      	ldr	r3, [r7, #12]
 8006b38:	1ad3      	subs	r3, r2, r3
 8006b3a:	f241 3288 	movw	r2, #5000	; 0x1388
 8006b3e:	4293      	cmp	r3, r2
 8006b40:	d901      	bls.n	8006b46 <HAL_RCC_ClockConfig+0x10e>
      {
        return HAL_TIMEOUT;
 8006b42:	2303      	movs	r3, #3
 8006b44:	e053      	b.n	8006bee <HAL_RCC_ClockConfig+0x1b6>
    while (__HAL_RCC_GET_SYSCLK_SOURCE() != (RCC_ClkInitStruct->SYSCLKSource << RCC_CFGR_SWS_Pos))
 8006b46:	4b2d      	ldr	r3, [pc, #180]	; (8006bfc <HAL_RCC_ClockConfig+0x1c4>)
 8006b48:	685b      	ldr	r3, [r3, #4]
 8006b4a:	f003 020c 	and.w	r2, r3, #12
 8006b4e:	687b      	ldr	r3, [r7, #4]
 8006b50:	685b      	ldr	r3, [r3, #4]
 8006b52:	009b      	lsls	r3, r3, #2
 8006b54:	429a      	cmp	r2, r3
 8006b56:	d1eb      	bne.n	8006b30 <HAL_RCC_ClockConfig+0xf8>
    }
  }

#if defined(FLASH_ACR_LATENCY)
  /* Decreasing the number of wait states because of lower CPU frequency */
  if (FLatency < __HAL_FLASH_GET_LATENCY())
 8006b58:	4b27      	ldr	r3, [pc, #156]	; (8006bf8 <HAL_RCC_ClockConfig+0x1c0>)
 8006b5a:	681b      	ldr	r3, [r3, #0]
 8006b5c:	f003 0307 	and.w	r3, r3, #7
 8006b60:	683a      	ldr	r2, [r7, #0]
 8006b62:	429a      	cmp	r2, r3
 8006b64:	d210      	bcs.n	8006b88 <HAL_RCC_ClockConfig+0x150>
  {
    /* Program the new number of wait states to the LATENCY bits in the FLASH_ACR register */
    __HAL_FLASH_SET_LATENCY(FLatency);
 8006b66:	4b24      	ldr	r3, [pc, #144]	; (8006bf8 <HAL_RCC_ClockConfig+0x1c0>)
 8006b68:	681b      	ldr	r3, [r3, #0]
 8006b6a:	f023 0207 	bic.w	r2, r3, #7
 8006b6e:	4922      	ldr	r1, [pc, #136]	; (8006bf8 <HAL_RCC_ClockConfig+0x1c0>)
 8006b70:	683b      	ldr	r3, [r7, #0]
 8006b72:	4313      	orrs	r3, r2
 8006b74:	600b      	str	r3, [r1, #0]

    /* Check that the new number of wait states is taken into account to access the Flash
    memory by reading the FLASH_ACR register */
    if (__HAL_FLASH_GET_LATENCY() != FLatency)
 8006b76:	4b20      	ldr	r3, [pc, #128]	; (8006bf8 <HAL_RCC_ClockConfig+0x1c0>)
 8006b78:	681b      	ldr	r3, [r3, #0]
 8006b7a:	f003 0307 	and.w	r3, r3, #7
 8006b7e:	683a      	ldr	r2, [r7, #0]
 8006b80:	429a      	cmp	r2, r3
 8006b82:	d001      	beq.n	8006b88 <HAL_RCC_ClockConfig+0x150>
  {
    return HAL_ERROR;
 8006b84:	2301      	movs	r3, #1
 8006b86:	e032      	b.n	8006bee <HAL_RCC_ClockConfig+0x1b6>
  }
}
#endif /* FLASH_ACR_LATENCY */

/*-------------------------- PCLK1 Configuration ---------------------------*/
if (((RCC_ClkInitStruct->ClockType) & RCC_CLOCKTYPE_PCLK1) == RCC_CLOCKTYPE_PCLK1)
 8006b88:	687b      	ldr	r3, [r7, #4]
 8006b8a:	681b      	ldr	r3, [r3, #0]
 8006b8c:	f003 0304 	and.w	r3, r3, #4
 8006b90:	2b00      	cmp	r3, #0
 8006b92:	d008      	beq.n	8006ba6 <HAL_RCC_ClockConfig+0x16e>
  {
    assert_param(IS_RCC_PCLK(RCC_ClkInitStruct->APB1CLKDivider));
    MODIFY_REG(RCC->CFGR, RCC_CFGR_PPRE1, RCC_ClkInitStruct->APB1CLKDivider);
 8006b94:	4b19      	ldr	r3, [pc, #100]	; (8006bfc <HAL_RCC_ClockConfig+0x1c4>)
 8006b96:	685b      	ldr	r3, [r3, #4]
 8006b98:	f423 62e0 	bic.w	r2, r3, #1792	; 0x700
 8006b9c:	687b      	ldr	r3, [r7, #4]
 8006b9e:	68db      	ldr	r3, [r3, #12]
 8006ba0:	4916      	ldr	r1, [pc, #88]	; (8006bfc <HAL_RCC_ClockConfig+0x1c4>)
 8006ba2:	4313      	orrs	r3, r2
 8006ba4:	604b      	str	r3, [r1, #4]
  }

  /*-------------------------- PCLK2 Configuration ---------------------------*/
  if (((RCC_ClkInitStruct->ClockType) & RCC_CLOCKTYPE_PCLK2) == RCC_CLOCKTYPE_PCLK2)
 8006ba6:	687b      	ldr	r3, [r7, #4]
 8006ba8:	681b      	ldr	r3, [r3, #0]
 8006baa:	f003 0308 	and.w	r3, r3, #8
 8006bae:	2b00      	cmp	r3, #0
 8006bb0:	d009      	beq.n	8006bc6 <HAL_RCC_ClockConfig+0x18e>
  {
    assert_param(IS_RCC_PCLK(RCC_ClkInitStruct->APB2CLKDivider));
    MODIFY_REG(RCC->CFGR, RCC_CFGR_PPRE2, ((RCC_ClkInitStruct->APB2CLKDivider) << 3));
 8006bb2:	4b12      	ldr	r3, [pc, #72]	; (8006bfc <HAL_RCC_ClockConfig+0x1c4>)
 8006bb4:	685b      	ldr	r3, [r3, #4]
 8006bb6:	f423 5260 	bic.w	r2, r3, #14336	; 0x3800
 8006bba:	687b      	ldr	r3, [r7, #4]
 8006bbc:	691b      	ldr	r3, [r3, #16]
 8006bbe:	00db      	lsls	r3, r3, #3
 8006bc0:	490e      	ldr	r1, [pc, #56]	; (8006bfc <HAL_RCC_ClockConfig+0x1c4>)
 8006bc2:	4313      	orrs	r3, r2
 8006bc4:	604b      	str	r3, [r1, #4]
  }

  /* Update the SystemCoreClock global variable */
  SystemCoreClock = HAL_RCC_GetSysClockFreq() >> AHBPrescTable[(RCC->CFGR & RCC_CFGR_HPRE) >> RCC_CFGR_HPRE_Pos];
 8006bc6:	f000 f821 	bl	8006c0c <HAL_RCC_GetSysClockFreq>
 8006bca:	4602      	mov	r2, r0
 8006bcc:	4b0b      	ldr	r3, [pc, #44]	; (8006bfc <HAL_RCC_ClockConfig+0x1c4>)
 8006bce:	685b      	ldr	r3, [r3, #4]
 8006bd0:	091b      	lsrs	r3, r3, #4
 8006bd2:	f003 030f 	and.w	r3, r3, #15
 8006bd6:	490a      	ldr	r1, [pc, #40]	; (8006c00 <HAL_RCC_ClockConfig+0x1c8>)
 8006bd8:	5ccb      	ldrb	r3, [r1, r3]
 8006bda:	fa22 f303 	lsr.w	r3, r2, r3
 8006bde:	4a09      	ldr	r2, [pc, #36]	; (8006c04 <HAL_RCC_ClockConfig+0x1cc>)
 8006be0:	6013      	str	r3, [r2, #0]

  /* Configure the source of time base considering new system clocks settings*/
  HAL_InitTick(uwTickPrio);
 8006be2:	4b09      	ldr	r3, [pc, #36]	; (8006c08 <HAL_RCC_ClockConfig+0x1d0>)
 8006be4:	681b      	ldr	r3, [r3, #0]
 8006be6:	4618      	mov	r0, r3
 8006be8:	f7fe f8a2 	bl	8004d30 <HAL_InitTick>

  return HAL_OK;
 8006bec:	2300      	movs	r3, #0
}
 8006bee:	4618      	mov	r0, r3
 8006bf0:	3710      	adds	r7, #16
 8006bf2:	46bd      	mov	sp, r7
 8006bf4:	bd80      	pop	{r7, pc}
 8006bf6:	bf00      	nop
 8006bf8:	40022000 	.word	0x40022000
 8006bfc:	40021000 	.word	0x40021000
 8006c00:	08009b70 	.word	0x08009b70
 8006c04:	200000ac 	.word	0x200000ac
 8006c08:	200000b0 	.word	0x200000b0

08006c0c <HAL_RCC_GetSysClockFreq>:
  *         right SYSCLK value. Otherwise, any configuration based on this function will be incorrect.
  *
  * @retval SYSCLK frequency
  */
uint32_t HAL_RCC_GetSysClockFreq(void)
{
 8006c0c:	b480      	push	{r7}
 8006c0e:	b087      	sub	sp, #28
 8006c10:	af00      	add	r7, sp, #0
#else
  static const uint8_t aPredivFactorTable[2U] = {1, 2};
#endif /*RCC_CFGR2_PREDIV1*/

#endif
  uint32_t tmpreg = 0U, prediv = 0U, pllclk = 0U, pllmul = 0U;
 8006c12:	2300      	movs	r3, #0
 8006c14:	60fb      	str	r3, [r7, #12]
 8006c16:	2300      	movs	r3, #0
 8006c18:	60bb      	str	r3, [r7, #8]
 8006c1a:	2300      	movs	r3, #0
 8006c1c:	617b      	str	r3, [r7, #20]
 8006c1e:	2300      	movs	r3, #0
 8006c20:	607b      	str	r3, [r7, #4]
  uint32_t sysclockfreq = 0U;
 8006c22:	2300      	movs	r3, #0
 8006c24:	613b      	str	r3, [r7, #16]
#if defined(RCC_CFGR2_PREDIV1SRC)
  uint32_t prediv2 = 0U, pll2mul = 0U;
#endif /*RCC_CFGR2_PREDIV1SRC*/

  tmpreg = RCC->CFGR;
 8006c26:	4b1e      	ldr	r3, [pc, #120]	; (8006ca0 <HAL_RCC_GetSysClockFreq+0x94>)
 8006c28:	685b      	ldr	r3, [r3, #4]
 8006c2a:	60fb      	str	r3, [r7, #12]

  /* Get SYSCLK source -------------------------------------------------------*/
  switch (tmpreg & RCC_CFGR_SWS)
 8006c2c:	68fb      	ldr	r3, [r7, #12]
 8006c2e:	f003 030c 	and.w	r3, r3, #12
 8006c32:	2b04      	cmp	r3, #4
 8006c34:	d002      	beq.n	8006c3c <HAL_RCC_GetSysClockFreq+0x30>
 8006c36:	2b08      	cmp	r3, #8
 8006c38:	d003      	beq.n	8006c42 <HAL_RCC_GetSysClockFreq+0x36>
 8006c3a:	e027      	b.n	8006c8c <HAL_RCC_GetSysClockFreq+0x80>
  {
    case RCC_SYSCLKSOURCE_STATUS_HSE:  /* HSE used as system clock */
    {
      sysclockfreq = HSE_VALUE;
 8006c3c:	4b19      	ldr	r3, [pc, #100]	; (8006ca4 <HAL_RCC_GetSysClockFreq+0x98>)
 8006c3e:	613b      	str	r3, [r7, #16]
      break;
 8006c40:	e027      	b.n	8006c92 <HAL_RCC_GetSysClockFreq+0x86>
    }
    case RCC_SYSCLKSOURCE_STATUS_PLLCLK:  /* PLL used as system clock */
    {
      pllmul = aPLLMULFactorTable[(uint32_t)(tmpreg & RCC_CFGR_PLLMULL) >> RCC_CFGR_PLLMULL_Pos];
 8006c42:	68fb      	ldr	r3, [r7, #12]
 8006c44:	0c9b      	lsrs	r3, r3, #18
 8006c46:	f003 030f 	and.w	r3, r3, #15
 8006c4a:	4a17      	ldr	r2, [pc, #92]	; (8006ca8 <HAL_RCC_GetSysClockFreq+0x9c>)
 8006c4c:	5cd3      	ldrb	r3, [r2, r3]
 8006c4e:	607b      	str	r3, [r7, #4]
      if ((tmpreg & RCC_CFGR_PLLSRC) != RCC_PLLSOURCE_HSI_DIV2)
 8006c50:	68fb      	ldr	r3, [r7, #12]
 8006c52:	f403 3380 	and.w	r3, r3, #65536	; 0x10000
 8006c56:	2b00      	cmp	r3, #0
 8006c58:	d010      	beq.n	8006c7c <HAL_RCC_GetSysClockFreq+0x70>
      {
#if defined(RCC_CFGR2_PREDIV1)
        prediv = aPredivFactorTable[(uint32_t)(RCC->CFGR2 & RCC_CFGR2_PREDIV1) >> RCC_CFGR2_PREDIV1_Pos];
#else
        prediv = aPredivFactorTable[(uint32_t)(RCC->CFGR & RCC_CFGR_PLLXTPRE) >> RCC_CFGR_PLLXTPRE_Pos];
 8006c5a:	4b11      	ldr	r3, [pc, #68]	; (8006ca0 <HAL_RCC_GetSysClockFreq+0x94>)
 8006c5c:	685b      	ldr	r3, [r3, #4]
 8006c5e:	0c5b      	lsrs	r3, r3, #17
 8006c60:	f003 0301 	and.w	r3, r3, #1
 8006c64:	4a11      	ldr	r2, [pc, #68]	; (8006cac <HAL_RCC_GetSysClockFreq+0xa0>)
 8006c66:	5cd3      	ldrb	r3, [r2, r3]
 8006c68:	60bb      	str	r3, [r7, #8]
        {
          pllclk = pllclk / 2;
        }
#else
        /* HSE used as PLL clock source : PLLCLK = HSE/PREDIV1 * PLLMUL */
        pllclk = (uint32_t)((HSE_VALUE  * pllmul) / prediv);
 8006c6a:	687b      	ldr	r3, [r7, #4]
 8006c6c:	4a0d      	ldr	r2, [pc, #52]	; (8006ca4 <HAL_RCC_GetSysClockFreq+0x98>)
 8006c6e:	fb03 f202 	mul.w	r2, r3, r2
 8006c72:	68bb      	ldr	r3, [r7, #8]
 8006c74:	fbb2 f3f3 	udiv	r3, r2, r3
 8006c78:	617b      	str	r3, [r7, #20]
 8006c7a:	e004      	b.n	8006c86 <HAL_RCC_GetSysClockFreq+0x7a>
#endif /*RCC_CFGR2_PREDIV1SRC*/
      }
      else
      {
        /* HSI used as PLL clock source : PLLCLK = HSI/2 * PLLMUL */
        pllclk = (uint32_t)((HSI_VALUE >> 1) * pllmul);
 8006c7c:	687b      	ldr	r3, [r7, #4]
 8006c7e:	4a0c      	ldr	r2, [pc, #48]	; (8006cb0 <HAL_RCC_GetSysClockFreq+0xa4>)
 8006c80:	fb02 f303 	mul.w	r3, r2, r3
 8006c84:	617b      	str	r3, [r7, #20]
      }
      sysclockfreq = pllclk;
 8006c86:	697b      	ldr	r3, [r7, #20]
 8006c88:	613b      	str	r3, [r7, #16]
      break;
 8006c8a:	e002      	b.n	8006c92 <HAL_RCC_GetSysClockFreq+0x86>
    }
    case RCC_SYSCLKSOURCE_STATUS_HSI:  /* HSI used as system clock source */
    default: /* HSI used as system clock */
    {
      sysclockfreq = HSI_VALUE;
 8006c8c:	4b05      	ldr	r3, [pc, #20]	; (8006ca4 <HAL_RCC_GetSysClockFreq+0x98>)
 8006c8e:	613b      	str	r3, [r7, #16]
      break;
 8006c90:	bf00      	nop
    }
  }
  return sysclockfreq;
 8006c92:	693b      	ldr	r3, [r7, #16]
}
 8006c94:	4618      	mov	r0, r3
 8006c96:	371c      	adds	r7, #28
 8006c98:	46bd      	mov	sp, r7
 8006c9a:	bc80      	pop	{r7}
 8006c9c:	4770      	bx	lr
 8006c9e:	bf00      	nop
 8006ca0:	40021000 	.word	0x40021000
 8006ca4:	007a1200 	.word	0x007a1200
 8006ca8:	08009b88 	.word	0x08009b88
 8006cac:	08009b98 	.word	0x08009b98
 8006cb0:	003d0900 	.word	0x003d0900

08006cb4 <HAL_RCC_GetHCLKFreq>:
  * @note   The SystemCoreClock CMSIS variable is used to store System Clock Frequency
  *         and updated within this function
  * @retval HCLK frequency
  */
uint32_t HAL_RCC_GetHCLKFreq(void)
{
 8006cb4:	b480      	push	{r7}
 8006cb6:	af00      	add	r7, sp, #0
  return SystemCoreClock;
 8006cb8:	4b02      	ldr	r3, [pc, #8]	; (8006cc4 <HAL_RCC_GetHCLKFreq+0x10>)
 8006cba:	681b      	ldr	r3, [r3, #0]
}
 8006cbc:	4618      	mov	r0, r3
 8006cbe:	46bd      	mov	sp, r7
 8006cc0:	bc80      	pop	{r7}
 8006cc2:	4770      	bx	lr
 8006cc4:	200000ac 	.word	0x200000ac

08006cc8 <HAL_RCC_GetPCLK1Freq>:
  * @note   Each time PCLK1 changes, this function must be called to update the
  *         right PCLK1 value. Otherwise, any configuration based on this function will be incorrect.
  * @retval PCLK1 frequency
  */
uint32_t HAL_RCC_GetPCLK1Freq(void)
{
 8006cc8:	b580      	push	{r7, lr}
 8006cca:	af00      	add	r7, sp, #0
  /* Get HCLK source and Compute PCLK1 frequency ---------------------------*/
  return (HAL_RCC_GetHCLKFreq() >> APBPrescTable[(RCC->CFGR & RCC_CFGR_PPRE1) >> RCC_CFGR_PPRE1_Pos]);
 8006ccc:	f7ff fff2 	bl	8006cb4 <HAL_RCC_GetHCLKFreq>
 8006cd0:	4602      	mov	r2, r0
 8006cd2:	4b05      	ldr	r3, [pc, #20]	; (8006ce8 <HAL_RCC_GetPCLK1Freq+0x20>)
 8006cd4:	685b      	ldr	r3, [r3, #4]
 8006cd6:	0a1b      	lsrs	r3, r3, #8
 8006cd8:	f003 0307 	and.w	r3, r3, #7
 8006cdc:	4903      	ldr	r1, [pc, #12]	; (8006cec <HAL_RCC_GetPCLK1Freq+0x24>)
 8006cde:	5ccb      	ldrb	r3, [r1, r3]
 8006ce0:	fa22 f303 	lsr.w	r3, r2, r3
}
 8006ce4:	4618      	mov	r0, r3
 8006ce6:	bd80      	pop	{r7, pc}
 8006ce8:	40021000 	.word	0x40021000
 8006cec:	08009b80 	.word	0x08009b80

08006cf0 <HAL_RCC_GetPCLK2Freq>:
  * @note   Each time PCLK2 changes, this function must be called to update the
  *         right PCLK2 value. Otherwise, any configuration based on this function will be incorrect.
  * @retval PCLK2 frequency
  */
uint32_t HAL_RCC_GetPCLK2Freq(void)
{
 8006cf0:	b580      	push	{r7, lr}
 8006cf2:	af00      	add	r7, sp, #0
  /* Get HCLK source and Compute PCLK2 frequency ---------------------------*/
  return (HAL_RCC_GetHCLKFreq() >> APBPrescTable[(RCC->CFGR & RCC_CFGR_PPRE2) >> RCC_CFGR_PPRE2_Pos]);
 8006cf4:	f7ff ffde 	bl	8006cb4 <HAL_RCC_GetHCLKFreq>
 8006cf8:	4602      	mov	r2, r0
 8006cfa:	4b05      	ldr	r3, [pc, #20]	; (8006d10 <HAL_RCC_GetPCLK2Freq+0x20>)
 8006cfc:	685b      	ldr	r3, [r3, #4]
 8006cfe:	0adb      	lsrs	r3, r3, #11
 8006d00:	f003 0307 	and.w	r3, r3, #7
 8006d04:	4903      	ldr	r1, [pc, #12]	; (8006d14 <HAL_RCC_GetPCLK2Freq+0x24>)
 8006d06:	5ccb      	ldrb	r3, [r1, r3]
 8006d08:	fa22 f303 	lsr.w	r3, r2, r3
}
 8006d0c:	4618      	mov	r0, r3
 8006d0e:	bd80      	pop	{r7, pc}
 8006d10:	40021000 	.word	0x40021000
 8006d14:	08009b80 	.word	0x08009b80

08006d18 <RCC_Delay>:
  * @brief  This function provides delay (in milliseconds) based on CPU cycles method.
  * @param  mdelay: specifies the delay time length, in milliseconds.
  * @retval None
  */
static void RCC_Delay(uint32_t mdelay)
{
 8006d18:	b480      	push	{r7}
 8006d1a:	b085      	sub	sp, #20
 8006d1c:	af00      	add	r7, sp, #0
 8006d1e:	6078      	str	r0, [r7, #4]
  __IO uint32_t Delay = mdelay * (SystemCoreClock / 8U / 1000U);
 8006d20:	4b0a      	ldr	r3, [pc, #40]	; (8006d4c <RCC_Delay+0x34>)
 8006d22:	681b      	ldr	r3, [r3, #0]
 8006d24:	4a0a      	ldr	r2, [pc, #40]	; (8006d50 <RCC_Delay+0x38>)
 8006d26:	fba2 2303 	umull	r2, r3, r2, r3
 8006d2a:	0a5b      	lsrs	r3, r3, #9
 8006d2c:	687a      	ldr	r2, [r7, #4]
 8006d2e:	fb02 f303 	mul.w	r3, r2, r3
 8006d32:	60fb      	str	r3, [r7, #12]
  do
  {
    __NOP();
 8006d34:	bf00      	nop
  }
  while (Delay --);
 8006d36:	68fb      	ldr	r3, [r7, #12]
 8006d38:	1e5a      	subs	r2, r3, #1
 8006d3a:	60fa      	str	r2, [r7, #12]
 8006d3c:	2b00      	cmp	r3, #0
 8006d3e:	d1f9      	bne.n	8006d34 <RCC_Delay+0x1c>
}
 8006d40:	bf00      	nop
 8006d42:	bf00      	nop
 8006d44:	3714      	adds	r7, #20
 8006d46:	46bd      	mov	sp, r7
 8006d48:	bc80      	pop	{r7}
 8006d4a:	4770      	bx	lr
 8006d4c:	200000ac 	.word	0x200000ac
 8006d50:	10624dd3 	.word	0x10624dd3

08006d54 <HAL_TIM_Base_Init>:
  *         Ex: call @ref HAL_TIM_Base_DeInit() before HAL_TIM_Base_Init()
  * @param  htim TIM Base handle
  * @retval HAL status
  */
HAL_StatusTypeDef HAL_TIM_Base_Init(TIM_HandleTypeDef *htim)
{
 8006d54:	b580      	push	{r7, lr}
 8006d56:	b082      	sub	sp, #8
 8006d58:	af00      	add	r7, sp, #0
 8006d5a:	6078      	str	r0, [r7, #4]
  /* Check the TIM handle allocation */
  if (htim == NULL)
 8006d5c:	687b      	ldr	r3, [r7, #4]
 8006d5e:	2b00      	cmp	r3, #0
 8006d60:	d101      	bne.n	8006d66 <HAL_TIM_Base_Init+0x12>
  {
    return HAL_ERROR;
 8006d62:	2301      	movs	r3, #1
 8006d64:	e041      	b.n	8006dea <HAL_TIM_Base_Init+0x96>
  assert_param(IS_TIM_COUNTER_MODE(htim->Init.CounterMode));
  assert_param(IS_TIM_CLOCKDIVISION_DIV(htim->Init.ClockDivision));
  assert_param(IS_TIM_PERIOD(htim->Init.Period));
  assert_param(IS_TIM_AUTORELOAD_PRELOAD(htim->Init.AutoReloadPreload));

  if (htim->State == HAL_TIM_STATE_RESET)
 8006d66:	687b      	ldr	r3, [r7, #4]
 8006d68:	f893 303d 	ldrb.w	r3, [r3, #61]	; 0x3d
 8006d6c:	b2db      	uxtb	r3, r3
 8006d6e:	2b00      	cmp	r3, #0
 8006d70:	d106      	bne.n	8006d80 <HAL_TIM_Base_Init+0x2c>
  {
    /* Allocate lock resource and initialize it */
    htim->Lock = HAL_UNLOCKED;
 8006d72:	687b      	ldr	r3, [r7, #4]
 8006d74:	2200      	movs	r2, #0
 8006d76:	f883 203c 	strb.w	r2, [r3, #60]	; 0x3c
    }
    /* Init the low level hardware : GPIO, CLOCK, NVIC */
    htim->Base_MspInitCallback(htim);
#else
    /* Init the low level hardware : GPIO, CLOCK, NVIC */
    HAL_TIM_Base_MspInit(htim);
 8006d7a:	6878      	ldr	r0, [r7, #4]
 8006d7c:	f7fd fe12 	bl	80049a4 <HAL_TIM_Base_MspInit>
#endif /* USE_HAL_TIM_REGISTER_CALLBACKS */
  }

  /* Set the TIM state */
  htim->State = HAL_TIM_STATE_BUSY;
 8006d80:	687b      	ldr	r3, [r7, #4]
 8006d82:	2202      	movs	r2, #2
 8006d84:	f883 203d 	strb.w	r2, [r3, #61]	; 0x3d

  /* Set the Time Base configuration */
  TIM_Base_SetConfig(htim->Instance, &htim->Init);
 8006d88:	687b      	ldr	r3, [r7, #4]
 8006d8a:	681a      	ldr	r2, [r3, #0]
 8006d8c:	687b      	ldr	r3, [r7, #4]
 8006d8e:	3304      	adds	r3, #4
 8006d90:	4619      	mov	r1, r3
 8006d92:	4610      	mov	r0, r2
 8006d94:	f000 fc28 	bl	80075e8 <TIM_Base_SetConfig>

  /* Initialize the DMA burst operation state */
  htim->DMABurstState = HAL_DMA_BURST_STATE_READY;
 8006d98:	687b      	ldr	r3, [r7, #4]
 8006d9a:	2201      	movs	r2, #1
 8006d9c:	f883 2046 	strb.w	r2, [r3, #70]	; 0x46

  /* Initialize the TIM channels state */
  TIM_CHANNEL_STATE_SET_ALL(htim, HAL_TIM_CHANNEL_STATE_READY);
 8006da0:	687b      	ldr	r3, [r7, #4]
 8006da2:	2201      	movs	r2, #1
 8006da4:	f883 203e 	strb.w	r2, [r3, #62]	; 0x3e
 8006da8:	687b      	ldr	r3, [r7, #4]
 8006daa:	2201      	movs	r2, #1
 8006dac:	f883 203f 	strb.w	r2, [r3, #63]	; 0x3f
 8006db0:	687b      	ldr	r3, [r7, #4]
 8006db2:	2201      	movs	r2, #1
 8006db4:	f883 2040 	strb.w	r2, [r3, #64]	; 0x40
 8006db8:	687b      	ldr	r3, [r7, #4]
 8006dba:	2201      	movs	r2, #1
 8006dbc:	f883 2041 	strb.w	r2, [r3, #65]	; 0x41
  TIM_CHANNEL_N_STATE_SET_ALL(htim, HAL_TIM_CHANNEL_STATE_READY);
 8006dc0:	687b      	ldr	r3, [r7, #4]
 8006dc2:	2201      	movs	r2, #1
 8006dc4:	f883 2042 	strb.w	r2, [r3, #66]	; 0x42
 8006dc8:	687b      	ldr	r3, [r7, #4]
 8006dca:	2201      	movs	r2, #1
 8006dcc:	f883 2043 	strb.w	r2, [r3, #67]	; 0x43
 8006dd0:	687b      	ldr	r3, [r7, #4]
 8006dd2:	2201      	movs	r2, #1
 8006dd4:	f883 2044 	strb.w	r2, [r3, #68]	; 0x44
 8006dd8:	687b      	ldr	r3, [r7, #4]
 8006dda:	2201      	movs	r2, #1
 8006ddc:	f883 2045 	strb.w	r2, [r3, #69]	; 0x45

  /* Initialize the TIM state*/
  htim->State = HAL_TIM_STATE_READY;
 8006de0:	687b      	ldr	r3, [r7, #4]
 8006de2:	2201      	movs	r2, #1
 8006de4:	f883 203d 	strb.w	r2, [r3, #61]	; 0x3d

  return HAL_OK;
 8006de8:	2300      	movs	r3, #0
}
 8006dea:	4618      	mov	r0, r3
 8006dec:	3708      	adds	r7, #8
 8006dee:	46bd      	mov	sp, r7
 8006df0:	bd80      	pop	{r7, pc}
	...

08006df4 <HAL_TIM_Base_Start_IT>:
  * @brief  Starts the TIM Base generation in interrupt mode.
  * @param  htim TIM Base handle
  * @retval HAL status
  */
HAL_StatusTypeDef HAL_TIM_Base_Start_IT(TIM_HandleTypeDef *htim)
{
 8006df4:	b480      	push	{r7}
 8006df6:	b085      	sub	sp, #20
 8006df8:	af00      	add	r7, sp, #0
 8006dfa:	6078      	str	r0, [r7, #4]

  /* Check the parameters */
  assert_param(IS_TIM_INSTANCE(htim->Instance));

  /* Check the TIM state */
  if (htim->State != HAL_TIM_STATE_READY)
 8006dfc:	687b      	ldr	r3, [r7, #4]
 8006dfe:	f893 303d 	ldrb.w	r3, [r3, #61]	; 0x3d
 8006e02:	b2db      	uxtb	r3, r3
 8006e04:	2b01      	cmp	r3, #1
 8006e06:	d001      	beq.n	8006e0c <HAL_TIM_Base_Start_IT+0x18>
  {
    return HAL_ERROR;
 8006e08:	2301      	movs	r3, #1
 8006e0a:	e03a      	b.n	8006e82 <HAL_TIM_Base_Start_IT+0x8e>
  }

  /* Set the TIM state */
  htim->State = HAL_TIM_STATE_BUSY;
 8006e0c:	687b      	ldr	r3, [r7, #4]
 8006e0e:	2202      	movs	r2, #2
 8006e10:	f883 203d 	strb.w	r2, [r3, #61]	; 0x3d

  /* Enable the TIM Update interrupt */
  __HAL_TIM_ENABLE_IT(htim, TIM_IT_UPDATE);
 8006e14:	687b      	ldr	r3, [r7, #4]
 8006e16:	681b      	ldr	r3, [r3, #0]
 8006e18:	68da      	ldr	r2, [r3, #12]
 8006e1a:	687b      	ldr	r3, [r7, #4]
 8006e1c:	681b      	ldr	r3, [r3, #0]
 8006e1e:	f042 0201 	orr.w	r2, r2, #1
 8006e22:	60da      	str	r2, [r3, #12]

  /* Enable the Peripheral, except in trigger mode where enable is automatically done with trigger */
  if (IS_TIM_SLAVE_INSTANCE(htim->Instance))
 8006e24:	687b      	ldr	r3, [r7, #4]
 8006e26:	681b      	ldr	r3, [r3, #0]
 8006e28:	4a18      	ldr	r2, [pc, #96]	; (8006e8c <HAL_TIM_Base_Start_IT+0x98>)
 8006e2a:	4293      	cmp	r3, r2
 8006e2c:	d00e      	beq.n	8006e4c <HAL_TIM_Base_Start_IT+0x58>
 8006e2e:	687b      	ldr	r3, [r7, #4]
 8006e30:	681b      	ldr	r3, [r3, #0]
 8006e32:	f1b3 4f80 	cmp.w	r3, #1073741824	; 0x40000000
 8006e36:	d009      	beq.n	8006e4c <HAL_TIM_Base_Start_IT+0x58>
 8006e38:	687b      	ldr	r3, [r7, #4]
 8006e3a:	681b      	ldr	r3, [r3, #0]
 8006e3c:	4a14      	ldr	r2, [pc, #80]	; (8006e90 <HAL_TIM_Base_Start_IT+0x9c>)
 8006e3e:	4293      	cmp	r3, r2
 8006e40:	d004      	beq.n	8006e4c <HAL_TIM_Base_Start_IT+0x58>
 8006e42:	687b      	ldr	r3, [r7, #4]
 8006e44:	681b      	ldr	r3, [r3, #0]
 8006e46:	4a13      	ldr	r2, [pc, #76]	; (8006e94 <HAL_TIM_Base_Start_IT+0xa0>)
 8006e48:	4293      	cmp	r3, r2
 8006e4a:	d111      	bne.n	8006e70 <HAL_TIM_Base_Start_IT+0x7c>
  {
    tmpsmcr = htim->Instance->SMCR & TIM_SMCR_SMS;
 8006e4c:	687b      	ldr	r3, [r7, #4]
 8006e4e:	681b      	ldr	r3, [r3, #0]
 8006e50:	689b      	ldr	r3, [r3, #8]
 8006e52:	f003 0307 	and.w	r3, r3, #7
 8006e56:	60fb      	str	r3, [r7, #12]
    if (!IS_TIM_SLAVEMODE_TRIGGER_ENABLED(tmpsmcr))
 8006e58:	68fb      	ldr	r3, [r7, #12]
 8006e5a:	2b06      	cmp	r3, #6
 8006e5c:	d010      	beq.n	8006e80 <HAL_TIM_Base_Start_IT+0x8c>
    {
      __HAL_TIM_ENABLE(htim);
 8006e5e:	687b      	ldr	r3, [r7, #4]
 8006e60:	681b      	ldr	r3, [r3, #0]
 8006e62:	681a      	ldr	r2, [r3, #0]
 8006e64:	687b      	ldr	r3, [r7, #4]
 8006e66:	681b      	ldr	r3, [r3, #0]
 8006e68:	f042 0201 	orr.w	r2, r2, #1
 8006e6c:	601a      	str	r2, [r3, #0]
    if (!IS_TIM_SLAVEMODE_TRIGGER_ENABLED(tmpsmcr))
 8006e6e:	e007      	b.n	8006e80 <HAL_TIM_Base_Start_IT+0x8c>
    }
  }
  else
  {
    __HAL_TIM_ENABLE(htim);
 8006e70:	687b      	ldr	r3, [r7, #4]
 8006e72:	681b      	ldr	r3, [r3, #0]
 8006e74:	681a      	ldr	r2, [r3, #0]
 8006e76:	687b      	ldr	r3, [r7, #4]
 8006e78:	681b      	ldr	r3, [r3, #0]
 8006e7a:	f042 0201 	orr.w	r2, r2, #1
 8006e7e:	601a      	str	r2, [r3, #0]
  }

  /* Return function status */
  return HAL_OK;
 8006e80:	2300      	movs	r3, #0
}
 8006e82:	4618      	mov	r0, r3
 8006e84:	3714      	adds	r7, #20
 8006e86:	46bd      	mov	sp, r7
 8006e88:	bc80      	pop	{r7}
 8006e8a:	4770      	bx	lr
 8006e8c:	40012c00 	.word	0x40012c00
 8006e90:	40000400 	.word	0x40000400
 8006e94:	40000800 	.word	0x40000800

08006e98 <HAL_TIM_PWM_Init>:
  *         Ex: call @ref HAL_TIM_PWM_DeInit() before HAL_TIM_PWM_Init()
  * @param  htim TIM PWM handle
  * @retval HAL status
  */
HAL_StatusTypeDef HAL_TIM_PWM_Init(TIM_HandleTypeDef *htim)
{
 8006e98:	b580      	push	{r7, lr}
 8006e9a:	b082      	sub	sp, #8
 8006e9c:	af00      	add	r7, sp, #0
 8006e9e:	6078      	str	r0, [r7, #4]
  /* Check the TIM handle allocation */
  if (htim == NULL)
 8006ea0:	687b      	ldr	r3, [r7, #4]
 8006ea2:	2b00      	cmp	r3, #0
 8006ea4:	d101      	bne.n	8006eaa <HAL_TIM_PWM_Init+0x12>
  {
    return HAL_ERROR;
 8006ea6:	2301      	movs	r3, #1
 8006ea8:	e041      	b.n	8006f2e <HAL_TIM_PWM_Init+0x96>
  assert_param(IS_TIM_COUNTER_MODE(htim->Init.CounterMode));
  assert_param(IS_TIM_CLOCKDIVISION_DIV(htim->Init.ClockDivision));
  assert_param(IS_TIM_PERIOD(htim->Init.Period));
  assert_param(IS_TIM_AUTORELOAD_PRELOAD(htim->Init.AutoReloadPreload));

  if (htim->State == HAL_TIM_STATE_RESET)
 8006eaa:	687b      	ldr	r3, [r7, #4]
 8006eac:	f893 303d 	ldrb.w	r3, [r3, #61]	; 0x3d
 8006eb0:	b2db      	uxtb	r3, r3
 8006eb2:	2b00      	cmp	r3, #0
 8006eb4:	d106      	bne.n	8006ec4 <HAL_TIM_PWM_Init+0x2c>
  {
    /* Allocate lock resource and initialize it */
    htim->Lock = HAL_UNLOCKED;
 8006eb6:	687b      	ldr	r3, [r7, #4]
 8006eb8:	2200      	movs	r2, #0
 8006eba:	f883 203c 	strb.w	r2, [r3, #60]	; 0x3c
    }
    /* Init the low level hardware : GPIO, CLOCK, NVIC */
    htim->PWM_MspInitCallback(htim);
#else
    /* Init the low level hardware : GPIO, CLOCK, NVIC and DMA */
    HAL_TIM_PWM_MspInit(htim);
 8006ebe:	6878      	ldr	r0, [r7, #4]
 8006ec0:	f7fd fd96 	bl	80049f0 <HAL_TIM_PWM_MspInit>
#endif /* USE_HAL_TIM_REGISTER_CALLBACKS */
  }

  /* Set the TIM state */
  htim->State = HAL_TIM_STATE_BUSY;
 8006ec4:	687b      	ldr	r3, [r7, #4]
 8006ec6:	2202      	movs	r2, #2
 8006ec8:	f883 203d 	strb.w	r2, [r3, #61]	; 0x3d

  /* Init the base time for the PWM */
  TIM_Base_SetConfig(htim->Instance, &htim->Init);
 8006ecc:	687b      	ldr	r3, [r7, #4]
 8006ece:	681a      	ldr	r2, [r3, #0]
 8006ed0:	687b      	ldr	r3, [r7, #4]
 8006ed2:	3304      	adds	r3, #4
 8006ed4:	4619      	mov	r1, r3
 8006ed6:	4610      	mov	r0, r2
 8006ed8:	f000 fb86 	bl	80075e8 <TIM_Base_SetConfig>

  /* Initialize the DMA burst operation state */
  htim->DMABurstState = HAL_DMA_BURST_STATE_READY;
 8006edc:	687b      	ldr	r3, [r7, #4]
 8006ede:	2201      	movs	r2, #1
 8006ee0:	f883 2046 	strb.w	r2, [r3, #70]	; 0x46

  /* Initialize the TIM channels state */
  TIM_CHANNEL_STATE_SET_ALL(htim, HAL_TIM_CHANNEL_STATE_READY);
 8006ee4:	687b      	ldr	r3, [r7, #4]
 8006ee6:	2201      	movs	r2, #1
 8006ee8:	f883 203e 	strb.w	r2, [r3, #62]	; 0x3e
 8006eec:	687b      	ldr	r3, [r7, #4]
 8006eee:	2201      	movs	r2, #1
 8006ef0:	f883 203f 	strb.w	r2, [r3, #63]	; 0x3f
 8006ef4:	687b      	ldr	r3, [r7, #4]
 8006ef6:	2201      	movs	r2, #1
 8006ef8:	f883 2040 	strb.w	r2, [r3, #64]	; 0x40
 8006efc:	687b      	ldr	r3, [r7, #4]
 8006efe:	2201      	movs	r2, #1
 8006f00:	f883 2041 	strb.w	r2, [r3, #65]	; 0x41
  TIM_CHANNEL_N_STATE_SET_ALL(htim, HAL_TIM_CHANNEL_STATE_READY);
 8006f04:	687b      	ldr	r3, [r7, #4]
 8006f06:	2201      	movs	r2, #1
 8006f08:	f883 2042 	strb.w	r2, [r3, #66]	; 0x42
 8006f0c:	687b      	ldr	r3, [r7, #4]
 8006f0e:	2201      	movs	r2, #1
 8006f10:	f883 2043 	strb.w	r2, [r3, #67]	; 0x43
 8006f14:	687b      	ldr	r3, [r7, #4]
 8006f16:	2201      	movs	r2, #1
 8006f18:	f883 2044 	strb.w	r2, [r3, #68]	; 0x44
 8006f1c:	687b      	ldr	r3, [r7, #4]
 8006f1e:	2201      	movs	r2, #1
 8006f20:	f883 2045 	strb.w	r2, [r3, #69]	; 0x45

  /* Initialize the TIM state*/
  htim->State = HAL_TIM_STATE_READY;
 8006f24:	687b      	ldr	r3, [r7, #4]
 8006f26:	2201      	movs	r2, #1
 8006f28:	f883 203d 	strb.w	r2, [r3, #61]	; 0x3d

  return HAL_OK;
 8006f2c:	2300      	movs	r3, #0
}
 8006f2e:	4618      	mov	r0, r3
 8006f30:	3708      	adds	r7, #8
 8006f32:	46bd      	mov	sp, r7
 8006f34:	bd80      	pop	{r7, pc}
	...

08006f38 <HAL_TIM_PWM_Start>:
  *            @arg TIM_CHANNEL_3: TIM Channel 3 selected
  *            @arg TIM_CHANNEL_4: TIM Channel 4 selected
  * @retval HAL status
  */
HAL_StatusTypeDef HAL_TIM_PWM_Start(TIM_HandleTypeDef *htim, uint32_t Channel)
{
 8006f38:	b580      	push	{r7, lr}
 8006f3a:	b084      	sub	sp, #16
 8006f3c:	af00      	add	r7, sp, #0
 8006f3e:	6078      	str	r0, [r7, #4]
 8006f40:	6039      	str	r1, [r7, #0]

  /* Check the parameters */
  assert_param(IS_TIM_CCX_INSTANCE(htim->Instance, Channel));

  /* Check the TIM channel state */
  if (TIM_CHANNEL_STATE_GET(htim, Channel) != HAL_TIM_CHANNEL_STATE_READY)
 8006f42:	683b      	ldr	r3, [r7, #0]
 8006f44:	2b00      	cmp	r3, #0
 8006f46:	d109      	bne.n	8006f5c <HAL_TIM_PWM_Start+0x24>
 8006f48:	687b      	ldr	r3, [r7, #4]
 8006f4a:	f893 303e 	ldrb.w	r3, [r3, #62]	; 0x3e
 8006f4e:	b2db      	uxtb	r3, r3
 8006f50:	2b01      	cmp	r3, #1
 8006f52:	bf14      	ite	ne
 8006f54:	2301      	movne	r3, #1
 8006f56:	2300      	moveq	r3, #0
 8006f58:	b2db      	uxtb	r3, r3
 8006f5a:	e022      	b.n	8006fa2 <HAL_TIM_PWM_Start+0x6a>
 8006f5c:	683b      	ldr	r3, [r7, #0]
 8006f5e:	2b04      	cmp	r3, #4
 8006f60:	d109      	bne.n	8006f76 <HAL_TIM_PWM_Start+0x3e>
 8006f62:	687b      	ldr	r3, [r7, #4]
 8006f64:	f893 303f 	ldrb.w	r3, [r3, #63]	; 0x3f
 8006f68:	b2db      	uxtb	r3, r3
 8006f6a:	2b01      	cmp	r3, #1
 8006f6c:	bf14      	ite	ne
 8006f6e:	2301      	movne	r3, #1
 8006f70:	2300      	moveq	r3, #0
 8006f72:	b2db      	uxtb	r3, r3
 8006f74:	e015      	b.n	8006fa2 <HAL_TIM_PWM_Start+0x6a>
 8006f76:	683b      	ldr	r3, [r7, #0]
 8006f78:	2b08      	cmp	r3, #8
 8006f7a:	d109      	bne.n	8006f90 <HAL_TIM_PWM_Start+0x58>
 8006f7c:	687b      	ldr	r3, [r7, #4]
 8006f7e:	f893 3040 	ldrb.w	r3, [r3, #64]	; 0x40
 8006f82:	b2db      	uxtb	r3, r3
 8006f84:	2b01      	cmp	r3, #1
 8006f86:	bf14      	ite	ne
 8006f88:	2301      	movne	r3, #1
 8006f8a:	2300      	moveq	r3, #0
 8006f8c:	b2db      	uxtb	r3, r3
 8006f8e:	e008      	b.n	8006fa2 <HAL_TIM_PWM_Start+0x6a>
 8006f90:	687b      	ldr	r3, [r7, #4]
 8006f92:	f893 3041 	ldrb.w	r3, [r3, #65]	; 0x41
 8006f96:	b2db      	uxtb	r3, r3
 8006f98:	2b01      	cmp	r3, #1
 8006f9a:	bf14      	ite	ne
 8006f9c:	2301      	movne	r3, #1
 8006f9e:	2300      	moveq	r3, #0
 8006fa0:	b2db      	uxtb	r3, r3
 8006fa2:	2b00      	cmp	r3, #0
 8006fa4:	d001      	beq.n	8006faa <HAL_TIM_PWM_Start+0x72>
  {
    return HAL_ERROR;
 8006fa6:	2301      	movs	r3, #1
 8006fa8:	e05e      	b.n	8007068 <HAL_TIM_PWM_Start+0x130>
  }

  /* Set the TIM channel state */
  TIM_CHANNEL_STATE_SET(htim, Channel, HAL_TIM_CHANNEL_STATE_BUSY);
 8006faa:	683b      	ldr	r3, [r7, #0]
 8006fac:	2b00      	cmp	r3, #0
 8006fae:	d104      	bne.n	8006fba <HAL_TIM_PWM_Start+0x82>
 8006fb0:	687b      	ldr	r3, [r7, #4]
 8006fb2:	2202      	movs	r2, #2
 8006fb4:	f883 203e 	strb.w	r2, [r3, #62]	; 0x3e
 8006fb8:	e013      	b.n	8006fe2 <HAL_TIM_PWM_Start+0xaa>
 8006fba:	683b      	ldr	r3, [r7, #0]
 8006fbc:	2b04      	cmp	r3, #4
 8006fbe:	d104      	bne.n	8006fca <HAL_TIM_PWM_Start+0x92>
 8006fc0:	687b      	ldr	r3, [r7, #4]
 8006fc2:	2202      	movs	r2, #2
 8006fc4:	f883 203f 	strb.w	r2, [r3, #63]	; 0x3f
 8006fc8:	e00b      	b.n	8006fe2 <HAL_TIM_PWM_Start+0xaa>
 8006fca:	683b      	ldr	r3, [r7, #0]
 8006fcc:	2b08      	cmp	r3, #8
 8006fce:	d104      	bne.n	8006fda <HAL_TIM_PWM_Start+0xa2>
 8006fd0:	687b      	ldr	r3, [r7, #4]
 8006fd2:	2202      	movs	r2, #2
 8006fd4:	f883 2040 	strb.w	r2, [r3, #64]	; 0x40
 8006fd8:	e003      	b.n	8006fe2 <HAL_TIM_PWM_Start+0xaa>
 8006fda:	687b      	ldr	r3, [r7, #4]
 8006fdc:	2202      	movs	r2, #2
 8006fde:	f883 2041 	strb.w	r2, [r3, #65]	; 0x41

  /* Enable the Capture compare channel */
  TIM_CCxChannelCmd(htim->Instance, Channel, TIM_CCx_ENABLE);
 8006fe2:	687b      	ldr	r3, [r7, #4]
 8006fe4:	681b      	ldr	r3, [r3, #0]
 8006fe6:	2201      	movs	r2, #1
 8006fe8:	6839      	ldr	r1, [r7, #0]
 8006fea:	4618      	mov	r0, r3
 8006fec:	f000 fd7c 	bl	8007ae8 <TIM_CCxChannelCmd>

  if (IS_TIM_BREAK_INSTANCE(htim->Instance) != RESET)
 8006ff0:	687b      	ldr	r3, [r7, #4]
 8006ff2:	681b      	ldr	r3, [r3, #0]
 8006ff4:	4a1e      	ldr	r2, [pc, #120]	; (8007070 <HAL_TIM_PWM_Start+0x138>)
 8006ff6:	4293      	cmp	r3, r2
 8006ff8:	d107      	bne.n	800700a <HAL_TIM_PWM_Start+0xd2>
  {
    /* Enable the main output */
    __HAL_TIM_MOE_ENABLE(htim);
 8006ffa:	687b      	ldr	r3, [r7, #4]
 8006ffc:	681b      	ldr	r3, [r3, #0]
 8006ffe:	6c5a      	ldr	r2, [r3, #68]	; 0x44
 8007000:	687b      	ldr	r3, [r7, #4]
 8007002:	681b      	ldr	r3, [r3, #0]
 8007004:	f442 4200 	orr.w	r2, r2, #32768	; 0x8000
 8007008:	645a      	str	r2, [r3, #68]	; 0x44
  }

  /* Enable the Peripheral, except in trigger mode where enable is automatically done with trigger */
  if (IS_TIM_SLAVE_INSTANCE(htim->Instance))
 800700a:	687b      	ldr	r3, [r7, #4]
 800700c:	681b      	ldr	r3, [r3, #0]
 800700e:	4a18      	ldr	r2, [pc, #96]	; (8007070 <HAL_TIM_PWM_Start+0x138>)
 8007010:	4293      	cmp	r3, r2
 8007012:	d00e      	beq.n	8007032 <HAL_TIM_PWM_Start+0xfa>
 8007014:	687b      	ldr	r3, [r7, #4]
 8007016:	681b      	ldr	r3, [r3, #0]
 8007018:	f1b3 4f80 	cmp.w	r3, #1073741824	; 0x40000000
 800701c:	d009      	beq.n	8007032 <HAL_TIM_PWM_Start+0xfa>
 800701e:	687b      	ldr	r3, [r7, #4]
 8007020:	681b      	ldr	r3, [r3, #0]
 8007022:	4a14      	ldr	r2, [pc, #80]	; (8007074 <HAL_TIM_PWM_Start+0x13c>)
 8007024:	4293      	cmp	r3, r2
 8007026:	d004      	beq.n	8007032 <HAL_TIM_PWM_Start+0xfa>
 8007028:	687b      	ldr	r3, [r7, #4]
 800702a:	681b      	ldr	r3, [r3, #0]
 800702c:	4a12      	ldr	r2, [pc, #72]	; (8007078 <HAL_TIM_PWM_Start+0x140>)
 800702e:	4293      	cmp	r3, r2
 8007030:	d111      	bne.n	8007056 <HAL_TIM_PWM_Start+0x11e>
  {
    tmpsmcr = htim->Instance->SMCR & TIM_SMCR_SMS;
 8007032:	687b      	ldr	r3, [r7, #4]
 8007034:	681b      	ldr	r3, [r3, #0]
 8007036:	689b      	ldr	r3, [r3, #8]
 8007038:	f003 0307 	and.w	r3, r3, #7
 800703c:	60fb      	str	r3, [r7, #12]
    if (!IS_TIM_SLAVEMODE_TRIGGER_ENABLED(tmpsmcr))
 800703e:	68fb      	ldr	r3, [r7, #12]
 8007040:	2b06      	cmp	r3, #6
 8007042:	d010      	beq.n	8007066 <HAL_TIM_PWM_Start+0x12e>
    {
      __HAL_TIM_ENABLE(htim);
 8007044:	687b      	ldr	r3, [r7, #4]
 8007046:	681b      	ldr	r3, [r3, #0]
 8007048:	681a      	ldr	r2, [r3, #0]
 800704a:	687b      	ldr	r3, [r7, #4]
 800704c:	681b      	ldr	r3, [r3, #0]
 800704e:	f042 0201 	orr.w	r2, r2, #1
 8007052:	601a      	str	r2, [r3, #0]
    if (!IS_TIM_SLAVEMODE_TRIGGER_ENABLED(tmpsmcr))
 8007054:	e007      	b.n	8007066 <HAL_TIM_PWM_Start+0x12e>
    }
  }
  else
  {
    __HAL_TIM_ENABLE(htim);
 8007056:	687b      	ldr	r3, [r7, #4]
 8007058:	681b      	ldr	r3, [r3, #0]
 800705a:	681a      	ldr	r2, [r3, #0]
 800705c:	687b      	ldr	r3, [r7, #4]
 800705e:	681b      	ldr	r3, [r3, #0]
 8007060:	f042 0201 	orr.w	r2, r2, #1
 8007064:	601a      	str	r2, [r3, #0]
  }

  /* Return function status */
  return HAL_OK;
 8007066:	2300      	movs	r3, #0
}
 8007068:	4618      	mov	r0, r3
 800706a:	3710      	adds	r7, #16
 800706c:	46bd      	mov	sp, r7
 800706e:	bd80      	pop	{r7, pc}
 8007070:	40012c00 	.word	0x40012c00
 8007074:	40000400 	.word	0x40000400
 8007078:	40000800 	.word	0x40000800

0800707c <HAL_TIM_IRQHandler>:
  * @brief  This function handles TIM interrupts requests.
  * @param  htim TIM  handle
  * @retval None
  */
void HAL_TIM_IRQHandler(TIM_HandleTypeDef *htim)
{
 800707c:	b580      	push	{r7, lr}
 800707e:	b082      	sub	sp, #8
 8007080:	af00      	add	r7, sp, #0
 8007082:	6078      	str	r0, [r7, #4]
  /* Capture compare 1 event */
  if (__HAL_TIM_GET_FLAG(htim, TIM_FLAG_CC1) != RESET)
 8007084:	687b      	ldr	r3, [r7, #4]
 8007086:	681b      	ldr	r3, [r3, #0]
 8007088:	691b      	ldr	r3, [r3, #16]
 800708a:	f003 0302 	and.w	r3, r3, #2
 800708e:	2b02      	cmp	r3, #2
 8007090:	d122      	bne.n	80070d8 <HAL_TIM_IRQHandler+0x5c>
  {
    if (__HAL_TIM_GET_IT_SOURCE(htim, TIM_IT_CC1) != RESET)
 8007092:	687b      	ldr	r3, [r7, #4]
 8007094:	681b      	ldr	r3, [r3, #0]
 8007096:	68db      	ldr	r3, [r3, #12]
 8007098:	f003 0302 	and.w	r3, r3, #2
 800709c:	2b02      	cmp	r3, #2
 800709e:	d11b      	bne.n	80070d8 <HAL_TIM_IRQHandler+0x5c>
    {
      {
        __HAL_TIM_CLEAR_IT(htim, TIM_IT_CC1);
 80070a0:	687b      	ldr	r3, [r7, #4]
 80070a2:	681b      	ldr	r3, [r3, #0]
 80070a4:	f06f 0202 	mvn.w	r2, #2
 80070a8:	611a      	str	r2, [r3, #16]
        htim->Channel = HAL_TIM_ACTIVE_CHANNEL_1;
 80070aa:	687b      	ldr	r3, [r7, #4]
 80070ac:	2201      	movs	r2, #1
 80070ae:	771a      	strb	r2, [r3, #28]

        /* Input capture event */
        if ((htim->Instance->CCMR1 & TIM_CCMR1_CC1S) != 0x00U)
 80070b0:	687b      	ldr	r3, [r7, #4]
 80070b2:	681b      	ldr	r3, [r3, #0]
 80070b4:	699b      	ldr	r3, [r3, #24]
 80070b6:	f003 0303 	and.w	r3, r3, #3
 80070ba:	2b00      	cmp	r3, #0
 80070bc:	d003      	beq.n	80070c6 <HAL_TIM_IRQHandler+0x4a>
        {
#if (USE_HAL_TIM_REGISTER_CALLBACKS == 1)
          htim->IC_CaptureCallback(htim);
#else
          HAL_TIM_IC_CaptureCallback(htim);
 80070be:	6878      	ldr	r0, [r7, #4]
 80070c0:	f000 fa76 	bl	80075b0 <HAL_TIM_IC_CaptureCallback>
 80070c4:	e005      	b.n	80070d2 <HAL_TIM_IRQHandler+0x56>
        {
#if (USE_HAL_TIM_REGISTER_CALLBACKS == 1)
          htim->OC_DelayElapsedCallback(htim);
          htim->PWM_PulseFinishedCallback(htim);
#else
          HAL_TIM_OC_DelayElapsedCallback(htim);
 80070c6:	6878      	ldr	r0, [r7, #4]
 80070c8:	f000 fa69 	bl	800759e <HAL_TIM_OC_DelayElapsedCallback>
          HAL_TIM_PWM_PulseFinishedCallback(htim);
 80070cc:	6878      	ldr	r0, [r7, #4]
 80070ce:	f000 fa78 	bl	80075c2 <HAL_TIM_PWM_PulseFinishedCallback>
#endif /* USE_HAL_TIM_REGISTER_CALLBACKS */
        }
        htim->Channel = HAL_TIM_ACTIVE_CHANNEL_CLEARED;
 80070d2:	687b      	ldr	r3, [r7, #4]
 80070d4:	2200      	movs	r2, #0
 80070d6:	771a      	strb	r2, [r3, #28]
      }
    }
  }
  /* Capture compare 2 event */
  if (__HAL_TIM_GET_FLAG(htim, TIM_FLAG_CC2) != RESET)
 80070d8:	687b      	ldr	r3, [r7, #4]
 80070da:	681b      	ldr	r3, [r3, #0]
 80070dc:	691b      	ldr	r3, [r3, #16]
 80070de:	f003 0304 	and.w	r3, r3, #4
 80070e2:	2b04      	cmp	r3, #4
 80070e4:	d122      	bne.n	800712c <HAL_TIM_IRQHandler+0xb0>
  {
    if (__HAL_TIM_GET_IT_SOURCE(htim, TIM_IT_CC2) != RESET)
 80070e6:	687b      	ldr	r3, [r7, #4]
 80070e8:	681b      	ldr	r3, [r3, #0]
 80070ea:	68db      	ldr	r3, [r3, #12]
 80070ec:	f003 0304 	and.w	r3, r3, #4
 80070f0:	2b04      	cmp	r3, #4
 80070f2:	d11b      	bne.n	800712c <HAL_TIM_IRQHandler+0xb0>
    {
      __HAL_TIM_CLEAR_IT(htim, TIM_IT_CC2);
 80070f4:	687b      	ldr	r3, [r7, #4]
 80070f6:	681b      	ldr	r3, [r3, #0]
 80070f8:	f06f 0204 	mvn.w	r2, #4
 80070fc:	611a      	str	r2, [r3, #16]
      htim->Channel = HAL_TIM_ACTIVE_CHANNEL_2;
 80070fe:	687b      	ldr	r3, [r7, #4]
 8007100:	2202      	movs	r2, #2
 8007102:	771a      	strb	r2, [r3, #28]
      /* Input capture event */
      if ((htim->Instance->CCMR1 & TIM_CCMR1_CC2S) != 0x00U)
 8007104:	687b      	ldr	r3, [r7, #4]
 8007106:	681b      	ldr	r3, [r3, #0]
 8007108:	699b      	ldr	r3, [r3, #24]
 800710a:	f403 7340 	and.w	r3, r3, #768	; 0x300
 800710e:	2b00      	cmp	r3, #0
 8007110:	d003      	beq.n	800711a <HAL_TIM_IRQHandler+0x9e>
      {
#if (USE_HAL_TIM_REGISTER_CALLBACKS == 1)
        htim->IC_CaptureCallback(htim);
#else
        HAL_TIM_IC_CaptureCallback(htim);
 8007112:	6878      	ldr	r0, [r7, #4]
 8007114:	f000 fa4c 	bl	80075b0 <HAL_TIM_IC_CaptureCallback>
 8007118:	e005      	b.n	8007126 <HAL_TIM_IRQHandler+0xaa>
      {
#if (USE_HAL_TIM_REGISTER_CALLBACKS == 1)
        htim->OC_DelayElapsedCallback(htim);
        htim->PWM_PulseFinishedCallback(htim);
#else
        HAL_TIM_OC_DelayElapsedCallback(htim);
 800711a:	6878      	ldr	r0, [r7, #4]
 800711c:	f000 fa3f 	bl	800759e <HAL_TIM_OC_DelayElapsedCallback>
        HAL_TIM_PWM_PulseFinishedCallback(htim);
 8007120:	6878      	ldr	r0, [r7, #4]
 8007122:	f000 fa4e 	bl	80075c2 <HAL_TIM_PWM_PulseFinishedCallback>
#endif /* USE_HAL_TIM_REGISTER_CALLBACKS */
      }
      htim->Channel = HAL_TIM_ACTIVE_CHANNEL_CLEARED;
 8007126:	687b      	ldr	r3, [r7, #4]
 8007128:	2200      	movs	r2, #0
 800712a:	771a      	strb	r2, [r3, #28]
    }
  }
  /* Capture compare 3 event */
  if (__HAL_TIM_GET_FLAG(htim, TIM_FLAG_CC3) != RESET)
 800712c:	687b      	ldr	r3, [r7, #4]
 800712e:	681b      	ldr	r3, [r3, #0]
 8007130:	691b      	ldr	r3, [r3, #16]
 8007132:	f003 0308 	and.w	r3, r3, #8
 8007136:	2b08      	cmp	r3, #8
 8007138:	d122      	bne.n	8007180 <HAL_TIM_IRQHandler+0x104>
  {
    if (__HAL_TIM_GET_IT_SOURCE(htim, TIM_IT_CC3) != RESET)
 800713a:	687b      	ldr	r3, [r7, #4]
 800713c:	681b      	ldr	r3, [r3, #0]
 800713e:	68db      	ldr	r3, [r3, #12]
 8007140:	f003 0308 	and.w	r3, r3, #8
 8007144:	2b08      	cmp	r3, #8
 8007146:	d11b      	bne.n	8007180 <HAL_TIM_IRQHandler+0x104>
    {
      __HAL_TIM_CLEAR_IT(htim, TIM_IT_CC3);
 8007148:	687b      	ldr	r3, [r7, #4]
 800714a:	681b      	ldr	r3, [r3, #0]
 800714c:	f06f 0208 	mvn.w	r2, #8
 8007150:	611a      	str	r2, [r3, #16]
      htim->Channel = HAL_TIM_ACTIVE_CHANNEL_3;
 8007152:	687b      	ldr	r3, [r7, #4]
 8007154:	2204      	movs	r2, #4
 8007156:	771a      	strb	r2, [r3, #28]
      /* Input capture event */
      if ((htim->Instance->CCMR2 & TIM_CCMR2_CC3S) != 0x00U)
 8007158:	687b      	ldr	r3, [r7, #4]
 800715a:	681b      	ldr	r3, [r3, #0]
 800715c:	69db      	ldr	r3, [r3, #28]
 800715e:	f003 0303 	and.w	r3, r3, #3
 8007162:	2b00      	cmp	r3, #0
 8007164:	d003      	beq.n	800716e <HAL_TIM_IRQHandler+0xf2>
      {
#if (USE_HAL_TIM_REGISTER_CALLBACKS == 1)
        htim->IC_CaptureCallback(htim);
#else
        HAL_TIM_IC_CaptureCallback(htim);
 8007166:	6878      	ldr	r0, [r7, #4]
 8007168:	f000 fa22 	bl	80075b0 <HAL_TIM_IC_CaptureCallback>
 800716c:	e005      	b.n	800717a <HAL_TIM_IRQHandler+0xfe>
      {
#if (USE_HAL_TIM_REGISTER_CALLBACKS == 1)
        htim->OC_DelayElapsedCallback(htim);
        htim->PWM_PulseFinishedCallback(htim);
#else
        HAL_TIM_OC_DelayElapsedCallback(htim);
 800716e:	6878      	ldr	r0, [r7, #4]
 8007170:	f000 fa15 	bl	800759e <HAL_TIM_OC_DelayElapsedCallback>
        HAL_TIM_PWM_PulseFinishedCallback(htim);
 8007174:	6878      	ldr	r0, [r7, #4]
 8007176:	f000 fa24 	bl	80075c2 <HAL_TIM_PWM_PulseFinishedCallback>
#endif /* USE_HAL_TIM_REGISTER_CALLBACKS */
      }
      htim->Channel = HAL_TIM_ACTIVE_CHANNEL_CLEARED;
 800717a:	687b      	ldr	r3, [r7, #4]
 800717c:	2200      	movs	r2, #0
 800717e:	771a      	strb	r2, [r3, #28]
    }
  }
  /* Capture compare 4 event */
  if (__HAL_TIM_GET_FLAG(htim, TIM_FLAG_CC4) != RESET)
 8007180:	687b      	ldr	r3, [r7, #4]
 8007182:	681b      	ldr	r3, [r3, #0]
 8007184:	691b      	ldr	r3, [r3, #16]
 8007186:	f003 0310 	and.w	r3, r3, #16
 800718a:	2b10      	cmp	r3, #16
 800718c:	d122      	bne.n	80071d4 <HAL_TIM_IRQHandler+0x158>
  {
    if (__HAL_TIM_GET_IT_SOURCE(htim, TIM_IT_CC4) != RESET)
 800718e:	687b      	ldr	r3, [r7, #4]
 8007190:	681b      	ldr	r3, [r3, #0]
 8007192:	68db      	ldr	r3, [r3, #12]
 8007194:	f003 0310 	and.w	r3, r3, #16
 8007198:	2b10      	cmp	r3, #16
 800719a:	d11b      	bne.n	80071d4 <HAL_TIM_IRQHandler+0x158>
    {
      __HAL_TIM_CLEAR_IT(htim, TIM_IT_CC4);
 800719c:	687b      	ldr	r3, [r7, #4]
 800719e:	681b      	ldr	r3, [r3, #0]
 80071a0:	f06f 0210 	mvn.w	r2, #16
 80071a4:	611a      	str	r2, [r3, #16]
      htim->Channel = HAL_TIM_ACTIVE_CHANNEL_4;
 80071a6:	687b      	ldr	r3, [r7, #4]
 80071a8:	2208      	movs	r2, #8
 80071aa:	771a      	strb	r2, [r3, #28]
      /* Input capture event */
      if ((htim->Instance->CCMR2 & TIM_CCMR2_CC4S) != 0x00U)
 80071ac:	687b      	ldr	r3, [r7, #4]
 80071ae:	681b      	ldr	r3, [r3, #0]
 80071b0:	69db      	ldr	r3, [r3, #28]
 80071b2:	f403 7340 	and.w	r3, r3, #768	; 0x300
 80071b6:	2b00      	cmp	r3, #0
 80071b8:	d003      	beq.n	80071c2 <HAL_TIM_IRQHandler+0x146>
      {
#if (USE_HAL_TIM_REGISTER_CALLBACKS == 1)
        htim->IC_CaptureCallback(htim);
#else
        HAL_TIM_IC_CaptureCallback(htim);
 80071ba:	6878      	ldr	r0, [r7, #4]
 80071bc:	f000 f9f8 	bl	80075b0 <HAL_TIM_IC_CaptureCallback>
 80071c0:	e005      	b.n	80071ce <HAL_TIM_IRQHandler+0x152>
      {
#if (USE_HAL_TIM_REGISTER_CALLBACKS == 1)
        htim->OC_DelayElapsedCallback(htim);
        htim->PWM_PulseFinishedCallback(htim);
#else
        HAL_TIM_OC_DelayElapsedCallback(htim);
 80071c2:	6878      	ldr	r0, [r7, #4]
 80071c4:	f000 f9eb 	bl	800759e <HAL_TIM_OC_DelayElapsedCallback>
        HAL_TIM_PWM_PulseFinishedCallback(htim);
 80071c8:	6878      	ldr	r0, [r7, #4]
 80071ca:	f000 f9fa 	bl	80075c2 <HAL_TIM_PWM_PulseFinishedCallback>
#endif /* USE_HAL_TIM_REGISTER_CALLBACKS */
      }
      htim->Channel = HAL_TIM_ACTIVE_CHANNEL_CLEARED;
 80071ce:	687b      	ldr	r3, [r7, #4]
 80071d0:	2200      	movs	r2, #0
 80071d2:	771a      	strb	r2, [r3, #28]
    }
  }
  /* TIM Update event */
  if (__HAL_TIM_GET_FLAG(htim, TIM_FLAG_UPDATE) != RESET)
 80071d4:	687b      	ldr	r3, [r7, #4]
 80071d6:	681b      	ldr	r3, [r3, #0]
 80071d8:	691b      	ldr	r3, [r3, #16]
 80071da:	f003 0301 	and.w	r3, r3, #1
 80071de:	2b01      	cmp	r3, #1
 80071e0:	d10e      	bne.n	8007200 <HAL_TIM_IRQHandler+0x184>
  {
    if (__HAL_TIM_GET_IT_SOURCE(htim, TIM_IT_UPDATE) != RESET)
 80071e2:	687b      	ldr	r3, [r7, #4]
 80071e4:	681b      	ldr	r3, [r3, #0]
 80071e6:	68db      	ldr	r3, [r3, #12]
 80071e8:	f003 0301 	and.w	r3, r3, #1
 80071ec:	2b01      	cmp	r3, #1
 80071ee:	d107      	bne.n	8007200 <HAL_TIM_IRQHandler+0x184>
    {
      __HAL_TIM_CLEAR_IT(htim, TIM_IT_UPDATE);
 80071f0:	687b      	ldr	r3, [r7, #4]
 80071f2:	681b      	ldr	r3, [r3, #0]
 80071f4:	f06f 0201 	mvn.w	r2, #1
 80071f8:	611a      	str	r2, [r3, #16]
#if (USE_HAL_TIM_REGISTER_CALLBACKS == 1)
      htim->PeriodElapsedCallback(htim);
#else
      HAL_TIM_PeriodElapsedCallback(htim);
 80071fa:	6878      	ldr	r0, [r7, #4]
 80071fc:	f7fa f932 	bl	8001464 <HAL_TIM_PeriodElapsedCallback>
#endif /* USE_HAL_TIM_REGISTER_CALLBACKS */
    }
  }
  /* TIM Break input event */
  if (__HAL_TIM_GET_FLAG(htim, TIM_FLAG_BREAK) != RESET)
 8007200:	687b      	ldr	r3, [r7, #4]
 8007202:	681b      	ldr	r3, [r3, #0]
 8007204:	691b      	ldr	r3, [r3, #16]
 8007206:	f003 0380 	and.w	r3, r3, #128	; 0x80
 800720a:	2b80      	cmp	r3, #128	; 0x80
 800720c:	d10e      	bne.n	800722c <HAL_TIM_IRQHandler+0x1b0>
  {
    if (__HAL_TIM_GET_IT_SOURCE(htim, TIM_IT_BREAK) != RESET)
 800720e:	687b      	ldr	r3, [r7, #4]
 8007210:	681b      	ldr	r3, [r3, #0]
 8007212:	68db      	ldr	r3, [r3, #12]
 8007214:	f003 0380 	and.w	r3, r3, #128	; 0x80
 8007218:	2b80      	cmp	r3, #128	; 0x80
 800721a:	d107      	bne.n	800722c <HAL_TIM_IRQHandler+0x1b0>
    {
      __HAL_TIM_CLEAR_IT(htim, TIM_IT_BREAK);
 800721c:	687b      	ldr	r3, [r7, #4]
 800721e:	681b      	ldr	r3, [r3, #0]
 8007220:	f06f 0280 	mvn.w	r2, #128	; 0x80
 8007224:	611a      	str	r2, [r3, #16]
#if (USE_HAL_TIM_REGISTER_CALLBACKS == 1)
      htim->BreakCallback(htim);
#else
      HAL_TIMEx_BreakCallback(htim);
 8007226:	6878      	ldr	r0, [r7, #4]
 8007228:	f000 fce9 	bl	8007bfe <HAL_TIMEx_BreakCallback>
#endif /* USE_HAL_TIM_REGISTER_CALLBACKS */
    }
  }
  /* TIM Trigger detection event */
  if (__HAL_TIM_GET_FLAG(htim, TIM_FLAG_TRIGGER) != RESET)
 800722c:	687b      	ldr	r3, [r7, #4]
 800722e:	681b      	ldr	r3, [r3, #0]
 8007230:	691b      	ldr	r3, [r3, #16]
 8007232:	f003 0340 	and.w	r3, r3, #64	; 0x40
 8007236:	2b40      	cmp	r3, #64	; 0x40
 8007238:	d10e      	bne.n	8007258 <HAL_TIM_IRQHandler+0x1dc>
  {
    if (__HAL_TIM_GET_IT_SOURCE(htim, TIM_IT_TRIGGER) != RESET)
 800723a:	687b      	ldr	r3, [r7, #4]
 800723c:	681b      	ldr	r3, [r3, #0]
 800723e:	68db      	ldr	r3, [r3, #12]
 8007240:	f003 0340 	and.w	r3, r3, #64	; 0x40
 8007244:	2b40      	cmp	r3, #64	; 0x40
 8007246:	d107      	bne.n	8007258 <HAL_TIM_IRQHandler+0x1dc>
    {
      __HAL_TIM_CLEAR_IT(htim, TIM_IT_TRIGGER);
 8007248:	687b      	ldr	r3, [r7, #4]
 800724a:	681b      	ldr	r3, [r3, #0]
 800724c:	f06f 0240 	mvn.w	r2, #64	; 0x40
 8007250:	611a      	str	r2, [r3, #16]
#if (USE_HAL_TIM_REGISTER_CALLBACKS == 1)
      htim->TriggerCallback(htim);
#else
      HAL_TIM_TriggerCallback(htim);
 8007252:	6878      	ldr	r0, [r7, #4]
 8007254:	f000 f9be 	bl	80075d4 <HAL_TIM_TriggerCallback>
#endif /* USE_HAL_TIM_REGISTER_CALLBACKS */
    }
  }
  /* TIM commutation event */
  if (__HAL_TIM_GET_FLAG(htim, TIM_FLAG_COM) != RESET)
 8007258:	687b      	ldr	r3, [r7, #4]
 800725a:	681b      	ldr	r3, [r3, #0]
 800725c:	691b      	ldr	r3, [r3, #16]
 800725e:	f003 0320 	and.w	r3, r3, #32
 8007262:	2b20      	cmp	r3, #32
 8007264:	d10e      	bne.n	8007284 <HAL_TIM_IRQHandler+0x208>
  {
    if (__HAL_TIM_GET_IT_SOURCE(htim, TIM_IT_COM) != RESET)
 8007266:	687b      	ldr	r3, [r7, #4]
 8007268:	681b      	ldr	r3, [r3, #0]
 800726a:	68db      	ldr	r3, [r3, #12]
 800726c:	f003 0320 	and.w	r3, r3, #32
 8007270:	2b20      	cmp	r3, #32
 8007272:	d107      	bne.n	8007284 <HAL_TIM_IRQHandler+0x208>
    {
      __HAL_TIM_CLEAR_IT(htim, TIM_FLAG_COM);
 8007274:	687b      	ldr	r3, [r7, #4]
 8007276:	681b      	ldr	r3, [r3, #0]
 8007278:	f06f 0220 	mvn.w	r2, #32
 800727c:	611a      	str	r2, [r3, #16]
#if (USE_HAL_TIM_REGISTER_CALLBACKS == 1)
      htim->CommutationCallback(htim);
#else
      HAL_TIMEx_CommutCallback(htim);
 800727e:	6878      	ldr	r0, [r7, #4]
 8007280:	f000 fcb4 	bl	8007bec <HAL_TIMEx_CommutCallback>
#endif /* USE_HAL_TIM_REGISTER_CALLBACKS */
    }
  }
}
 8007284:	bf00      	nop
 8007286:	3708      	adds	r7, #8
 8007288:	46bd      	mov	sp, r7
 800728a:	bd80      	pop	{r7, pc}

0800728c <HAL_TIM_PWM_ConfigChannel>:
  * @retval HAL status
  */
HAL_StatusTypeDef HAL_TIM_PWM_ConfigChannel(TIM_HandleTypeDef *htim,
                                            const TIM_OC_InitTypeDef *sConfig,
                                            uint32_t Channel)
{
 800728c:	b580      	push	{r7, lr}
 800728e:	b086      	sub	sp, #24
 8007290:	af00      	add	r7, sp, #0
 8007292:	60f8      	str	r0, [r7, #12]
 8007294:	60b9      	str	r1, [r7, #8]
 8007296:	607a      	str	r2, [r7, #4]
  HAL_StatusTypeDef status = HAL_OK;
 8007298:	2300      	movs	r3, #0
 800729a:	75fb      	strb	r3, [r7, #23]
  assert_param(IS_TIM_PWM_MODE(sConfig->OCMode));
  assert_param(IS_TIM_OC_POLARITY(sConfig->OCPolarity));
  assert_param(IS_TIM_FAST_STATE(sConfig->OCFastMode));

  /* Process Locked */
  __HAL_LOCK(htim);
 800729c:	68fb      	ldr	r3, [r7, #12]
 800729e:	f893 303c 	ldrb.w	r3, [r3, #60]	; 0x3c
 80072a2:	2b01      	cmp	r3, #1
 80072a4:	d101      	bne.n	80072aa <HAL_TIM_PWM_ConfigChannel+0x1e>
 80072a6:	2302      	movs	r3, #2
 80072a8:	e0ae      	b.n	8007408 <HAL_TIM_PWM_ConfigChannel+0x17c>
 80072aa:	68fb      	ldr	r3, [r7, #12]
 80072ac:	2201      	movs	r2, #1
 80072ae:	f883 203c 	strb.w	r2, [r3, #60]	; 0x3c

  switch (Channel)
 80072b2:	687b      	ldr	r3, [r7, #4]
 80072b4:	2b0c      	cmp	r3, #12
 80072b6:	f200 809f 	bhi.w	80073f8 <HAL_TIM_PWM_ConfigChannel+0x16c>
 80072ba:	a201      	add	r2, pc, #4	; (adr r2, 80072c0 <HAL_TIM_PWM_ConfigChannel+0x34>)
 80072bc:	f852 f023 	ldr.w	pc, [r2, r3, lsl #2]
 80072c0:	080072f5 	.word	0x080072f5
 80072c4:	080073f9 	.word	0x080073f9
 80072c8:	080073f9 	.word	0x080073f9
 80072cc:	080073f9 	.word	0x080073f9
 80072d0:	08007335 	.word	0x08007335
 80072d4:	080073f9 	.word	0x080073f9
 80072d8:	080073f9 	.word	0x080073f9
 80072dc:	080073f9 	.word	0x080073f9
 80072e0:	08007377 	.word	0x08007377
 80072e4:	080073f9 	.word	0x080073f9
 80072e8:	080073f9 	.word	0x080073f9
 80072ec:	080073f9 	.word	0x080073f9
 80072f0:	080073b7 	.word	0x080073b7
    {
      /* Check the parameters */
      assert_param(IS_TIM_CC1_INSTANCE(htim->Instance));

      /* Configure the Channel 1 in PWM mode */
      TIM_OC1_SetConfig(htim->Instance, sConfig);
 80072f4:	68fb      	ldr	r3, [r7, #12]
 80072f6:	681b      	ldr	r3, [r3, #0]
 80072f8:	68b9      	ldr	r1, [r7, #8]
 80072fa:	4618      	mov	r0, r3
 80072fc:	f000 f9d6 	bl	80076ac <TIM_OC1_SetConfig>

      /* Set the Preload enable bit for channel1 */
      htim->Instance->CCMR1 |= TIM_CCMR1_OC1PE;
 8007300:	68fb      	ldr	r3, [r7, #12]
 8007302:	681b      	ldr	r3, [r3, #0]
 8007304:	699a      	ldr	r2, [r3, #24]
 8007306:	68fb      	ldr	r3, [r7, #12]
 8007308:	681b      	ldr	r3, [r3, #0]
 800730a:	f042 0208 	orr.w	r2, r2, #8
 800730e:	619a      	str	r2, [r3, #24]

      /* Configure the Output Fast mode */
      htim->Instance->CCMR1 &= ~TIM_CCMR1_OC1FE;
 8007310:	68fb      	ldr	r3, [r7, #12]
 8007312:	681b      	ldr	r3, [r3, #0]
 8007314:	699a      	ldr	r2, [r3, #24]
 8007316:	68fb      	ldr	r3, [r7, #12]
 8007318:	681b      	ldr	r3, [r3, #0]
 800731a:	f022 0204 	bic.w	r2, r2, #4
 800731e:	619a      	str	r2, [r3, #24]
      htim->Instance->CCMR1 |= sConfig->OCFastMode;
 8007320:	68fb      	ldr	r3, [r7, #12]
 8007322:	681b      	ldr	r3, [r3, #0]
 8007324:	6999      	ldr	r1, [r3, #24]
 8007326:	68bb      	ldr	r3, [r7, #8]
 8007328:	691a      	ldr	r2, [r3, #16]
 800732a:	68fb      	ldr	r3, [r7, #12]
 800732c:	681b      	ldr	r3, [r3, #0]
 800732e:	430a      	orrs	r2, r1
 8007330:	619a      	str	r2, [r3, #24]
      break;
 8007332:	e064      	b.n	80073fe <HAL_TIM_PWM_ConfigChannel+0x172>
    {
      /* Check the parameters */
      assert_param(IS_TIM_CC2_INSTANCE(htim->Instance));

      /* Configure the Channel 2 in PWM mode */
      TIM_OC2_SetConfig(htim->Instance, sConfig);
 8007334:	68fb      	ldr	r3, [r7, #12]
 8007336:	681b      	ldr	r3, [r3, #0]
 8007338:	68b9      	ldr	r1, [r7, #8]
 800733a:	4618      	mov	r0, r3
 800733c:	f000 fa1c 	bl	8007778 <TIM_OC2_SetConfig>

      /* Set the Preload enable bit for channel2 */
      htim->Instance->CCMR1 |= TIM_CCMR1_OC2PE;
 8007340:	68fb      	ldr	r3, [r7, #12]
 8007342:	681b      	ldr	r3, [r3, #0]
 8007344:	699a      	ldr	r2, [r3, #24]
 8007346:	68fb      	ldr	r3, [r7, #12]
 8007348:	681b      	ldr	r3, [r3, #0]
 800734a:	f442 6200 	orr.w	r2, r2, #2048	; 0x800
 800734e:	619a      	str	r2, [r3, #24]

      /* Configure the Output Fast mode */
      htim->Instance->CCMR1 &= ~TIM_CCMR1_OC2FE;
 8007350:	68fb      	ldr	r3, [r7, #12]
 8007352:	681b      	ldr	r3, [r3, #0]
 8007354:	699a      	ldr	r2, [r3, #24]
 8007356:	68fb      	ldr	r3, [r7, #12]
 8007358:	681b      	ldr	r3, [r3, #0]
 800735a:	f422 6280 	bic.w	r2, r2, #1024	; 0x400
 800735e:	619a      	str	r2, [r3, #24]
      htim->Instance->CCMR1 |= sConfig->OCFastMode << 8U;
 8007360:	68fb      	ldr	r3, [r7, #12]
 8007362:	681b      	ldr	r3, [r3, #0]
 8007364:	6999      	ldr	r1, [r3, #24]
 8007366:	68bb      	ldr	r3, [r7, #8]
 8007368:	691b      	ldr	r3, [r3, #16]
 800736a:	021a      	lsls	r2, r3, #8
 800736c:	68fb      	ldr	r3, [r7, #12]
 800736e:	681b      	ldr	r3, [r3, #0]
 8007370:	430a      	orrs	r2, r1
 8007372:	619a      	str	r2, [r3, #24]
      break;
 8007374:	e043      	b.n	80073fe <HAL_TIM_PWM_ConfigChannel+0x172>
    {
      /* Check the parameters */
      assert_param(IS_TIM_CC3_INSTANCE(htim->Instance));

      /* Configure the Channel 3 in PWM mode */
      TIM_OC3_SetConfig(htim->Instance, sConfig);
 8007376:	68fb      	ldr	r3, [r7, #12]
 8007378:	681b      	ldr	r3, [r3, #0]
 800737a:	68b9      	ldr	r1, [r7, #8]
 800737c:	4618      	mov	r0, r3
 800737e:	f000 fa65 	bl	800784c <TIM_OC3_SetConfig>

      /* Set the Preload enable bit for channel3 */
      htim->Instance->CCMR2 |= TIM_CCMR2_OC3PE;
 8007382:	68fb      	ldr	r3, [r7, #12]
 8007384:	681b      	ldr	r3, [r3, #0]
 8007386:	69da      	ldr	r2, [r3, #28]
 8007388:	68fb      	ldr	r3, [r7, #12]
 800738a:	681b      	ldr	r3, [r3, #0]
 800738c:	f042 0208 	orr.w	r2, r2, #8
 8007390:	61da      	str	r2, [r3, #28]

      /* Configure the Output Fast mode */
      htim->Instance->CCMR2 &= ~TIM_CCMR2_OC3FE;
 8007392:	68fb      	ldr	r3, [r7, #12]
 8007394:	681b      	ldr	r3, [r3, #0]
 8007396:	69da      	ldr	r2, [r3, #28]
 8007398:	68fb      	ldr	r3, [r7, #12]
 800739a:	681b      	ldr	r3, [r3, #0]
 800739c:	f022 0204 	bic.w	r2, r2, #4
 80073a0:	61da      	str	r2, [r3, #28]
      htim->Instance->CCMR2 |= sConfig->OCFastMode;
 80073a2:	68fb      	ldr	r3, [r7, #12]
 80073a4:	681b      	ldr	r3, [r3, #0]
 80073a6:	69d9      	ldr	r1, [r3, #28]
 80073a8:	68bb      	ldr	r3, [r7, #8]
 80073aa:	691a      	ldr	r2, [r3, #16]
 80073ac:	68fb      	ldr	r3, [r7, #12]
 80073ae:	681b      	ldr	r3, [r3, #0]
 80073b0:	430a      	orrs	r2, r1
 80073b2:	61da      	str	r2, [r3, #28]
      break;
 80073b4:	e023      	b.n	80073fe <HAL_TIM_PWM_ConfigChannel+0x172>
    {
      /* Check the parameters */
      assert_param(IS_TIM_CC4_INSTANCE(htim->Instance));

      /* Configure the Channel 4 in PWM mode */
      TIM_OC4_SetConfig(htim->Instance, sConfig);
 80073b6:	68fb      	ldr	r3, [r7, #12]
 80073b8:	681b      	ldr	r3, [r3, #0]
 80073ba:	68b9      	ldr	r1, [r7, #8]
 80073bc:	4618      	mov	r0, r3
 80073be:	f000 faaf 	bl	8007920 <TIM_OC4_SetConfig>

      /* Set the Preload enable bit for channel4 */
      htim->Instance->CCMR2 |= TIM_CCMR2_OC4PE;
 80073c2:	68fb      	ldr	r3, [r7, #12]
 80073c4:	681b      	ldr	r3, [r3, #0]
 80073c6:	69da      	ldr	r2, [r3, #28]
 80073c8:	68fb      	ldr	r3, [r7, #12]
 80073ca:	681b      	ldr	r3, [r3, #0]
 80073cc:	f442 6200 	orr.w	r2, r2, #2048	; 0x800
 80073d0:	61da      	str	r2, [r3, #28]

      /* Configure the Output Fast mode */
      htim->Instance->CCMR2 &= ~TIM_CCMR2_OC4FE;
 80073d2:	68fb      	ldr	r3, [r7, #12]
 80073d4:	681b      	ldr	r3, [r3, #0]
 80073d6:	69da      	ldr	r2, [r3, #28]
 80073d8:	68fb      	ldr	r3, [r7, #12]
 80073da:	681b      	ldr	r3, [r3, #0]
 80073dc:	f422 6280 	bic.w	r2, r2, #1024	; 0x400
 80073e0:	61da      	str	r2, [r3, #28]
      htim->Instance->CCMR2 |= sConfig->OCFastMode << 8U;
 80073e2:	68fb      	ldr	r3, [r7, #12]
 80073e4:	681b      	ldr	r3, [r3, #0]
 80073e6:	69d9      	ldr	r1, [r3, #28]
 80073e8:	68bb      	ldr	r3, [r7, #8]
 80073ea:	691b      	ldr	r3, [r3, #16]
 80073ec:	021a      	lsls	r2, r3, #8
 80073ee:	68fb      	ldr	r3, [r7, #12]
 80073f0:	681b      	ldr	r3, [r3, #0]
 80073f2:	430a      	orrs	r2, r1
 80073f4:	61da      	str	r2, [r3, #28]
      break;
 80073f6:	e002      	b.n	80073fe <HAL_TIM_PWM_ConfigChannel+0x172>
    }

    default:
      status = HAL_ERROR;
 80073f8:	2301      	movs	r3, #1
 80073fa:	75fb      	strb	r3, [r7, #23]
      break;
 80073fc:	bf00      	nop
  }

  __HAL_UNLOCK(htim);
 80073fe:	68fb      	ldr	r3, [r7, #12]
 8007400:	2200      	movs	r2, #0
 8007402:	f883 203c 	strb.w	r2, [r3, #60]	; 0x3c

  return status;
 8007406:	7dfb      	ldrb	r3, [r7, #23]
}
 8007408:	4618      	mov	r0, r3
 800740a:	3718      	adds	r7, #24
 800740c:	46bd      	mov	sp, r7
 800740e:	bd80      	pop	{r7, pc}

08007410 <HAL_TIM_ConfigClockSource>:
  * @param  sClockSourceConfig pointer to a TIM_ClockConfigTypeDef structure that
  *         contains the clock source information for the TIM peripheral.
  * @retval HAL status
  */
HAL_StatusTypeDef HAL_TIM_ConfigClockSource(TIM_HandleTypeDef *htim, const TIM_ClockConfigTypeDef *sClockSourceConfig)
{
 8007410:	b580      	push	{r7, lr}
 8007412:	b084      	sub	sp, #16
 8007414:	af00      	add	r7, sp, #0
 8007416:	6078      	str	r0, [r7, #4]
 8007418:	6039      	str	r1, [r7, #0]
  HAL_StatusTypeDef status = HAL_OK;
 800741a:	2300      	movs	r3, #0
 800741c:	73fb      	strb	r3, [r7, #15]
  uint32_t tmpsmcr;

  /* Process Locked */
  __HAL_LOCK(htim);
 800741e:	687b      	ldr	r3, [r7, #4]
 8007420:	f893 303c 	ldrb.w	r3, [r3, #60]	; 0x3c
 8007424:	2b01      	cmp	r3, #1
 8007426:	d101      	bne.n	800742c <HAL_TIM_ConfigClockSource+0x1c>
 8007428:	2302      	movs	r3, #2
 800742a:	e0b4      	b.n	8007596 <HAL_TIM_ConfigClockSource+0x186>
 800742c:	687b      	ldr	r3, [r7, #4]
 800742e:	2201      	movs	r2, #1
 8007430:	f883 203c 	strb.w	r2, [r3, #60]	; 0x3c

  htim->State = HAL_TIM_STATE_BUSY;
 8007434:	687b      	ldr	r3, [r7, #4]
 8007436:	2202      	movs	r2, #2
 8007438:	f883 203d 	strb.w	r2, [r3, #61]	; 0x3d

  /* Check the parameters */
  assert_param(IS_TIM_CLOCKSOURCE(sClockSourceConfig->ClockSource));

  /* Reset the SMS, TS, ECE, ETPS and ETRF bits */
  tmpsmcr = htim->Instance->SMCR;
 800743c:	687b      	ldr	r3, [r7, #4]
 800743e:	681b      	ldr	r3, [r3, #0]
 8007440:	689b      	ldr	r3, [r3, #8]
 8007442:	60bb      	str	r3, [r7, #8]
  tmpsmcr &= ~(TIM_SMCR_SMS | TIM_SMCR_TS);
 8007444:	68bb      	ldr	r3, [r7, #8]
 8007446:	f023 0377 	bic.w	r3, r3, #119	; 0x77
 800744a:	60bb      	str	r3, [r7, #8]
  tmpsmcr &= ~(TIM_SMCR_ETF | TIM_SMCR_ETPS | TIM_SMCR_ECE | TIM_SMCR_ETP);
 800744c:	68bb      	ldr	r3, [r7, #8]
 800744e:	f423 437f 	bic.w	r3, r3, #65280	; 0xff00
 8007452:	60bb      	str	r3, [r7, #8]
  htim->Instance->SMCR = tmpsmcr;
 8007454:	687b      	ldr	r3, [r7, #4]
 8007456:	681b      	ldr	r3, [r3, #0]
 8007458:	68ba      	ldr	r2, [r7, #8]
 800745a:	609a      	str	r2, [r3, #8]

  switch (sClockSourceConfig->ClockSource)
 800745c:	683b      	ldr	r3, [r7, #0]
 800745e:	681b      	ldr	r3, [r3, #0]
 8007460:	f5b3 5f00 	cmp.w	r3, #8192	; 0x2000
 8007464:	d03e      	beq.n	80074e4 <HAL_TIM_ConfigClockSource+0xd4>
 8007466:	f5b3 5f00 	cmp.w	r3, #8192	; 0x2000
 800746a:	f200 8087 	bhi.w	800757c <HAL_TIM_ConfigClockSource+0x16c>
 800746e:	f5b3 5f80 	cmp.w	r3, #4096	; 0x1000
 8007472:	f000 8086 	beq.w	8007582 <HAL_TIM_ConfigClockSource+0x172>
 8007476:	f5b3 5f80 	cmp.w	r3, #4096	; 0x1000
 800747a:	d87f      	bhi.n	800757c <HAL_TIM_ConfigClockSource+0x16c>
 800747c:	2b70      	cmp	r3, #112	; 0x70
 800747e:	d01a      	beq.n	80074b6 <HAL_TIM_ConfigClockSource+0xa6>
 8007480:	2b70      	cmp	r3, #112	; 0x70
 8007482:	d87b      	bhi.n	800757c <HAL_TIM_ConfigClockSource+0x16c>
 8007484:	2b60      	cmp	r3, #96	; 0x60
 8007486:	d050      	beq.n	800752a <HAL_TIM_ConfigClockSource+0x11a>
 8007488:	2b60      	cmp	r3, #96	; 0x60
 800748a:	d877      	bhi.n	800757c <HAL_TIM_ConfigClockSource+0x16c>
 800748c:	2b50      	cmp	r3, #80	; 0x50
 800748e:	d03c      	beq.n	800750a <HAL_TIM_ConfigClockSource+0xfa>
 8007490:	2b50      	cmp	r3, #80	; 0x50
 8007492:	d873      	bhi.n	800757c <HAL_TIM_ConfigClockSource+0x16c>
 8007494:	2b40      	cmp	r3, #64	; 0x40
 8007496:	d058      	beq.n	800754a <HAL_TIM_ConfigClockSource+0x13a>
 8007498:	2b40      	cmp	r3, #64	; 0x40
 800749a:	d86f      	bhi.n	800757c <HAL_TIM_ConfigClockSource+0x16c>
 800749c:	2b30      	cmp	r3, #48	; 0x30
 800749e:	d064      	beq.n	800756a <HAL_TIM_ConfigClockSource+0x15a>
 80074a0:	2b30      	cmp	r3, #48	; 0x30
 80074a2:	d86b      	bhi.n	800757c <HAL_TIM_ConfigClockSource+0x16c>
 80074a4:	2b20      	cmp	r3, #32
 80074a6:	d060      	beq.n	800756a <HAL_TIM_ConfigClockSource+0x15a>
 80074a8:	2b20      	cmp	r3, #32
 80074aa:	d867      	bhi.n	800757c <HAL_TIM_ConfigClockSource+0x16c>
 80074ac:	2b00      	cmp	r3, #0
 80074ae:	d05c      	beq.n	800756a <HAL_TIM_ConfigClockSource+0x15a>
 80074b0:	2b10      	cmp	r3, #16
 80074b2:	d05a      	beq.n	800756a <HAL_TIM_ConfigClockSource+0x15a>
 80074b4:	e062      	b.n	800757c <HAL_TIM_ConfigClockSource+0x16c>
      assert_param(IS_TIM_CLOCKPRESCALER(sClockSourceConfig->ClockPrescaler));
      assert_param(IS_TIM_CLOCKPOLARITY(sClockSourceConfig->ClockPolarity));
      assert_param(IS_TIM_CLOCKFILTER(sClockSourceConfig->ClockFilter));

      /* Configure the ETR Clock source */
      TIM_ETR_SetConfig(htim->Instance,
 80074b6:	687b      	ldr	r3, [r7, #4]
 80074b8:	6818      	ldr	r0, [r3, #0]
                        sClockSourceConfig->ClockPrescaler,
 80074ba:	683b      	ldr	r3, [r7, #0]
 80074bc:	6899      	ldr	r1, [r3, #8]
                        sClockSourceConfig->ClockPolarity,
 80074be:	683b      	ldr	r3, [r7, #0]
 80074c0:	685a      	ldr	r2, [r3, #4]
                        sClockSourceConfig->ClockFilter);
 80074c2:	683b      	ldr	r3, [r7, #0]
 80074c4:	68db      	ldr	r3, [r3, #12]
      TIM_ETR_SetConfig(htim->Instance,
 80074c6:	f000 faf0 	bl	8007aaa <TIM_ETR_SetConfig>

      /* Select the External clock mode1 and the ETRF trigger */
      tmpsmcr = htim->Instance->SMCR;
 80074ca:	687b      	ldr	r3, [r7, #4]
 80074cc:	681b      	ldr	r3, [r3, #0]
 80074ce:	689b      	ldr	r3, [r3, #8]
 80074d0:	60bb      	str	r3, [r7, #8]
      tmpsmcr |= (TIM_SLAVEMODE_EXTERNAL1 | TIM_CLOCKSOURCE_ETRMODE1);
 80074d2:	68bb      	ldr	r3, [r7, #8]
 80074d4:	f043 0377 	orr.w	r3, r3, #119	; 0x77
 80074d8:	60bb      	str	r3, [r7, #8]
      /* Write to TIMx SMCR */
      htim->Instance->SMCR = tmpsmcr;
 80074da:	687b      	ldr	r3, [r7, #4]
 80074dc:	681b      	ldr	r3, [r3, #0]
 80074de:	68ba      	ldr	r2, [r7, #8]
 80074e0:	609a      	str	r2, [r3, #8]
      break;
 80074e2:	e04f      	b.n	8007584 <HAL_TIM_ConfigClockSource+0x174>
      assert_param(IS_TIM_CLOCKPRESCALER(sClockSourceConfig->ClockPrescaler));
      assert_param(IS_TIM_CLOCKPOLARITY(sClockSourceConfig->ClockPolarity));
      assert_param(IS_TIM_CLOCKFILTER(sClockSourceConfig->ClockFilter));

      /* Configure the ETR Clock source */
      TIM_ETR_SetConfig(htim->Instance,
 80074e4:	687b      	ldr	r3, [r7, #4]
 80074e6:	6818      	ldr	r0, [r3, #0]
                        sClockSourceConfig->ClockPrescaler,
 80074e8:	683b      	ldr	r3, [r7, #0]
 80074ea:	6899      	ldr	r1, [r3, #8]
                        sClockSourceConfig->ClockPolarity,
 80074ec:	683b      	ldr	r3, [r7, #0]
 80074ee:	685a      	ldr	r2, [r3, #4]
                        sClockSourceConfig->ClockFilter);
 80074f0:	683b      	ldr	r3, [r7, #0]
 80074f2:	68db      	ldr	r3, [r3, #12]
      TIM_ETR_SetConfig(htim->Instance,
 80074f4:	f000 fad9 	bl	8007aaa <TIM_ETR_SetConfig>
      /* Enable the External clock mode2 */
      htim->Instance->SMCR |= TIM_SMCR_ECE;
 80074f8:	687b      	ldr	r3, [r7, #4]
 80074fa:	681b      	ldr	r3, [r3, #0]
 80074fc:	689a      	ldr	r2, [r3, #8]
 80074fe:	687b      	ldr	r3, [r7, #4]
 8007500:	681b      	ldr	r3, [r3, #0]
 8007502:	f442 4280 	orr.w	r2, r2, #16384	; 0x4000
 8007506:	609a      	str	r2, [r3, #8]
      break;
 8007508:	e03c      	b.n	8007584 <HAL_TIM_ConfigClockSource+0x174>

      /* Check TI1 input conditioning related parameters */
      assert_param(IS_TIM_CLOCKPOLARITY(sClockSourceConfig->ClockPolarity));
      assert_param(IS_TIM_CLOCKFILTER(sClockSourceConfig->ClockFilter));

      TIM_TI1_ConfigInputStage(htim->Instance,
 800750a:	687b      	ldr	r3, [r7, #4]
 800750c:	6818      	ldr	r0, [r3, #0]
                               sClockSourceConfig->ClockPolarity,
 800750e:	683b      	ldr	r3, [r7, #0]
 8007510:	6859      	ldr	r1, [r3, #4]
                               sClockSourceConfig->ClockFilter);
 8007512:	683b      	ldr	r3, [r7, #0]
 8007514:	68db      	ldr	r3, [r3, #12]
      TIM_TI1_ConfigInputStage(htim->Instance,
 8007516:	461a      	mov	r2, r3
 8007518:	f000 fa50 	bl	80079bc <TIM_TI1_ConfigInputStage>
      TIM_ITRx_SetConfig(htim->Instance, TIM_CLOCKSOURCE_TI1);
 800751c:	687b      	ldr	r3, [r7, #4]
 800751e:	681b      	ldr	r3, [r3, #0]
 8007520:	2150      	movs	r1, #80	; 0x50
 8007522:	4618      	mov	r0, r3
 8007524:	f000 faa7 	bl	8007a76 <TIM_ITRx_SetConfig>
      break;
 8007528:	e02c      	b.n	8007584 <HAL_TIM_ConfigClockSource+0x174>

      /* Check TI2 input conditioning related parameters */
      assert_param(IS_TIM_CLOCKPOLARITY(sClockSourceConfig->ClockPolarity));
      assert_param(IS_TIM_CLOCKFILTER(sClockSourceConfig->ClockFilter));

      TIM_TI2_ConfigInputStage(htim->Instance,
 800752a:	687b      	ldr	r3, [r7, #4]
 800752c:	6818      	ldr	r0, [r3, #0]
                               sClockSourceConfig->ClockPolarity,
 800752e:	683b      	ldr	r3, [r7, #0]
 8007530:	6859      	ldr	r1, [r3, #4]
                               sClockSourceConfig->ClockFilter);
 8007532:	683b      	ldr	r3, [r7, #0]
 8007534:	68db      	ldr	r3, [r3, #12]
      TIM_TI2_ConfigInputStage(htim->Instance,
 8007536:	461a      	mov	r2, r3
 8007538:	f000 fa6e 	bl	8007a18 <TIM_TI2_ConfigInputStage>
      TIM_ITRx_SetConfig(htim->Instance, TIM_CLOCKSOURCE_TI2);
 800753c:	687b      	ldr	r3, [r7, #4]
 800753e:	681b      	ldr	r3, [r3, #0]
 8007540:	2160      	movs	r1, #96	; 0x60
 8007542:	4618      	mov	r0, r3
 8007544:	f000 fa97 	bl	8007a76 <TIM_ITRx_SetConfig>
      break;
 8007548:	e01c      	b.n	8007584 <HAL_TIM_ConfigClockSource+0x174>

      /* Check TI1 input conditioning related parameters */
      assert_param(IS_TIM_CLOCKPOLARITY(sClockSourceConfig->ClockPolarity));
      assert_param(IS_TIM_CLOCKFILTER(sClockSourceConfig->ClockFilter));

      TIM_TI1_ConfigInputStage(htim->Instance,
 800754a:	687b      	ldr	r3, [r7, #4]
 800754c:	6818      	ldr	r0, [r3, #0]
                               sClockSourceConfig->ClockPolarity,
 800754e:	683b      	ldr	r3, [r7, #0]
 8007550:	6859      	ldr	r1, [r3, #4]
                               sClockSourceConfig->ClockFilter);
 8007552:	683b      	ldr	r3, [r7, #0]
 8007554:	68db      	ldr	r3, [r3, #12]
      TIM_TI1_ConfigInputStage(htim->Instance,
 8007556:	461a      	mov	r2, r3
 8007558:	f000 fa30 	bl	80079bc <TIM_TI1_ConfigInputStage>
      TIM_ITRx_SetConfig(htim->Instance, TIM_CLOCKSOURCE_TI1ED);
 800755c:	687b      	ldr	r3, [r7, #4]
 800755e:	681b      	ldr	r3, [r3, #0]
 8007560:	2140      	movs	r1, #64	; 0x40
 8007562:	4618      	mov	r0, r3
 8007564:	f000 fa87 	bl	8007a76 <TIM_ITRx_SetConfig>
      break;
 8007568:	e00c      	b.n	8007584 <HAL_TIM_ConfigClockSource+0x174>
    case TIM_CLOCKSOURCE_ITR3:
    {
      /* Check whether or not the timer instance supports internal trigger input */
      assert_param(IS_TIM_CLOCKSOURCE_ITRX_INSTANCE(htim->Instance));

      TIM_ITRx_SetConfig(htim->Instance, sClockSourceConfig->ClockSource);
 800756a:	687b      	ldr	r3, [r7, #4]
 800756c:	681a      	ldr	r2, [r3, #0]
 800756e:	683b      	ldr	r3, [r7, #0]
 8007570:	681b      	ldr	r3, [r3, #0]
 8007572:	4619      	mov	r1, r3
 8007574:	4610      	mov	r0, r2
 8007576:	f000 fa7e 	bl	8007a76 <TIM_ITRx_SetConfig>
      break;
 800757a:	e003      	b.n	8007584 <HAL_TIM_ConfigClockSource+0x174>
    }

    default:
      status = HAL_ERROR;
 800757c:	2301      	movs	r3, #1
 800757e:	73fb      	strb	r3, [r7, #15]
      break;
 8007580:	e000      	b.n	8007584 <HAL_TIM_ConfigClockSource+0x174>
      break;
 8007582:	bf00      	nop
  }
  htim->State = HAL_TIM_STATE_READY;
 8007584:	687b      	ldr	r3, [r7, #4]
 8007586:	2201      	movs	r2, #1
 8007588:	f883 203d 	strb.w	r2, [r3, #61]	; 0x3d

  __HAL_UNLOCK(htim);
 800758c:	687b      	ldr	r3, [r7, #4]
 800758e:	2200      	movs	r2, #0
 8007590:	f883 203c 	strb.w	r2, [r3, #60]	; 0x3c

  return status;
 8007594:	7bfb      	ldrb	r3, [r7, #15]
}
 8007596:	4618      	mov	r0, r3
 8007598:	3710      	adds	r7, #16
 800759a:	46bd      	mov	sp, r7
 800759c:	bd80      	pop	{r7, pc}

0800759e <HAL_TIM_OC_DelayElapsedCallback>:
  * @brief  Output Compare callback in non-blocking mode
  * @param  htim TIM OC handle
  * @retval None
  */
__weak void HAL_TIM_OC_DelayElapsedCallback(TIM_HandleTypeDef *htim)
{
 800759e:	b480      	push	{r7}
 80075a0:	b083      	sub	sp, #12
 80075a2:	af00      	add	r7, sp, #0
 80075a4:	6078      	str	r0, [r7, #4]
  UNUSED(htim);

  /* NOTE : This function should not be modified, when the callback is needed,
            the HAL_TIM_OC_DelayElapsedCallback could be implemented in the user file
   */
}
 80075a6:	bf00      	nop
 80075a8:	370c      	adds	r7, #12
 80075aa:	46bd      	mov	sp, r7
 80075ac:	bc80      	pop	{r7}
 80075ae:	4770      	bx	lr

080075b0 <HAL_TIM_IC_CaptureCallback>:
  * @brief  Input Capture callback in non-blocking mode
  * @param  htim TIM IC handle
  * @retval None
  */
__weak void HAL_TIM_IC_CaptureCallback(TIM_HandleTypeDef *htim)
{
 80075b0:	b480      	push	{r7}
 80075b2:	b083      	sub	sp, #12
 80075b4:	af00      	add	r7, sp, #0
 80075b6:	6078      	str	r0, [r7, #4]
  UNUSED(htim);

  /* NOTE : This function should not be modified, when the callback is needed,
            the HAL_TIM_IC_CaptureCallback could be implemented in the user file
   */
}
 80075b8:	bf00      	nop
 80075ba:	370c      	adds	r7, #12
 80075bc:	46bd      	mov	sp, r7
 80075be:	bc80      	pop	{r7}
 80075c0:	4770      	bx	lr

080075c2 <HAL_TIM_PWM_PulseFinishedCallback>:
  * @brief  PWM Pulse finished callback in non-blocking mode
  * @param  htim TIM handle
  * @retval None
  */
__weak void HAL_TIM_PWM_PulseFinishedCallback(TIM_HandleTypeDef *htim)
{
 80075c2:	b480      	push	{r7}
 80075c4:	b083      	sub	sp, #12
 80075c6:	af00      	add	r7, sp, #0
 80075c8:	6078      	str	r0, [r7, #4]
  UNUSED(htim);

  /* NOTE : This function should not be modified, when the callback is needed,
            the HAL_TIM_PWM_PulseFinishedCallback could be implemented in the user file
   */
}
 80075ca:	bf00      	nop
 80075cc:	370c      	adds	r7, #12
 80075ce:	46bd      	mov	sp, r7
 80075d0:	bc80      	pop	{r7}
 80075d2:	4770      	bx	lr

080075d4 <HAL_TIM_TriggerCallback>:
  * @brief  Hall Trigger detection callback in non-blocking mode
  * @param  htim TIM handle
  * @retval None
  */
__weak void HAL_TIM_TriggerCallback(TIM_HandleTypeDef *htim)
{
 80075d4:	b480      	push	{r7}
 80075d6:	b083      	sub	sp, #12
 80075d8:	af00      	add	r7, sp, #0
 80075da:	6078      	str	r0, [r7, #4]
  UNUSED(htim);

  /* NOTE : This function should not be modified, when the callback is needed,
            the HAL_TIM_TriggerCallback could be implemented in the user file
   */
}
 80075dc:	bf00      	nop
 80075de:	370c      	adds	r7, #12
 80075e0:	46bd      	mov	sp, r7
 80075e2:	bc80      	pop	{r7}
 80075e4:	4770      	bx	lr
	...

080075e8 <TIM_Base_SetConfig>:
  * @param  TIMx TIM peripheral
  * @param  Structure TIM Base configuration structure
  * @retval None
  */
void TIM_Base_SetConfig(TIM_TypeDef *TIMx, const TIM_Base_InitTypeDef *Structure)
{
 80075e8:	b480      	push	{r7}
 80075ea:	b085      	sub	sp, #20
 80075ec:	af00      	add	r7, sp, #0
 80075ee:	6078      	str	r0, [r7, #4]
 80075f0:	6039      	str	r1, [r7, #0]
  uint32_t tmpcr1;
  tmpcr1 = TIMx->CR1;
 80075f2:	687b      	ldr	r3, [r7, #4]
 80075f4:	681b      	ldr	r3, [r3, #0]
 80075f6:	60fb      	str	r3, [r7, #12]

  /* Set TIM Time Base Unit parameters ---------------------------------------*/
  if (IS_TIM_COUNTER_MODE_SELECT_INSTANCE(TIMx))
 80075f8:	687b      	ldr	r3, [r7, #4]
 80075fa:	4a29      	ldr	r2, [pc, #164]	; (80076a0 <TIM_Base_SetConfig+0xb8>)
 80075fc:	4293      	cmp	r3, r2
 80075fe:	d00b      	beq.n	8007618 <TIM_Base_SetConfig+0x30>
 8007600:	687b      	ldr	r3, [r7, #4]
 8007602:	f1b3 4f80 	cmp.w	r3, #1073741824	; 0x40000000
 8007606:	d007      	beq.n	8007618 <TIM_Base_SetConfig+0x30>
 8007608:	687b      	ldr	r3, [r7, #4]
 800760a:	4a26      	ldr	r2, [pc, #152]	; (80076a4 <TIM_Base_SetConfig+0xbc>)
 800760c:	4293      	cmp	r3, r2
 800760e:	d003      	beq.n	8007618 <TIM_Base_SetConfig+0x30>
 8007610:	687b      	ldr	r3, [r7, #4]
 8007612:	4a25      	ldr	r2, [pc, #148]	; (80076a8 <TIM_Base_SetConfig+0xc0>)
 8007614:	4293      	cmp	r3, r2
 8007616:	d108      	bne.n	800762a <TIM_Base_SetConfig+0x42>
  {
    /* Select the Counter Mode */
    tmpcr1 &= ~(TIM_CR1_DIR | TIM_CR1_CMS);
 8007618:	68fb      	ldr	r3, [r7, #12]
 800761a:	f023 0370 	bic.w	r3, r3, #112	; 0x70
 800761e:	60fb      	str	r3, [r7, #12]
    tmpcr1 |= Structure->CounterMode;
 8007620:	683b      	ldr	r3, [r7, #0]
 8007622:	685b      	ldr	r3, [r3, #4]
 8007624:	68fa      	ldr	r2, [r7, #12]
 8007626:	4313      	orrs	r3, r2
 8007628:	60fb      	str	r3, [r7, #12]
  }

  if (IS_TIM_CLOCK_DIVISION_INSTANCE(TIMx))
 800762a:	687b      	ldr	r3, [r7, #4]
 800762c:	4a1c      	ldr	r2, [pc, #112]	; (80076a0 <TIM_Base_SetConfig+0xb8>)
 800762e:	4293      	cmp	r3, r2
 8007630:	d00b      	beq.n	800764a <TIM_Base_SetConfig+0x62>
 8007632:	687b      	ldr	r3, [r7, #4]
 8007634:	f1b3 4f80 	cmp.w	r3, #1073741824	; 0x40000000
 8007638:	d007      	beq.n	800764a <TIM_Base_SetConfig+0x62>
 800763a:	687b      	ldr	r3, [r7, #4]
 800763c:	4a19      	ldr	r2, [pc, #100]	; (80076a4 <TIM_Base_SetConfig+0xbc>)
 800763e:	4293      	cmp	r3, r2
 8007640:	d003      	beq.n	800764a <TIM_Base_SetConfig+0x62>
 8007642:	687b      	ldr	r3, [r7, #4]
 8007644:	4a18      	ldr	r2, [pc, #96]	; (80076a8 <TIM_Base_SetConfig+0xc0>)
 8007646:	4293      	cmp	r3, r2
 8007648:	d108      	bne.n	800765c <TIM_Base_SetConfig+0x74>
  {
    /* Set the clock division */
    tmpcr1 &= ~TIM_CR1_CKD;
 800764a:	68fb      	ldr	r3, [r7, #12]
 800764c:	f423 7340 	bic.w	r3, r3, #768	; 0x300
 8007650:	60fb      	str	r3, [r7, #12]
    tmpcr1 |= (uint32_t)Structure->ClockDivision;
 8007652:	683b      	ldr	r3, [r7, #0]
 8007654:	68db      	ldr	r3, [r3, #12]
 8007656:	68fa      	ldr	r2, [r7, #12]
 8007658:	4313      	orrs	r3, r2
 800765a:	60fb      	str	r3, [r7, #12]
  }

  /* Set the auto-reload preload */
  MODIFY_REG(tmpcr1, TIM_CR1_ARPE, Structure->AutoReloadPreload);
 800765c:	68fb      	ldr	r3, [r7, #12]
 800765e:	f023 0280 	bic.w	r2, r3, #128	; 0x80
 8007662:	683b      	ldr	r3, [r7, #0]
 8007664:	695b      	ldr	r3, [r3, #20]
 8007666:	4313      	orrs	r3, r2
 8007668:	60fb      	str	r3, [r7, #12]

  TIMx->CR1 = tmpcr1;
 800766a:	687b      	ldr	r3, [r7, #4]
 800766c:	68fa      	ldr	r2, [r7, #12]
 800766e:	601a      	str	r2, [r3, #0]

  /* Set the Autoreload value */
  TIMx->ARR = (uint32_t)Structure->Period ;
 8007670:	683b      	ldr	r3, [r7, #0]
 8007672:	689a      	ldr	r2, [r3, #8]
 8007674:	687b      	ldr	r3, [r7, #4]
 8007676:	62da      	str	r2, [r3, #44]	; 0x2c

  /* Set the Prescaler value */
  TIMx->PSC = Structure->Prescaler;
 8007678:	683b      	ldr	r3, [r7, #0]
 800767a:	681a      	ldr	r2, [r3, #0]
 800767c:	687b      	ldr	r3, [r7, #4]
 800767e:	629a      	str	r2, [r3, #40]	; 0x28

  if (IS_TIM_REPETITION_COUNTER_INSTANCE(TIMx))
 8007680:	687b      	ldr	r3, [r7, #4]
 8007682:	4a07      	ldr	r2, [pc, #28]	; (80076a0 <TIM_Base_SetConfig+0xb8>)
 8007684:	4293      	cmp	r3, r2
 8007686:	d103      	bne.n	8007690 <TIM_Base_SetConfig+0xa8>
  {
    /* Set the Repetition Counter value */
    TIMx->RCR = Structure->RepetitionCounter;
 8007688:	683b      	ldr	r3, [r7, #0]
 800768a:	691a      	ldr	r2, [r3, #16]
 800768c:	687b      	ldr	r3, [r7, #4]
 800768e:	631a      	str	r2, [r3, #48]	; 0x30
  }

  /* Generate an update event to reload the Prescaler
     and the repetition counter (only for advanced timer) value immediately */
  TIMx->EGR = TIM_EGR_UG;
 8007690:	687b      	ldr	r3, [r7, #4]
 8007692:	2201      	movs	r2, #1
 8007694:	615a      	str	r2, [r3, #20]
}
 8007696:	bf00      	nop
 8007698:	3714      	adds	r7, #20
 800769a:	46bd      	mov	sp, r7
 800769c:	bc80      	pop	{r7}
 800769e:	4770      	bx	lr
 80076a0:	40012c00 	.word	0x40012c00
 80076a4:	40000400 	.word	0x40000400
 80076a8:	40000800 	.word	0x40000800

080076ac <TIM_OC1_SetConfig>:
  * @param  TIMx to select the TIM peripheral
  * @param  OC_Config The output configuration structure
  * @retval None
  */
static void TIM_OC1_SetConfig(TIM_TypeDef *TIMx, const TIM_OC_InitTypeDef *OC_Config)
{
 80076ac:	b480      	push	{r7}
 80076ae:	b087      	sub	sp, #28
 80076b0:	af00      	add	r7, sp, #0
 80076b2:	6078      	str	r0, [r7, #4]
 80076b4:	6039      	str	r1, [r7, #0]
  uint32_t tmpccmrx;
  uint32_t tmpccer;
  uint32_t tmpcr2;

  /* Get the TIMx CCER register value */
  tmpccer = TIMx->CCER;
 80076b6:	687b      	ldr	r3, [r7, #4]
 80076b8:	6a1b      	ldr	r3, [r3, #32]
 80076ba:	617b      	str	r3, [r7, #20]

  /* Disable the Channel 1: Reset the CC1E Bit */
  TIMx->CCER &= ~TIM_CCER_CC1E;
 80076bc:	687b      	ldr	r3, [r7, #4]
 80076be:	6a1b      	ldr	r3, [r3, #32]
 80076c0:	f023 0201 	bic.w	r2, r3, #1
 80076c4:	687b      	ldr	r3, [r7, #4]
 80076c6:	621a      	str	r2, [r3, #32]

  /* Get the TIMx CR2 register value */
  tmpcr2 =  TIMx->CR2;
 80076c8:	687b      	ldr	r3, [r7, #4]
 80076ca:	685b      	ldr	r3, [r3, #4]
 80076cc:	613b      	str	r3, [r7, #16]

  /* Get the TIMx CCMR1 register value */
  tmpccmrx = TIMx->CCMR1;
 80076ce:	687b      	ldr	r3, [r7, #4]
 80076d0:	699b      	ldr	r3, [r3, #24]
 80076d2:	60fb      	str	r3, [r7, #12]

  /* Reset the Output Compare Mode Bits */
  tmpccmrx &= ~TIM_CCMR1_OC1M;
 80076d4:	68fb      	ldr	r3, [r7, #12]
 80076d6:	f023 0370 	bic.w	r3, r3, #112	; 0x70
 80076da:	60fb      	str	r3, [r7, #12]
  tmpccmrx &= ~TIM_CCMR1_CC1S;
 80076dc:	68fb      	ldr	r3, [r7, #12]
 80076de:	f023 0303 	bic.w	r3, r3, #3
 80076e2:	60fb      	str	r3, [r7, #12]
  /* Select the Output Compare Mode */
  tmpccmrx |= OC_Config->OCMode;
 80076e4:	683b      	ldr	r3, [r7, #0]
 80076e6:	681b      	ldr	r3, [r3, #0]
 80076e8:	68fa      	ldr	r2, [r7, #12]
 80076ea:	4313      	orrs	r3, r2
 80076ec:	60fb      	str	r3, [r7, #12]

  /* Reset the Output Polarity level */
  tmpccer &= ~TIM_CCER_CC1P;
 80076ee:	697b      	ldr	r3, [r7, #20]
 80076f0:	f023 0302 	bic.w	r3, r3, #2
 80076f4:	617b      	str	r3, [r7, #20]
  /* Set the Output Compare Polarity */
  tmpccer |= OC_Config->OCPolarity;
 80076f6:	683b      	ldr	r3, [r7, #0]
 80076f8:	689b      	ldr	r3, [r3, #8]
 80076fa:	697a      	ldr	r2, [r7, #20]
 80076fc:	4313      	orrs	r3, r2
 80076fe:	617b      	str	r3, [r7, #20]

  if (IS_TIM_CCXN_INSTANCE(TIMx, TIM_CHANNEL_1))
 8007700:	687b      	ldr	r3, [r7, #4]
 8007702:	4a1c      	ldr	r2, [pc, #112]	; (8007774 <TIM_OC1_SetConfig+0xc8>)
 8007704:	4293      	cmp	r3, r2
 8007706:	d10c      	bne.n	8007722 <TIM_OC1_SetConfig+0x76>
  {
    /* Check parameters */
    assert_param(IS_TIM_OCN_POLARITY(OC_Config->OCNPolarity));

    /* Reset the Output N Polarity level */
    tmpccer &= ~TIM_CCER_CC1NP;
 8007708:	697b      	ldr	r3, [r7, #20]
 800770a:	f023 0308 	bic.w	r3, r3, #8
 800770e:	617b      	str	r3, [r7, #20]
    /* Set the Output N Polarity */
    tmpccer |= OC_Config->OCNPolarity;
 8007710:	683b      	ldr	r3, [r7, #0]
 8007712:	68db      	ldr	r3, [r3, #12]
 8007714:	697a      	ldr	r2, [r7, #20]
 8007716:	4313      	orrs	r3, r2
 8007718:	617b      	str	r3, [r7, #20]
    /* Reset the Output N State */
    tmpccer &= ~TIM_CCER_CC1NE;
 800771a:	697b      	ldr	r3, [r7, #20]
 800771c:	f023 0304 	bic.w	r3, r3, #4
 8007720:	617b      	str	r3, [r7, #20]
  }

  if (IS_TIM_BREAK_INSTANCE(TIMx))
 8007722:	687b      	ldr	r3, [r7, #4]
 8007724:	4a13      	ldr	r2, [pc, #76]	; (8007774 <TIM_OC1_SetConfig+0xc8>)
 8007726:	4293      	cmp	r3, r2
 8007728:	d111      	bne.n	800774e <TIM_OC1_SetConfig+0xa2>
    /* Check parameters */
    assert_param(IS_TIM_OCNIDLE_STATE(OC_Config->OCNIdleState));
    assert_param(IS_TIM_OCIDLE_STATE(OC_Config->OCIdleState));

    /* Reset the Output Compare and Output Compare N IDLE State */
    tmpcr2 &= ~TIM_CR2_OIS1;
 800772a:	693b      	ldr	r3, [r7, #16]
 800772c:	f423 7380 	bic.w	r3, r3, #256	; 0x100
 8007730:	613b      	str	r3, [r7, #16]
    tmpcr2 &= ~TIM_CR2_OIS1N;
 8007732:	693b      	ldr	r3, [r7, #16]
 8007734:	f423 7300 	bic.w	r3, r3, #512	; 0x200
 8007738:	613b      	str	r3, [r7, #16]
    /* Set the Output Idle state */
    tmpcr2 |= OC_Config->OCIdleState;
 800773a:	683b      	ldr	r3, [r7, #0]
 800773c:	695b      	ldr	r3, [r3, #20]
 800773e:	693a      	ldr	r2, [r7, #16]
 8007740:	4313      	orrs	r3, r2
 8007742:	613b      	str	r3, [r7, #16]
    /* Set the Output N Idle state */
    tmpcr2 |= OC_Config->OCNIdleState;
 8007744:	683b      	ldr	r3, [r7, #0]
 8007746:	699b      	ldr	r3, [r3, #24]
 8007748:	693a      	ldr	r2, [r7, #16]
 800774a:	4313      	orrs	r3, r2
 800774c:	613b      	str	r3, [r7, #16]
  }

  /* Write to TIMx CR2 */
  TIMx->CR2 = tmpcr2;
 800774e:	687b      	ldr	r3, [r7, #4]
 8007750:	693a      	ldr	r2, [r7, #16]
 8007752:	605a      	str	r2, [r3, #4]

  /* Write to TIMx CCMR1 */
  TIMx->CCMR1 = tmpccmrx;
 8007754:	687b      	ldr	r3, [r7, #4]
 8007756:	68fa      	ldr	r2, [r7, #12]
 8007758:	619a      	str	r2, [r3, #24]

  /* Set the Capture Compare Register value */
  TIMx->CCR1 = OC_Config->Pulse;
 800775a:	683b      	ldr	r3, [r7, #0]
 800775c:	685a      	ldr	r2, [r3, #4]
 800775e:	687b      	ldr	r3, [r7, #4]
 8007760:	635a      	str	r2, [r3, #52]	; 0x34

  /* Write to TIMx CCER */
  TIMx->CCER = tmpccer;
 8007762:	687b      	ldr	r3, [r7, #4]
 8007764:	697a      	ldr	r2, [r7, #20]
 8007766:	621a      	str	r2, [r3, #32]
}
 8007768:	bf00      	nop
 800776a:	371c      	adds	r7, #28
 800776c:	46bd      	mov	sp, r7
 800776e:	bc80      	pop	{r7}
 8007770:	4770      	bx	lr
 8007772:	bf00      	nop
 8007774:	40012c00 	.word	0x40012c00

08007778 <TIM_OC2_SetConfig>:
  * @param  TIMx to select the TIM peripheral
  * @param  OC_Config The output configuration structure
  * @retval None
  */
void TIM_OC2_SetConfig(TIM_TypeDef *TIMx, const TIM_OC_InitTypeDef *OC_Config)
{
 8007778:	b480      	push	{r7}
 800777a:	b087      	sub	sp, #28
 800777c:	af00      	add	r7, sp, #0
 800777e:	6078      	str	r0, [r7, #4]
 8007780:	6039      	str	r1, [r7, #0]
  uint32_t tmpccmrx;
  uint32_t tmpccer;
  uint32_t tmpcr2;

  /* Get the TIMx CCER register value */
  tmpccer = TIMx->CCER;
 8007782:	687b      	ldr	r3, [r7, #4]
 8007784:	6a1b      	ldr	r3, [r3, #32]
 8007786:	617b      	str	r3, [r7, #20]

  /* Disable the Channel 2: Reset the CC2E Bit */
  TIMx->CCER &= ~TIM_CCER_CC2E;
 8007788:	687b      	ldr	r3, [r7, #4]
 800778a:	6a1b      	ldr	r3, [r3, #32]
 800778c:	f023 0210 	bic.w	r2, r3, #16
 8007790:	687b      	ldr	r3, [r7, #4]
 8007792:	621a      	str	r2, [r3, #32]

  /* Get the TIMx CR2 register value */
  tmpcr2 =  TIMx->CR2;
 8007794:	687b      	ldr	r3, [r7, #4]
 8007796:	685b      	ldr	r3, [r3, #4]
 8007798:	613b      	str	r3, [r7, #16]

  /* Get the TIMx CCMR1 register value */
  tmpccmrx = TIMx->CCMR1;
 800779a:	687b      	ldr	r3, [r7, #4]
 800779c:	699b      	ldr	r3, [r3, #24]
 800779e:	60fb      	str	r3, [r7, #12]

  /* Reset the Output Compare mode and Capture/Compare selection Bits */
  tmpccmrx &= ~TIM_CCMR1_OC2M;
 80077a0:	68fb      	ldr	r3, [r7, #12]
 80077a2:	f423 43e0 	bic.w	r3, r3, #28672	; 0x7000
 80077a6:	60fb      	str	r3, [r7, #12]
  tmpccmrx &= ~TIM_CCMR1_CC2S;
 80077a8:	68fb      	ldr	r3, [r7, #12]
 80077aa:	f423 7340 	bic.w	r3, r3, #768	; 0x300
 80077ae:	60fb      	str	r3, [r7, #12]

  /* Select the Output Compare Mode */
  tmpccmrx |= (OC_Config->OCMode << 8U);
 80077b0:	683b      	ldr	r3, [r7, #0]
 80077b2:	681b      	ldr	r3, [r3, #0]
 80077b4:	021b      	lsls	r3, r3, #8
 80077b6:	68fa      	ldr	r2, [r7, #12]
 80077b8:	4313      	orrs	r3, r2
 80077ba:	60fb      	str	r3, [r7, #12]

  /* Reset the Output Polarity level */
  tmpccer &= ~TIM_CCER_CC2P;
 80077bc:	697b      	ldr	r3, [r7, #20]
 80077be:	f023 0320 	bic.w	r3, r3, #32
 80077c2:	617b      	str	r3, [r7, #20]
  /* Set the Output Compare Polarity */
  tmpccer |= (OC_Config->OCPolarity << 4U);
 80077c4:	683b      	ldr	r3, [r7, #0]
 80077c6:	689b      	ldr	r3, [r3, #8]
 80077c8:	011b      	lsls	r3, r3, #4
 80077ca:	697a      	ldr	r2, [r7, #20]
 80077cc:	4313      	orrs	r3, r2
 80077ce:	617b      	str	r3, [r7, #20]

  if (IS_TIM_CCXN_INSTANCE(TIMx, TIM_CHANNEL_2))
 80077d0:	687b      	ldr	r3, [r7, #4]
 80077d2:	4a1d      	ldr	r2, [pc, #116]	; (8007848 <TIM_OC2_SetConfig+0xd0>)
 80077d4:	4293      	cmp	r3, r2
 80077d6:	d10d      	bne.n	80077f4 <TIM_OC2_SetConfig+0x7c>
  {
    assert_param(IS_TIM_OCN_POLARITY(OC_Config->OCNPolarity));

    /* Reset the Output N Polarity level */
    tmpccer &= ~TIM_CCER_CC2NP;
 80077d8:	697b      	ldr	r3, [r7, #20]
 80077da:	f023 0380 	bic.w	r3, r3, #128	; 0x80
 80077de:	617b      	str	r3, [r7, #20]
    /* Set the Output N Polarity */
    tmpccer |= (OC_Config->OCNPolarity << 4U);
 80077e0:	683b      	ldr	r3, [r7, #0]
 80077e2:	68db      	ldr	r3, [r3, #12]
 80077e4:	011b      	lsls	r3, r3, #4
 80077e6:	697a      	ldr	r2, [r7, #20]
 80077e8:	4313      	orrs	r3, r2
 80077ea:	617b      	str	r3, [r7, #20]
    /* Reset the Output N State */
    tmpccer &= ~TIM_CCER_CC2NE;
 80077ec:	697b      	ldr	r3, [r7, #20]
 80077ee:	f023 0340 	bic.w	r3, r3, #64	; 0x40
 80077f2:	617b      	str	r3, [r7, #20]

  }

  if (IS_TIM_BREAK_INSTANCE(TIMx))
 80077f4:	687b      	ldr	r3, [r7, #4]
 80077f6:	4a14      	ldr	r2, [pc, #80]	; (8007848 <TIM_OC2_SetConfig+0xd0>)
 80077f8:	4293      	cmp	r3, r2
 80077fa:	d113      	bne.n	8007824 <TIM_OC2_SetConfig+0xac>
    /* Check parameters */
    assert_param(IS_TIM_OCNIDLE_STATE(OC_Config->OCNIdleState));
    assert_param(IS_TIM_OCIDLE_STATE(OC_Config->OCIdleState));

    /* Reset the Output Compare and Output Compare N IDLE State */
    tmpcr2 &= ~TIM_CR2_OIS2;
 80077fc:	693b      	ldr	r3, [r7, #16]
 80077fe:	f423 6380 	bic.w	r3, r3, #1024	; 0x400
 8007802:	613b      	str	r3, [r7, #16]
    tmpcr2 &= ~TIM_CR2_OIS2N;
 8007804:	693b      	ldr	r3, [r7, #16]
 8007806:	f423 6300 	bic.w	r3, r3, #2048	; 0x800
 800780a:	613b      	str	r3, [r7, #16]
    /* Set the Output Idle state */
    tmpcr2 |= (OC_Config->OCIdleState << 2U);
 800780c:	683b      	ldr	r3, [r7, #0]
 800780e:	695b      	ldr	r3, [r3, #20]
 8007810:	009b      	lsls	r3, r3, #2
 8007812:	693a      	ldr	r2, [r7, #16]
 8007814:	4313      	orrs	r3, r2
 8007816:	613b      	str	r3, [r7, #16]
    /* Set the Output N Idle state */
    tmpcr2 |= (OC_Config->OCNIdleState << 2U);
 8007818:	683b      	ldr	r3, [r7, #0]
 800781a:	699b      	ldr	r3, [r3, #24]
 800781c:	009b      	lsls	r3, r3, #2
 800781e:	693a      	ldr	r2, [r7, #16]
 8007820:	4313      	orrs	r3, r2
 8007822:	613b      	str	r3, [r7, #16]
  }

  /* Write to TIMx CR2 */
  TIMx->CR2 = tmpcr2;
 8007824:	687b      	ldr	r3, [r7, #4]
 8007826:	693a      	ldr	r2, [r7, #16]
 8007828:	605a      	str	r2, [r3, #4]

  /* Write to TIMx CCMR1 */
  TIMx->CCMR1 = tmpccmrx;
 800782a:	687b      	ldr	r3, [r7, #4]
 800782c:	68fa      	ldr	r2, [r7, #12]
 800782e:	619a      	str	r2, [r3, #24]

  /* Set the Capture Compare Register value */
  TIMx->CCR2 = OC_Config->Pulse;
 8007830:	683b      	ldr	r3, [r7, #0]
 8007832:	685a      	ldr	r2, [r3, #4]
 8007834:	687b      	ldr	r3, [r7, #4]
 8007836:	639a      	str	r2, [r3, #56]	; 0x38

  /* Write to TIMx CCER */
  TIMx->CCER = tmpccer;
 8007838:	687b      	ldr	r3, [r7, #4]
 800783a:	697a      	ldr	r2, [r7, #20]
 800783c:	621a      	str	r2, [r3, #32]
}
 800783e:	bf00      	nop
 8007840:	371c      	adds	r7, #28
 8007842:	46bd      	mov	sp, r7
 8007844:	bc80      	pop	{r7}
 8007846:	4770      	bx	lr
 8007848:	40012c00 	.word	0x40012c00

0800784c <TIM_OC3_SetConfig>:
  * @param  TIMx to select the TIM peripheral
  * @param  OC_Config The output configuration structure
  * @retval None
  */
static void TIM_OC3_SetConfig(TIM_TypeDef *TIMx, const TIM_OC_InitTypeDef *OC_Config)
{
 800784c:	b480      	push	{r7}
 800784e:	b087      	sub	sp, #28
 8007850:	af00      	add	r7, sp, #0
 8007852:	6078      	str	r0, [r7, #4]
 8007854:	6039      	str	r1, [r7, #0]
  uint32_t tmpccmrx;
  uint32_t tmpccer;
  uint32_t tmpcr2;

  /* Get the TIMx CCER register value */
  tmpccer = TIMx->CCER;
 8007856:	687b      	ldr	r3, [r7, #4]
 8007858:	6a1b      	ldr	r3, [r3, #32]
 800785a:	617b      	str	r3, [r7, #20]

  /* Disable the Channel 3: Reset the CC2E Bit */
  TIMx->CCER &= ~TIM_CCER_CC3E;
 800785c:	687b      	ldr	r3, [r7, #4]
 800785e:	6a1b      	ldr	r3, [r3, #32]
 8007860:	f423 7280 	bic.w	r2, r3, #256	; 0x100
 8007864:	687b      	ldr	r3, [r7, #4]
 8007866:	621a      	str	r2, [r3, #32]

  /* Get the TIMx CR2 register value */
  tmpcr2 =  TIMx->CR2;
 8007868:	687b      	ldr	r3, [r7, #4]
 800786a:	685b      	ldr	r3, [r3, #4]
 800786c:	613b      	str	r3, [r7, #16]

  /* Get the TIMx CCMR2 register value */
  tmpccmrx = TIMx->CCMR2;
 800786e:	687b      	ldr	r3, [r7, #4]
 8007870:	69db      	ldr	r3, [r3, #28]
 8007872:	60fb      	str	r3, [r7, #12]

  /* Reset the Output Compare mode and Capture/Compare selection Bits */
  tmpccmrx &= ~TIM_CCMR2_OC3M;
 8007874:	68fb      	ldr	r3, [r7, #12]
 8007876:	f023 0370 	bic.w	r3, r3, #112	; 0x70
 800787a:	60fb      	str	r3, [r7, #12]
  tmpccmrx &= ~TIM_CCMR2_CC3S;
 800787c:	68fb      	ldr	r3, [r7, #12]
 800787e:	f023 0303 	bic.w	r3, r3, #3
 8007882:	60fb      	str	r3, [r7, #12]
  /* Select the Output Compare Mode */
  tmpccmrx |= OC_Config->OCMode;
 8007884:	683b      	ldr	r3, [r7, #0]
 8007886:	681b      	ldr	r3, [r3, #0]
 8007888:	68fa      	ldr	r2, [r7, #12]
 800788a:	4313      	orrs	r3, r2
 800788c:	60fb      	str	r3, [r7, #12]

  /* Reset the Output Polarity level */
  tmpccer &= ~TIM_CCER_CC3P;
 800788e:	697b      	ldr	r3, [r7, #20]
 8007890:	f423 7300 	bic.w	r3, r3, #512	; 0x200
 8007894:	617b      	str	r3, [r7, #20]
  /* Set the Output Compare Polarity */
  tmpccer |= (OC_Config->OCPolarity << 8U);
 8007896:	683b      	ldr	r3, [r7, #0]
 8007898:	689b      	ldr	r3, [r3, #8]
 800789a:	021b      	lsls	r3, r3, #8
 800789c:	697a      	ldr	r2, [r7, #20]
 800789e:	4313      	orrs	r3, r2
 80078a0:	617b      	str	r3, [r7, #20]

  if (IS_TIM_CCXN_INSTANCE(TIMx, TIM_CHANNEL_3))
 80078a2:	687b      	ldr	r3, [r7, #4]
 80078a4:	4a1d      	ldr	r2, [pc, #116]	; (800791c <TIM_OC3_SetConfig+0xd0>)
 80078a6:	4293      	cmp	r3, r2
 80078a8:	d10d      	bne.n	80078c6 <TIM_OC3_SetConfig+0x7a>
  {
    assert_param(IS_TIM_OCN_POLARITY(OC_Config->OCNPolarity));

    /* Reset the Output N Polarity level */
    tmpccer &= ~TIM_CCER_CC3NP;
 80078aa:	697b      	ldr	r3, [r7, #20]
 80078ac:	f423 6300 	bic.w	r3, r3, #2048	; 0x800
 80078b0:	617b      	str	r3, [r7, #20]
    /* Set the Output N Polarity */
    tmpccer |= (OC_Config->OCNPolarity << 8U);
 80078b2:	683b      	ldr	r3, [r7, #0]
 80078b4:	68db      	ldr	r3, [r3, #12]
 80078b6:	021b      	lsls	r3, r3, #8
 80078b8:	697a      	ldr	r2, [r7, #20]
 80078ba:	4313      	orrs	r3, r2
 80078bc:	617b      	str	r3, [r7, #20]
    /* Reset the Output N State */
    tmpccer &= ~TIM_CCER_CC3NE;
 80078be:	697b      	ldr	r3, [r7, #20]
 80078c0:	f423 6380 	bic.w	r3, r3, #1024	; 0x400
 80078c4:	617b      	str	r3, [r7, #20]
  }

  if (IS_TIM_BREAK_INSTANCE(TIMx))
 80078c6:	687b      	ldr	r3, [r7, #4]
 80078c8:	4a14      	ldr	r2, [pc, #80]	; (800791c <TIM_OC3_SetConfig+0xd0>)
 80078ca:	4293      	cmp	r3, r2
 80078cc:	d113      	bne.n	80078f6 <TIM_OC3_SetConfig+0xaa>
    /* Check parameters */
    assert_param(IS_TIM_OCNIDLE_STATE(OC_Config->OCNIdleState));
    assert_param(IS_TIM_OCIDLE_STATE(OC_Config->OCIdleState));

    /* Reset the Output Compare and Output Compare N IDLE State */
    tmpcr2 &= ~TIM_CR2_OIS3;
 80078ce:	693b      	ldr	r3, [r7, #16]
 80078d0:	f423 5380 	bic.w	r3, r3, #4096	; 0x1000
 80078d4:	613b      	str	r3, [r7, #16]
    tmpcr2 &= ~TIM_CR2_OIS3N;
 80078d6:	693b      	ldr	r3, [r7, #16]
 80078d8:	f423 5300 	bic.w	r3, r3, #8192	; 0x2000
 80078dc:	613b      	str	r3, [r7, #16]
    /* Set the Output Idle state */
    tmpcr2 |= (OC_Config->OCIdleState << 4U);
 80078de:	683b      	ldr	r3, [r7, #0]
 80078e0:	695b      	ldr	r3, [r3, #20]
 80078e2:	011b      	lsls	r3, r3, #4
 80078e4:	693a      	ldr	r2, [r7, #16]
 80078e6:	4313      	orrs	r3, r2
 80078e8:	613b      	str	r3, [r7, #16]
    /* Set the Output N Idle state */
    tmpcr2 |= (OC_Config->OCNIdleState << 4U);
 80078ea:	683b      	ldr	r3, [r7, #0]
 80078ec:	699b      	ldr	r3, [r3, #24]
 80078ee:	011b      	lsls	r3, r3, #4
 80078f0:	693a      	ldr	r2, [r7, #16]
 80078f2:	4313      	orrs	r3, r2
 80078f4:	613b      	str	r3, [r7, #16]
  }

  /* Write to TIMx CR2 */
  TIMx->CR2 = tmpcr2;
 80078f6:	687b      	ldr	r3, [r7, #4]
 80078f8:	693a      	ldr	r2, [r7, #16]
 80078fa:	605a      	str	r2, [r3, #4]

  /* Write to TIMx CCMR2 */
  TIMx->CCMR2 = tmpccmrx;
 80078fc:	687b      	ldr	r3, [r7, #4]
 80078fe:	68fa      	ldr	r2, [r7, #12]
 8007900:	61da      	str	r2, [r3, #28]

  /* Set the Capture Compare Register value */
  TIMx->CCR3 = OC_Config->Pulse;
 8007902:	683b      	ldr	r3, [r7, #0]
 8007904:	685a      	ldr	r2, [r3, #4]
 8007906:	687b      	ldr	r3, [r7, #4]
 8007908:	63da      	str	r2, [r3, #60]	; 0x3c

  /* Write to TIMx CCER */
  TIMx->CCER = tmpccer;
 800790a:	687b      	ldr	r3, [r7, #4]
 800790c:	697a      	ldr	r2, [r7, #20]
 800790e:	621a      	str	r2, [r3, #32]
}
 8007910:	bf00      	nop
 8007912:	371c      	adds	r7, #28
 8007914:	46bd      	mov	sp, r7
 8007916:	bc80      	pop	{r7}
 8007918:	4770      	bx	lr
 800791a:	bf00      	nop
 800791c:	40012c00 	.word	0x40012c00

08007920 <TIM_OC4_SetConfig>:
  * @param  TIMx to select the TIM peripheral
  * @param  OC_Config The output configuration structure
  * @retval None
  */
static void TIM_OC4_SetConfig(TIM_TypeDef *TIMx, const TIM_OC_InitTypeDef *OC_Config)
{
 8007920:	b480      	push	{r7}
 8007922:	b087      	sub	sp, #28
 8007924:	af00      	add	r7, sp, #0
 8007926:	6078      	str	r0, [r7, #4]
 8007928:	6039      	str	r1, [r7, #0]
  uint32_t tmpccmrx;
  uint32_t tmpccer;
  uint32_t tmpcr2;

  /* Get the TIMx CCER register value */
  tmpccer = TIMx->CCER;
 800792a:	687b      	ldr	r3, [r7, #4]
 800792c:	6a1b      	ldr	r3, [r3, #32]
 800792e:	613b      	str	r3, [r7, #16]

  /* Disable the Channel 4: Reset the CC4E Bit */
  TIMx->CCER &= ~TIM_CCER_CC4E;
 8007930:	687b      	ldr	r3, [r7, #4]
 8007932:	6a1b      	ldr	r3, [r3, #32]
 8007934:	f423 5280 	bic.w	r2, r3, #4096	; 0x1000
 8007938:	687b      	ldr	r3, [r7, #4]
 800793a:	621a      	str	r2, [r3, #32]

  /* Get the TIMx CR2 register value */
  tmpcr2 =  TIMx->CR2;
 800793c:	687b      	ldr	r3, [r7, #4]
 800793e:	685b      	ldr	r3, [r3, #4]
 8007940:	617b      	str	r3, [r7, #20]

  /* Get the TIMx CCMR2 register value */
  tmpccmrx = TIMx->CCMR2;
 8007942:	687b      	ldr	r3, [r7, #4]
 8007944:	69db      	ldr	r3, [r3, #28]
 8007946:	60fb      	str	r3, [r7, #12]

  /* Reset the Output Compare mode and Capture/Compare selection Bits */
  tmpccmrx &= ~TIM_CCMR2_OC4M;
 8007948:	68fb      	ldr	r3, [r7, #12]
 800794a:	f423 43e0 	bic.w	r3, r3, #28672	; 0x7000
 800794e:	60fb      	str	r3, [r7, #12]
  tmpccmrx &= ~TIM_CCMR2_CC4S;
 8007950:	68fb      	ldr	r3, [r7, #12]
 8007952:	f423 7340 	bic.w	r3, r3, #768	; 0x300
 8007956:	60fb      	str	r3, [r7, #12]

  /* Select the Output Compare Mode */
  tmpccmrx |= (OC_Config->OCMode << 8U);
 8007958:	683b      	ldr	r3, [r7, #0]
 800795a:	681b      	ldr	r3, [r3, #0]
 800795c:	021b      	lsls	r3, r3, #8
 800795e:	68fa      	ldr	r2, [r7, #12]
 8007960:	4313      	orrs	r3, r2
 8007962:	60fb      	str	r3, [r7, #12]

  /* Reset the Output Polarity level */
  tmpccer &= ~TIM_CCER_CC4P;
 8007964:	693b      	ldr	r3, [r7, #16]
 8007966:	f423 5300 	bic.w	r3, r3, #8192	; 0x2000
 800796a:	613b      	str	r3, [r7, #16]
  /* Set the Output Compare Polarity */
  tmpccer |= (OC_Config->OCPolarity << 12U);
 800796c:	683b      	ldr	r3, [r7, #0]
 800796e:	689b      	ldr	r3, [r3, #8]
 8007970:	031b      	lsls	r3, r3, #12
 8007972:	693a      	ldr	r2, [r7, #16]
 8007974:	4313      	orrs	r3, r2
 8007976:	613b      	str	r3, [r7, #16]

  if (IS_TIM_BREAK_INSTANCE(TIMx))
 8007978:	687b      	ldr	r3, [r7, #4]
 800797a:	4a0f      	ldr	r2, [pc, #60]	; (80079b8 <TIM_OC4_SetConfig+0x98>)
 800797c:	4293      	cmp	r3, r2
 800797e:	d109      	bne.n	8007994 <TIM_OC4_SetConfig+0x74>
  {
    /* Check parameters */
    assert_param(IS_TIM_OCIDLE_STATE(OC_Config->OCIdleState));

    /* Reset the Output Compare IDLE State */
    tmpcr2 &= ~TIM_CR2_OIS4;
 8007980:	697b      	ldr	r3, [r7, #20]
 8007982:	f423 4380 	bic.w	r3, r3, #16384	; 0x4000
 8007986:	617b      	str	r3, [r7, #20]

    /* Set the Output Idle state */
    tmpcr2 |= (OC_Config->OCIdleState << 6U);
 8007988:	683b      	ldr	r3, [r7, #0]
 800798a:	695b      	ldr	r3, [r3, #20]
 800798c:	019b      	lsls	r3, r3, #6
 800798e:	697a      	ldr	r2, [r7, #20]
 8007990:	4313      	orrs	r3, r2
 8007992:	617b      	str	r3, [r7, #20]
  }

  /* Write to TIMx CR2 */
  TIMx->CR2 = tmpcr2;
 8007994:	687b      	ldr	r3, [r7, #4]
 8007996:	697a      	ldr	r2, [r7, #20]
 8007998:	605a      	str	r2, [r3, #4]

  /* Write to TIMx CCMR2 */
  TIMx->CCMR2 = tmpccmrx;
 800799a:	687b      	ldr	r3, [r7, #4]
 800799c:	68fa      	ldr	r2, [r7, #12]
 800799e:	61da      	str	r2, [r3, #28]

  /* Set the Capture Compare Register value */
  TIMx->CCR4 = OC_Config->Pulse;
 80079a0:	683b      	ldr	r3, [r7, #0]
 80079a2:	685a      	ldr	r2, [r3, #4]
 80079a4:	687b      	ldr	r3, [r7, #4]
 80079a6:	641a      	str	r2, [r3, #64]	; 0x40

  /* Write to TIMx CCER */
  TIMx->CCER = tmpccer;
 80079a8:	687b      	ldr	r3, [r7, #4]
 80079aa:	693a      	ldr	r2, [r7, #16]
 80079ac:	621a      	str	r2, [r3, #32]
}
 80079ae:	bf00      	nop
 80079b0:	371c      	adds	r7, #28
 80079b2:	46bd      	mov	sp, r7
 80079b4:	bc80      	pop	{r7}
 80079b6:	4770      	bx	lr
 80079b8:	40012c00 	.word	0x40012c00

080079bc <TIM_TI1_ConfigInputStage>:
  * @param  TIM_ICFilter Specifies the Input Capture Filter.
  *          This parameter must be a value between 0x00 and 0x0F.
  * @retval None
  */
static void TIM_TI1_ConfigInputStage(TIM_TypeDef *TIMx, uint32_t TIM_ICPolarity, uint32_t TIM_ICFilter)
{
 80079bc:	b480      	push	{r7}
 80079be:	b087      	sub	sp, #28
 80079c0:	af00      	add	r7, sp, #0
 80079c2:	60f8      	str	r0, [r7, #12]
 80079c4:	60b9      	str	r1, [r7, #8]
 80079c6:	607a      	str	r2, [r7, #4]
  uint32_t tmpccmr1;
  uint32_t tmpccer;

  /* Disable the Channel 1: Reset the CC1E Bit */
  tmpccer = TIMx->CCER;
 80079c8:	68fb      	ldr	r3, [r7, #12]
 80079ca:	6a1b      	ldr	r3, [r3, #32]
 80079cc:	617b      	str	r3, [r7, #20]
  TIMx->CCER &= ~TIM_CCER_CC1E;
 80079ce:	68fb      	ldr	r3, [r7, #12]
 80079d0:	6a1b      	ldr	r3, [r3, #32]
 80079d2:	f023 0201 	bic.w	r2, r3, #1
 80079d6:	68fb      	ldr	r3, [r7, #12]
 80079d8:	621a      	str	r2, [r3, #32]
  tmpccmr1 = TIMx->CCMR1;
 80079da:	68fb      	ldr	r3, [r7, #12]
 80079dc:	699b      	ldr	r3, [r3, #24]
 80079de:	613b      	str	r3, [r7, #16]

  /* Set the filter */
  tmpccmr1 &= ~TIM_CCMR1_IC1F;
 80079e0:	693b      	ldr	r3, [r7, #16]
 80079e2:	f023 03f0 	bic.w	r3, r3, #240	; 0xf0
 80079e6:	613b      	str	r3, [r7, #16]
  tmpccmr1 |= (TIM_ICFilter << 4U);
 80079e8:	687b      	ldr	r3, [r7, #4]
 80079ea:	011b      	lsls	r3, r3, #4
 80079ec:	693a      	ldr	r2, [r7, #16]
 80079ee:	4313      	orrs	r3, r2
 80079f0:	613b      	str	r3, [r7, #16]

  /* Select the Polarity and set the CC1E Bit */
  tmpccer &= ~(TIM_CCER_CC1P | TIM_CCER_CC1NP);
 80079f2:	697b      	ldr	r3, [r7, #20]
 80079f4:	f023 030a 	bic.w	r3, r3, #10
 80079f8:	617b      	str	r3, [r7, #20]
  tmpccer |= TIM_ICPolarity;
 80079fa:	697a      	ldr	r2, [r7, #20]
 80079fc:	68bb      	ldr	r3, [r7, #8]
 80079fe:	4313      	orrs	r3, r2
 8007a00:	617b      	str	r3, [r7, #20]

  /* Write to TIMx CCMR1 and CCER registers */
  TIMx->CCMR1 = tmpccmr1;
 8007a02:	68fb      	ldr	r3, [r7, #12]
 8007a04:	693a      	ldr	r2, [r7, #16]
 8007a06:	619a      	str	r2, [r3, #24]
  TIMx->CCER = tmpccer;
 8007a08:	68fb      	ldr	r3, [r7, #12]
 8007a0a:	697a      	ldr	r2, [r7, #20]
 8007a0c:	621a      	str	r2, [r3, #32]
}
 8007a0e:	bf00      	nop
 8007a10:	371c      	adds	r7, #28
 8007a12:	46bd      	mov	sp, r7
 8007a14:	bc80      	pop	{r7}
 8007a16:	4770      	bx	lr

08007a18 <TIM_TI2_ConfigInputStage>:
  * @param  TIM_ICFilter Specifies the Input Capture Filter.
  *          This parameter must be a value between 0x00 and 0x0F.
  * @retval None
  */
static void TIM_TI2_ConfigInputStage(TIM_TypeDef *TIMx, uint32_t TIM_ICPolarity, uint32_t TIM_ICFilter)
{
 8007a18:	b480      	push	{r7}
 8007a1a:	b087      	sub	sp, #28
 8007a1c:	af00      	add	r7, sp, #0
 8007a1e:	60f8      	str	r0, [r7, #12]
 8007a20:	60b9      	str	r1, [r7, #8]
 8007a22:	607a      	str	r2, [r7, #4]
  uint32_t tmpccmr1;
  uint32_t tmpccer;

  /* Disable the Channel 2: Reset the CC2E Bit */
  tmpccer = TIMx->CCER;
 8007a24:	68fb      	ldr	r3, [r7, #12]
 8007a26:	6a1b      	ldr	r3, [r3, #32]
 8007a28:	617b      	str	r3, [r7, #20]
  TIMx->CCER &= ~TIM_CCER_CC2E;
 8007a2a:	68fb      	ldr	r3, [r7, #12]
 8007a2c:	6a1b      	ldr	r3, [r3, #32]
 8007a2e:	f023 0210 	bic.w	r2, r3, #16
 8007a32:	68fb      	ldr	r3, [r7, #12]
 8007a34:	621a      	str	r2, [r3, #32]
  tmpccmr1 = TIMx->CCMR1;
 8007a36:	68fb      	ldr	r3, [r7, #12]
 8007a38:	699b      	ldr	r3, [r3, #24]
 8007a3a:	613b      	str	r3, [r7, #16]

  /* Set the filter */
  tmpccmr1 &= ~TIM_CCMR1_IC2F;
 8007a3c:	693b      	ldr	r3, [r7, #16]
 8007a3e:	f423 4370 	bic.w	r3, r3, #61440	; 0xf000
 8007a42:	613b      	str	r3, [r7, #16]
  tmpccmr1 |= (TIM_ICFilter << 12U);
 8007a44:	687b      	ldr	r3, [r7, #4]
 8007a46:	031b      	lsls	r3, r3, #12
 8007a48:	693a      	ldr	r2, [r7, #16]
 8007a4a:	4313      	orrs	r3, r2
 8007a4c:	613b      	str	r3, [r7, #16]

  /* Select the Polarity and set the CC2E Bit */
  tmpccer &= ~(TIM_CCER_CC2P | TIM_CCER_CC2NP);
 8007a4e:	697b      	ldr	r3, [r7, #20]
 8007a50:	f023 03a0 	bic.w	r3, r3, #160	; 0xa0
 8007a54:	617b      	str	r3, [r7, #20]
  tmpccer |= (TIM_ICPolarity << 4U);
 8007a56:	68bb      	ldr	r3, [r7, #8]
 8007a58:	011b      	lsls	r3, r3, #4
 8007a5a:	697a      	ldr	r2, [r7, #20]
 8007a5c:	4313      	orrs	r3, r2
 8007a5e:	617b      	str	r3, [r7, #20]

  /* Write to TIMx CCMR1 and CCER registers */
  TIMx->CCMR1 = tmpccmr1 ;
 8007a60:	68fb      	ldr	r3, [r7, #12]
 8007a62:	693a      	ldr	r2, [r7, #16]
 8007a64:	619a      	str	r2, [r3, #24]
  TIMx->CCER = tmpccer;
 8007a66:	68fb      	ldr	r3, [r7, #12]
 8007a68:	697a      	ldr	r2, [r7, #20]
 8007a6a:	621a      	str	r2, [r3, #32]
}
 8007a6c:	bf00      	nop
 8007a6e:	371c      	adds	r7, #28
 8007a70:	46bd      	mov	sp, r7
 8007a72:	bc80      	pop	{r7}
 8007a74:	4770      	bx	lr

08007a76 <TIM_ITRx_SetConfig>:
  *            @arg TIM_TS_TI2FP2: Filtered Timer Input 2
  *            @arg TIM_TS_ETRF: External Trigger input
  * @retval None
  */
static void TIM_ITRx_SetConfig(TIM_TypeDef *TIMx, uint32_t InputTriggerSource)
{
 8007a76:	b480      	push	{r7}
 8007a78:	b085      	sub	sp, #20
 8007a7a:	af00      	add	r7, sp, #0
 8007a7c:	6078      	str	r0, [r7, #4]
 8007a7e:	6039      	str	r1, [r7, #0]
  uint32_t tmpsmcr;

  /* Get the TIMx SMCR register value */
  tmpsmcr = TIMx->SMCR;
 8007a80:	687b      	ldr	r3, [r7, #4]
 8007a82:	689b      	ldr	r3, [r3, #8]
 8007a84:	60fb      	str	r3, [r7, #12]
  /* Reset the TS Bits */
  tmpsmcr &= ~TIM_SMCR_TS;
 8007a86:	68fb      	ldr	r3, [r7, #12]
 8007a88:	f023 0370 	bic.w	r3, r3, #112	; 0x70
 8007a8c:	60fb      	str	r3, [r7, #12]
  /* Set the Input Trigger source and the slave mode*/
  tmpsmcr |= (InputTriggerSource | TIM_SLAVEMODE_EXTERNAL1);
 8007a8e:	683a      	ldr	r2, [r7, #0]
 8007a90:	68fb      	ldr	r3, [r7, #12]
 8007a92:	4313      	orrs	r3, r2
 8007a94:	f043 0307 	orr.w	r3, r3, #7
 8007a98:	60fb      	str	r3, [r7, #12]
  /* Write to TIMx SMCR */
  TIMx->SMCR = tmpsmcr;
 8007a9a:	687b      	ldr	r3, [r7, #4]
 8007a9c:	68fa      	ldr	r2, [r7, #12]
 8007a9e:	609a      	str	r2, [r3, #8]
}
 8007aa0:	bf00      	nop
 8007aa2:	3714      	adds	r7, #20
 8007aa4:	46bd      	mov	sp, r7
 8007aa6:	bc80      	pop	{r7}
 8007aa8:	4770      	bx	lr

08007aaa <TIM_ETR_SetConfig>:
  *          This parameter must be a value between 0x00 and 0x0F
  * @retval None
  */
void TIM_ETR_SetConfig(TIM_TypeDef *TIMx, uint32_t TIM_ExtTRGPrescaler,
                       uint32_t TIM_ExtTRGPolarity, uint32_t ExtTRGFilter)
{
 8007aaa:	b480      	push	{r7}
 8007aac:	b087      	sub	sp, #28
 8007aae:	af00      	add	r7, sp, #0
 8007ab0:	60f8      	str	r0, [r7, #12]
 8007ab2:	60b9      	str	r1, [r7, #8]
 8007ab4:	607a      	str	r2, [r7, #4]
 8007ab6:	603b      	str	r3, [r7, #0]
  uint32_t tmpsmcr;

  tmpsmcr = TIMx->SMCR;
 8007ab8:	68fb      	ldr	r3, [r7, #12]
 8007aba:	689b      	ldr	r3, [r3, #8]
 8007abc:	617b      	str	r3, [r7, #20]

  /* Reset the ETR Bits */
  tmpsmcr &= ~(TIM_SMCR_ETF | TIM_SMCR_ETPS | TIM_SMCR_ECE | TIM_SMCR_ETP);
 8007abe:	697b      	ldr	r3, [r7, #20]
 8007ac0:	f423 437f 	bic.w	r3, r3, #65280	; 0xff00
 8007ac4:	617b      	str	r3, [r7, #20]

  /* Set the Prescaler, the Filter value and the Polarity */
  tmpsmcr |= (uint32_t)(TIM_ExtTRGPrescaler | (TIM_ExtTRGPolarity | (ExtTRGFilter << 8U)));
 8007ac6:	683b      	ldr	r3, [r7, #0]
 8007ac8:	021a      	lsls	r2, r3, #8
 8007aca:	687b      	ldr	r3, [r7, #4]
 8007acc:	431a      	orrs	r2, r3
 8007ace:	68bb      	ldr	r3, [r7, #8]
 8007ad0:	4313      	orrs	r3, r2
 8007ad2:	697a      	ldr	r2, [r7, #20]
 8007ad4:	4313      	orrs	r3, r2
 8007ad6:	617b      	str	r3, [r7, #20]

  /* Write to TIMx SMCR */
  TIMx->SMCR = tmpsmcr;
 8007ad8:	68fb      	ldr	r3, [r7, #12]
 8007ada:	697a      	ldr	r2, [r7, #20]
 8007adc:	609a      	str	r2, [r3, #8]
}
 8007ade:	bf00      	nop
 8007ae0:	371c      	adds	r7, #28
 8007ae2:	46bd      	mov	sp, r7
 8007ae4:	bc80      	pop	{r7}
 8007ae6:	4770      	bx	lr

08007ae8 <TIM_CCxChannelCmd>:
  * @param  ChannelState specifies the TIM Channel CCxE bit new state.
  *          This parameter can be: TIM_CCx_ENABLE or TIM_CCx_DISABLE.
  * @retval None
  */
void TIM_CCxChannelCmd(TIM_TypeDef *TIMx, uint32_t Channel, uint32_t ChannelState)
{
 8007ae8:	b480      	push	{r7}
 8007aea:	b087      	sub	sp, #28
 8007aec:	af00      	add	r7, sp, #0
 8007aee:	60f8      	str	r0, [r7, #12]
 8007af0:	60b9      	str	r1, [r7, #8]
 8007af2:	607a      	str	r2, [r7, #4]

  /* Check the parameters */
  assert_param(IS_TIM_CC1_INSTANCE(TIMx));
  assert_param(IS_TIM_CHANNELS(Channel));

  tmp = TIM_CCER_CC1E << (Channel & 0x1FU); /* 0x1FU = 31 bits max shift */
 8007af4:	68bb      	ldr	r3, [r7, #8]
 8007af6:	f003 031f 	and.w	r3, r3, #31
 8007afa:	2201      	movs	r2, #1
 8007afc:	fa02 f303 	lsl.w	r3, r2, r3
 8007b00:	617b      	str	r3, [r7, #20]

  /* Reset the CCxE Bit */
  TIMx->CCER &= ~tmp;
 8007b02:	68fb      	ldr	r3, [r7, #12]
 8007b04:	6a1a      	ldr	r2, [r3, #32]
 8007b06:	697b      	ldr	r3, [r7, #20]
 8007b08:	43db      	mvns	r3, r3
 8007b0a:	401a      	ands	r2, r3
 8007b0c:	68fb      	ldr	r3, [r7, #12]
 8007b0e:	621a      	str	r2, [r3, #32]

  /* Set or reset the CCxE Bit */
  TIMx->CCER |= (uint32_t)(ChannelState << (Channel & 0x1FU)); /* 0x1FU = 31 bits max shift */
 8007b10:	68fb      	ldr	r3, [r7, #12]
 8007b12:	6a1a      	ldr	r2, [r3, #32]
 8007b14:	68bb      	ldr	r3, [r7, #8]
 8007b16:	f003 031f 	and.w	r3, r3, #31
 8007b1a:	6879      	ldr	r1, [r7, #4]
 8007b1c:	fa01 f303 	lsl.w	r3, r1, r3
 8007b20:	431a      	orrs	r2, r3
 8007b22:	68fb      	ldr	r3, [r7, #12]
 8007b24:	621a      	str	r2, [r3, #32]
}
 8007b26:	bf00      	nop
 8007b28:	371c      	adds	r7, #28
 8007b2a:	46bd      	mov	sp, r7
 8007b2c:	bc80      	pop	{r7}
 8007b2e:	4770      	bx	lr

08007b30 <HAL_TIMEx_MasterConfigSynchronization>:
  *         mode.
  * @retval HAL status
  */
HAL_StatusTypeDef HAL_TIMEx_MasterConfigSynchronization(TIM_HandleTypeDef *htim,
                                                        const TIM_MasterConfigTypeDef *sMasterConfig)
{
 8007b30:	b480      	push	{r7}
 8007b32:	b085      	sub	sp, #20
 8007b34:	af00      	add	r7, sp, #0
 8007b36:	6078      	str	r0, [r7, #4]
 8007b38:	6039      	str	r1, [r7, #0]
  assert_param(IS_TIM_MASTER_INSTANCE(htim->Instance));
  assert_param(IS_TIM_TRGO_SOURCE(sMasterConfig->MasterOutputTrigger));
  assert_param(IS_TIM_MSM_STATE(sMasterConfig->MasterSlaveMode));

  /* Check input state */
  __HAL_LOCK(htim);
 8007b3a:	687b      	ldr	r3, [r7, #4]
 8007b3c:	f893 303c 	ldrb.w	r3, [r3, #60]	; 0x3c
 8007b40:	2b01      	cmp	r3, #1
 8007b42:	d101      	bne.n	8007b48 <HAL_TIMEx_MasterConfigSynchronization+0x18>
 8007b44:	2302      	movs	r3, #2
 8007b46:	e046      	b.n	8007bd6 <HAL_TIMEx_MasterConfigSynchronization+0xa6>
 8007b48:	687b      	ldr	r3, [r7, #4]
 8007b4a:	2201      	movs	r2, #1
 8007b4c:	f883 203c 	strb.w	r2, [r3, #60]	; 0x3c

  /* Change the handler state */
  htim->State = HAL_TIM_STATE_BUSY;
 8007b50:	687b      	ldr	r3, [r7, #4]
 8007b52:	2202      	movs	r2, #2
 8007b54:	f883 203d 	strb.w	r2, [r3, #61]	; 0x3d

  /* Get the TIMx CR2 register value */
  tmpcr2 = htim->Instance->CR2;
 8007b58:	687b      	ldr	r3, [r7, #4]
 8007b5a:	681b      	ldr	r3, [r3, #0]
 8007b5c:	685b      	ldr	r3, [r3, #4]
 8007b5e:	60fb      	str	r3, [r7, #12]

  /* Get the TIMx SMCR register value */
  tmpsmcr = htim->Instance->SMCR;
 8007b60:	687b      	ldr	r3, [r7, #4]
 8007b62:	681b      	ldr	r3, [r3, #0]
 8007b64:	689b      	ldr	r3, [r3, #8]
 8007b66:	60bb      	str	r3, [r7, #8]

  /* Reset the MMS Bits */
  tmpcr2 &= ~TIM_CR2_MMS;
 8007b68:	68fb      	ldr	r3, [r7, #12]
 8007b6a:	f023 0370 	bic.w	r3, r3, #112	; 0x70
 8007b6e:	60fb      	str	r3, [r7, #12]
  /* Select the TRGO source */
  tmpcr2 |=  sMasterConfig->MasterOutputTrigger;
 8007b70:	683b      	ldr	r3, [r7, #0]
 8007b72:	681b      	ldr	r3, [r3, #0]
 8007b74:	68fa      	ldr	r2, [r7, #12]
 8007b76:	4313      	orrs	r3, r2
 8007b78:	60fb      	str	r3, [r7, #12]

  /* Update TIMx CR2 */
  htim->Instance->CR2 = tmpcr2;
 8007b7a:	687b      	ldr	r3, [r7, #4]
 8007b7c:	681b      	ldr	r3, [r3, #0]
 8007b7e:	68fa      	ldr	r2, [r7, #12]
 8007b80:	605a      	str	r2, [r3, #4]

  if (IS_TIM_SLAVE_INSTANCE(htim->Instance))
 8007b82:	687b      	ldr	r3, [r7, #4]
 8007b84:	681b      	ldr	r3, [r3, #0]
 8007b86:	4a16      	ldr	r2, [pc, #88]	; (8007be0 <HAL_TIMEx_MasterConfigSynchronization+0xb0>)
 8007b88:	4293      	cmp	r3, r2
 8007b8a:	d00e      	beq.n	8007baa <HAL_TIMEx_MasterConfigSynchronization+0x7a>
 8007b8c:	687b      	ldr	r3, [r7, #4]
 8007b8e:	681b      	ldr	r3, [r3, #0]
 8007b90:	f1b3 4f80 	cmp.w	r3, #1073741824	; 0x40000000
 8007b94:	d009      	beq.n	8007baa <HAL_TIMEx_MasterConfigSynchronization+0x7a>
 8007b96:	687b      	ldr	r3, [r7, #4]
 8007b98:	681b      	ldr	r3, [r3, #0]
 8007b9a:	4a12      	ldr	r2, [pc, #72]	; (8007be4 <HAL_TIMEx_MasterConfigSynchronization+0xb4>)
 8007b9c:	4293      	cmp	r3, r2
 8007b9e:	d004      	beq.n	8007baa <HAL_TIMEx_MasterConfigSynchronization+0x7a>
 8007ba0:	687b      	ldr	r3, [r7, #4]
 8007ba2:	681b      	ldr	r3, [r3, #0]
 8007ba4:	4a10      	ldr	r2, [pc, #64]	; (8007be8 <HAL_TIMEx_MasterConfigSynchronization+0xb8>)
 8007ba6:	4293      	cmp	r3, r2
 8007ba8:	d10c      	bne.n	8007bc4 <HAL_TIMEx_MasterConfigSynchronization+0x94>
  {
    /* Reset the MSM Bit */
    tmpsmcr &= ~TIM_SMCR_MSM;
 8007baa:	68bb      	ldr	r3, [r7, #8]
 8007bac:	f023 0380 	bic.w	r3, r3, #128	; 0x80
 8007bb0:	60bb      	str	r3, [r7, #8]
    /* Set master mode */
    tmpsmcr |= sMasterConfig->MasterSlaveMode;
 8007bb2:	683b      	ldr	r3, [r7, #0]
 8007bb4:	685b      	ldr	r3, [r3, #4]
 8007bb6:	68ba      	ldr	r2, [r7, #8]
 8007bb8:	4313      	orrs	r3, r2
 8007bba:	60bb      	str	r3, [r7, #8]

    /* Update TIMx SMCR */
    htim->Instance->SMCR = tmpsmcr;
 8007bbc:	687b      	ldr	r3, [r7, #4]
 8007bbe:	681b      	ldr	r3, [r3, #0]
 8007bc0:	68ba      	ldr	r2, [r7, #8]
 8007bc2:	609a      	str	r2, [r3, #8]
  }

  /* Change the htim state */
  htim->State = HAL_TIM_STATE_READY;
 8007bc4:	687b      	ldr	r3, [r7, #4]
 8007bc6:	2201      	movs	r2, #1
 8007bc8:	f883 203d 	strb.w	r2, [r3, #61]	; 0x3d

  __HAL_UNLOCK(htim);
 8007bcc:	687b      	ldr	r3, [r7, #4]
 8007bce:	2200      	movs	r2, #0
 8007bd0:	f883 203c 	strb.w	r2, [r3, #60]	; 0x3c

  return HAL_OK;
 8007bd4:	2300      	movs	r3, #0
}
 8007bd6:	4618      	mov	r0, r3
 8007bd8:	3714      	adds	r7, #20
 8007bda:	46bd      	mov	sp, r7
 8007bdc:	bc80      	pop	{r7}
 8007bde:	4770      	bx	lr
 8007be0:	40012c00 	.word	0x40012c00
 8007be4:	40000400 	.word	0x40000400
 8007be8:	40000800 	.word	0x40000800

08007bec <HAL_TIMEx_CommutCallback>:
  * @brief  Hall commutation changed callback in non-blocking mode
  * @param  htim TIM handle
  * @retval None
  */
__weak void HAL_TIMEx_CommutCallback(TIM_HandleTypeDef *htim)
{
 8007bec:	b480      	push	{r7}
 8007bee:	b083      	sub	sp, #12
 8007bf0:	af00      	add	r7, sp, #0
 8007bf2:	6078      	str	r0, [r7, #4]
  UNUSED(htim);

  /* NOTE : This function should not be modified, when the callback is needed,
            the HAL_TIMEx_CommutCallback could be implemented in the user file
   */
}
 8007bf4:	bf00      	nop
 8007bf6:	370c      	adds	r7, #12
 8007bf8:	46bd      	mov	sp, r7
 8007bfa:	bc80      	pop	{r7}
 8007bfc:	4770      	bx	lr

08007bfe <HAL_TIMEx_BreakCallback>:
  * @brief  Hall Break detection callback in non-blocking mode
  * @param  htim TIM handle
  * @retval None
  */
__weak void HAL_TIMEx_BreakCallback(TIM_HandleTypeDef *htim)
{
 8007bfe:	b480      	push	{r7}
 8007c00:	b083      	sub	sp, #12
 8007c02:	af00      	add	r7, sp, #0
 8007c04:	6078      	str	r0, [r7, #4]
  UNUSED(htim);

  /* NOTE : This function should not be modified, when the callback is needed,
            the HAL_TIMEx_BreakCallback could be implemented in the user file
   */
}
 8007c06:	bf00      	nop
 8007c08:	370c      	adds	r7, #12
 8007c0a:	46bd      	mov	sp, r7
 8007c0c:	bc80      	pop	{r7}
 8007c0e:	4770      	bx	lr

08007c10 <HAL_UART_Init>:
  * @param  huart  Pointer to a UART_HandleTypeDef structure that contains
  *                the configuration information for the specified UART module.
  * @retval HAL status
  */
HAL_StatusTypeDef HAL_UART_Init(UART_HandleTypeDef *huart)
{
 8007c10:	b580      	push	{r7, lr}
 8007c12:	b082      	sub	sp, #8
 8007c14:	af00      	add	r7, sp, #0
 8007c16:	6078      	str	r0, [r7, #4]
  /* Check the UART handle allocation */
  if (huart == NULL)
 8007c18:	687b      	ldr	r3, [r7, #4]
 8007c1a:	2b00      	cmp	r3, #0
 8007c1c:	d101      	bne.n	8007c22 <HAL_UART_Init+0x12>
  {
    return HAL_ERROR;
 8007c1e:	2301      	movs	r3, #1
 8007c20:	e042      	b.n	8007ca8 <HAL_UART_Init+0x98>
  assert_param(IS_UART_WORD_LENGTH(huart->Init.WordLength));
#if defined(USART_CR1_OVER8)
  assert_param(IS_UART_OVERSAMPLING(huart->Init.OverSampling));
#endif /* USART_CR1_OVER8 */

  if (huart->gState == HAL_UART_STATE_RESET)
 8007c22:	687b      	ldr	r3, [r7, #4]
 8007c24:	f893 3041 	ldrb.w	r3, [r3, #65]	; 0x41
 8007c28:	b2db      	uxtb	r3, r3
 8007c2a:	2b00      	cmp	r3, #0
 8007c2c:	d106      	bne.n	8007c3c <HAL_UART_Init+0x2c>
  {
    /* Allocate lock resource and initialize it */
    huart->Lock = HAL_UNLOCKED;
 8007c2e:	687b      	ldr	r3, [r7, #4]
 8007c30:	2200      	movs	r2, #0
 8007c32:	f883 2040 	strb.w	r2, [r3, #64]	; 0x40

    /* Init the low level hardware */
    huart->MspInitCallback(huart);
#else
    /* Init the low level hardware : GPIO, CLOCK */
    HAL_UART_MspInit(huart);
 8007c36:	6878      	ldr	r0, [r7, #4]
 8007c38:	f7fc ff72 	bl	8004b20 <HAL_UART_MspInit>
#endif /* (USE_HAL_UART_REGISTER_CALLBACKS) */
  }

  huart->gState = HAL_UART_STATE_BUSY;
 8007c3c:	687b      	ldr	r3, [r7, #4]
 8007c3e:	2224      	movs	r2, #36	; 0x24
 8007c40:	f883 2041 	strb.w	r2, [r3, #65]	; 0x41

  /* Disable the peripheral */
  __HAL_UART_DISABLE(huart);
 8007c44:	687b      	ldr	r3, [r7, #4]
 8007c46:	681b      	ldr	r3, [r3, #0]
 8007c48:	68da      	ldr	r2, [r3, #12]
 8007c4a:	687b      	ldr	r3, [r7, #4]
 8007c4c:	681b      	ldr	r3, [r3, #0]
 8007c4e:	f422 5200 	bic.w	r2, r2, #8192	; 0x2000
 8007c52:	60da      	str	r2, [r3, #12]

  /* Set the UART Communication parameters */
  UART_SetConfig(huart);
 8007c54:	6878      	ldr	r0, [r7, #4]
 8007c56:	f000 fd71 	bl	800873c <UART_SetConfig>

  /* In asynchronous mode, the following bits must be kept cleared:
     - LINEN and CLKEN bits in the USART_CR2 register,
     - SCEN, HDSEL and IREN  bits in the USART_CR3 register.*/
  CLEAR_BIT(huart->Instance->CR2, (USART_CR2_LINEN | USART_CR2_CLKEN));
 8007c5a:	687b      	ldr	r3, [r7, #4]
 8007c5c:	681b      	ldr	r3, [r3, #0]
 8007c5e:	691a      	ldr	r2, [r3, #16]
 8007c60:	687b      	ldr	r3, [r7, #4]
 8007c62:	681b      	ldr	r3, [r3, #0]
 8007c64:	f422 4290 	bic.w	r2, r2, #18432	; 0x4800
 8007c68:	611a      	str	r2, [r3, #16]
  CLEAR_BIT(huart->Instance->CR3, (USART_CR3_SCEN | USART_CR3_HDSEL | USART_CR3_IREN));
 8007c6a:	687b      	ldr	r3, [r7, #4]
 8007c6c:	681b      	ldr	r3, [r3, #0]
 8007c6e:	695a      	ldr	r2, [r3, #20]
 8007c70:	687b      	ldr	r3, [r7, #4]
 8007c72:	681b      	ldr	r3, [r3, #0]
 8007c74:	f022 022a 	bic.w	r2, r2, #42	; 0x2a
 8007c78:	615a      	str	r2, [r3, #20]

  /* Enable the peripheral */
  __HAL_UART_ENABLE(huart);
 8007c7a:	687b      	ldr	r3, [r7, #4]
 8007c7c:	681b      	ldr	r3, [r3, #0]
 8007c7e:	68da      	ldr	r2, [r3, #12]
 8007c80:	687b      	ldr	r3, [r7, #4]
 8007c82:	681b      	ldr	r3, [r3, #0]
 8007c84:	f442 5200 	orr.w	r2, r2, #8192	; 0x2000
 8007c88:	60da      	str	r2, [r3, #12]

  /* Initialize the UART state */
  huart->ErrorCode = HAL_UART_ERROR_NONE;
 8007c8a:	687b      	ldr	r3, [r7, #4]
 8007c8c:	2200      	movs	r2, #0
 8007c8e:	645a      	str	r2, [r3, #68]	; 0x44
  huart->gState = HAL_UART_STATE_READY;
 8007c90:	687b      	ldr	r3, [r7, #4]
 8007c92:	2220      	movs	r2, #32
 8007c94:	f883 2041 	strb.w	r2, [r3, #65]	; 0x41
  huart->RxState = HAL_UART_STATE_READY;
 8007c98:	687b      	ldr	r3, [r7, #4]
 8007c9a:	2220      	movs	r2, #32
 8007c9c:	f883 2042 	strb.w	r2, [r3, #66]	; 0x42
  huart->RxEventType = HAL_UART_RXEVENT_TC;
 8007ca0:	687b      	ldr	r3, [r7, #4]
 8007ca2:	2200      	movs	r2, #0
 8007ca4:	635a      	str	r2, [r3, #52]	; 0x34

  return HAL_OK;
 8007ca6:	2300      	movs	r3, #0
}
 8007ca8:	4618      	mov	r0, r3
 8007caa:	3708      	adds	r7, #8
 8007cac:	46bd      	mov	sp, r7
 8007cae:	bd80      	pop	{r7, pc}

08007cb0 <HAL_UART_Transmit>:
  * @param  Size  Amount of data elements (u8 or u16) to be sent
  * @param  Timeout Timeout duration
  * @retval HAL status
  */
HAL_StatusTypeDef HAL_UART_Transmit(UART_HandleTypeDef *huart, const uint8_t *pData, uint16_t Size, uint32_t Timeout)
{
 8007cb0:	b580      	push	{r7, lr}
 8007cb2:	b08a      	sub	sp, #40	; 0x28
 8007cb4:	af02      	add	r7, sp, #8
 8007cb6:	60f8      	str	r0, [r7, #12]
 8007cb8:	60b9      	str	r1, [r7, #8]
 8007cba:	603b      	str	r3, [r7, #0]
 8007cbc:	4613      	mov	r3, r2
 8007cbe:	80fb      	strh	r3, [r7, #6]
  const uint8_t  *pdata8bits;
  const uint16_t *pdata16bits;
  uint32_t tickstart = 0U;
 8007cc0:	2300      	movs	r3, #0
 8007cc2:	617b      	str	r3, [r7, #20]

  /* Check that a Tx process is not already ongoing */
  if (huart->gState == HAL_UART_STATE_READY)
 8007cc4:	68fb      	ldr	r3, [r7, #12]
 8007cc6:	f893 3041 	ldrb.w	r3, [r3, #65]	; 0x41
 8007cca:	b2db      	uxtb	r3, r3
 8007ccc:	2b20      	cmp	r3, #32
 8007cce:	d16d      	bne.n	8007dac <HAL_UART_Transmit+0xfc>
  {
    if ((pData == NULL) || (Size == 0U))
 8007cd0:	68bb      	ldr	r3, [r7, #8]
 8007cd2:	2b00      	cmp	r3, #0
 8007cd4:	d002      	beq.n	8007cdc <HAL_UART_Transmit+0x2c>
 8007cd6:	88fb      	ldrh	r3, [r7, #6]
 8007cd8:	2b00      	cmp	r3, #0
 8007cda:	d101      	bne.n	8007ce0 <HAL_UART_Transmit+0x30>
    {
      return  HAL_ERROR;
 8007cdc:	2301      	movs	r3, #1
 8007cde:	e066      	b.n	8007dae <HAL_UART_Transmit+0xfe>
    }

    huart->ErrorCode = HAL_UART_ERROR_NONE;
 8007ce0:	68fb      	ldr	r3, [r7, #12]
 8007ce2:	2200      	movs	r2, #0
 8007ce4:	645a      	str	r2, [r3, #68]	; 0x44
    huart->gState = HAL_UART_STATE_BUSY_TX;
 8007ce6:	68fb      	ldr	r3, [r7, #12]
 8007ce8:	2221      	movs	r2, #33	; 0x21
 8007cea:	f883 2041 	strb.w	r2, [r3, #65]	; 0x41

    /* Init tickstart for timeout management */
    tickstart = HAL_GetTick();
 8007cee:	f7fd f861 	bl	8004db4 <HAL_GetTick>
 8007cf2:	6178      	str	r0, [r7, #20]

    huart->TxXferSize = Size;
 8007cf4:	68fb      	ldr	r3, [r7, #12]
 8007cf6:	88fa      	ldrh	r2, [r7, #6]
 8007cf8:	849a      	strh	r2, [r3, #36]	; 0x24
    huart->TxXferCount = Size;
 8007cfa:	68fb      	ldr	r3, [r7, #12]
 8007cfc:	88fa      	ldrh	r2, [r7, #6]
 8007cfe:	84da      	strh	r2, [r3, #38]	; 0x26

    /* In case of 9bits/No Parity transfer, pData needs to be handled as a uint16_t pointer */
    if ((huart->Init.WordLength == UART_WORDLENGTH_9B) && (huart->Init.Parity == UART_PARITY_NONE))
 8007d00:	68fb      	ldr	r3, [r7, #12]
 8007d02:	689b      	ldr	r3, [r3, #8]
 8007d04:	f5b3 5f80 	cmp.w	r3, #4096	; 0x1000
 8007d08:	d108      	bne.n	8007d1c <HAL_UART_Transmit+0x6c>
 8007d0a:	68fb      	ldr	r3, [r7, #12]
 8007d0c:	691b      	ldr	r3, [r3, #16]
 8007d0e:	2b00      	cmp	r3, #0
 8007d10:	d104      	bne.n	8007d1c <HAL_UART_Transmit+0x6c>
    {
      pdata8bits  = NULL;
 8007d12:	2300      	movs	r3, #0
 8007d14:	61fb      	str	r3, [r7, #28]
      pdata16bits = (const uint16_t *) pData;
 8007d16:	68bb      	ldr	r3, [r7, #8]
 8007d18:	61bb      	str	r3, [r7, #24]
 8007d1a:	e003      	b.n	8007d24 <HAL_UART_Transmit+0x74>
    }
    else
    {
      pdata8bits  = pData;
 8007d1c:	68bb      	ldr	r3, [r7, #8]
 8007d1e:	61fb      	str	r3, [r7, #28]
      pdata16bits = NULL;
 8007d20:	2300      	movs	r3, #0
 8007d22:	61bb      	str	r3, [r7, #24]
    }

    while (huart->TxXferCount > 0U)
 8007d24:	e02a      	b.n	8007d7c <HAL_UART_Transmit+0xcc>
    {
      if (UART_WaitOnFlagUntilTimeout(huart, UART_FLAG_TXE, RESET, tickstart, Timeout) != HAL_OK)
 8007d26:	683b      	ldr	r3, [r7, #0]
 8007d28:	9300      	str	r3, [sp, #0]
 8007d2a:	697b      	ldr	r3, [r7, #20]
 8007d2c:	2200      	movs	r2, #0
 8007d2e:	2180      	movs	r1, #128	; 0x80
 8007d30:	68f8      	ldr	r0, [r7, #12]
 8007d32:	f000 faf9 	bl	8008328 <UART_WaitOnFlagUntilTimeout>
 8007d36:	4603      	mov	r3, r0
 8007d38:	2b00      	cmp	r3, #0
 8007d3a:	d001      	beq.n	8007d40 <HAL_UART_Transmit+0x90>
      {
        return HAL_TIMEOUT;
 8007d3c:	2303      	movs	r3, #3
 8007d3e:	e036      	b.n	8007dae <HAL_UART_Transmit+0xfe>
      }
      if (pdata8bits == NULL)
 8007d40:	69fb      	ldr	r3, [r7, #28]
 8007d42:	2b00      	cmp	r3, #0
 8007d44:	d10b      	bne.n	8007d5e <HAL_UART_Transmit+0xae>
      {
        huart->Instance->DR = (uint16_t)(*pdata16bits & 0x01FFU);
 8007d46:	69bb      	ldr	r3, [r7, #24]
 8007d48:	881b      	ldrh	r3, [r3, #0]
 8007d4a:	461a      	mov	r2, r3
 8007d4c:	68fb      	ldr	r3, [r7, #12]
 8007d4e:	681b      	ldr	r3, [r3, #0]
 8007d50:	f3c2 0208 	ubfx	r2, r2, #0, #9
 8007d54:	605a      	str	r2, [r3, #4]
        pdata16bits++;
 8007d56:	69bb      	ldr	r3, [r7, #24]
 8007d58:	3302      	adds	r3, #2
 8007d5a:	61bb      	str	r3, [r7, #24]
 8007d5c:	e007      	b.n	8007d6e <HAL_UART_Transmit+0xbe>
      }
      else
      {
        huart->Instance->DR = (uint8_t)(*pdata8bits & 0xFFU);
 8007d5e:	69fb      	ldr	r3, [r7, #28]
 8007d60:	781a      	ldrb	r2, [r3, #0]
 8007d62:	68fb      	ldr	r3, [r7, #12]
 8007d64:	681b      	ldr	r3, [r3, #0]
 8007d66:	605a      	str	r2, [r3, #4]
        pdata8bits++;
 8007d68:	69fb      	ldr	r3, [r7, #28]
 8007d6a:	3301      	adds	r3, #1
 8007d6c:	61fb      	str	r3, [r7, #28]
      }
      huart->TxXferCount--;
 8007d6e:	68fb      	ldr	r3, [r7, #12]
 8007d70:	8cdb      	ldrh	r3, [r3, #38]	; 0x26
 8007d72:	b29b      	uxth	r3, r3
 8007d74:	3b01      	subs	r3, #1
 8007d76:	b29a      	uxth	r2, r3
 8007d78:	68fb      	ldr	r3, [r7, #12]
 8007d7a:	84da      	strh	r2, [r3, #38]	; 0x26
    while (huart->TxXferCount > 0U)
 8007d7c:	68fb      	ldr	r3, [r7, #12]
 8007d7e:	8cdb      	ldrh	r3, [r3, #38]	; 0x26
 8007d80:	b29b      	uxth	r3, r3
 8007d82:	2b00      	cmp	r3, #0
 8007d84:	d1cf      	bne.n	8007d26 <HAL_UART_Transmit+0x76>
    }

    if (UART_WaitOnFlagUntilTimeout(huart, UART_FLAG_TC, RESET, tickstart, Timeout) != HAL_OK)
 8007d86:	683b      	ldr	r3, [r7, #0]
 8007d88:	9300      	str	r3, [sp, #0]
 8007d8a:	697b      	ldr	r3, [r7, #20]
 8007d8c:	2200      	movs	r2, #0
 8007d8e:	2140      	movs	r1, #64	; 0x40
 8007d90:	68f8      	ldr	r0, [r7, #12]
 8007d92:	f000 fac9 	bl	8008328 <UART_WaitOnFlagUntilTimeout>
 8007d96:	4603      	mov	r3, r0
 8007d98:	2b00      	cmp	r3, #0
 8007d9a:	d001      	beq.n	8007da0 <HAL_UART_Transmit+0xf0>
    {
      return HAL_TIMEOUT;
 8007d9c:	2303      	movs	r3, #3
 8007d9e:	e006      	b.n	8007dae <HAL_UART_Transmit+0xfe>
    }

    /* At end of Tx process, restore huart->gState to Ready */
    huart->gState = HAL_UART_STATE_READY;
 8007da0:	68fb      	ldr	r3, [r7, #12]
 8007da2:	2220      	movs	r2, #32
 8007da4:	f883 2041 	strb.w	r2, [r3, #65]	; 0x41

    return HAL_OK;
 8007da8:	2300      	movs	r3, #0
 8007daa:	e000      	b.n	8007dae <HAL_UART_Transmit+0xfe>
  }
  else
  {
    return HAL_BUSY;
 8007dac:	2302      	movs	r3, #2
  }
}
 8007dae:	4618      	mov	r0, r3
 8007db0:	3720      	adds	r7, #32
 8007db2:	46bd      	mov	sp, r7
 8007db4:	bd80      	pop	{r7, pc}
	...

08007db8 <HAL_UART_IRQHandler>:
  * @param  huart  Pointer to a UART_HandleTypeDef structure that contains
  *                the configuration information for the specified UART module.
  * @retval None
  */
void HAL_UART_IRQHandler(UART_HandleTypeDef *huart)
{
 8007db8:	b580      	push	{r7, lr}
 8007dba:	b0ba      	sub	sp, #232	; 0xe8
 8007dbc:	af00      	add	r7, sp, #0
 8007dbe:	6078      	str	r0, [r7, #4]
  uint32_t isrflags   = READ_REG(huart->Instance->SR);
 8007dc0:	687b      	ldr	r3, [r7, #4]
 8007dc2:	681b      	ldr	r3, [r3, #0]
 8007dc4:	681b      	ldr	r3, [r3, #0]
 8007dc6:	f8c7 30e4 	str.w	r3, [r7, #228]	; 0xe4
  uint32_t cr1its     = READ_REG(huart->Instance->CR1);
 8007dca:	687b      	ldr	r3, [r7, #4]
 8007dcc:	681b      	ldr	r3, [r3, #0]
 8007dce:	68db      	ldr	r3, [r3, #12]
 8007dd0:	f8c7 30e0 	str.w	r3, [r7, #224]	; 0xe0
  uint32_t cr3its     = READ_REG(huart->Instance->CR3);
 8007dd4:	687b      	ldr	r3, [r7, #4]
 8007dd6:	681b      	ldr	r3, [r3, #0]
 8007dd8:	695b      	ldr	r3, [r3, #20]
 8007dda:	f8c7 30dc 	str.w	r3, [r7, #220]	; 0xdc
  uint32_t errorflags = 0x00U;
 8007dde:	2300      	movs	r3, #0
 8007de0:	f8c7 30d8 	str.w	r3, [r7, #216]	; 0xd8
  uint32_t dmarequest = 0x00U;
 8007de4:	2300      	movs	r3, #0
 8007de6:	f8c7 30d4 	str.w	r3, [r7, #212]	; 0xd4

  /* If no error occurs */
  errorflags = (isrflags & (uint32_t)(USART_SR_PE | USART_SR_FE | USART_SR_ORE | USART_SR_NE));
 8007dea:	f8d7 30e4 	ldr.w	r3, [r7, #228]	; 0xe4
 8007dee:	f003 030f 	and.w	r3, r3, #15
 8007df2:	f8c7 30d8 	str.w	r3, [r7, #216]	; 0xd8
  if (errorflags == RESET)
 8007df6:	f8d7 30d8 	ldr.w	r3, [r7, #216]	; 0xd8
 8007dfa:	2b00      	cmp	r3, #0
 8007dfc:	d10f      	bne.n	8007e1e <HAL_UART_IRQHandler+0x66>
  {
    /* UART in mode Receiver -------------------------------------------------*/
    if (((isrflags & USART_SR_RXNE) != RESET) && ((cr1its & USART_CR1_RXNEIE) != RESET))
 8007dfe:	f8d7 30e4 	ldr.w	r3, [r7, #228]	; 0xe4
 8007e02:	f003 0320 	and.w	r3, r3, #32
 8007e06:	2b00      	cmp	r3, #0
 8007e08:	d009      	beq.n	8007e1e <HAL_UART_IRQHandler+0x66>
 8007e0a:	f8d7 30e0 	ldr.w	r3, [r7, #224]	; 0xe0
 8007e0e:	f003 0320 	and.w	r3, r3, #32
 8007e12:	2b00      	cmp	r3, #0
 8007e14:	d003      	beq.n	8007e1e <HAL_UART_IRQHandler+0x66>
    {
      UART_Receive_IT(huart);
 8007e16:	6878      	ldr	r0, [r7, #4]
 8007e18:	f000 fbd1 	bl	80085be <UART_Receive_IT>
      return;
 8007e1c:	e25b      	b.n	80082d6 <HAL_UART_IRQHandler+0x51e>
    }
  }

  /* If some errors occur */
  if ((errorflags != RESET) && (((cr3its & USART_CR3_EIE) != RESET)
 8007e1e:	f8d7 30d8 	ldr.w	r3, [r7, #216]	; 0xd8
 8007e22:	2b00      	cmp	r3, #0
 8007e24:	f000 80de 	beq.w	8007fe4 <HAL_UART_IRQHandler+0x22c>
 8007e28:	f8d7 30dc 	ldr.w	r3, [r7, #220]	; 0xdc
 8007e2c:	f003 0301 	and.w	r3, r3, #1
 8007e30:	2b00      	cmp	r3, #0
 8007e32:	d106      	bne.n	8007e42 <HAL_UART_IRQHandler+0x8a>
                                || ((cr1its & (USART_CR1_RXNEIE | USART_CR1_PEIE)) != RESET)))
 8007e34:	f8d7 30e0 	ldr.w	r3, [r7, #224]	; 0xe0
 8007e38:	f403 7390 	and.w	r3, r3, #288	; 0x120
 8007e3c:	2b00      	cmp	r3, #0
 8007e3e:	f000 80d1 	beq.w	8007fe4 <HAL_UART_IRQHandler+0x22c>
  {
    /* UART parity error interrupt occurred ----------------------------------*/
    if (((isrflags & USART_SR_PE) != RESET) && ((cr1its & USART_CR1_PEIE) != RESET))
 8007e42:	f8d7 30e4 	ldr.w	r3, [r7, #228]	; 0xe4
 8007e46:	f003 0301 	and.w	r3, r3, #1
 8007e4a:	2b00      	cmp	r3, #0
 8007e4c:	d00b      	beq.n	8007e66 <HAL_UART_IRQHandler+0xae>
 8007e4e:	f8d7 30e0 	ldr.w	r3, [r7, #224]	; 0xe0
 8007e52:	f403 7380 	and.w	r3, r3, #256	; 0x100
 8007e56:	2b00      	cmp	r3, #0
 8007e58:	d005      	beq.n	8007e66 <HAL_UART_IRQHandler+0xae>
    {
      huart->ErrorCode |= HAL_UART_ERROR_PE;
 8007e5a:	687b      	ldr	r3, [r7, #4]
 8007e5c:	6c5b      	ldr	r3, [r3, #68]	; 0x44
 8007e5e:	f043 0201 	orr.w	r2, r3, #1
 8007e62:	687b      	ldr	r3, [r7, #4]
 8007e64:	645a      	str	r2, [r3, #68]	; 0x44
    }

    /* UART noise error interrupt occurred -----------------------------------*/
    if (((isrflags & USART_SR_NE) != RESET) && ((cr3its & USART_CR3_EIE) != RESET))
 8007e66:	f8d7 30e4 	ldr.w	r3, [r7, #228]	; 0xe4
 8007e6a:	f003 0304 	and.w	r3, r3, #4
 8007e6e:	2b00      	cmp	r3, #0
 8007e70:	d00b      	beq.n	8007e8a <HAL_UART_IRQHandler+0xd2>
 8007e72:	f8d7 30dc 	ldr.w	r3, [r7, #220]	; 0xdc
 8007e76:	f003 0301 	and.w	r3, r3, #1
 8007e7a:	2b00      	cmp	r3, #0
 8007e7c:	d005      	beq.n	8007e8a <HAL_UART_IRQHandler+0xd2>
    {
      huart->ErrorCode |= HAL_UART_ERROR_NE;
 8007e7e:	687b      	ldr	r3, [r7, #4]
 8007e80:	6c5b      	ldr	r3, [r3, #68]	; 0x44
 8007e82:	f043 0202 	orr.w	r2, r3, #2
 8007e86:	687b      	ldr	r3, [r7, #4]
 8007e88:	645a      	str	r2, [r3, #68]	; 0x44
    }

    /* UART frame error interrupt occurred -----------------------------------*/
    if (((isrflags & USART_SR_FE) != RESET) && ((cr3its & USART_CR3_EIE) != RESET))
 8007e8a:	f8d7 30e4 	ldr.w	r3, [r7, #228]	; 0xe4
 8007e8e:	f003 0302 	and.w	r3, r3, #2
 8007e92:	2b00      	cmp	r3, #0
 8007e94:	d00b      	beq.n	8007eae <HAL_UART_IRQHandler+0xf6>
 8007e96:	f8d7 30dc 	ldr.w	r3, [r7, #220]	; 0xdc
 8007e9a:	f003 0301 	and.w	r3, r3, #1
 8007e9e:	2b00      	cmp	r3, #0
 8007ea0:	d005      	beq.n	8007eae <HAL_UART_IRQHandler+0xf6>
    {
      huart->ErrorCode |= HAL_UART_ERROR_FE;
 8007ea2:	687b      	ldr	r3, [r7, #4]
 8007ea4:	6c5b      	ldr	r3, [r3, #68]	; 0x44
 8007ea6:	f043 0204 	orr.w	r2, r3, #4
 8007eaa:	687b      	ldr	r3, [r7, #4]
 8007eac:	645a      	str	r2, [r3, #68]	; 0x44
    }

    /* UART Over-Run interrupt occurred --------------------------------------*/
    if (((isrflags & USART_SR_ORE) != RESET) && (((cr1its & USART_CR1_RXNEIE) != RESET)
 8007eae:	f8d7 30e4 	ldr.w	r3, [r7, #228]	; 0xe4
 8007eb2:	f003 0308 	and.w	r3, r3, #8
 8007eb6:	2b00      	cmp	r3, #0
 8007eb8:	d011      	beq.n	8007ede <HAL_UART_IRQHandler+0x126>
 8007eba:	f8d7 30e0 	ldr.w	r3, [r7, #224]	; 0xe0
 8007ebe:	f003 0320 	and.w	r3, r3, #32
 8007ec2:	2b00      	cmp	r3, #0
 8007ec4:	d105      	bne.n	8007ed2 <HAL_UART_IRQHandler+0x11a>
                                                 || ((cr3its & USART_CR3_EIE) != RESET)))
 8007ec6:	f8d7 30dc 	ldr.w	r3, [r7, #220]	; 0xdc
 8007eca:	f003 0301 	and.w	r3, r3, #1
 8007ece:	2b00      	cmp	r3, #0
 8007ed0:	d005      	beq.n	8007ede <HAL_UART_IRQHandler+0x126>
    {
      huart->ErrorCode |= HAL_UART_ERROR_ORE;
 8007ed2:	687b      	ldr	r3, [r7, #4]
 8007ed4:	6c5b      	ldr	r3, [r3, #68]	; 0x44
 8007ed6:	f043 0208 	orr.w	r2, r3, #8
 8007eda:	687b      	ldr	r3, [r7, #4]
 8007edc:	645a      	str	r2, [r3, #68]	; 0x44
    }

    /* Call UART Error Call back function if need be --------------------------*/
    if (huart->ErrorCode != HAL_UART_ERROR_NONE)
 8007ede:	687b      	ldr	r3, [r7, #4]
 8007ee0:	6c5b      	ldr	r3, [r3, #68]	; 0x44
 8007ee2:	2b00      	cmp	r3, #0
 8007ee4:	f000 81f2 	beq.w	80082cc <HAL_UART_IRQHandler+0x514>
    {
      /* UART in mode Receiver -----------------------------------------------*/
      if (((isrflags & USART_SR_RXNE) != RESET) && ((cr1its & USART_CR1_RXNEIE) != RESET))
 8007ee8:	f8d7 30e4 	ldr.w	r3, [r7, #228]	; 0xe4
 8007eec:	f003 0320 	and.w	r3, r3, #32
 8007ef0:	2b00      	cmp	r3, #0
 8007ef2:	d008      	beq.n	8007f06 <HAL_UART_IRQHandler+0x14e>
 8007ef4:	f8d7 30e0 	ldr.w	r3, [r7, #224]	; 0xe0
 8007ef8:	f003 0320 	and.w	r3, r3, #32
 8007efc:	2b00      	cmp	r3, #0
 8007efe:	d002      	beq.n	8007f06 <HAL_UART_IRQHandler+0x14e>
      {
        UART_Receive_IT(huart);
 8007f00:	6878      	ldr	r0, [r7, #4]
 8007f02:	f000 fb5c 	bl	80085be <UART_Receive_IT>
      }

      /* If Overrun error occurs, or if any error occurs in DMA mode reception,
         consider error as blocking */
      dmarequest = HAL_IS_BIT_SET(huart->Instance->CR3, USART_CR3_DMAR);
 8007f06:	687b      	ldr	r3, [r7, #4]
 8007f08:	681b      	ldr	r3, [r3, #0]
 8007f0a:	695b      	ldr	r3, [r3, #20]
 8007f0c:	f003 0340 	and.w	r3, r3, #64	; 0x40
 8007f10:	2b00      	cmp	r3, #0
 8007f12:	bf14      	ite	ne
 8007f14:	2301      	movne	r3, #1
 8007f16:	2300      	moveq	r3, #0
 8007f18:	b2db      	uxtb	r3, r3
 8007f1a:	f8c7 30d4 	str.w	r3, [r7, #212]	; 0xd4
      if (((huart->ErrorCode & HAL_UART_ERROR_ORE) != RESET) || dmarequest)
 8007f1e:	687b      	ldr	r3, [r7, #4]
 8007f20:	6c5b      	ldr	r3, [r3, #68]	; 0x44
 8007f22:	f003 0308 	and.w	r3, r3, #8
 8007f26:	2b00      	cmp	r3, #0
 8007f28:	d103      	bne.n	8007f32 <HAL_UART_IRQHandler+0x17a>
 8007f2a:	f8d7 30d4 	ldr.w	r3, [r7, #212]	; 0xd4
 8007f2e:	2b00      	cmp	r3, #0
 8007f30:	d04f      	beq.n	8007fd2 <HAL_UART_IRQHandler+0x21a>
      {
        /* Blocking error : transfer is aborted
           Set the UART state ready to be able to start again the process,
           Disable Rx Interrupts, and disable Rx DMA request, if ongoing */
        UART_EndRxTransfer(huart);
 8007f32:	6878      	ldr	r0, [r7, #4]
 8007f34:	f000 fa66 	bl	8008404 <UART_EndRxTransfer>

        /* Disable the UART DMA Rx request if enabled */
        if (HAL_IS_BIT_SET(huart->Instance->CR3, USART_CR3_DMAR))
 8007f38:	687b      	ldr	r3, [r7, #4]
 8007f3a:	681b      	ldr	r3, [r3, #0]
 8007f3c:	695b      	ldr	r3, [r3, #20]
 8007f3e:	f003 0340 	and.w	r3, r3, #64	; 0x40
 8007f42:	2b00      	cmp	r3, #0
 8007f44:	d041      	beq.n	8007fca <HAL_UART_IRQHandler+0x212>
        {
          ATOMIC_CLEAR_BIT(huart->Instance->CR3, USART_CR3_DMAR);
 8007f46:	687b      	ldr	r3, [r7, #4]
 8007f48:	681b      	ldr	r3, [r3, #0]
 8007f4a:	3314      	adds	r3, #20
 8007f4c:	f8c7 309c 	str.w	r3, [r7, #156]	; 0x9c
 */
__STATIC_FORCEINLINE uint32_t __LDREXW(volatile uint32_t *addr)
{
    uint32_t result;

   __ASM volatile ("ldrex %0, %1" : "=r" (result) : "Q" (*addr) );
 8007f50:	f8d7 309c 	ldr.w	r3, [r7, #156]	; 0x9c
 8007f54:	e853 3f00 	ldrex	r3, [r3]
 8007f58:	f8c7 3098 	str.w	r3, [r7, #152]	; 0x98
   return(result);
 8007f5c:	f8d7 3098 	ldr.w	r3, [r7, #152]	; 0x98
 8007f60:	f023 0340 	bic.w	r3, r3, #64	; 0x40
 8007f64:	f8c7 30d0 	str.w	r3, [r7, #208]	; 0xd0
 8007f68:	687b      	ldr	r3, [r7, #4]
 8007f6a:	681b      	ldr	r3, [r3, #0]
 8007f6c:	3314      	adds	r3, #20
 8007f6e:	f8d7 20d0 	ldr.w	r2, [r7, #208]	; 0xd0
 8007f72:	f8c7 20a8 	str.w	r2, [r7, #168]	; 0xa8
 8007f76:	f8c7 30a4 	str.w	r3, [r7, #164]	; 0xa4
 */
__STATIC_FORCEINLINE uint32_t __STREXW(uint32_t value, volatile uint32_t *addr)
{
   uint32_t result;

   __ASM volatile ("strex %0, %2, %1" : "=&r" (result), "=Q" (*addr) : "r" (value) );
 8007f7a:	f8d7 10a4 	ldr.w	r1, [r7, #164]	; 0xa4
 8007f7e:	f8d7 20a8 	ldr.w	r2, [r7, #168]	; 0xa8
 8007f82:	e841 2300 	strex	r3, r2, [r1]
 8007f86:	f8c7 30a0 	str.w	r3, [r7, #160]	; 0xa0
   return(result);
 8007f8a:	f8d7 30a0 	ldr.w	r3, [r7, #160]	; 0xa0
 8007f8e:	2b00      	cmp	r3, #0
 8007f90:	d1d9      	bne.n	8007f46 <HAL_UART_IRQHandler+0x18e>

          /* Abort the UART DMA Rx channel */
          if (huart->hdmarx != NULL)
 8007f92:	687b      	ldr	r3, [r7, #4]
 8007f94:	6bdb      	ldr	r3, [r3, #60]	; 0x3c
 8007f96:	2b00      	cmp	r3, #0
 8007f98:	d013      	beq.n	8007fc2 <HAL_UART_IRQHandler+0x20a>
          {
            /* Set the UART DMA Abort callback :
               will lead to call HAL_UART_ErrorCallback() at end of DMA abort procedure */
            huart->hdmarx->XferAbortCallback = UART_DMAAbortOnError;
 8007f9a:	687b      	ldr	r3, [r7, #4]
 8007f9c:	6bdb      	ldr	r3, [r3, #60]	; 0x3c
 8007f9e:	4a7e      	ldr	r2, [pc, #504]	; (8008198 <HAL_UART_IRQHandler+0x3e0>)
 8007fa0:	635a      	str	r2, [r3, #52]	; 0x34
            if (HAL_DMA_Abort_IT(huart->hdmarx) != HAL_OK)
 8007fa2:	687b      	ldr	r3, [r7, #4]
 8007fa4:	6bdb      	ldr	r3, [r3, #60]	; 0x3c
 8007fa6:	4618      	mov	r0, r3
 8007fa8:	f7fd f856 	bl	8005058 <HAL_DMA_Abort_IT>
 8007fac:	4603      	mov	r3, r0
 8007fae:	2b00      	cmp	r3, #0
 8007fb0:	d016      	beq.n	8007fe0 <HAL_UART_IRQHandler+0x228>
            {
              /* Call Directly XferAbortCallback function in case of error */
              huart->hdmarx->XferAbortCallback(huart->hdmarx);
 8007fb2:	687b      	ldr	r3, [r7, #4]
 8007fb4:	6bdb      	ldr	r3, [r3, #60]	; 0x3c
 8007fb6:	6b5b      	ldr	r3, [r3, #52]	; 0x34
 8007fb8:	687a      	ldr	r2, [r7, #4]
 8007fba:	6bd2      	ldr	r2, [r2, #60]	; 0x3c
 8007fbc:	4610      	mov	r0, r2
 8007fbe:	4798      	blx	r3
        if (HAL_IS_BIT_SET(huart->Instance->CR3, USART_CR3_DMAR))
 8007fc0:	e00e      	b.n	8007fe0 <HAL_UART_IRQHandler+0x228>
#if (USE_HAL_UART_REGISTER_CALLBACKS == 1)
            /*Call registered error callback*/
            huart->ErrorCallback(huart);
#else
            /*Call legacy weak error callback*/
            HAL_UART_ErrorCallback(huart);
 8007fc2:	6878      	ldr	r0, [r7, #4]
 8007fc4:	f000 f99c 	bl	8008300 <HAL_UART_ErrorCallback>
        if (HAL_IS_BIT_SET(huart->Instance->CR3, USART_CR3_DMAR))
 8007fc8:	e00a      	b.n	8007fe0 <HAL_UART_IRQHandler+0x228>
#if (USE_HAL_UART_REGISTER_CALLBACKS == 1)
          /*Call registered error callback*/
          huart->ErrorCallback(huart);
#else
          /*Call legacy weak error callback*/
          HAL_UART_ErrorCallback(huart);
 8007fca:	6878      	ldr	r0, [r7, #4]
 8007fcc:	f000 f998 	bl	8008300 <HAL_UART_ErrorCallback>
        if (HAL_IS_BIT_SET(huart->Instance->CR3, USART_CR3_DMAR))
 8007fd0:	e006      	b.n	8007fe0 <HAL_UART_IRQHandler+0x228>
#if (USE_HAL_UART_REGISTER_CALLBACKS == 1)
        /*Call registered error callback*/
        huart->ErrorCallback(huart);
#else
        /*Call legacy weak error callback*/
        HAL_UART_ErrorCallback(huart);
 8007fd2:	6878      	ldr	r0, [r7, #4]
 8007fd4:	f000 f994 	bl	8008300 <HAL_UART_ErrorCallback>
#endif /* USE_HAL_UART_REGISTER_CALLBACKS */

        huart->ErrorCode = HAL_UART_ERROR_NONE;
 8007fd8:	687b      	ldr	r3, [r7, #4]
 8007fda:	2200      	movs	r2, #0
 8007fdc:	645a      	str	r2, [r3, #68]	; 0x44
      }
    }
    return;
 8007fde:	e175      	b.n	80082cc <HAL_UART_IRQHandler+0x514>
        if (HAL_IS_BIT_SET(huart->Instance->CR3, USART_CR3_DMAR))
 8007fe0:	bf00      	nop
    return;
 8007fe2:	e173      	b.n	80082cc <HAL_UART_IRQHandler+0x514>
  } /* End if some error occurs */

  /* Check current reception Mode :
     If Reception till IDLE event has been selected : */
  if ((huart->ReceptionType == HAL_UART_RECEPTION_TOIDLE)
 8007fe4:	687b      	ldr	r3, [r7, #4]
 8007fe6:	6b1b      	ldr	r3, [r3, #48]	; 0x30
 8007fe8:	2b01      	cmp	r3, #1
 8007fea:	f040 814f 	bne.w	800828c <HAL_UART_IRQHandler+0x4d4>
      && ((isrflags & USART_SR_IDLE) != 0U)
 8007fee:	f8d7 30e4 	ldr.w	r3, [r7, #228]	; 0xe4
 8007ff2:	f003 0310 	and.w	r3, r3, #16
 8007ff6:	2b00      	cmp	r3, #0
 8007ff8:	f000 8148 	beq.w	800828c <HAL_UART_IRQHandler+0x4d4>
      && ((cr1its & USART_SR_IDLE) != 0U))
 8007ffc:	f8d7 30e0 	ldr.w	r3, [r7, #224]	; 0xe0
 8008000:	f003 0310 	and.w	r3, r3, #16
 8008004:	2b00      	cmp	r3, #0
 8008006:	f000 8141 	beq.w	800828c <HAL_UART_IRQHandler+0x4d4>
  {
    __HAL_UART_CLEAR_IDLEFLAG(huart);
 800800a:	2300      	movs	r3, #0
 800800c:	60bb      	str	r3, [r7, #8]
 800800e:	687b      	ldr	r3, [r7, #4]
 8008010:	681b      	ldr	r3, [r3, #0]
 8008012:	681b      	ldr	r3, [r3, #0]
 8008014:	60bb      	str	r3, [r7, #8]
 8008016:	687b      	ldr	r3, [r7, #4]
 8008018:	681b      	ldr	r3, [r3, #0]
 800801a:	685b      	ldr	r3, [r3, #4]
 800801c:	60bb      	str	r3, [r7, #8]
 800801e:	68bb      	ldr	r3, [r7, #8]

    /* Check if DMA mode is enabled in UART */
    if (HAL_IS_BIT_SET(huart->Instance->CR3, USART_CR3_DMAR))
 8008020:	687b      	ldr	r3, [r7, #4]
 8008022:	681b      	ldr	r3, [r3, #0]
 8008024:	695b      	ldr	r3, [r3, #20]
 8008026:	f003 0340 	and.w	r3, r3, #64	; 0x40
 800802a:	2b00      	cmp	r3, #0
 800802c:	f000 80b6 	beq.w	800819c <HAL_UART_IRQHandler+0x3e4>
    {
      /* DMA mode enabled */
      /* Check received length : If all expected data are received, do nothing,
         (DMA cplt callback will be called).
         Otherwise, if at least one data has already been received, IDLE event is to be notified to user */
      uint16_t nb_remaining_rx_data = (uint16_t) __HAL_DMA_GET_COUNTER(huart->hdmarx);
 8008030:	687b      	ldr	r3, [r7, #4]
 8008032:	6bdb      	ldr	r3, [r3, #60]	; 0x3c
 8008034:	681b      	ldr	r3, [r3, #0]
 8008036:	685b      	ldr	r3, [r3, #4]
 8008038:	f8a7 30be 	strh.w	r3, [r7, #190]	; 0xbe
      if ((nb_remaining_rx_data > 0U)
 800803c:	f8b7 30be 	ldrh.w	r3, [r7, #190]	; 0xbe
 8008040:	2b00      	cmp	r3, #0
 8008042:	f000 8145 	beq.w	80082d0 <HAL_UART_IRQHandler+0x518>
          && (nb_remaining_rx_data < huart->RxXferSize))
 8008046:	687b      	ldr	r3, [r7, #4]
 8008048:	8d9b      	ldrh	r3, [r3, #44]	; 0x2c
 800804a:	f8b7 20be 	ldrh.w	r2, [r7, #190]	; 0xbe
 800804e:	429a      	cmp	r2, r3
 8008050:	f080 813e 	bcs.w	80082d0 <HAL_UART_IRQHandler+0x518>
      {
        /* Reception is not complete */
        huart->RxXferCount = nb_remaining_rx_data;
 8008054:	687b      	ldr	r3, [r7, #4]
 8008056:	f8b7 20be 	ldrh.w	r2, [r7, #190]	; 0xbe
 800805a:	85da      	strh	r2, [r3, #46]	; 0x2e

        /* In Normal mode, end DMA xfer and HAL UART Rx process*/
        if (huart->hdmarx->Init.Mode != DMA_CIRCULAR)
 800805c:	687b      	ldr	r3, [r7, #4]
 800805e:	6bdb      	ldr	r3, [r3, #60]	; 0x3c
 8008060:	699b      	ldr	r3, [r3, #24]
 8008062:	2b20      	cmp	r3, #32
 8008064:	f000 8088 	beq.w	8008178 <HAL_UART_IRQHandler+0x3c0>
        {
          /* Disable PE and ERR (Frame error, noise error, overrun error) interrupts */
          ATOMIC_CLEAR_BIT(huart->Instance->CR1, USART_CR1_PEIE);
 8008068:	687b      	ldr	r3, [r7, #4]
 800806a:	681b      	ldr	r3, [r3, #0]
 800806c:	330c      	adds	r3, #12
 800806e:	f8c7 3088 	str.w	r3, [r7, #136]	; 0x88
   __ASM volatile ("ldrex %0, %1" : "=r" (result) : "Q" (*addr) );
 8008072:	f8d7 3088 	ldr.w	r3, [r7, #136]	; 0x88
 8008076:	e853 3f00 	ldrex	r3, [r3]
 800807a:	f8c7 3084 	str.w	r3, [r7, #132]	; 0x84
   return(result);
 800807e:	f8d7 3084 	ldr.w	r3, [r7, #132]	; 0x84
 8008082:	f423 7380 	bic.w	r3, r3, #256	; 0x100
 8008086:	f8c7 30b8 	str.w	r3, [r7, #184]	; 0xb8
 800808a:	687b      	ldr	r3, [r7, #4]
 800808c:	681b      	ldr	r3, [r3, #0]
 800808e:	330c      	adds	r3, #12
 8008090:	f8d7 20b8 	ldr.w	r2, [r7, #184]	; 0xb8
 8008094:	f8c7 2094 	str.w	r2, [r7, #148]	; 0x94
 8008098:	f8c7 3090 	str.w	r3, [r7, #144]	; 0x90
   __ASM volatile ("strex %0, %2, %1" : "=&r" (result), "=Q" (*addr) : "r" (value) );
 800809c:	f8d7 1090 	ldr.w	r1, [r7, #144]	; 0x90
 80080a0:	f8d7 2094 	ldr.w	r2, [r7, #148]	; 0x94
 80080a4:	e841 2300 	strex	r3, r2, [r1]
 80080a8:	f8c7 308c 	str.w	r3, [r7, #140]	; 0x8c
   return(result);
 80080ac:	f8d7 308c 	ldr.w	r3, [r7, #140]	; 0x8c
 80080b0:	2b00      	cmp	r3, #0
 80080b2:	d1d9      	bne.n	8008068 <HAL_UART_IRQHandler+0x2b0>
          ATOMIC_CLEAR_BIT(huart->Instance->CR3, USART_CR3_EIE);
 80080b4:	687b      	ldr	r3, [r7, #4]
 80080b6:	681b      	ldr	r3, [r3, #0]
 80080b8:	3314      	adds	r3, #20
 80080ba:	677b      	str	r3, [r7, #116]	; 0x74
   __ASM volatile ("ldrex %0, %1" : "=r" (result) : "Q" (*addr) );
 80080bc:	6f7b      	ldr	r3, [r7, #116]	; 0x74
 80080be:	e853 3f00 	ldrex	r3, [r3]
 80080c2:	673b      	str	r3, [r7, #112]	; 0x70
   return(result);
 80080c4:	6f3b      	ldr	r3, [r7, #112]	; 0x70
 80080c6:	f023 0301 	bic.w	r3, r3, #1
 80080ca:	f8c7 30b4 	str.w	r3, [r7, #180]	; 0xb4
 80080ce:	687b      	ldr	r3, [r7, #4]
 80080d0:	681b      	ldr	r3, [r3, #0]
 80080d2:	3314      	adds	r3, #20
 80080d4:	f8d7 20b4 	ldr.w	r2, [r7, #180]	; 0xb4
 80080d8:	f8c7 2080 	str.w	r2, [r7, #128]	; 0x80
 80080dc:	67fb      	str	r3, [r7, #124]	; 0x7c
   __ASM volatile ("strex %0, %2, %1" : "=&r" (result), "=Q" (*addr) : "r" (value) );
 80080de:	6ff9      	ldr	r1, [r7, #124]	; 0x7c
 80080e0:	f8d7 2080 	ldr.w	r2, [r7, #128]	; 0x80
 80080e4:	e841 2300 	strex	r3, r2, [r1]
 80080e8:	67bb      	str	r3, [r7, #120]	; 0x78
   return(result);
 80080ea:	6fbb      	ldr	r3, [r7, #120]	; 0x78
 80080ec:	2b00      	cmp	r3, #0
 80080ee:	d1e1      	bne.n	80080b4 <HAL_UART_IRQHandler+0x2fc>

          /* Disable the DMA transfer for the receiver request by resetting the DMAR bit
             in the UART CR3 register */
          ATOMIC_CLEAR_BIT(huart->Instance->CR3, USART_CR3_DMAR);
 80080f0:	687b      	ldr	r3, [r7, #4]
 80080f2:	681b      	ldr	r3, [r3, #0]
 80080f4:	3314      	adds	r3, #20
 80080f6:	663b      	str	r3, [r7, #96]	; 0x60
   __ASM volatile ("ldrex %0, %1" : "=r" (result) : "Q" (*addr) );
 80080f8:	6e3b      	ldr	r3, [r7, #96]	; 0x60
 80080fa:	e853 3f00 	ldrex	r3, [r3]
 80080fe:	65fb      	str	r3, [r7, #92]	; 0x5c
   return(result);
 8008100:	6dfb      	ldr	r3, [r7, #92]	; 0x5c
 8008102:	f023 0340 	bic.w	r3, r3, #64	; 0x40
 8008106:	f8c7 30b0 	str.w	r3, [r7, #176]	; 0xb0
 800810a:	687b      	ldr	r3, [r7, #4]
 800810c:	681b      	ldr	r3, [r3, #0]
 800810e:	3314      	adds	r3, #20
 8008110:	f8d7 20b0 	ldr.w	r2, [r7, #176]	; 0xb0
 8008114:	66fa      	str	r2, [r7, #108]	; 0x6c
 8008116:	66bb      	str	r3, [r7, #104]	; 0x68
   __ASM volatile ("strex %0, %2, %1" : "=&r" (result), "=Q" (*addr) : "r" (value) );
 8008118:	6eb9      	ldr	r1, [r7, #104]	; 0x68
 800811a:	6efa      	ldr	r2, [r7, #108]	; 0x6c
 800811c:	e841 2300 	strex	r3, r2, [r1]
 8008120:	667b      	str	r3, [r7, #100]	; 0x64
   return(result);
 8008122:	6e7b      	ldr	r3, [r7, #100]	; 0x64
 8008124:	2b00      	cmp	r3, #0
 8008126:	d1e3      	bne.n	80080f0 <HAL_UART_IRQHandler+0x338>

          /* At end of Rx process, restore huart->RxState to Ready */
          huart->RxState = HAL_UART_STATE_READY;
 8008128:	687b      	ldr	r3, [r7, #4]
 800812a:	2220      	movs	r2, #32
 800812c:	f883 2042 	strb.w	r2, [r3, #66]	; 0x42
          huart->ReceptionType = HAL_UART_RECEPTION_STANDARD;
 8008130:	687b      	ldr	r3, [r7, #4]
 8008132:	2200      	movs	r2, #0
 8008134:	631a      	str	r2, [r3, #48]	; 0x30

          ATOMIC_CLEAR_BIT(huart->Instance->CR1, USART_CR1_IDLEIE);
 8008136:	687b      	ldr	r3, [r7, #4]
 8008138:	681b      	ldr	r3, [r3, #0]
 800813a:	330c      	adds	r3, #12
 800813c:	64fb      	str	r3, [r7, #76]	; 0x4c
   __ASM volatile ("ldrex %0, %1" : "=r" (result) : "Q" (*addr) );
 800813e:	6cfb      	ldr	r3, [r7, #76]	; 0x4c
 8008140:	e853 3f00 	ldrex	r3, [r3]
 8008144:	64bb      	str	r3, [r7, #72]	; 0x48
   return(result);
 8008146:	6cbb      	ldr	r3, [r7, #72]	; 0x48
 8008148:	f023 0310 	bic.w	r3, r3, #16
 800814c:	f8c7 30ac 	str.w	r3, [r7, #172]	; 0xac
 8008150:	687b      	ldr	r3, [r7, #4]
 8008152:	681b      	ldr	r3, [r3, #0]
 8008154:	330c      	adds	r3, #12
 8008156:	f8d7 20ac 	ldr.w	r2, [r7, #172]	; 0xac
 800815a:	65ba      	str	r2, [r7, #88]	; 0x58
 800815c:	657b      	str	r3, [r7, #84]	; 0x54
   __ASM volatile ("strex %0, %2, %1" : "=&r" (result), "=Q" (*addr) : "r" (value) );
 800815e:	6d79      	ldr	r1, [r7, #84]	; 0x54
 8008160:	6dba      	ldr	r2, [r7, #88]	; 0x58
 8008162:	e841 2300 	strex	r3, r2, [r1]
 8008166:	653b      	str	r3, [r7, #80]	; 0x50
   return(result);
 8008168:	6d3b      	ldr	r3, [r7, #80]	; 0x50
 800816a:	2b00      	cmp	r3, #0
 800816c:	d1e3      	bne.n	8008136 <HAL_UART_IRQHandler+0x37e>

          /* Last bytes received, so no need as the abort is immediate */
          (void)HAL_DMA_Abort(huart->hdmarx);
 800816e:	687b      	ldr	r3, [r7, #4]
 8008170:	6bdb      	ldr	r3, [r3, #60]	; 0x3c
 8008172:	4618      	mov	r0, r3
 8008174:	f7fc ff35 	bl	8004fe2 <HAL_DMA_Abort>
        }

        /* Initialize type of RxEvent that correspond to RxEvent callback execution;
        In this case, Rx Event type is Idle Event */
        huart->RxEventType = HAL_UART_RXEVENT_IDLE;
 8008178:	687b      	ldr	r3, [r7, #4]
 800817a:	2202      	movs	r2, #2
 800817c:	635a      	str	r2, [r3, #52]	; 0x34
#if (USE_HAL_UART_REGISTER_CALLBACKS == 1)
        /*Call registered Rx Event callback*/
        huart->RxEventCallback(huart, (huart->RxXferSize - huart->RxXferCount));
#else
        /*Call legacy weak Rx Event callback*/
        HAL_UARTEx_RxEventCallback(huart, (huart->RxXferSize - huart->RxXferCount));
 800817e:	687b      	ldr	r3, [r7, #4]
 8008180:	8d9a      	ldrh	r2, [r3, #44]	; 0x2c
 8008182:	687b      	ldr	r3, [r7, #4]
 8008184:	8ddb      	ldrh	r3, [r3, #46]	; 0x2e
 8008186:	b29b      	uxth	r3, r3
 8008188:	1ad3      	subs	r3, r2, r3
 800818a:	b29b      	uxth	r3, r3
 800818c:	4619      	mov	r1, r3
 800818e:	6878      	ldr	r0, [r7, #4]
 8008190:	f000 f8bf 	bl	8008312 <HAL_UARTEx_RxEventCallback>
#endif /* USE_HAL_UART_REGISTER_CALLBACKS */
      }
      return;
 8008194:	e09c      	b.n	80082d0 <HAL_UART_IRQHandler+0x518>
 8008196:	bf00      	nop
 8008198:	080084c9 	.word	0x080084c9
    else
    {
      /* DMA mode not enabled */
      /* Check received length : If all expected data are received, do nothing.
         Otherwise, if at least one data has already been received, IDLE event is to be notified to user */
      uint16_t nb_rx_data = huart->RxXferSize - huart->RxXferCount;
 800819c:	687b      	ldr	r3, [r7, #4]
 800819e:	8d9a      	ldrh	r2, [r3, #44]	; 0x2c
 80081a0:	687b      	ldr	r3, [r7, #4]
 80081a2:	8ddb      	ldrh	r3, [r3, #46]	; 0x2e
 80081a4:	b29b      	uxth	r3, r3
 80081a6:	1ad3      	subs	r3, r2, r3
 80081a8:	f8a7 30ce 	strh.w	r3, [r7, #206]	; 0xce
      if ((huart->RxXferCount > 0U)
 80081ac:	687b      	ldr	r3, [r7, #4]
 80081ae:	8ddb      	ldrh	r3, [r3, #46]	; 0x2e
 80081b0:	b29b      	uxth	r3, r3
 80081b2:	2b00      	cmp	r3, #0
 80081b4:	f000 808e 	beq.w	80082d4 <HAL_UART_IRQHandler+0x51c>
          && (nb_rx_data > 0U))
 80081b8:	f8b7 30ce 	ldrh.w	r3, [r7, #206]	; 0xce
 80081bc:	2b00      	cmp	r3, #0
 80081be:	f000 8089 	beq.w	80082d4 <HAL_UART_IRQHandler+0x51c>
      {
        /* Disable the UART Parity Error Interrupt and RXNE interrupts */
        ATOMIC_CLEAR_BIT(huart->Instance->CR1, (USART_CR1_RXNEIE | USART_CR1_PEIE));
 80081c2:	687b      	ldr	r3, [r7, #4]
 80081c4:	681b      	ldr	r3, [r3, #0]
 80081c6:	330c      	adds	r3, #12
 80081c8:	63bb      	str	r3, [r7, #56]	; 0x38
   __ASM volatile ("ldrex %0, %1" : "=r" (result) : "Q" (*addr) );
 80081ca:	6bbb      	ldr	r3, [r7, #56]	; 0x38
 80081cc:	e853 3f00 	ldrex	r3, [r3]
 80081d0:	637b      	str	r3, [r7, #52]	; 0x34
   return(result);
 80081d2:	6b7b      	ldr	r3, [r7, #52]	; 0x34
 80081d4:	f423 7390 	bic.w	r3, r3, #288	; 0x120
 80081d8:	f8c7 30c8 	str.w	r3, [r7, #200]	; 0xc8
 80081dc:	687b      	ldr	r3, [r7, #4]
 80081de:	681b      	ldr	r3, [r3, #0]
 80081e0:	330c      	adds	r3, #12
 80081e2:	f8d7 20c8 	ldr.w	r2, [r7, #200]	; 0xc8
 80081e6:	647a      	str	r2, [r7, #68]	; 0x44
 80081e8:	643b      	str	r3, [r7, #64]	; 0x40
   __ASM volatile ("strex %0, %2, %1" : "=&r" (result), "=Q" (*addr) : "r" (value) );
 80081ea:	6c39      	ldr	r1, [r7, #64]	; 0x40
 80081ec:	6c7a      	ldr	r2, [r7, #68]	; 0x44
 80081ee:	e841 2300 	strex	r3, r2, [r1]
 80081f2:	63fb      	str	r3, [r7, #60]	; 0x3c
   return(result);
 80081f4:	6bfb      	ldr	r3, [r7, #60]	; 0x3c
 80081f6:	2b00      	cmp	r3, #0
 80081f8:	d1e3      	bne.n	80081c2 <HAL_UART_IRQHandler+0x40a>

        /* Disable the UART Error Interrupt: (Frame error, noise error, overrun error) */
        ATOMIC_CLEAR_BIT(huart->Instance->CR3, USART_CR3_EIE);
 80081fa:	687b      	ldr	r3, [r7, #4]
 80081fc:	681b      	ldr	r3, [r3, #0]
 80081fe:	3314      	adds	r3, #20
 8008200:	627b      	str	r3, [r7, #36]	; 0x24
   __ASM volatile ("ldrex %0, %1" : "=r" (result) : "Q" (*addr) );
 8008202:	6a7b      	ldr	r3, [r7, #36]	; 0x24
 8008204:	e853 3f00 	ldrex	r3, [r3]
 8008208:	623b      	str	r3, [r7, #32]
   return(result);
 800820a:	6a3b      	ldr	r3, [r7, #32]
 800820c:	f023 0301 	bic.w	r3, r3, #1
 8008210:	f8c7 30c4 	str.w	r3, [r7, #196]	; 0xc4
 8008214:	687b      	ldr	r3, [r7, #4]
 8008216:	681b      	ldr	r3, [r3, #0]
 8008218:	3314      	adds	r3, #20
 800821a:	f8d7 20c4 	ldr.w	r2, [r7, #196]	; 0xc4
 800821e:	633a      	str	r2, [r7, #48]	; 0x30
 8008220:	62fb      	str	r3, [r7, #44]	; 0x2c
   __ASM volatile ("strex %0, %2, %1" : "=&r" (result), "=Q" (*addr) : "r" (value) );
 8008222:	6af9      	ldr	r1, [r7, #44]	; 0x2c
 8008224:	6b3a      	ldr	r2, [r7, #48]	; 0x30
 8008226:	e841 2300 	strex	r3, r2, [r1]
 800822a:	62bb      	str	r3, [r7, #40]	; 0x28
   return(result);
 800822c:	6abb      	ldr	r3, [r7, #40]	; 0x28
 800822e:	2b00      	cmp	r3, #0
 8008230:	d1e3      	bne.n	80081fa <HAL_UART_IRQHandler+0x442>

        /* Rx process is completed, restore huart->RxState to Ready */
        huart->RxState = HAL_UART_STATE_READY;
 8008232:	687b      	ldr	r3, [r7, #4]
 8008234:	2220      	movs	r2, #32
 8008236:	f883 2042 	strb.w	r2, [r3, #66]	; 0x42
        huart->ReceptionType = HAL_UART_RECEPTION_STANDARD;
 800823a:	687b      	ldr	r3, [r7, #4]
 800823c:	2200      	movs	r2, #0
 800823e:	631a      	str	r2, [r3, #48]	; 0x30

        ATOMIC_CLEAR_BIT(huart->Instance->CR1, USART_CR1_IDLEIE);
 8008240:	687b      	ldr	r3, [r7, #4]
 8008242:	681b      	ldr	r3, [r3, #0]
 8008244:	330c      	adds	r3, #12
 8008246:	613b      	str	r3, [r7, #16]
   __ASM volatile ("ldrex %0, %1" : "=r" (result) : "Q" (*addr) );
 8008248:	693b      	ldr	r3, [r7, #16]
 800824a:	e853 3f00 	ldrex	r3, [r3]
 800824e:	60fb      	str	r3, [r7, #12]
   return(result);
 8008250:	68fb      	ldr	r3, [r7, #12]
 8008252:	f023 0310 	bic.w	r3, r3, #16
 8008256:	f8c7 30c0 	str.w	r3, [r7, #192]	; 0xc0
 800825a:	687b      	ldr	r3, [r7, #4]
 800825c:	681b      	ldr	r3, [r3, #0]
 800825e:	330c      	adds	r3, #12
 8008260:	f8d7 20c0 	ldr.w	r2, [r7, #192]	; 0xc0
 8008264:	61fa      	str	r2, [r7, #28]
 8008266:	61bb      	str	r3, [r7, #24]
   __ASM volatile ("strex %0, %2, %1" : "=&r" (result), "=Q" (*addr) : "r" (value) );
 8008268:	69b9      	ldr	r1, [r7, #24]
 800826a:	69fa      	ldr	r2, [r7, #28]
 800826c:	e841 2300 	strex	r3, r2, [r1]
 8008270:	617b      	str	r3, [r7, #20]
   return(result);
 8008272:	697b      	ldr	r3, [r7, #20]
 8008274:	2b00      	cmp	r3, #0
 8008276:	d1e3      	bne.n	8008240 <HAL_UART_IRQHandler+0x488>

        /* Initialize type of RxEvent that correspond to RxEvent callback execution;
           In this case, Rx Event type is Idle Event */
        huart->RxEventType = HAL_UART_RXEVENT_IDLE;
 8008278:	687b      	ldr	r3, [r7, #4]
 800827a:	2202      	movs	r2, #2
 800827c:	635a      	str	r2, [r3, #52]	; 0x34
#if (USE_HAL_UART_REGISTER_CALLBACKS == 1)
        /*Call registered Rx complete callback*/
        huart->RxEventCallback(huart, nb_rx_data);
#else
        /*Call legacy weak Rx Event callback*/
        HAL_UARTEx_RxEventCallback(huart, nb_rx_data);
 800827e:	f8b7 30ce 	ldrh.w	r3, [r7, #206]	; 0xce
 8008282:	4619      	mov	r1, r3
 8008284:	6878      	ldr	r0, [r7, #4]
 8008286:	f000 f844 	bl	8008312 <HAL_UARTEx_RxEventCallback>
#endif /* USE_HAL_UART_REGISTER_CALLBACKS */
      }
      return;
 800828a:	e023      	b.n	80082d4 <HAL_UART_IRQHandler+0x51c>
    }
  }

  /* UART in mode Transmitter ------------------------------------------------*/
  if (((isrflags & USART_SR_TXE) != RESET) && ((cr1its & USART_CR1_TXEIE) != RESET))
 800828c:	f8d7 30e4 	ldr.w	r3, [r7, #228]	; 0xe4
 8008290:	f003 0380 	and.w	r3, r3, #128	; 0x80
 8008294:	2b00      	cmp	r3, #0
 8008296:	d009      	beq.n	80082ac <HAL_UART_IRQHandler+0x4f4>
 8008298:	f8d7 30e0 	ldr.w	r3, [r7, #224]	; 0xe0
 800829c:	f003 0380 	and.w	r3, r3, #128	; 0x80
 80082a0:	2b00      	cmp	r3, #0
 80082a2:	d003      	beq.n	80082ac <HAL_UART_IRQHandler+0x4f4>
  {
    UART_Transmit_IT(huart);
 80082a4:	6878      	ldr	r0, [r7, #4]
 80082a6:	f000 f923 	bl	80084f0 <UART_Transmit_IT>
    return;
 80082aa:	e014      	b.n	80082d6 <HAL_UART_IRQHandler+0x51e>
  }

  /* UART in mode Transmitter end --------------------------------------------*/
  if (((isrflags & USART_SR_TC) != RESET) && ((cr1its & USART_CR1_TCIE) != RESET))
 80082ac:	f8d7 30e4 	ldr.w	r3, [r7, #228]	; 0xe4
 80082b0:	f003 0340 	and.w	r3, r3, #64	; 0x40
 80082b4:	2b00      	cmp	r3, #0
 80082b6:	d00e      	beq.n	80082d6 <HAL_UART_IRQHandler+0x51e>
 80082b8:	f8d7 30e0 	ldr.w	r3, [r7, #224]	; 0xe0
 80082bc:	f003 0340 	and.w	r3, r3, #64	; 0x40
 80082c0:	2b00      	cmp	r3, #0
 80082c2:	d008      	beq.n	80082d6 <HAL_UART_IRQHandler+0x51e>
  {
    UART_EndTransmit_IT(huart);
 80082c4:	6878      	ldr	r0, [r7, #4]
 80082c6:	f000 f962 	bl	800858e <UART_EndTransmit_IT>
    return;
 80082ca:	e004      	b.n	80082d6 <HAL_UART_IRQHandler+0x51e>
    return;
 80082cc:	bf00      	nop
 80082ce:	e002      	b.n	80082d6 <HAL_UART_IRQHandler+0x51e>
      return;
 80082d0:	bf00      	nop
 80082d2:	e000      	b.n	80082d6 <HAL_UART_IRQHandler+0x51e>
      return;
 80082d4:	bf00      	nop
  }
}
 80082d6:	37e8      	adds	r7, #232	; 0xe8
 80082d8:	46bd      	mov	sp, r7
 80082da:	bd80      	pop	{r7, pc}

080082dc <HAL_UART_TxCpltCallback>:
  * @param  huart  Pointer to a UART_HandleTypeDef structure that contains
  *                the configuration information for the specified UART module.
  * @retval None
  */
__weak void HAL_UART_TxCpltCallback(UART_HandleTypeDef *huart)
{
 80082dc:	b480      	push	{r7}
 80082de:	b083      	sub	sp, #12
 80082e0:	af00      	add	r7, sp, #0
 80082e2:	6078      	str	r0, [r7, #4]
  /* Prevent unused argument(s) compilation warning */
  UNUSED(huart);
  /* NOTE: This function should not be modified, when the callback is needed,
           the HAL_UART_TxCpltCallback could be implemented in the user file
   */
}
 80082e4:	bf00      	nop
 80082e6:	370c      	adds	r7, #12
 80082e8:	46bd      	mov	sp, r7
 80082ea:	bc80      	pop	{r7}
 80082ec:	4770      	bx	lr

080082ee <HAL_UART_RxCpltCallback>:
  * @param  huart  Pointer to a UART_HandleTypeDef structure that contains
  *                the configuration information for the specified UART module.
  * @retval None
  */
__weak void HAL_UART_RxCpltCallback(UART_HandleTypeDef *huart)
{
 80082ee:	b480      	push	{r7}
 80082f0:	b083      	sub	sp, #12
 80082f2:	af00      	add	r7, sp, #0
 80082f4:	6078      	str	r0, [r7, #4]
  /* Prevent unused argument(s) compilation warning */
  UNUSED(huart);
  /* NOTE: This function should not be modified, when the callback is needed,
           the HAL_UART_RxCpltCallback could be implemented in the user file
   */
}
 80082f6:	bf00      	nop
 80082f8:	370c      	adds	r7, #12
 80082fa:	46bd      	mov	sp, r7
 80082fc:	bc80      	pop	{r7}
 80082fe:	4770      	bx	lr

08008300 <HAL_UART_ErrorCallback>:
  * @param  huart  Pointer to a UART_HandleTypeDef structure that contains
  *                the configuration information for the specified UART module.
  * @retval None
  */
__weak void HAL_UART_ErrorCallback(UART_HandleTypeDef *huart)
{
 8008300:	b480      	push	{r7}
 8008302:	b083      	sub	sp, #12
 8008304:	af00      	add	r7, sp, #0
 8008306:	6078      	str	r0, [r7, #4]
  /* Prevent unused argument(s) compilation warning */
  UNUSED(huart);
  /* NOTE: This function should not be modified, when the callback is needed,
           the HAL_UART_ErrorCallback could be implemented in the user file
   */
}
 8008308:	bf00      	nop
 800830a:	370c      	adds	r7, #12
 800830c:	46bd      	mov	sp, r7
 800830e:	bc80      	pop	{r7}
 8008310:	4770      	bx	lr

08008312 <HAL_UARTEx_RxEventCallback>:
  * @param  Size  Number of data available in application reception buffer (indicates a position in
  *               reception buffer until which, data are available)
  * @retval None
  */
__weak void HAL_UARTEx_RxEventCallback(UART_HandleTypeDef *huart, uint16_t Size)
{
 8008312:	b480      	push	{r7}
 8008314:	b083      	sub	sp, #12
 8008316:	af00      	add	r7, sp, #0
 8008318:	6078      	str	r0, [r7, #4]
 800831a:	460b      	mov	r3, r1
 800831c:	807b      	strh	r3, [r7, #2]
  UNUSED(Size);

  /* NOTE : This function should not be modified, when the callback is needed,
            the HAL_UARTEx_RxEventCallback can be implemented in the user file.
   */
}
 800831e:	bf00      	nop
 8008320:	370c      	adds	r7, #12
 8008322:	46bd      	mov	sp, r7
 8008324:	bc80      	pop	{r7}
 8008326:	4770      	bx	lr

08008328 <UART_WaitOnFlagUntilTimeout>:
  * @param  Timeout Timeout duration
  * @retval HAL status
  */
static HAL_StatusTypeDef UART_WaitOnFlagUntilTimeout(UART_HandleTypeDef *huart, uint32_t Flag, FlagStatus Status,
                                                     uint32_t Tickstart, uint32_t Timeout)
{
 8008328:	b580      	push	{r7, lr}
 800832a:	b090      	sub	sp, #64	; 0x40
 800832c:	af00      	add	r7, sp, #0
 800832e:	60f8      	str	r0, [r7, #12]
 8008330:	60b9      	str	r1, [r7, #8]
 8008332:	603b      	str	r3, [r7, #0]
 8008334:	4613      	mov	r3, r2
 8008336:	71fb      	strb	r3, [r7, #7]
  /* Wait until flag is set */
  while ((__HAL_UART_GET_FLAG(huart, Flag) ? SET : RESET) == Status)
 8008338:	e050      	b.n	80083dc <UART_WaitOnFlagUntilTimeout+0xb4>
  {
    /* Check for the Timeout */
    if (Timeout != HAL_MAX_DELAY)
 800833a:	6cbb      	ldr	r3, [r7, #72]	; 0x48
 800833c:	f1b3 3fff 	cmp.w	r3, #4294967295
 8008340:	d04c      	beq.n	80083dc <UART_WaitOnFlagUntilTimeout+0xb4>
    {
      if ((Timeout == 0U) || ((HAL_GetTick() - Tickstart) > Timeout))
 8008342:	6cbb      	ldr	r3, [r7, #72]	; 0x48
 8008344:	2b00      	cmp	r3, #0
 8008346:	d007      	beq.n	8008358 <UART_WaitOnFlagUntilTimeout+0x30>
 8008348:	f7fc fd34 	bl	8004db4 <HAL_GetTick>
 800834c:	4602      	mov	r2, r0
 800834e:	683b      	ldr	r3, [r7, #0]
 8008350:	1ad3      	subs	r3, r2, r3
 8008352:	6cba      	ldr	r2, [r7, #72]	; 0x48
 8008354:	429a      	cmp	r2, r3
 8008356:	d241      	bcs.n	80083dc <UART_WaitOnFlagUntilTimeout+0xb4>
      {
        /* Disable TXE, RXNE, PE and ERR (Frame error, noise error, overrun error) interrupts for the interrupt process */
        ATOMIC_CLEAR_BIT(huart->Instance->CR1, (USART_CR1_RXNEIE | USART_CR1_PEIE | USART_CR1_TXEIE));
 8008358:	68fb      	ldr	r3, [r7, #12]
 800835a:	681b      	ldr	r3, [r3, #0]
 800835c:	330c      	adds	r3, #12
 800835e:	62bb      	str	r3, [r7, #40]	; 0x28
   __ASM volatile ("ldrex %0, %1" : "=r" (result) : "Q" (*addr) );
 8008360:	6abb      	ldr	r3, [r7, #40]	; 0x28
 8008362:	e853 3f00 	ldrex	r3, [r3]
 8008366:	627b      	str	r3, [r7, #36]	; 0x24
   return(result);
 8008368:	6a7b      	ldr	r3, [r7, #36]	; 0x24
 800836a:	f423 73d0 	bic.w	r3, r3, #416	; 0x1a0
 800836e:	63fb      	str	r3, [r7, #60]	; 0x3c
 8008370:	68fb      	ldr	r3, [r7, #12]
 8008372:	681b      	ldr	r3, [r3, #0]
 8008374:	330c      	adds	r3, #12
 8008376:	6bfa      	ldr	r2, [r7, #60]	; 0x3c
 8008378:	637a      	str	r2, [r7, #52]	; 0x34
 800837a:	633b      	str	r3, [r7, #48]	; 0x30
   __ASM volatile ("strex %0, %2, %1" : "=&r" (result), "=Q" (*addr) : "r" (value) );
 800837c:	6b39      	ldr	r1, [r7, #48]	; 0x30
 800837e:	6b7a      	ldr	r2, [r7, #52]	; 0x34
 8008380:	e841 2300 	strex	r3, r2, [r1]
 8008384:	62fb      	str	r3, [r7, #44]	; 0x2c
   return(result);
 8008386:	6afb      	ldr	r3, [r7, #44]	; 0x2c
 8008388:	2b00      	cmp	r3, #0
 800838a:	d1e5      	bne.n	8008358 <UART_WaitOnFlagUntilTimeout+0x30>
        ATOMIC_CLEAR_BIT(huart->Instance->CR3, USART_CR3_EIE);
 800838c:	68fb      	ldr	r3, [r7, #12]
 800838e:	681b      	ldr	r3, [r3, #0]
 8008390:	3314      	adds	r3, #20
 8008392:	617b      	str	r3, [r7, #20]
   __ASM volatile ("ldrex %0, %1" : "=r" (result) : "Q" (*addr) );
 8008394:	697b      	ldr	r3, [r7, #20]
 8008396:	e853 3f00 	ldrex	r3, [r3]
 800839a:	613b      	str	r3, [r7, #16]
   return(result);
 800839c:	693b      	ldr	r3, [r7, #16]
 800839e:	f023 0301 	bic.w	r3, r3, #1
 80083a2:	63bb      	str	r3, [r7, #56]	; 0x38
 80083a4:	68fb      	ldr	r3, [r7, #12]
 80083a6:	681b      	ldr	r3, [r3, #0]
 80083a8:	3314      	adds	r3, #20
 80083aa:	6bba      	ldr	r2, [r7, #56]	; 0x38
 80083ac:	623a      	str	r2, [r7, #32]
 80083ae:	61fb      	str	r3, [r7, #28]
   __ASM volatile ("strex %0, %2, %1" : "=&r" (result), "=Q" (*addr) : "r" (value) );
 80083b0:	69f9      	ldr	r1, [r7, #28]
 80083b2:	6a3a      	ldr	r2, [r7, #32]
 80083b4:	e841 2300 	strex	r3, r2, [r1]
 80083b8:	61bb      	str	r3, [r7, #24]
   return(result);
 80083ba:	69bb      	ldr	r3, [r7, #24]
 80083bc:	2b00      	cmp	r3, #0
 80083be:	d1e5      	bne.n	800838c <UART_WaitOnFlagUntilTimeout+0x64>

        huart->gState  = HAL_UART_STATE_READY;
 80083c0:	68fb      	ldr	r3, [r7, #12]
 80083c2:	2220      	movs	r2, #32
 80083c4:	f883 2041 	strb.w	r2, [r3, #65]	; 0x41
        huart->RxState = HAL_UART_STATE_READY;
 80083c8:	68fb      	ldr	r3, [r7, #12]
 80083ca:	2220      	movs	r2, #32
 80083cc:	f883 2042 	strb.w	r2, [r3, #66]	; 0x42

        /* Process Unlocked */
        __HAL_UNLOCK(huart);
 80083d0:	68fb      	ldr	r3, [r7, #12]
 80083d2:	2200      	movs	r2, #0
 80083d4:	f883 2040 	strb.w	r2, [r3, #64]	; 0x40

        return HAL_TIMEOUT;
 80083d8:	2303      	movs	r3, #3
 80083da:	e00f      	b.n	80083fc <UART_WaitOnFlagUntilTimeout+0xd4>
  while ((__HAL_UART_GET_FLAG(huart, Flag) ? SET : RESET) == Status)
 80083dc:	68fb      	ldr	r3, [r7, #12]
 80083de:	681b      	ldr	r3, [r3, #0]
 80083e0:	681a      	ldr	r2, [r3, #0]
 80083e2:	68bb      	ldr	r3, [r7, #8]
 80083e4:	4013      	ands	r3, r2
 80083e6:	68ba      	ldr	r2, [r7, #8]
 80083e8:	429a      	cmp	r2, r3
 80083ea:	bf0c      	ite	eq
 80083ec:	2301      	moveq	r3, #1
 80083ee:	2300      	movne	r3, #0
 80083f0:	b2db      	uxtb	r3, r3
 80083f2:	461a      	mov	r2, r3
 80083f4:	79fb      	ldrb	r3, [r7, #7]
 80083f6:	429a      	cmp	r2, r3
 80083f8:	d09f      	beq.n	800833a <UART_WaitOnFlagUntilTimeout+0x12>
      }
    }
  }
  return HAL_OK;
 80083fa:	2300      	movs	r3, #0
}
 80083fc:	4618      	mov	r0, r3
 80083fe:	3740      	adds	r7, #64	; 0x40
 8008400:	46bd      	mov	sp, r7
 8008402:	bd80      	pop	{r7, pc}

08008404 <UART_EndRxTransfer>:
  * @brief  End ongoing Rx transfer on UART peripheral (following error detection or Reception completion).
  * @param  huart UART handle.
  * @retval None
  */
static void UART_EndRxTransfer(UART_HandleTypeDef *huart)
{
 8008404:	b480      	push	{r7}
 8008406:	b095      	sub	sp, #84	; 0x54
 8008408:	af00      	add	r7, sp, #0
 800840a:	6078      	str	r0, [r7, #4]
  /* Disable RXNE, PE and ERR (Frame error, noise error, overrun error) interrupts */
  ATOMIC_CLEAR_BIT(huart->Instance->CR1, (USART_CR1_RXNEIE | USART_CR1_PEIE));
 800840c:	687b      	ldr	r3, [r7, #4]
 800840e:	681b      	ldr	r3, [r3, #0]
 8008410:	330c      	adds	r3, #12
 8008412:	637b      	str	r3, [r7, #52]	; 0x34
   __ASM volatile ("ldrex %0, %1" : "=r" (result) : "Q" (*addr) );
 8008414:	6b7b      	ldr	r3, [r7, #52]	; 0x34
 8008416:	e853 3f00 	ldrex	r3, [r3]
 800841a:	633b      	str	r3, [r7, #48]	; 0x30
   return(result);
 800841c:	6b3b      	ldr	r3, [r7, #48]	; 0x30
 800841e:	f423 7390 	bic.w	r3, r3, #288	; 0x120
 8008422:	64fb      	str	r3, [r7, #76]	; 0x4c
 8008424:	687b      	ldr	r3, [r7, #4]
 8008426:	681b      	ldr	r3, [r3, #0]
 8008428:	330c      	adds	r3, #12
 800842a:	6cfa      	ldr	r2, [r7, #76]	; 0x4c
 800842c:	643a      	str	r2, [r7, #64]	; 0x40
 800842e:	63fb      	str	r3, [r7, #60]	; 0x3c
   __ASM volatile ("strex %0, %2, %1" : "=&r" (result), "=Q" (*addr) : "r" (value) );
 8008430:	6bf9      	ldr	r1, [r7, #60]	; 0x3c
 8008432:	6c3a      	ldr	r2, [r7, #64]	; 0x40
 8008434:	e841 2300 	strex	r3, r2, [r1]
 8008438:	63bb      	str	r3, [r7, #56]	; 0x38
   return(result);
 800843a:	6bbb      	ldr	r3, [r7, #56]	; 0x38
 800843c:	2b00      	cmp	r3, #0
 800843e:	d1e5      	bne.n	800840c <UART_EndRxTransfer+0x8>
  ATOMIC_CLEAR_BIT(huart->Instance->CR3, USART_CR3_EIE);
 8008440:	687b      	ldr	r3, [r7, #4]
 8008442:	681b      	ldr	r3, [r3, #0]
 8008444:	3314      	adds	r3, #20
 8008446:	623b      	str	r3, [r7, #32]
   __ASM volatile ("ldrex %0, %1" : "=r" (result) : "Q" (*addr) );
 8008448:	6a3b      	ldr	r3, [r7, #32]
 800844a:	e853 3f00 	ldrex	r3, [r3]
 800844e:	61fb      	str	r3, [r7, #28]
   return(result);
 8008450:	69fb      	ldr	r3, [r7, #28]
 8008452:	f023 0301 	bic.w	r3, r3, #1
 8008456:	64bb      	str	r3, [r7, #72]	; 0x48
 8008458:	687b      	ldr	r3, [r7, #4]
 800845a:	681b      	ldr	r3, [r3, #0]
 800845c:	3314      	adds	r3, #20
 800845e:	6cba      	ldr	r2, [r7, #72]	; 0x48
 8008460:	62fa      	str	r2, [r7, #44]	; 0x2c
 8008462:	62bb      	str	r3, [r7, #40]	; 0x28
   __ASM volatile ("strex %0, %2, %1" : "=&r" (result), "=Q" (*addr) : "r" (value) );
 8008464:	6ab9      	ldr	r1, [r7, #40]	; 0x28
 8008466:	6afa      	ldr	r2, [r7, #44]	; 0x2c
 8008468:	e841 2300 	strex	r3, r2, [r1]
 800846c:	627b      	str	r3, [r7, #36]	; 0x24
   return(result);
 800846e:	6a7b      	ldr	r3, [r7, #36]	; 0x24
 8008470:	2b00      	cmp	r3, #0
 8008472:	d1e5      	bne.n	8008440 <UART_EndRxTransfer+0x3c>

  /* In case of reception waiting for IDLE event, disable also the IDLE IE interrupt source */
  if (huart->ReceptionType == HAL_UART_RECEPTION_TOIDLE)
 8008474:	687b      	ldr	r3, [r7, #4]
 8008476:	6b1b      	ldr	r3, [r3, #48]	; 0x30
 8008478:	2b01      	cmp	r3, #1
 800847a:	d119      	bne.n	80084b0 <UART_EndRxTransfer+0xac>
  {
    ATOMIC_CLEAR_BIT(huart->Instance->CR1, USART_CR1_IDLEIE);
 800847c:	687b      	ldr	r3, [r7, #4]
 800847e:	681b      	ldr	r3, [r3, #0]
 8008480:	330c      	adds	r3, #12
 8008482:	60fb      	str	r3, [r7, #12]
   __ASM volatile ("ldrex %0, %1" : "=r" (result) : "Q" (*addr) );
 8008484:	68fb      	ldr	r3, [r7, #12]
 8008486:	e853 3f00 	ldrex	r3, [r3]
 800848a:	60bb      	str	r3, [r7, #8]
   return(result);
 800848c:	68bb      	ldr	r3, [r7, #8]
 800848e:	f023 0310 	bic.w	r3, r3, #16
 8008492:	647b      	str	r3, [r7, #68]	; 0x44
 8008494:	687b      	ldr	r3, [r7, #4]
 8008496:	681b      	ldr	r3, [r3, #0]
 8008498:	330c      	adds	r3, #12
 800849a:	6c7a      	ldr	r2, [r7, #68]	; 0x44
 800849c:	61ba      	str	r2, [r7, #24]
 800849e:	617b      	str	r3, [r7, #20]
   __ASM volatile ("strex %0, %2, %1" : "=&r" (result), "=Q" (*addr) : "r" (value) );
 80084a0:	6979      	ldr	r1, [r7, #20]
 80084a2:	69ba      	ldr	r2, [r7, #24]
 80084a4:	e841 2300 	strex	r3, r2, [r1]
 80084a8:	613b      	str	r3, [r7, #16]
   return(result);
 80084aa:	693b      	ldr	r3, [r7, #16]
 80084ac:	2b00      	cmp	r3, #0
 80084ae:	d1e5      	bne.n	800847c <UART_EndRxTransfer+0x78>
  }

  /* At end of Rx process, restore huart->RxState to Ready */
  huart->RxState = HAL_UART_STATE_READY;
 80084b0:	687b      	ldr	r3, [r7, #4]
 80084b2:	2220      	movs	r2, #32
 80084b4:	f883 2042 	strb.w	r2, [r3, #66]	; 0x42
  huart->ReceptionType = HAL_UART_RECEPTION_STANDARD;
 80084b8:	687b      	ldr	r3, [r7, #4]
 80084ba:	2200      	movs	r2, #0
 80084bc:	631a      	str	r2, [r3, #48]	; 0x30
}
 80084be:	bf00      	nop
 80084c0:	3754      	adds	r7, #84	; 0x54
 80084c2:	46bd      	mov	sp, r7
 80084c4:	bc80      	pop	{r7}
 80084c6:	4770      	bx	lr

080084c8 <UART_DMAAbortOnError>:
  * @param  hdma  Pointer to a DMA_HandleTypeDef structure that contains
  *               the configuration information for the specified DMA module.
  * @retval None
  */
static void UART_DMAAbortOnError(DMA_HandleTypeDef *hdma)
{
 80084c8:	b580      	push	{r7, lr}
 80084ca:	b084      	sub	sp, #16
 80084cc:	af00      	add	r7, sp, #0
 80084ce:	6078      	str	r0, [r7, #4]
  UART_HandleTypeDef *huart = (UART_HandleTypeDef *)((DMA_HandleTypeDef *)hdma)->Parent;
 80084d0:	687b      	ldr	r3, [r7, #4]
 80084d2:	6a5b      	ldr	r3, [r3, #36]	; 0x24
 80084d4:	60fb      	str	r3, [r7, #12]
  huart->RxXferCount = 0x00U;
 80084d6:	68fb      	ldr	r3, [r7, #12]
 80084d8:	2200      	movs	r2, #0
 80084da:	85da      	strh	r2, [r3, #46]	; 0x2e
  huart->TxXferCount = 0x00U;
 80084dc:	68fb      	ldr	r3, [r7, #12]
 80084de:	2200      	movs	r2, #0
 80084e0:	84da      	strh	r2, [r3, #38]	; 0x26
#if (USE_HAL_UART_REGISTER_CALLBACKS == 1)
  /*Call registered error callback*/
  huart->ErrorCallback(huart);
#else
  /*Call legacy weak error callback*/
  HAL_UART_ErrorCallback(huart);
 80084e2:	68f8      	ldr	r0, [r7, #12]
 80084e4:	f7ff ff0c 	bl	8008300 <HAL_UART_ErrorCallback>
#endif /* USE_HAL_UART_REGISTER_CALLBACKS */
}
 80084e8:	bf00      	nop
 80084ea:	3710      	adds	r7, #16
 80084ec:	46bd      	mov	sp, r7
 80084ee:	bd80      	pop	{r7, pc}

080084f0 <UART_Transmit_IT>:
  * @param  huart  Pointer to a UART_HandleTypeDef structure that contains
  *                the configuration information for the specified UART module.
  * @retval HAL status
  */
static HAL_StatusTypeDef UART_Transmit_IT(UART_HandleTypeDef *huart)
{
 80084f0:	b480      	push	{r7}
 80084f2:	b085      	sub	sp, #20
 80084f4:	af00      	add	r7, sp, #0
 80084f6:	6078      	str	r0, [r7, #4]
  const uint16_t *tmp;

  /* Check that a Tx process is ongoing */
  if (huart->gState == HAL_UART_STATE_BUSY_TX)
 80084f8:	687b      	ldr	r3, [r7, #4]
 80084fa:	f893 3041 	ldrb.w	r3, [r3, #65]	; 0x41
 80084fe:	b2db      	uxtb	r3, r3
 8008500:	2b21      	cmp	r3, #33	; 0x21
 8008502:	d13e      	bne.n	8008582 <UART_Transmit_IT+0x92>
  {
    if ((huart->Init.WordLength == UART_WORDLENGTH_9B) && (huart->Init.Parity == UART_PARITY_NONE))
 8008504:	687b      	ldr	r3, [r7, #4]
 8008506:	689b      	ldr	r3, [r3, #8]
 8008508:	f5b3 5f80 	cmp.w	r3, #4096	; 0x1000
 800850c:	d114      	bne.n	8008538 <UART_Transmit_IT+0x48>
 800850e:	687b      	ldr	r3, [r7, #4]
 8008510:	691b      	ldr	r3, [r3, #16]
 8008512:	2b00      	cmp	r3, #0
 8008514:	d110      	bne.n	8008538 <UART_Transmit_IT+0x48>
    {
      tmp = (const uint16_t *) huart->pTxBuffPtr;
 8008516:	687b      	ldr	r3, [r7, #4]
 8008518:	6a1b      	ldr	r3, [r3, #32]
 800851a:	60fb      	str	r3, [r7, #12]
      huart->Instance->DR = (uint16_t)(*tmp & (uint16_t)0x01FF);
 800851c:	68fb      	ldr	r3, [r7, #12]
 800851e:	881b      	ldrh	r3, [r3, #0]
 8008520:	461a      	mov	r2, r3
 8008522:	687b      	ldr	r3, [r7, #4]
 8008524:	681b      	ldr	r3, [r3, #0]
 8008526:	f3c2 0208 	ubfx	r2, r2, #0, #9
 800852a:	605a      	str	r2, [r3, #4]
      huart->pTxBuffPtr += 2U;
 800852c:	687b      	ldr	r3, [r7, #4]
 800852e:	6a1b      	ldr	r3, [r3, #32]
 8008530:	1c9a      	adds	r2, r3, #2
 8008532:	687b      	ldr	r3, [r7, #4]
 8008534:	621a      	str	r2, [r3, #32]
 8008536:	e008      	b.n	800854a <UART_Transmit_IT+0x5a>
    }
    else
    {
      huart->Instance->DR = (uint8_t)(*huart->pTxBuffPtr++ & (uint8_t)0x00FF);
 8008538:	687b      	ldr	r3, [r7, #4]
 800853a:	6a1b      	ldr	r3, [r3, #32]
 800853c:	1c59      	adds	r1, r3, #1
 800853e:	687a      	ldr	r2, [r7, #4]
 8008540:	6211      	str	r1, [r2, #32]
 8008542:	781a      	ldrb	r2, [r3, #0]
 8008544:	687b      	ldr	r3, [r7, #4]
 8008546:	681b      	ldr	r3, [r3, #0]
 8008548:	605a      	str	r2, [r3, #4]
    }

    if (--huart->TxXferCount == 0U)
 800854a:	687b      	ldr	r3, [r7, #4]
 800854c:	8cdb      	ldrh	r3, [r3, #38]	; 0x26
 800854e:	b29b      	uxth	r3, r3
 8008550:	3b01      	subs	r3, #1
 8008552:	b29b      	uxth	r3, r3
 8008554:	687a      	ldr	r2, [r7, #4]
 8008556:	4619      	mov	r1, r3
 8008558:	84d1      	strh	r1, [r2, #38]	; 0x26
 800855a:	2b00      	cmp	r3, #0
 800855c:	d10f      	bne.n	800857e <UART_Transmit_IT+0x8e>
    {
      /* Disable the UART Transmit Data Register Empty Interrupt */
      __HAL_UART_DISABLE_IT(huart, UART_IT_TXE);
 800855e:	687b      	ldr	r3, [r7, #4]
 8008560:	681b      	ldr	r3, [r3, #0]
 8008562:	68da      	ldr	r2, [r3, #12]
 8008564:	687b      	ldr	r3, [r7, #4]
 8008566:	681b      	ldr	r3, [r3, #0]
 8008568:	f022 0280 	bic.w	r2, r2, #128	; 0x80
 800856c:	60da      	str	r2, [r3, #12]

      /* Enable the UART Transmit Complete Interrupt */
      __HAL_UART_ENABLE_IT(huart, UART_IT_TC);
 800856e:	687b      	ldr	r3, [r7, #4]
 8008570:	681b      	ldr	r3, [r3, #0]
 8008572:	68da      	ldr	r2, [r3, #12]
 8008574:	687b      	ldr	r3, [r7, #4]
 8008576:	681b      	ldr	r3, [r3, #0]
 8008578:	f042 0240 	orr.w	r2, r2, #64	; 0x40
 800857c:	60da      	str	r2, [r3, #12]
    }
    return HAL_OK;
 800857e:	2300      	movs	r3, #0
 8008580:	e000      	b.n	8008584 <UART_Transmit_IT+0x94>
  }
  else
  {
    return HAL_BUSY;
 8008582:	2302      	movs	r3, #2
  }
}
 8008584:	4618      	mov	r0, r3
 8008586:	3714      	adds	r7, #20
 8008588:	46bd      	mov	sp, r7
 800858a:	bc80      	pop	{r7}
 800858c:	4770      	bx	lr

0800858e <UART_EndTransmit_IT>:
  * @param  huart  Pointer to a UART_HandleTypeDef structure that contains
  *                the configuration information for the specified UART module.
  * @retval HAL status
  */
static HAL_StatusTypeDef UART_EndTransmit_IT(UART_HandleTypeDef *huart)
{
 800858e:	b580      	push	{r7, lr}
 8008590:	b082      	sub	sp, #8
 8008592:	af00      	add	r7, sp, #0
 8008594:	6078      	str	r0, [r7, #4]
  /* Disable the UART Transmit Complete Interrupt */
  __HAL_UART_DISABLE_IT(huart, UART_IT_TC);
 8008596:	687b      	ldr	r3, [r7, #4]
 8008598:	681b      	ldr	r3, [r3, #0]
 800859a:	68da      	ldr	r2, [r3, #12]
 800859c:	687b      	ldr	r3, [r7, #4]
 800859e:	681b      	ldr	r3, [r3, #0]
 80085a0:	f022 0240 	bic.w	r2, r2, #64	; 0x40
 80085a4:	60da      	str	r2, [r3, #12]

  /* Tx process is ended, restore huart->gState to Ready */
  huart->gState = HAL_UART_STATE_READY;
 80085a6:	687b      	ldr	r3, [r7, #4]
 80085a8:	2220      	movs	r2, #32
 80085aa:	f883 2041 	strb.w	r2, [r3, #65]	; 0x41
#if (USE_HAL_UART_REGISTER_CALLBACKS == 1)
  /*Call registered Tx complete callback*/
  huart->TxCpltCallback(huart);
#else
  /*Call legacy weak Tx complete callback*/
  HAL_UART_TxCpltCallback(huart);
 80085ae:	6878      	ldr	r0, [r7, #4]
 80085b0:	f7ff fe94 	bl	80082dc <HAL_UART_TxCpltCallback>
#endif /* USE_HAL_UART_REGISTER_CALLBACKS */

  return HAL_OK;
 80085b4:	2300      	movs	r3, #0
}
 80085b6:	4618      	mov	r0, r3
 80085b8:	3708      	adds	r7, #8
 80085ba:	46bd      	mov	sp, r7
 80085bc:	bd80      	pop	{r7, pc}

080085be <UART_Receive_IT>:
  * @param  huart  Pointer to a UART_HandleTypeDef structure that contains
  *                the configuration information for the specified UART module.
  * @retval HAL status
  */
static HAL_StatusTypeDef UART_Receive_IT(UART_HandleTypeDef *huart)
{
 80085be:	b580      	push	{r7, lr}
 80085c0:	b08c      	sub	sp, #48	; 0x30
 80085c2:	af00      	add	r7, sp, #0
 80085c4:	6078      	str	r0, [r7, #4]
  uint8_t  *pdata8bits;
  uint16_t *pdata16bits;

  /* Check that a Rx process is ongoing */
  if (huart->RxState == HAL_UART_STATE_BUSY_RX)
 80085c6:	687b      	ldr	r3, [r7, #4]
 80085c8:	f893 3042 	ldrb.w	r3, [r3, #66]	; 0x42
 80085cc:	b2db      	uxtb	r3, r3
 80085ce:	2b22      	cmp	r3, #34	; 0x22
 80085d0:	f040 80ae 	bne.w	8008730 <UART_Receive_IT+0x172>
  {
    if ((huart->Init.WordLength == UART_WORDLENGTH_9B) && (huart->Init.Parity == UART_PARITY_NONE))
 80085d4:	687b      	ldr	r3, [r7, #4]
 80085d6:	689b      	ldr	r3, [r3, #8]
 80085d8:	f5b3 5f80 	cmp.w	r3, #4096	; 0x1000
 80085dc:	d117      	bne.n	800860e <UART_Receive_IT+0x50>
 80085de:	687b      	ldr	r3, [r7, #4]
 80085e0:	691b      	ldr	r3, [r3, #16]
 80085e2:	2b00      	cmp	r3, #0
 80085e4:	d113      	bne.n	800860e <UART_Receive_IT+0x50>
    {
      pdata8bits  = NULL;
 80085e6:	2300      	movs	r3, #0
 80085e8:	62fb      	str	r3, [r7, #44]	; 0x2c
      pdata16bits = (uint16_t *) huart->pRxBuffPtr;
 80085ea:	687b      	ldr	r3, [r7, #4]
 80085ec:	6a9b      	ldr	r3, [r3, #40]	; 0x28
 80085ee:	62bb      	str	r3, [r7, #40]	; 0x28
      *pdata16bits = (uint16_t)(huart->Instance->DR & (uint16_t)0x01FF);
 80085f0:	687b      	ldr	r3, [r7, #4]
 80085f2:	681b      	ldr	r3, [r3, #0]
 80085f4:	685b      	ldr	r3, [r3, #4]
 80085f6:	b29b      	uxth	r3, r3
 80085f8:	f3c3 0308 	ubfx	r3, r3, #0, #9
 80085fc:	b29a      	uxth	r2, r3
 80085fe:	6abb      	ldr	r3, [r7, #40]	; 0x28
 8008600:	801a      	strh	r2, [r3, #0]
      huart->pRxBuffPtr += 2U;
 8008602:	687b      	ldr	r3, [r7, #4]
 8008604:	6a9b      	ldr	r3, [r3, #40]	; 0x28
 8008606:	1c9a      	adds	r2, r3, #2
 8008608:	687b      	ldr	r3, [r7, #4]
 800860a:	629a      	str	r2, [r3, #40]	; 0x28
 800860c:	e026      	b.n	800865c <UART_Receive_IT+0x9e>
    }
    else
    {
      pdata8bits = (uint8_t *) huart->pRxBuffPtr;
 800860e:	687b      	ldr	r3, [r7, #4]
 8008610:	6a9b      	ldr	r3, [r3, #40]	; 0x28
 8008612:	62fb      	str	r3, [r7, #44]	; 0x2c
      pdata16bits  = NULL;
 8008614:	2300      	movs	r3, #0
 8008616:	62bb      	str	r3, [r7, #40]	; 0x28

      if ((huart->Init.WordLength == UART_WORDLENGTH_9B) || ((huart->Init.WordLength == UART_WORDLENGTH_8B) && (huart->Init.Parity == UART_PARITY_NONE)))
 8008618:	687b      	ldr	r3, [r7, #4]
 800861a:	689b      	ldr	r3, [r3, #8]
 800861c:	f5b3 5f80 	cmp.w	r3, #4096	; 0x1000
 8008620:	d007      	beq.n	8008632 <UART_Receive_IT+0x74>
 8008622:	687b      	ldr	r3, [r7, #4]
 8008624:	689b      	ldr	r3, [r3, #8]
 8008626:	2b00      	cmp	r3, #0
 8008628:	d10a      	bne.n	8008640 <UART_Receive_IT+0x82>
 800862a:	687b      	ldr	r3, [r7, #4]
 800862c:	691b      	ldr	r3, [r3, #16]
 800862e:	2b00      	cmp	r3, #0
 8008630:	d106      	bne.n	8008640 <UART_Receive_IT+0x82>
      {
        *pdata8bits = (uint8_t)(huart->Instance->DR & (uint8_t)0x00FF);
 8008632:	687b      	ldr	r3, [r7, #4]
 8008634:	681b      	ldr	r3, [r3, #0]
 8008636:	685b      	ldr	r3, [r3, #4]
 8008638:	b2da      	uxtb	r2, r3
 800863a:	6afb      	ldr	r3, [r7, #44]	; 0x2c
 800863c:	701a      	strb	r2, [r3, #0]
 800863e:	e008      	b.n	8008652 <UART_Receive_IT+0x94>
      }
      else
      {
        *pdata8bits = (uint8_t)(huart->Instance->DR & (uint8_t)0x007F);
 8008640:	687b      	ldr	r3, [r7, #4]
 8008642:	681b      	ldr	r3, [r3, #0]
 8008644:	685b      	ldr	r3, [r3, #4]
 8008646:	b2db      	uxtb	r3, r3
 8008648:	f003 037f 	and.w	r3, r3, #127	; 0x7f
 800864c:	b2da      	uxtb	r2, r3
 800864e:	6afb      	ldr	r3, [r7, #44]	; 0x2c
 8008650:	701a      	strb	r2, [r3, #0]
      }
      huart->pRxBuffPtr += 1U;
 8008652:	687b      	ldr	r3, [r7, #4]
 8008654:	6a9b      	ldr	r3, [r3, #40]	; 0x28
 8008656:	1c5a      	adds	r2, r3, #1
 8008658:	687b      	ldr	r3, [r7, #4]
 800865a:	629a      	str	r2, [r3, #40]	; 0x28
    }

    if (--huart->RxXferCount == 0U)
 800865c:	687b      	ldr	r3, [r7, #4]
 800865e:	8ddb      	ldrh	r3, [r3, #46]	; 0x2e
 8008660:	b29b      	uxth	r3, r3
 8008662:	3b01      	subs	r3, #1
 8008664:	b29b      	uxth	r3, r3
 8008666:	687a      	ldr	r2, [r7, #4]
 8008668:	4619      	mov	r1, r3
 800866a:	85d1      	strh	r1, [r2, #46]	; 0x2e
 800866c:	2b00      	cmp	r3, #0
 800866e:	d15d      	bne.n	800872c <UART_Receive_IT+0x16e>
    {
      /* Disable the UART Data Register not empty Interrupt */
      __HAL_UART_DISABLE_IT(huart, UART_IT_RXNE);
 8008670:	687b      	ldr	r3, [r7, #4]
 8008672:	681b      	ldr	r3, [r3, #0]
 8008674:	68da      	ldr	r2, [r3, #12]
 8008676:	687b      	ldr	r3, [r7, #4]
 8008678:	681b      	ldr	r3, [r3, #0]
 800867a:	f022 0220 	bic.w	r2, r2, #32
 800867e:	60da      	str	r2, [r3, #12]

      /* Disable the UART Parity Error Interrupt */
      __HAL_UART_DISABLE_IT(huart, UART_IT_PE);
 8008680:	687b      	ldr	r3, [r7, #4]
 8008682:	681b      	ldr	r3, [r3, #0]
 8008684:	68da      	ldr	r2, [r3, #12]
 8008686:	687b      	ldr	r3, [r7, #4]
 8008688:	681b      	ldr	r3, [r3, #0]
 800868a:	f422 7280 	bic.w	r2, r2, #256	; 0x100
 800868e:	60da      	str	r2, [r3, #12]

      /* Disable the UART Error Interrupt: (Frame error, noise error, overrun error) */
      __HAL_UART_DISABLE_IT(huart, UART_IT_ERR);
 8008690:	687b      	ldr	r3, [r7, #4]
 8008692:	681b      	ldr	r3, [r3, #0]
 8008694:	695a      	ldr	r2, [r3, #20]
 8008696:	687b      	ldr	r3, [r7, #4]
 8008698:	681b      	ldr	r3, [r3, #0]
 800869a:	f022 0201 	bic.w	r2, r2, #1
 800869e:	615a      	str	r2, [r3, #20]

      /* Rx process is completed, restore huart->RxState to Ready */
      huart->RxState = HAL_UART_STATE_READY;
 80086a0:	687b      	ldr	r3, [r7, #4]
 80086a2:	2220      	movs	r2, #32
 80086a4:	f883 2042 	strb.w	r2, [r3, #66]	; 0x42

      /* Initialize type of RxEvent to Transfer Complete */
      huart->RxEventType = HAL_UART_RXEVENT_TC;
 80086a8:	687b      	ldr	r3, [r7, #4]
 80086aa:	2200      	movs	r2, #0
 80086ac:	635a      	str	r2, [r3, #52]	; 0x34

      /* Check current reception Mode :
         If Reception till IDLE event has been selected : */
      if (huart->ReceptionType == HAL_UART_RECEPTION_TOIDLE)
 80086ae:	687b      	ldr	r3, [r7, #4]
 80086b0:	6b1b      	ldr	r3, [r3, #48]	; 0x30
 80086b2:	2b01      	cmp	r3, #1
 80086b4:	d135      	bne.n	8008722 <UART_Receive_IT+0x164>
      {
        /* Set reception type to Standard */
        huart->ReceptionType = HAL_UART_RECEPTION_STANDARD;
 80086b6:	687b      	ldr	r3, [r7, #4]
 80086b8:	2200      	movs	r2, #0
 80086ba:	631a      	str	r2, [r3, #48]	; 0x30

        /* Disable IDLE interrupt */
        ATOMIC_CLEAR_BIT(huart->Instance->CR1, USART_CR1_IDLEIE);
 80086bc:	687b      	ldr	r3, [r7, #4]
 80086be:	681b      	ldr	r3, [r3, #0]
 80086c0:	330c      	adds	r3, #12
 80086c2:	617b      	str	r3, [r7, #20]
   __ASM volatile ("ldrex %0, %1" : "=r" (result) : "Q" (*addr) );
 80086c4:	697b      	ldr	r3, [r7, #20]
 80086c6:	e853 3f00 	ldrex	r3, [r3]
 80086ca:	613b      	str	r3, [r7, #16]
   return(result);
 80086cc:	693b      	ldr	r3, [r7, #16]
 80086ce:	f023 0310 	bic.w	r3, r3, #16
 80086d2:	627b      	str	r3, [r7, #36]	; 0x24
 80086d4:	687b      	ldr	r3, [r7, #4]
 80086d6:	681b      	ldr	r3, [r3, #0]
 80086d8:	330c      	adds	r3, #12
 80086da:	6a7a      	ldr	r2, [r7, #36]	; 0x24
 80086dc:	623a      	str	r2, [r7, #32]
 80086de:	61fb      	str	r3, [r7, #28]
   __ASM volatile ("strex %0, %2, %1" : "=&r" (result), "=Q" (*addr) : "r" (value) );
 80086e0:	69f9      	ldr	r1, [r7, #28]
 80086e2:	6a3a      	ldr	r2, [r7, #32]
 80086e4:	e841 2300 	strex	r3, r2, [r1]
 80086e8:	61bb      	str	r3, [r7, #24]
   return(result);
 80086ea:	69bb      	ldr	r3, [r7, #24]
 80086ec:	2b00      	cmp	r3, #0
 80086ee:	d1e5      	bne.n	80086bc <UART_Receive_IT+0xfe>

        /* Check if IDLE flag is set */
        if (__HAL_UART_GET_FLAG(huart, UART_FLAG_IDLE))
 80086f0:	687b      	ldr	r3, [r7, #4]
 80086f2:	681b      	ldr	r3, [r3, #0]
 80086f4:	681b      	ldr	r3, [r3, #0]
 80086f6:	f003 0310 	and.w	r3, r3, #16
 80086fa:	2b10      	cmp	r3, #16
 80086fc:	d10a      	bne.n	8008714 <UART_Receive_IT+0x156>
        {
          /* Clear IDLE flag in ISR */
          __HAL_UART_CLEAR_IDLEFLAG(huart);
 80086fe:	2300      	movs	r3, #0
 8008700:	60fb      	str	r3, [r7, #12]
 8008702:	687b      	ldr	r3, [r7, #4]
 8008704:	681b      	ldr	r3, [r3, #0]
 8008706:	681b      	ldr	r3, [r3, #0]
 8008708:	60fb      	str	r3, [r7, #12]
 800870a:	687b      	ldr	r3, [r7, #4]
 800870c:	681b      	ldr	r3, [r3, #0]
 800870e:	685b      	ldr	r3, [r3, #4]
 8008710:	60fb      	str	r3, [r7, #12]
 8008712:	68fb      	ldr	r3, [r7, #12]
#if (USE_HAL_UART_REGISTER_CALLBACKS == 1)
        /*Call registered Rx Event callback*/
        huart->RxEventCallback(huart, huart->RxXferSize);
#else
        /*Call legacy weak Rx Event callback*/
        HAL_UARTEx_RxEventCallback(huart, huart->RxXferSize);
 8008714:	687b      	ldr	r3, [r7, #4]
 8008716:	8d9b      	ldrh	r3, [r3, #44]	; 0x2c
 8008718:	4619      	mov	r1, r3
 800871a:	6878      	ldr	r0, [r7, #4]
 800871c:	f7ff fdf9 	bl	8008312 <HAL_UARTEx_RxEventCallback>
 8008720:	e002      	b.n	8008728 <UART_Receive_IT+0x16a>
#if (USE_HAL_UART_REGISTER_CALLBACKS == 1)
        /*Call registered Rx complete callback*/
        huart->RxCpltCallback(huart);
#else
        /*Call legacy weak Rx complete callback*/
        HAL_UART_RxCpltCallback(huart);
 8008722:	6878      	ldr	r0, [r7, #4]
 8008724:	f7ff fde3 	bl	80082ee <HAL_UART_RxCpltCallback>
#endif /* USE_HAL_UART_REGISTER_CALLBACKS */
      }

      return HAL_OK;
 8008728:	2300      	movs	r3, #0
 800872a:	e002      	b.n	8008732 <UART_Receive_IT+0x174>
    }
    return HAL_OK;
 800872c:	2300      	movs	r3, #0
 800872e:	e000      	b.n	8008732 <UART_Receive_IT+0x174>
  }
  else
  {
    return HAL_BUSY;
 8008730:	2302      	movs	r3, #2
  }
}
 8008732:	4618      	mov	r0, r3
 8008734:	3730      	adds	r7, #48	; 0x30
 8008736:	46bd      	mov	sp, r7
 8008738:	bd80      	pop	{r7, pc}
	...

0800873c <UART_SetConfig>:
  * @param  huart  Pointer to a UART_HandleTypeDef structure that contains
  *                the configuration information for the specified UART module.
  * @retval None
  */
static void UART_SetConfig(UART_HandleTypeDef *huart)
{
 800873c:	b580      	push	{r7, lr}
 800873e:	b084      	sub	sp, #16
 8008740:	af00      	add	r7, sp, #0
 8008742:	6078      	str	r0, [r7, #4]
  assert_param(IS_UART_MODE(huart->Init.Mode));

  /*-------------------------- USART CR2 Configuration -----------------------*/
  /* Configure the UART Stop Bits: Set STOP[13:12] bits
     according to huart->Init.StopBits value */
  MODIFY_REG(huart->Instance->CR2, USART_CR2_STOP, huart->Init.StopBits);
 8008744:	687b      	ldr	r3, [r7, #4]
 8008746:	681b      	ldr	r3, [r3, #0]
 8008748:	691b      	ldr	r3, [r3, #16]
 800874a:	f423 5140 	bic.w	r1, r3, #12288	; 0x3000
 800874e:	687b      	ldr	r3, [r7, #4]
 8008750:	68da      	ldr	r2, [r3, #12]
 8008752:	687b      	ldr	r3, [r7, #4]
 8008754:	681b      	ldr	r3, [r3, #0]
 8008756:	430a      	orrs	r2, r1
 8008758:	611a      	str	r2, [r3, #16]
  tmpreg = (uint32_t)huart->Init.WordLength | huart->Init.Parity | huart->Init.Mode | huart->Init.OverSampling;
  MODIFY_REG(huart->Instance->CR1,
             (uint32_t)(USART_CR1_M | USART_CR1_PCE | USART_CR1_PS | USART_CR1_TE | USART_CR1_RE | USART_CR1_OVER8),
             tmpreg);
#else
  tmpreg = (uint32_t)huart->Init.WordLength | huart->Init.Parity | huart->Init.Mode;
 800875a:	687b      	ldr	r3, [r7, #4]
 800875c:	689a      	ldr	r2, [r3, #8]
 800875e:	687b      	ldr	r3, [r7, #4]
 8008760:	691b      	ldr	r3, [r3, #16]
 8008762:	431a      	orrs	r2, r3
 8008764:	687b      	ldr	r3, [r7, #4]
 8008766:	695b      	ldr	r3, [r3, #20]
 8008768:	4313      	orrs	r3, r2
 800876a:	60bb      	str	r3, [r7, #8]
  MODIFY_REG(huart->Instance->CR1,
 800876c:	687b      	ldr	r3, [r7, #4]
 800876e:	681b      	ldr	r3, [r3, #0]
 8008770:	68db      	ldr	r3, [r3, #12]
 8008772:	f423 53b0 	bic.w	r3, r3, #5632	; 0x1600
 8008776:	f023 030c 	bic.w	r3, r3, #12
 800877a:	687a      	ldr	r2, [r7, #4]
 800877c:	6812      	ldr	r2, [r2, #0]
 800877e:	68b9      	ldr	r1, [r7, #8]
 8008780:	430b      	orrs	r3, r1
 8008782:	60d3      	str	r3, [r2, #12]
             tmpreg);
#endif /* USART_CR1_OVER8 */

  /*-------------------------- USART CR3 Configuration -----------------------*/
  /* Configure the UART HFC: Set CTSE and RTSE bits according to huart->Init.HwFlowCtl value */
  MODIFY_REG(huart->Instance->CR3, (USART_CR3_RTSE | USART_CR3_CTSE), huart->Init.HwFlowCtl);
 8008784:	687b      	ldr	r3, [r7, #4]
 8008786:	681b      	ldr	r3, [r3, #0]
 8008788:	695b      	ldr	r3, [r3, #20]
 800878a:	f423 7140 	bic.w	r1, r3, #768	; 0x300
 800878e:	687b      	ldr	r3, [r7, #4]
 8008790:	699a      	ldr	r2, [r3, #24]
 8008792:	687b      	ldr	r3, [r7, #4]
 8008794:	681b      	ldr	r3, [r3, #0]
 8008796:	430a      	orrs	r2, r1
 8008798:	615a      	str	r2, [r3, #20]


  if(huart->Instance == USART1)
 800879a:	687b      	ldr	r3, [r7, #4]
 800879c:	681b      	ldr	r3, [r3, #0]
 800879e:	4a2c      	ldr	r2, [pc, #176]	; (8008850 <UART_SetConfig+0x114>)
 80087a0:	4293      	cmp	r3, r2
 80087a2:	d103      	bne.n	80087ac <UART_SetConfig+0x70>
  {
    pclk = HAL_RCC_GetPCLK2Freq();
 80087a4:	f7fe faa4 	bl	8006cf0 <HAL_RCC_GetPCLK2Freq>
 80087a8:	60f8      	str	r0, [r7, #12]
 80087aa:	e002      	b.n	80087b2 <UART_SetConfig+0x76>
  }
  else
  {
    pclk = HAL_RCC_GetPCLK1Freq();
 80087ac:	f7fe fa8c 	bl	8006cc8 <HAL_RCC_GetPCLK1Freq>
 80087b0:	60f8      	str	r0, [r7, #12]
  else
  {
    huart->Instance->BRR = UART_BRR_SAMPLING16(pclk, huart->Init.BaudRate);
  }
#else
  huart->Instance->BRR = UART_BRR_SAMPLING16(pclk, huart->Init.BaudRate);
 80087b2:	68fa      	ldr	r2, [r7, #12]
 80087b4:	4613      	mov	r3, r2
 80087b6:	009b      	lsls	r3, r3, #2
 80087b8:	4413      	add	r3, r2
 80087ba:	009a      	lsls	r2, r3, #2
 80087bc:	441a      	add	r2, r3
 80087be:	687b      	ldr	r3, [r7, #4]
 80087c0:	685b      	ldr	r3, [r3, #4]
 80087c2:	009b      	lsls	r3, r3, #2
 80087c4:	fbb2 f3f3 	udiv	r3, r2, r3
 80087c8:	4a22      	ldr	r2, [pc, #136]	; (8008854 <UART_SetConfig+0x118>)
 80087ca:	fba2 2303 	umull	r2, r3, r2, r3
 80087ce:	095b      	lsrs	r3, r3, #5
 80087d0:	0119      	lsls	r1, r3, #4
 80087d2:	68fa      	ldr	r2, [r7, #12]
 80087d4:	4613      	mov	r3, r2
 80087d6:	009b      	lsls	r3, r3, #2
 80087d8:	4413      	add	r3, r2
 80087da:	009a      	lsls	r2, r3, #2
 80087dc:	441a      	add	r2, r3
 80087de:	687b      	ldr	r3, [r7, #4]
 80087e0:	685b      	ldr	r3, [r3, #4]
 80087e2:	009b      	lsls	r3, r3, #2
 80087e4:	fbb2 f2f3 	udiv	r2, r2, r3
 80087e8:	4b1a      	ldr	r3, [pc, #104]	; (8008854 <UART_SetConfig+0x118>)
 80087ea:	fba3 0302 	umull	r0, r3, r3, r2
 80087ee:	095b      	lsrs	r3, r3, #5
 80087f0:	2064      	movs	r0, #100	; 0x64
 80087f2:	fb00 f303 	mul.w	r3, r0, r3
 80087f6:	1ad3      	subs	r3, r2, r3
 80087f8:	011b      	lsls	r3, r3, #4
 80087fa:	3332      	adds	r3, #50	; 0x32
 80087fc:	4a15      	ldr	r2, [pc, #84]	; (8008854 <UART_SetConfig+0x118>)
 80087fe:	fba2 2303 	umull	r2, r3, r2, r3
 8008802:	095b      	lsrs	r3, r3, #5
 8008804:	f003 03f0 	and.w	r3, r3, #240	; 0xf0
 8008808:	4419      	add	r1, r3
 800880a:	68fa      	ldr	r2, [r7, #12]
 800880c:	4613      	mov	r3, r2
 800880e:	009b      	lsls	r3, r3, #2
 8008810:	4413      	add	r3, r2
 8008812:	009a      	lsls	r2, r3, #2
 8008814:	441a      	add	r2, r3
 8008816:	687b      	ldr	r3, [r7, #4]
 8008818:	685b      	ldr	r3, [r3, #4]
 800881a:	009b      	lsls	r3, r3, #2
 800881c:	fbb2 f2f3 	udiv	r2, r2, r3
 8008820:	4b0c      	ldr	r3, [pc, #48]	; (8008854 <UART_SetConfig+0x118>)
 8008822:	fba3 0302 	umull	r0, r3, r3, r2
 8008826:	095b      	lsrs	r3, r3, #5
 8008828:	2064      	movs	r0, #100	; 0x64
 800882a:	fb00 f303 	mul.w	r3, r0, r3
 800882e:	1ad3      	subs	r3, r2, r3
 8008830:	011b      	lsls	r3, r3, #4
 8008832:	3332      	adds	r3, #50	; 0x32
 8008834:	4a07      	ldr	r2, [pc, #28]	; (8008854 <UART_SetConfig+0x118>)
 8008836:	fba2 2303 	umull	r2, r3, r2, r3
 800883a:	095b      	lsrs	r3, r3, #5
 800883c:	f003 020f 	and.w	r2, r3, #15
 8008840:	687b      	ldr	r3, [r7, #4]
 8008842:	681b      	ldr	r3, [r3, #0]
 8008844:	440a      	add	r2, r1
 8008846:	609a      	str	r2, [r3, #8]
#endif /* USART_CR1_OVER8 */
}
 8008848:	bf00      	nop
 800884a:	3710      	adds	r7, #16
 800884c:	46bd      	mov	sp, r7
 800884e:	bd80      	pop	{r7, pc}
 8008850:	40013800 	.word	0x40013800
 8008854:	51eb851f 	.word	0x51eb851f

08008858 <siprintf>:
 8008858:	b40e      	push	{r1, r2, r3}
 800885a:	f06f 4100 	mvn.w	r1, #2147483648	; 0x80000000
 800885e:	b500      	push	{lr}
 8008860:	b09c      	sub	sp, #112	; 0x70
 8008862:	ab1d      	add	r3, sp, #116	; 0x74
 8008864:	9002      	str	r0, [sp, #8]
 8008866:	9006      	str	r0, [sp, #24]
 8008868:	9107      	str	r1, [sp, #28]
 800886a:	9104      	str	r1, [sp, #16]
 800886c:	4808      	ldr	r0, [pc, #32]	; (8008890 <siprintf+0x38>)
 800886e:	4909      	ldr	r1, [pc, #36]	; (8008894 <siprintf+0x3c>)
 8008870:	f853 2b04 	ldr.w	r2, [r3], #4
 8008874:	9105      	str	r1, [sp, #20]
 8008876:	6800      	ldr	r0, [r0, #0]
 8008878:	a902      	add	r1, sp, #8
 800887a:	9301      	str	r3, [sp, #4]
 800887c:	f000 f98e 	bl	8008b9c <_svfiprintf_r>
 8008880:	2200      	movs	r2, #0
 8008882:	9b02      	ldr	r3, [sp, #8]
 8008884:	701a      	strb	r2, [r3, #0]
 8008886:	b01c      	add	sp, #112	; 0x70
 8008888:	f85d eb04 	ldr.w	lr, [sp], #4
 800888c:	b003      	add	sp, #12
 800888e:	4770      	bx	lr
 8008890:	20000104 	.word	0x20000104
 8008894:	ffff0208 	.word	0xffff0208

08008898 <memset>:
 8008898:	4603      	mov	r3, r0
 800889a:	4402      	add	r2, r0
 800889c:	4293      	cmp	r3, r2
 800889e:	d100      	bne.n	80088a2 <memset+0xa>
 80088a0:	4770      	bx	lr
 80088a2:	f803 1b01 	strb.w	r1, [r3], #1
 80088a6:	e7f9      	b.n	800889c <memset+0x4>

080088a8 <__errno>:
 80088a8:	4b01      	ldr	r3, [pc, #4]	; (80088b0 <__errno+0x8>)
 80088aa:	6818      	ldr	r0, [r3, #0]
 80088ac:	4770      	bx	lr
 80088ae:	bf00      	nop
 80088b0:	20000104 	.word	0x20000104

080088b4 <__libc_init_array>:
 80088b4:	b570      	push	{r4, r5, r6, lr}
 80088b6:	2600      	movs	r6, #0
 80088b8:	4d0c      	ldr	r5, [pc, #48]	; (80088ec <__libc_init_array+0x38>)
 80088ba:	4c0d      	ldr	r4, [pc, #52]	; (80088f0 <__libc_init_array+0x3c>)
 80088bc:	1b64      	subs	r4, r4, r5
 80088be:	10a4      	asrs	r4, r4, #2
 80088c0:	42a6      	cmp	r6, r4
 80088c2:	d109      	bne.n	80088d8 <__libc_init_array+0x24>
 80088c4:	f000 ffd6 	bl	8009874 <_init>
 80088c8:	2600      	movs	r6, #0
 80088ca:	4d0a      	ldr	r5, [pc, #40]	; (80088f4 <__libc_init_array+0x40>)
 80088cc:	4c0a      	ldr	r4, [pc, #40]	; (80088f8 <__libc_init_array+0x44>)
 80088ce:	1b64      	subs	r4, r4, r5
 80088d0:	10a4      	asrs	r4, r4, #2
 80088d2:	42a6      	cmp	r6, r4
 80088d4:	d105      	bne.n	80088e2 <__libc_init_array+0x2e>
 80088d6:	bd70      	pop	{r4, r5, r6, pc}
 80088d8:	f855 3b04 	ldr.w	r3, [r5], #4
 80088dc:	4798      	blx	r3
 80088de:	3601      	adds	r6, #1
 80088e0:	e7ee      	b.n	80088c0 <__libc_init_array+0xc>
 80088e2:	f855 3b04 	ldr.w	r3, [r5], #4
 80088e6:	4798      	blx	r3
 80088e8:	3601      	adds	r6, #1
 80088ea:	e7f2      	b.n	80088d2 <__libc_init_array+0x1e>
 80088ec:	08009c40 	.word	0x08009c40
 80088f0:	08009c40 	.word	0x08009c40
 80088f4:	08009c40 	.word	0x08009c40
 80088f8:	08009c44 	.word	0x08009c44

080088fc <__retarget_lock_acquire_recursive>:
 80088fc:	4770      	bx	lr

080088fe <__retarget_lock_release_recursive>:
 80088fe:	4770      	bx	lr

08008900 <_free_r>:
 8008900:	b538      	push	{r3, r4, r5, lr}
 8008902:	4605      	mov	r5, r0
 8008904:	2900      	cmp	r1, #0
 8008906:	d040      	beq.n	800898a <_free_r+0x8a>
 8008908:	f851 3c04 	ldr.w	r3, [r1, #-4]
 800890c:	1f0c      	subs	r4, r1, #4
 800890e:	2b00      	cmp	r3, #0
 8008910:	bfb8      	it	lt
 8008912:	18e4      	addlt	r4, r4, r3
 8008914:	f000 f8dc 	bl	8008ad0 <__malloc_lock>
 8008918:	4a1c      	ldr	r2, [pc, #112]	; (800898c <_free_r+0x8c>)
 800891a:	6813      	ldr	r3, [r2, #0]
 800891c:	b933      	cbnz	r3, 800892c <_free_r+0x2c>
 800891e:	6063      	str	r3, [r4, #4]
 8008920:	6014      	str	r4, [r2, #0]
 8008922:	4628      	mov	r0, r5
 8008924:	e8bd 4038 	ldmia.w	sp!, {r3, r4, r5, lr}
 8008928:	f000 b8d8 	b.w	8008adc <__malloc_unlock>
 800892c:	42a3      	cmp	r3, r4
 800892e:	d908      	bls.n	8008942 <_free_r+0x42>
 8008930:	6820      	ldr	r0, [r4, #0]
 8008932:	1821      	adds	r1, r4, r0
 8008934:	428b      	cmp	r3, r1
 8008936:	bf01      	itttt	eq
 8008938:	6819      	ldreq	r1, [r3, #0]
 800893a:	685b      	ldreq	r3, [r3, #4]
 800893c:	1809      	addeq	r1, r1, r0
 800893e:	6021      	streq	r1, [r4, #0]
 8008940:	e7ed      	b.n	800891e <_free_r+0x1e>
 8008942:	461a      	mov	r2, r3
 8008944:	685b      	ldr	r3, [r3, #4]
 8008946:	b10b      	cbz	r3, 800894c <_free_r+0x4c>
 8008948:	42a3      	cmp	r3, r4
 800894a:	d9fa      	bls.n	8008942 <_free_r+0x42>
 800894c:	6811      	ldr	r1, [r2, #0]
 800894e:	1850      	adds	r0, r2, r1
 8008950:	42a0      	cmp	r0, r4
 8008952:	d10b      	bne.n	800896c <_free_r+0x6c>
 8008954:	6820      	ldr	r0, [r4, #0]
 8008956:	4401      	add	r1, r0
 8008958:	1850      	adds	r0, r2, r1
 800895a:	4283      	cmp	r3, r0
 800895c:	6011      	str	r1, [r2, #0]
 800895e:	d1e0      	bne.n	8008922 <_free_r+0x22>
 8008960:	6818      	ldr	r0, [r3, #0]
 8008962:	685b      	ldr	r3, [r3, #4]
 8008964:	4408      	add	r0, r1
 8008966:	6010      	str	r0, [r2, #0]
 8008968:	6053      	str	r3, [r2, #4]
 800896a:	e7da      	b.n	8008922 <_free_r+0x22>
 800896c:	d902      	bls.n	8008974 <_free_r+0x74>
 800896e:	230c      	movs	r3, #12
 8008970:	602b      	str	r3, [r5, #0]
 8008972:	e7d6      	b.n	8008922 <_free_r+0x22>
 8008974:	6820      	ldr	r0, [r4, #0]
 8008976:	1821      	adds	r1, r4, r0
 8008978:	428b      	cmp	r3, r1
 800897a:	bf01      	itttt	eq
 800897c:	6819      	ldreq	r1, [r3, #0]
 800897e:	685b      	ldreq	r3, [r3, #4]
 8008980:	1809      	addeq	r1, r1, r0
 8008982:	6021      	streq	r1, [r4, #0]
 8008984:	6063      	str	r3, [r4, #4]
 8008986:	6054      	str	r4, [r2, #4]
 8008988:	e7cb      	b.n	8008922 <_free_r+0x22>
 800898a:	bd38      	pop	{r3, r4, r5, pc}
 800898c:	20000728 	.word	0x20000728

08008990 <sbrk_aligned>:
 8008990:	b570      	push	{r4, r5, r6, lr}
 8008992:	4e0e      	ldr	r6, [pc, #56]	; (80089cc <sbrk_aligned+0x3c>)
 8008994:	460c      	mov	r4, r1
 8008996:	6831      	ldr	r1, [r6, #0]
 8008998:	4605      	mov	r5, r0
 800899a:	b911      	cbnz	r1, 80089a2 <sbrk_aligned+0x12>
 800899c:	f000 fbaa 	bl	80090f4 <_sbrk_r>
 80089a0:	6030      	str	r0, [r6, #0]
 80089a2:	4621      	mov	r1, r4
 80089a4:	4628      	mov	r0, r5
 80089a6:	f000 fba5 	bl	80090f4 <_sbrk_r>
 80089aa:	1c43      	adds	r3, r0, #1
 80089ac:	d00a      	beq.n	80089c4 <sbrk_aligned+0x34>
 80089ae:	1cc4      	adds	r4, r0, #3
 80089b0:	f024 0403 	bic.w	r4, r4, #3
 80089b4:	42a0      	cmp	r0, r4
 80089b6:	d007      	beq.n	80089c8 <sbrk_aligned+0x38>
 80089b8:	1a21      	subs	r1, r4, r0
 80089ba:	4628      	mov	r0, r5
 80089bc:	f000 fb9a 	bl	80090f4 <_sbrk_r>
 80089c0:	3001      	adds	r0, #1
 80089c2:	d101      	bne.n	80089c8 <sbrk_aligned+0x38>
 80089c4:	f04f 34ff 	mov.w	r4, #4294967295
 80089c8:	4620      	mov	r0, r4
 80089ca:	bd70      	pop	{r4, r5, r6, pc}
 80089cc:	2000072c 	.word	0x2000072c

080089d0 <_malloc_r>:
 80089d0:	e92d 43f8 	stmdb	sp!, {r3, r4, r5, r6, r7, r8, r9, lr}
 80089d4:	1ccd      	adds	r5, r1, #3
 80089d6:	f025 0503 	bic.w	r5, r5, #3
 80089da:	3508      	adds	r5, #8
 80089dc:	2d0c      	cmp	r5, #12
 80089de:	bf38      	it	cc
 80089e0:	250c      	movcc	r5, #12
 80089e2:	2d00      	cmp	r5, #0
 80089e4:	4607      	mov	r7, r0
 80089e6:	db01      	blt.n	80089ec <_malloc_r+0x1c>
 80089e8:	42a9      	cmp	r1, r5
 80089ea:	d905      	bls.n	80089f8 <_malloc_r+0x28>
 80089ec:	230c      	movs	r3, #12
 80089ee:	2600      	movs	r6, #0
 80089f0:	603b      	str	r3, [r7, #0]
 80089f2:	4630      	mov	r0, r6
 80089f4:	e8bd 83f8 	ldmia.w	sp!, {r3, r4, r5, r6, r7, r8, r9, pc}
 80089f8:	f8df 80d0 	ldr.w	r8, [pc, #208]	; 8008acc <_malloc_r+0xfc>
 80089fc:	f000 f868 	bl	8008ad0 <__malloc_lock>
 8008a00:	f8d8 3000 	ldr.w	r3, [r8]
 8008a04:	461c      	mov	r4, r3
 8008a06:	bb5c      	cbnz	r4, 8008a60 <_malloc_r+0x90>
 8008a08:	4629      	mov	r1, r5
 8008a0a:	4638      	mov	r0, r7
 8008a0c:	f7ff ffc0 	bl	8008990 <sbrk_aligned>
 8008a10:	1c43      	adds	r3, r0, #1
 8008a12:	4604      	mov	r4, r0
 8008a14:	d155      	bne.n	8008ac2 <_malloc_r+0xf2>
 8008a16:	f8d8 4000 	ldr.w	r4, [r8]
 8008a1a:	4626      	mov	r6, r4
 8008a1c:	2e00      	cmp	r6, #0
 8008a1e:	d145      	bne.n	8008aac <_malloc_r+0xdc>
 8008a20:	2c00      	cmp	r4, #0
 8008a22:	d048      	beq.n	8008ab6 <_malloc_r+0xe6>
 8008a24:	6823      	ldr	r3, [r4, #0]
 8008a26:	4631      	mov	r1, r6
 8008a28:	4638      	mov	r0, r7
 8008a2a:	eb04 0903 	add.w	r9, r4, r3
 8008a2e:	f000 fb61 	bl	80090f4 <_sbrk_r>
 8008a32:	4581      	cmp	r9, r0
 8008a34:	d13f      	bne.n	8008ab6 <_malloc_r+0xe6>
 8008a36:	6821      	ldr	r1, [r4, #0]
 8008a38:	4638      	mov	r0, r7
 8008a3a:	1a6d      	subs	r5, r5, r1
 8008a3c:	4629      	mov	r1, r5
 8008a3e:	f7ff ffa7 	bl	8008990 <sbrk_aligned>
 8008a42:	3001      	adds	r0, #1
 8008a44:	d037      	beq.n	8008ab6 <_malloc_r+0xe6>
 8008a46:	6823      	ldr	r3, [r4, #0]
 8008a48:	442b      	add	r3, r5
 8008a4a:	6023      	str	r3, [r4, #0]
 8008a4c:	f8d8 3000 	ldr.w	r3, [r8]
 8008a50:	2b00      	cmp	r3, #0
 8008a52:	d038      	beq.n	8008ac6 <_malloc_r+0xf6>
 8008a54:	685a      	ldr	r2, [r3, #4]
 8008a56:	42a2      	cmp	r2, r4
 8008a58:	d12b      	bne.n	8008ab2 <_malloc_r+0xe2>
 8008a5a:	2200      	movs	r2, #0
 8008a5c:	605a      	str	r2, [r3, #4]
 8008a5e:	e00f      	b.n	8008a80 <_malloc_r+0xb0>
 8008a60:	6822      	ldr	r2, [r4, #0]
 8008a62:	1b52      	subs	r2, r2, r5
 8008a64:	d41f      	bmi.n	8008aa6 <_malloc_r+0xd6>
 8008a66:	2a0b      	cmp	r2, #11
 8008a68:	d917      	bls.n	8008a9a <_malloc_r+0xca>
 8008a6a:	1961      	adds	r1, r4, r5
 8008a6c:	42a3      	cmp	r3, r4
 8008a6e:	6025      	str	r5, [r4, #0]
 8008a70:	bf18      	it	ne
 8008a72:	6059      	strne	r1, [r3, #4]
 8008a74:	6863      	ldr	r3, [r4, #4]
 8008a76:	bf08      	it	eq
 8008a78:	f8c8 1000 	streq.w	r1, [r8]
 8008a7c:	5162      	str	r2, [r4, r5]
 8008a7e:	604b      	str	r3, [r1, #4]
 8008a80:	4638      	mov	r0, r7
 8008a82:	f104 060b 	add.w	r6, r4, #11
 8008a86:	f000 f829 	bl	8008adc <__malloc_unlock>
 8008a8a:	f026 0607 	bic.w	r6, r6, #7
 8008a8e:	1d23      	adds	r3, r4, #4
 8008a90:	1af2      	subs	r2, r6, r3
 8008a92:	d0ae      	beq.n	80089f2 <_malloc_r+0x22>
 8008a94:	1b9b      	subs	r3, r3, r6
 8008a96:	50a3      	str	r3, [r4, r2]
 8008a98:	e7ab      	b.n	80089f2 <_malloc_r+0x22>
 8008a9a:	42a3      	cmp	r3, r4
 8008a9c:	6862      	ldr	r2, [r4, #4]
 8008a9e:	d1dd      	bne.n	8008a5c <_malloc_r+0x8c>
 8008aa0:	f8c8 2000 	str.w	r2, [r8]
 8008aa4:	e7ec      	b.n	8008a80 <_malloc_r+0xb0>
 8008aa6:	4623      	mov	r3, r4
 8008aa8:	6864      	ldr	r4, [r4, #4]
 8008aaa:	e7ac      	b.n	8008a06 <_malloc_r+0x36>
 8008aac:	4634      	mov	r4, r6
 8008aae:	6876      	ldr	r6, [r6, #4]
 8008ab0:	e7b4      	b.n	8008a1c <_malloc_r+0x4c>
 8008ab2:	4613      	mov	r3, r2
 8008ab4:	e7cc      	b.n	8008a50 <_malloc_r+0x80>
 8008ab6:	230c      	movs	r3, #12
 8008ab8:	4638      	mov	r0, r7
 8008aba:	603b      	str	r3, [r7, #0]
 8008abc:	f000 f80e 	bl	8008adc <__malloc_unlock>
 8008ac0:	e797      	b.n	80089f2 <_malloc_r+0x22>
 8008ac2:	6025      	str	r5, [r4, #0]
 8008ac4:	e7dc      	b.n	8008a80 <_malloc_r+0xb0>
 8008ac6:	605b      	str	r3, [r3, #4]
 8008ac8:	deff      	udf	#255	; 0xff
 8008aca:	bf00      	nop
 8008acc:	20000728 	.word	0x20000728

08008ad0 <__malloc_lock>:
 8008ad0:	4801      	ldr	r0, [pc, #4]	; (8008ad8 <__malloc_lock+0x8>)
 8008ad2:	f7ff bf13 	b.w	80088fc <__retarget_lock_acquire_recursive>
 8008ad6:	bf00      	nop
 8008ad8:	20000724 	.word	0x20000724

08008adc <__malloc_unlock>:
 8008adc:	4801      	ldr	r0, [pc, #4]	; (8008ae4 <__malloc_unlock+0x8>)
 8008ade:	f7ff bf0e 	b.w	80088fe <__retarget_lock_release_recursive>
 8008ae2:	bf00      	nop
 8008ae4:	20000724 	.word	0x20000724

08008ae8 <__ssputs_r>:
 8008ae8:	e92d 47f0 	stmdb	sp!, {r4, r5, r6, r7, r8, r9, sl, lr}
 8008aec:	461f      	mov	r7, r3
 8008aee:	688e      	ldr	r6, [r1, #8]
 8008af0:	4682      	mov	sl, r0
 8008af2:	42be      	cmp	r6, r7
 8008af4:	460c      	mov	r4, r1
 8008af6:	4690      	mov	r8, r2
 8008af8:	680b      	ldr	r3, [r1, #0]
 8008afa:	d82c      	bhi.n	8008b56 <__ssputs_r+0x6e>
 8008afc:	898a      	ldrh	r2, [r1, #12]
 8008afe:	f412 6f90 	tst.w	r2, #1152	; 0x480
 8008b02:	d026      	beq.n	8008b52 <__ssputs_r+0x6a>
 8008b04:	6965      	ldr	r5, [r4, #20]
 8008b06:	6909      	ldr	r1, [r1, #16]
 8008b08:	eb05 0545 	add.w	r5, r5, r5, lsl #1
 8008b0c:	eba3 0901 	sub.w	r9, r3, r1
 8008b10:	eb05 75d5 	add.w	r5, r5, r5, lsr #31
 8008b14:	1c7b      	adds	r3, r7, #1
 8008b16:	444b      	add	r3, r9
 8008b18:	106d      	asrs	r5, r5, #1
 8008b1a:	429d      	cmp	r5, r3
 8008b1c:	bf38      	it	cc
 8008b1e:	461d      	movcc	r5, r3
 8008b20:	0553      	lsls	r3, r2, #21
 8008b22:	d527      	bpl.n	8008b74 <__ssputs_r+0x8c>
 8008b24:	4629      	mov	r1, r5
 8008b26:	f7ff ff53 	bl	80089d0 <_malloc_r>
 8008b2a:	4606      	mov	r6, r0
 8008b2c:	b360      	cbz	r0, 8008b88 <__ssputs_r+0xa0>
 8008b2e:	464a      	mov	r2, r9
 8008b30:	6921      	ldr	r1, [r4, #16]
 8008b32:	f000 fafd 	bl	8009130 <memcpy>
 8008b36:	89a3      	ldrh	r3, [r4, #12]
 8008b38:	f423 6390 	bic.w	r3, r3, #1152	; 0x480
 8008b3c:	f043 0380 	orr.w	r3, r3, #128	; 0x80
 8008b40:	81a3      	strh	r3, [r4, #12]
 8008b42:	6126      	str	r6, [r4, #16]
 8008b44:	444e      	add	r6, r9
 8008b46:	6026      	str	r6, [r4, #0]
 8008b48:	463e      	mov	r6, r7
 8008b4a:	6165      	str	r5, [r4, #20]
 8008b4c:	eba5 0509 	sub.w	r5, r5, r9
 8008b50:	60a5      	str	r5, [r4, #8]
 8008b52:	42be      	cmp	r6, r7
 8008b54:	d900      	bls.n	8008b58 <__ssputs_r+0x70>
 8008b56:	463e      	mov	r6, r7
 8008b58:	4632      	mov	r2, r6
 8008b5a:	4641      	mov	r1, r8
 8008b5c:	6820      	ldr	r0, [r4, #0]
 8008b5e:	f000 faaf 	bl	80090c0 <memmove>
 8008b62:	2000      	movs	r0, #0
 8008b64:	68a3      	ldr	r3, [r4, #8]
 8008b66:	1b9b      	subs	r3, r3, r6
 8008b68:	60a3      	str	r3, [r4, #8]
 8008b6a:	6823      	ldr	r3, [r4, #0]
 8008b6c:	4433      	add	r3, r6
 8008b6e:	6023      	str	r3, [r4, #0]
 8008b70:	e8bd 87f0 	ldmia.w	sp!, {r4, r5, r6, r7, r8, r9, sl, pc}
 8008b74:	462a      	mov	r2, r5
 8008b76:	f000 fae9 	bl	800914c <_realloc_r>
 8008b7a:	4606      	mov	r6, r0
 8008b7c:	2800      	cmp	r0, #0
 8008b7e:	d1e0      	bne.n	8008b42 <__ssputs_r+0x5a>
 8008b80:	4650      	mov	r0, sl
 8008b82:	6921      	ldr	r1, [r4, #16]
 8008b84:	f7ff febc 	bl	8008900 <_free_r>
 8008b88:	230c      	movs	r3, #12
 8008b8a:	f8ca 3000 	str.w	r3, [sl]
 8008b8e:	89a3      	ldrh	r3, [r4, #12]
 8008b90:	f04f 30ff 	mov.w	r0, #4294967295
 8008b94:	f043 0340 	orr.w	r3, r3, #64	; 0x40
 8008b98:	81a3      	strh	r3, [r4, #12]
 8008b9a:	e7e9      	b.n	8008b70 <__ssputs_r+0x88>

08008b9c <_svfiprintf_r>:
 8008b9c:	e92d 4ff0 	stmdb	sp!, {r4, r5, r6, r7, r8, r9, sl, fp, lr}
 8008ba0:	4698      	mov	r8, r3
 8008ba2:	898b      	ldrh	r3, [r1, #12]
 8008ba4:	4607      	mov	r7, r0
 8008ba6:	061b      	lsls	r3, r3, #24
 8008ba8:	460d      	mov	r5, r1
 8008baa:	4614      	mov	r4, r2
 8008bac:	b09d      	sub	sp, #116	; 0x74
 8008bae:	d50e      	bpl.n	8008bce <_svfiprintf_r+0x32>
 8008bb0:	690b      	ldr	r3, [r1, #16]
 8008bb2:	b963      	cbnz	r3, 8008bce <_svfiprintf_r+0x32>
 8008bb4:	2140      	movs	r1, #64	; 0x40
 8008bb6:	f7ff ff0b 	bl	80089d0 <_malloc_r>
 8008bba:	6028      	str	r0, [r5, #0]
 8008bbc:	6128      	str	r0, [r5, #16]
 8008bbe:	b920      	cbnz	r0, 8008bca <_svfiprintf_r+0x2e>
 8008bc0:	230c      	movs	r3, #12
 8008bc2:	603b      	str	r3, [r7, #0]
 8008bc4:	f04f 30ff 	mov.w	r0, #4294967295
 8008bc8:	e0d0      	b.n	8008d6c <_svfiprintf_r+0x1d0>
 8008bca:	2340      	movs	r3, #64	; 0x40
 8008bcc:	616b      	str	r3, [r5, #20]
 8008bce:	2300      	movs	r3, #0
 8008bd0:	9309      	str	r3, [sp, #36]	; 0x24
 8008bd2:	2320      	movs	r3, #32
 8008bd4:	f88d 3029 	strb.w	r3, [sp, #41]	; 0x29
 8008bd8:	2330      	movs	r3, #48	; 0x30
 8008bda:	f04f 0901 	mov.w	r9, #1
 8008bde:	f8cd 800c 	str.w	r8, [sp, #12]
 8008be2:	f8df 81a0 	ldr.w	r8, [pc, #416]	; 8008d84 <_svfiprintf_r+0x1e8>
 8008be6:	f88d 302a 	strb.w	r3, [sp, #42]	; 0x2a
 8008bea:	4623      	mov	r3, r4
 8008bec:	469a      	mov	sl, r3
 8008bee:	f813 2b01 	ldrb.w	r2, [r3], #1
 8008bf2:	b10a      	cbz	r2, 8008bf8 <_svfiprintf_r+0x5c>
 8008bf4:	2a25      	cmp	r2, #37	; 0x25
 8008bf6:	d1f9      	bne.n	8008bec <_svfiprintf_r+0x50>
 8008bf8:	ebba 0b04 	subs.w	fp, sl, r4
 8008bfc:	d00b      	beq.n	8008c16 <_svfiprintf_r+0x7a>
 8008bfe:	465b      	mov	r3, fp
 8008c00:	4622      	mov	r2, r4
 8008c02:	4629      	mov	r1, r5
 8008c04:	4638      	mov	r0, r7
 8008c06:	f7ff ff6f 	bl	8008ae8 <__ssputs_r>
 8008c0a:	3001      	adds	r0, #1
 8008c0c:	f000 80a9 	beq.w	8008d62 <_svfiprintf_r+0x1c6>
 8008c10:	9a09      	ldr	r2, [sp, #36]	; 0x24
 8008c12:	445a      	add	r2, fp
 8008c14:	9209      	str	r2, [sp, #36]	; 0x24
 8008c16:	f89a 3000 	ldrb.w	r3, [sl]
 8008c1a:	2b00      	cmp	r3, #0
 8008c1c:	f000 80a1 	beq.w	8008d62 <_svfiprintf_r+0x1c6>
 8008c20:	2300      	movs	r3, #0
 8008c22:	f04f 32ff 	mov.w	r2, #4294967295
 8008c26:	e9cd 2305 	strd	r2, r3, [sp, #20]
 8008c2a:	f10a 0a01 	add.w	sl, sl, #1
 8008c2e:	9304      	str	r3, [sp, #16]
 8008c30:	9307      	str	r3, [sp, #28]
 8008c32:	f88d 3053 	strb.w	r3, [sp, #83]	; 0x53
 8008c36:	931a      	str	r3, [sp, #104]	; 0x68
 8008c38:	4654      	mov	r4, sl
 8008c3a:	2205      	movs	r2, #5
 8008c3c:	f814 1b01 	ldrb.w	r1, [r4], #1
 8008c40:	4850      	ldr	r0, [pc, #320]	; (8008d84 <_svfiprintf_r+0x1e8>)
 8008c42:	f000 fa67 	bl	8009114 <memchr>
 8008c46:	9a04      	ldr	r2, [sp, #16]
 8008c48:	b9d8      	cbnz	r0, 8008c82 <_svfiprintf_r+0xe6>
 8008c4a:	06d0      	lsls	r0, r2, #27
 8008c4c:	bf44      	itt	mi
 8008c4e:	2320      	movmi	r3, #32
 8008c50:	f88d 3053 	strbmi.w	r3, [sp, #83]	; 0x53
 8008c54:	0711      	lsls	r1, r2, #28
 8008c56:	bf44      	itt	mi
 8008c58:	232b      	movmi	r3, #43	; 0x2b
 8008c5a:	f88d 3053 	strbmi.w	r3, [sp, #83]	; 0x53
 8008c5e:	f89a 3000 	ldrb.w	r3, [sl]
 8008c62:	2b2a      	cmp	r3, #42	; 0x2a
 8008c64:	d015      	beq.n	8008c92 <_svfiprintf_r+0xf6>
 8008c66:	4654      	mov	r4, sl
 8008c68:	2000      	movs	r0, #0
 8008c6a:	f04f 0c0a 	mov.w	ip, #10
 8008c6e:	9a07      	ldr	r2, [sp, #28]
 8008c70:	4621      	mov	r1, r4
 8008c72:	f811 3b01 	ldrb.w	r3, [r1], #1
 8008c76:	3b30      	subs	r3, #48	; 0x30
 8008c78:	2b09      	cmp	r3, #9
 8008c7a:	d94d      	bls.n	8008d18 <_svfiprintf_r+0x17c>
 8008c7c:	b1b0      	cbz	r0, 8008cac <_svfiprintf_r+0x110>
 8008c7e:	9207      	str	r2, [sp, #28]
 8008c80:	e014      	b.n	8008cac <_svfiprintf_r+0x110>
 8008c82:	eba0 0308 	sub.w	r3, r0, r8
 8008c86:	fa09 f303 	lsl.w	r3, r9, r3
 8008c8a:	4313      	orrs	r3, r2
 8008c8c:	46a2      	mov	sl, r4
 8008c8e:	9304      	str	r3, [sp, #16]
 8008c90:	e7d2      	b.n	8008c38 <_svfiprintf_r+0x9c>
 8008c92:	9b03      	ldr	r3, [sp, #12]
 8008c94:	1d19      	adds	r1, r3, #4
 8008c96:	681b      	ldr	r3, [r3, #0]
 8008c98:	9103      	str	r1, [sp, #12]
 8008c9a:	2b00      	cmp	r3, #0
 8008c9c:	bfbb      	ittet	lt
 8008c9e:	425b      	neglt	r3, r3
 8008ca0:	f042 0202 	orrlt.w	r2, r2, #2
 8008ca4:	9307      	strge	r3, [sp, #28]
 8008ca6:	9307      	strlt	r3, [sp, #28]
 8008ca8:	bfb8      	it	lt
 8008caa:	9204      	strlt	r2, [sp, #16]
 8008cac:	7823      	ldrb	r3, [r4, #0]
 8008cae:	2b2e      	cmp	r3, #46	; 0x2e
 8008cb0:	d10c      	bne.n	8008ccc <_svfiprintf_r+0x130>
 8008cb2:	7863      	ldrb	r3, [r4, #1]
 8008cb4:	2b2a      	cmp	r3, #42	; 0x2a
 8008cb6:	d134      	bne.n	8008d22 <_svfiprintf_r+0x186>
 8008cb8:	9b03      	ldr	r3, [sp, #12]
 8008cba:	3402      	adds	r4, #2
 8008cbc:	1d1a      	adds	r2, r3, #4
 8008cbe:	681b      	ldr	r3, [r3, #0]
 8008cc0:	9203      	str	r2, [sp, #12]
 8008cc2:	2b00      	cmp	r3, #0
 8008cc4:	bfb8      	it	lt
 8008cc6:	f04f 33ff 	movlt.w	r3, #4294967295
 8008cca:	9305      	str	r3, [sp, #20]
 8008ccc:	f8df a0b8 	ldr.w	sl, [pc, #184]	; 8008d88 <_svfiprintf_r+0x1ec>
 8008cd0:	2203      	movs	r2, #3
 8008cd2:	4650      	mov	r0, sl
 8008cd4:	7821      	ldrb	r1, [r4, #0]
 8008cd6:	f000 fa1d 	bl	8009114 <memchr>
 8008cda:	b138      	cbz	r0, 8008cec <_svfiprintf_r+0x150>
 8008cdc:	2240      	movs	r2, #64	; 0x40
 8008cde:	9b04      	ldr	r3, [sp, #16]
 8008ce0:	eba0 000a 	sub.w	r0, r0, sl
 8008ce4:	4082      	lsls	r2, r0
 8008ce6:	4313      	orrs	r3, r2
 8008ce8:	3401      	adds	r4, #1
 8008cea:	9304      	str	r3, [sp, #16]
 8008cec:	f814 1b01 	ldrb.w	r1, [r4], #1
 8008cf0:	2206      	movs	r2, #6
 8008cf2:	4826      	ldr	r0, [pc, #152]	; (8008d8c <_svfiprintf_r+0x1f0>)
 8008cf4:	f88d 1028 	strb.w	r1, [sp, #40]	; 0x28
 8008cf8:	f000 fa0c 	bl	8009114 <memchr>
 8008cfc:	2800      	cmp	r0, #0
 8008cfe:	d038      	beq.n	8008d72 <_svfiprintf_r+0x1d6>
 8008d00:	4b23      	ldr	r3, [pc, #140]	; (8008d90 <_svfiprintf_r+0x1f4>)
 8008d02:	bb1b      	cbnz	r3, 8008d4c <_svfiprintf_r+0x1b0>
 8008d04:	9b03      	ldr	r3, [sp, #12]
 8008d06:	3307      	adds	r3, #7
 8008d08:	f023 0307 	bic.w	r3, r3, #7
 8008d0c:	3308      	adds	r3, #8
 8008d0e:	9303      	str	r3, [sp, #12]
 8008d10:	9b09      	ldr	r3, [sp, #36]	; 0x24
 8008d12:	4433      	add	r3, r6
 8008d14:	9309      	str	r3, [sp, #36]	; 0x24
 8008d16:	e768      	b.n	8008bea <_svfiprintf_r+0x4e>
 8008d18:	460c      	mov	r4, r1
 8008d1a:	2001      	movs	r0, #1
 8008d1c:	fb0c 3202 	mla	r2, ip, r2, r3
 8008d20:	e7a6      	b.n	8008c70 <_svfiprintf_r+0xd4>
 8008d22:	2300      	movs	r3, #0
 8008d24:	f04f 0c0a 	mov.w	ip, #10
 8008d28:	4619      	mov	r1, r3
 8008d2a:	3401      	adds	r4, #1
 8008d2c:	9305      	str	r3, [sp, #20]
 8008d2e:	4620      	mov	r0, r4
 8008d30:	f810 2b01 	ldrb.w	r2, [r0], #1
 8008d34:	3a30      	subs	r2, #48	; 0x30
 8008d36:	2a09      	cmp	r2, #9
 8008d38:	d903      	bls.n	8008d42 <_svfiprintf_r+0x1a6>
 8008d3a:	2b00      	cmp	r3, #0
 8008d3c:	d0c6      	beq.n	8008ccc <_svfiprintf_r+0x130>
 8008d3e:	9105      	str	r1, [sp, #20]
 8008d40:	e7c4      	b.n	8008ccc <_svfiprintf_r+0x130>
 8008d42:	4604      	mov	r4, r0
 8008d44:	2301      	movs	r3, #1
 8008d46:	fb0c 2101 	mla	r1, ip, r1, r2
 8008d4a:	e7f0      	b.n	8008d2e <_svfiprintf_r+0x192>
 8008d4c:	ab03      	add	r3, sp, #12
 8008d4e:	9300      	str	r3, [sp, #0]
 8008d50:	462a      	mov	r2, r5
 8008d52:	4638      	mov	r0, r7
 8008d54:	4b0f      	ldr	r3, [pc, #60]	; (8008d94 <_svfiprintf_r+0x1f8>)
 8008d56:	a904      	add	r1, sp, #16
 8008d58:	f3af 8000 	nop.w
 8008d5c:	1c42      	adds	r2, r0, #1
 8008d5e:	4606      	mov	r6, r0
 8008d60:	d1d6      	bne.n	8008d10 <_svfiprintf_r+0x174>
 8008d62:	89ab      	ldrh	r3, [r5, #12]
 8008d64:	065b      	lsls	r3, r3, #25
 8008d66:	f53f af2d 	bmi.w	8008bc4 <_svfiprintf_r+0x28>
 8008d6a:	9809      	ldr	r0, [sp, #36]	; 0x24
 8008d6c:	b01d      	add	sp, #116	; 0x74
 8008d6e:	e8bd 8ff0 	ldmia.w	sp!, {r4, r5, r6, r7, r8, r9, sl, fp, pc}
 8008d72:	ab03      	add	r3, sp, #12
 8008d74:	9300      	str	r3, [sp, #0]
 8008d76:	462a      	mov	r2, r5
 8008d78:	4638      	mov	r0, r7
 8008d7a:	4b06      	ldr	r3, [pc, #24]	; (8008d94 <_svfiprintf_r+0x1f8>)
 8008d7c:	a904      	add	r1, sp, #16
 8008d7e:	f000 f87d 	bl	8008e7c <_printf_i>
 8008d82:	e7eb      	b.n	8008d5c <_svfiprintf_r+0x1c0>
 8008d84:	08009b9a 	.word	0x08009b9a
 8008d88:	08009ba0 	.word	0x08009ba0
 8008d8c:	08009ba4 	.word	0x08009ba4
 8008d90:	00000000 	.word	0x00000000
 8008d94:	08008ae9 	.word	0x08008ae9

08008d98 <_printf_common>:
 8008d98:	e92d 47f0 	stmdb	sp!, {r4, r5, r6, r7, r8, r9, sl, lr}
 8008d9c:	4616      	mov	r6, r2
 8008d9e:	4699      	mov	r9, r3
 8008da0:	688a      	ldr	r2, [r1, #8]
 8008da2:	690b      	ldr	r3, [r1, #16]
 8008da4:	4607      	mov	r7, r0
 8008da6:	4293      	cmp	r3, r2
 8008da8:	bfb8      	it	lt
 8008daa:	4613      	movlt	r3, r2
 8008dac:	6033      	str	r3, [r6, #0]
 8008dae:	f891 2043 	ldrb.w	r2, [r1, #67]	; 0x43
 8008db2:	460c      	mov	r4, r1
 8008db4:	f8dd 8020 	ldr.w	r8, [sp, #32]
 8008db8:	b10a      	cbz	r2, 8008dbe <_printf_common+0x26>
 8008dba:	3301      	adds	r3, #1
 8008dbc:	6033      	str	r3, [r6, #0]
 8008dbe:	6823      	ldr	r3, [r4, #0]
 8008dc0:	0699      	lsls	r1, r3, #26
 8008dc2:	bf42      	ittt	mi
 8008dc4:	6833      	ldrmi	r3, [r6, #0]
 8008dc6:	3302      	addmi	r3, #2
 8008dc8:	6033      	strmi	r3, [r6, #0]
 8008dca:	6825      	ldr	r5, [r4, #0]
 8008dcc:	f015 0506 	ands.w	r5, r5, #6
 8008dd0:	d106      	bne.n	8008de0 <_printf_common+0x48>
 8008dd2:	f104 0a19 	add.w	sl, r4, #25
 8008dd6:	68e3      	ldr	r3, [r4, #12]
 8008dd8:	6832      	ldr	r2, [r6, #0]
 8008dda:	1a9b      	subs	r3, r3, r2
 8008ddc:	42ab      	cmp	r3, r5
 8008dde:	dc2b      	bgt.n	8008e38 <_printf_common+0xa0>
 8008de0:	f894 2043 	ldrb.w	r2, [r4, #67]	; 0x43
 8008de4:	1e13      	subs	r3, r2, #0
 8008de6:	6822      	ldr	r2, [r4, #0]
 8008de8:	bf18      	it	ne
 8008dea:	2301      	movne	r3, #1
 8008dec:	0692      	lsls	r2, r2, #26
 8008dee:	d430      	bmi.n	8008e52 <_printf_common+0xba>
 8008df0:	4649      	mov	r1, r9
 8008df2:	4638      	mov	r0, r7
 8008df4:	f104 0243 	add.w	r2, r4, #67	; 0x43
 8008df8:	47c0      	blx	r8
 8008dfa:	3001      	adds	r0, #1
 8008dfc:	d023      	beq.n	8008e46 <_printf_common+0xae>
 8008dfe:	6823      	ldr	r3, [r4, #0]
 8008e00:	6922      	ldr	r2, [r4, #16]
 8008e02:	f003 0306 	and.w	r3, r3, #6
 8008e06:	2b04      	cmp	r3, #4
 8008e08:	bf14      	ite	ne
 8008e0a:	2500      	movne	r5, #0
 8008e0c:	6833      	ldreq	r3, [r6, #0]
 8008e0e:	f04f 0600 	mov.w	r6, #0
 8008e12:	bf08      	it	eq
 8008e14:	68e5      	ldreq	r5, [r4, #12]
 8008e16:	f104 041a 	add.w	r4, r4, #26
 8008e1a:	bf08      	it	eq
 8008e1c:	1aed      	subeq	r5, r5, r3
 8008e1e:	f854 3c12 	ldr.w	r3, [r4, #-18]
 8008e22:	bf08      	it	eq
 8008e24:	ea25 75e5 	biceq.w	r5, r5, r5, asr #31
 8008e28:	4293      	cmp	r3, r2
 8008e2a:	bfc4      	itt	gt
 8008e2c:	1a9b      	subgt	r3, r3, r2
 8008e2e:	18ed      	addgt	r5, r5, r3
 8008e30:	42b5      	cmp	r5, r6
 8008e32:	d11a      	bne.n	8008e6a <_printf_common+0xd2>
 8008e34:	2000      	movs	r0, #0
 8008e36:	e008      	b.n	8008e4a <_printf_common+0xb2>
 8008e38:	2301      	movs	r3, #1
 8008e3a:	4652      	mov	r2, sl
 8008e3c:	4649      	mov	r1, r9
 8008e3e:	4638      	mov	r0, r7
 8008e40:	47c0      	blx	r8
 8008e42:	3001      	adds	r0, #1
 8008e44:	d103      	bne.n	8008e4e <_printf_common+0xb6>
 8008e46:	f04f 30ff 	mov.w	r0, #4294967295
 8008e4a:	e8bd 87f0 	ldmia.w	sp!, {r4, r5, r6, r7, r8, r9, sl, pc}
 8008e4e:	3501      	adds	r5, #1
 8008e50:	e7c1      	b.n	8008dd6 <_printf_common+0x3e>
 8008e52:	2030      	movs	r0, #48	; 0x30
 8008e54:	18e1      	adds	r1, r4, r3
 8008e56:	f881 0043 	strb.w	r0, [r1, #67]	; 0x43
 8008e5a:	1c5a      	adds	r2, r3, #1
 8008e5c:	f894 1045 	ldrb.w	r1, [r4, #69]	; 0x45
 8008e60:	4422      	add	r2, r4
 8008e62:	3302      	adds	r3, #2
 8008e64:	f882 1043 	strb.w	r1, [r2, #67]	; 0x43
 8008e68:	e7c2      	b.n	8008df0 <_printf_common+0x58>
 8008e6a:	2301      	movs	r3, #1
 8008e6c:	4622      	mov	r2, r4
 8008e6e:	4649      	mov	r1, r9
 8008e70:	4638      	mov	r0, r7
 8008e72:	47c0      	blx	r8
 8008e74:	3001      	adds	r0, #1
 8008e76:	d0e6      	beq.n	8008e46 <_printf_common+0xae>
 8008e78:	3601      	adds	r6, #1
 8008e7a:	e7d9      	b.n	8008e30 <_printf_common+0x98>

08008e7c <_printf_i>:
 8008e7c:	e92d 47ff 	stmdb	sp!, {r0, r1, r2, r3, r4, r5, r6, r7, r8, r9, sl, lr}
 8008e80:	7e0f      	ldrb	r7, [r1, #24]
 8008e82:	4691      	mov	r9, r2
 8008e84:	2f78      	cmp	r7, #120	; 0x78
 8008e86:	4680      	mov	r8, r0
 8008e88:	460c      	mov	r4, r1
 8008e8a:	469a      	mov	sl, r3
 8008e8c:	9d0c      	ldr	r5, [sp, #48]	; 0x30
 8008e8e:	f101 0243 	add.w	r2, r1, #67	; 0x43
 8008e92:	d807      	bhi.n	8008ea4 <_printf_i+0x28>
 8008e94:	2f62      	cmp	r7, #98	; 0x62
 8008e96:	d80a      	bhi.n	8008eae <_printf_i+0x32>
 8008e98:	2f00      	cmp	r7, #0
 8008e9a:	f000 80d5 	beq.w	8009048 <_printf_i+0x1cc>
 8008e9e:	2f58      	cmp	r7, #88	; 0x58
 8008ea0:	f000 80c1 	beq.w	8009026 <_printf_i+0x1aa>
 8008ea4:	f104 0542 	add.w	r5, r4, #66	; 0x42
 8008ea8:	f884 7042 	strb.w	r7, [r4, #66]	; 0x42
 8008eac:	e03a      	b.n	8008f24 <_printf_i+0xa8>
 8008eae:	f1a7 0363 	sub.w	r3, r7, #99	; 0x63
 8008eb2:	2b15      	cmp	r3, #21
 8008eb4:	d8f6      	bhi.n	8008ea4 <_printf_i+0x28>
 8008eb6:	a101      	add	r1, pc, #4	; (adr r1, 8008ebc <_printf_i+0x40>)
 8008eb8:	f851 f023 	ldr.w	pc, [r1, r3, lsl #2]
 8008ebc:	08008f15 	.word	0x08008f15
 8008ec0:	08008f29 	.word	0x08008f29
 8008ec4:	08008ea5 	.word	0x08008ea5
 8008ec8:	08008ea5 	.word	0x08008ea5
 8008ecc:	08008ea5 	.word	0x08008ea5
 8008ed0:	08008ea5 	.word	0x08008ea5
 8008ed4:	08008f29 	.word	0x08008f29
 8008ed8:	08008ea5 	.word	0x08008ea5
 8008edc:	08008ea5 	.word	0x08008ea5
 8008ee0:	08008ea5 	.word	0x08008ea5
 8008ee4:	08008ea5 	.word	0x08008ea5
 8008ee8:	0800902f 	.word	0x0800902f
 8008eec:	08008f55 	.word	0x08008f55
 8008ef0:	08008fe9 	.word	0x08008fe9
 8008ef4:	08008ea5 	.word	0x08008ea5
 8008ef8:	08008ea5 	.word	0x08008ea5
 8008efc:	08009051 	.word	0x08009051
 8008f00:	08008ea5 	.word	0x08008ea5
 8008f04:	08008f55 	.word	0x08008f55
 8008f08:	08008ea5 	.word	0x08008ea5
 8008f0c:	08008ea5 	.word	0x08008ea5
 8008f10:	08008ff1 	.word	0x08008ff1
 8008f14:	682b      	ldr	r3, [r5, #0]
 8008f16:	1d1a      	adds	r2, r3, #4
 8008f18:	681b      	ldr	r3, [r3, #0]
 8008f1a:	602a      	str	r2, [r5, #0]
 8008f1c:	f104 0542 	add.w	r5, r4, #66	; 0x42
 8008f20:	f884 3042 	strb.w	r3, [r4, #66]	; 0x42
 8008f24:	2301      	movs	r3, #1
 8008f26:	e0a0      	b.n	800906a <_printf_i+0x1ee>
 8008f28:	6820      	ldr	r0, [r4, #0]
 8008f2a:	682b      	ldr	r3, [r5, #0]
 8008f2c:	0607      	lsls	r7, r0, #24
 8008f2e:	f103 0104 	add.w	r1, r3, #4
 8008f32:	6029      	str	r1, [r5, #0]
 8008f34:	d501      	bpl.n	8008f3a <_printf_i+0xbe>
 8008f36:	681e      	ldr	r6, [r3, #0]
 8008f38:	e003      	b.n	8008f42 <_printf_i+0xc6>
 8008f3a:	0646      	lsls	r6, r0, #25
 8008f3c:	d5fb      	bpl.n	8008f36 <_printf_i+0xba>
 8008f3e:	f9b3 6000 	ldrsh.w	r6, [r3]
 8008f42:	2e00      	cmp	r6, #0
 8008f44:	da03      	bge.n	8008f4e <_printf_i+0xd2>
 8008f46:	232d      	movs	r3, #45	; 0x2d
 8008f48:	4276      	negs	r6, r6
 8008f4a:	f884 3043 	strb.w	r3, [r4, #67]	; 0x43
 8008f4e:	230a      	movs	r3, #10
 8008f50:	4859      	ldr	r0, [pc, #356]	; (80090b8 <_printf_i+0x23c>)
 8008f52:	e012      	b.n	8008f7a <_printf_i+0xfe>
 8008f54:	682b      	ldr	r3, [r5, #0]
 8008f56:	6820      	ldr	r0, [r4, #0]
 8008f58:	1d19      	adds	r1, r3, #4
 8008f5a:	6029      	str	r1, [r5, #0]
 8008f5c:	0605      	lsls	r5, r0, #24
 8008f5e:	d501      	bpl.n	8008f64 <_printf_i+0xe8>
 8008f60:	681e      	ldr	r6, [r3, #0]
 8008f62:	e002      	b.n	8008f6a <_printf_i+0xee>
 8008f64:	0641      	lsls	r1, r0, #25
 8008f66:	d5fb      	bpl.n	8008f60 <_printf_i+0xe4>
 8008f68:	881e      	ldrh	r6, [r3, #0]
 8008f6a:	2f6f      	cmp	r7, #111	; 0x6f
 8008f6c:	bf0c      	ite	eq
 8008f6e:	2308      	moveq	r3, #8
 8008f70:	230a      	movne	r3, #10
 8008f72:	4851      	ldr	r0, [pc, #324]	; (80090b8 <_printf_i+0x23c>)
 8008f74:	2100      	movs	r1, #0
 8008f76:	f884 1043 	strb.w	r1, [r4, #67]	; 0x43
 8008f7a:	6865      	ldr	r5, [r4, #4]
 8008f7c:	2d00      	cmp	r5, #0
 8008f7e:	bfa8      	it	ge
 8008f80:	6821      	ldrge	r1, [r4, #0]
 8008f82:	60a5      	str	r5, [r4, #8]
 8008f84:	bfa4      	itt	ge
 8008f86:	f021 0104 	bicge.w	r1, r1, #4
 8008f8a:	6021      	strge	r1, [r4, #0]
 8008f8c:	b90e      	cbnz	r6, 8008f92 <_printf_i+0x116>
 8008f8e:	2d00      	cmp	r5, #0
 8008f90:	d04b      	beq.n	800902a <_printf_i+0x1ae>
 8008f92:	4615      	mov	r5, r2
 8008f94:	fbb6 f1f3 	udiv	r1, r6, r3
 8008f98:	fb03 6711 	mls	r7, r3, r1, r6
 8008f9c:	5dc7      	ldrb	r7, [r0, r7]
 8008f9e:	f805 7d01 	strb.w	r7, [r5, #-1]!
 8008fa2:	4637      	mov	r7, r6
 8008fa4:	42bb      	cmp	r3, r7
 8008fa6:	460e      	mov	r6, r1
 8008fa8:	d9f4      	bls.n	8008f94 <_printf_i+0x118>
 8008faa:	2b08      	cmp	r3, #8
 8008fac:	d10b      	bne.n	8008fc6 <_printf_i+0x14a>
 8008fae:	6823      	ldr	r3, [r4, #0]
 8008fb0:	07de      	lsls	r6, r3, #31
 8008fb2:	d508      	bpl.n	8008fc6 <_printf_i+0x14a>
 8008fb4:	6923      	ldr	r3, [r4, #16]
 8008fb6:	6861      	ldr	r1, [r4, #4]
 8008fb8:	4299      	cmp	r1, r3
 8008fba:	bfde      	ittt	le
 8008fbc:	2330      	movle	r3, #48	; 0x30
 8008fbe:	f805 3c01 	strble.w	r3, [r5, #-1]
 8008fc2:	f105 35ff 	addle.w	r5, r5, #4294967295
 8008fc6:	1b52      	subs	r2, r2, r5
 8008fc8:	6122      	str	r2, [r4, #16]
 8008fca:	464b      	mov	r3, r9
 8008fcc:	4621      	mov	r1, r4
 8008fce:	4640      	mov	r0, r8
 8008fd0:	f8cd a000 	str.w	sl, [sp]
 8008fd4:	aa03      	add	r2, sp, #12
 8008fd6:	f7ff fedf 	bl	8008d98 <_printf_common>
 8008fda:	3001      	adds	r0, #1
 8008fdc:	d14a      	bne.n	8009074 <_printf_i+0x1f8>
 8008fde:	f04f 30ff 	mov.w	r0, #4294967295
 8008fe2:	b004      	add	sp, #16
 8008fe4:	e8bd 87f0 	ldmia.w	sp!, {r4, r5, r6, r7, r8, r9, sl, pc}
 8008fe8:	6823      	ldr	r3, [r4, #0]
 8008fea:	f043 0320 	orr.w	r3, r3, #32
 8008fee:	6023      	str	r3, [r4, #0]
 8008ff0:	2778      	movs	r7, #120	; 0x78
 8008ff2:	4832      	ldr	r0, [pc, #200]	; (80090bc <_printf_i+0x240>)
 8008ff4:	f884 7045 	strb.w	r7, [r4, #69]	; 0x45
 8008ff8:	6823      	ldr	r3, [r4, #0]
 8008ffa:	6829      	ldr	r1, [r5, #0]
 8008ffc:	061f      	lsls	r7, r3, #24
 8008ffe:	f851 6b04 	ldr.w	r6, [r1], #4
 8009002:	d402      	bmi.n	800900a <_printf_i+0x18e>
 8009004:	065f      	lsls	r7, r3, #25
 8009006:	bf48      	it	mi
 8009008:	b2b6      	uxthmi	r6, r6
 800900a:	07df      	lsls	r7, r3, #31
 800900c:	bf48      	it	mi
 800900e:	f043 0320 	orrmi.w	r3, r3, #32
 8009012:	6029      	str	r1, [r5, #0]
 8009014:	bf48      	it	mi
 8009016:	6023      	strmi	r3, [r4, #0]
 8009018:	b91e      	cbnz	r6, 8009022 <_printf_i+0x1a6>
 800901a:	6823      	ldr	r3, [r4, #0]
 800901c:	f023 0320 	bic.w	r3, r3, #32
 8009020:	6023      	str	r3, [r4, #0]
 8009022:	2310      	movs	r3, #16
 8009024:	e7a6      	b.n	8008f74 <_printf_i+0xf8>
 8009026:	4824      	ldr	r0, [pc, #144]	; (80090b8 <_printf_i+0x23c>)
 8009028:	e7e4      	b.n	8008ff4 <_printf_i+0x178>
 800902a:	4615      	mov	r5, r2
 800902c:	e7bd      	b.n	8008faa <_printf_i+0x12e>
 800902e:	682b      	ldr	r3, [r5, #0]
 8009030:	6826      	ldr	r6, [r4, #0]
 8009032:	1d18      	adds	r0, r3, #4
 8009034:	6961      	ldr	r1, [r4, #20]
 8009036:	6028      	str	r0, [r5, #0]
 8009038:	0635      	lsls	r5, r6, #24
 800903a:	681b      	ldr	r3, [r3, #0]
 800903c:	d501      	bpl.n	8009042 <_printf_i+0x1c6>
 800903e:	6019      	str	r1, [r3, #0]
 8009040:	e002      	b.n	8009048 <_printf_i+0x1cc>
 8009042:	0670      	lsls	r0, r6, #25
 8009044:	d5fb      	bpl.n	800903e <_printf_i+0x1c2>
 8009046:	8019      	strh	r1, [r3, #0]
 8009048:	2300      	movs	r3, #0
 800904a:	4615      	mov	r5, r2
 800904c:	6123      	str	r3, [r4, #16]
 800904e:	e7bc      	b.n	8008fca <_printf_i+0x14e>
 8009050:	682b      	ldr	r3, [r5, #0]
 8009052:	2100      	movs	r1, #0
 8009054:	1d1a      	adds	r2, r3, #4
 8009056:	602a      	str	r2, [r5, #0]
 8009058:	681d      	ldr	r5, [r3, #0]
 800905a:	6862      	ldr	r2, [r4, #4]
 800905c:	4628      	mov	r0, r5
 800905e:	f000 f859 	bl	8009114 <memchr>
 8009062:	b108      	cbz	r0, 8009068 <_printf_i+0x1ec>
 8009064:	1b40      	subs	r0, r0, r5
 8009066:	6060      	str	r0, [r4, #4]
 8009068:	6863      	ldr	r3, [r4, #4]
 800906a:	6123      	str	r3, [r4, #16]
 800906c:	2300      	movs	r3, #0
 800906e:	f884 3043 	strb.w	r3, [r4, #67]	; 0x43
 8009072:	e7aa      	b.n	8008fca <_printf_i+0x14e>
 8009074:	462a      	mov	r2, r5
 8009076:	4649      	mov	r1, r9
 8009078:	4640      	mov	r0, r8
 800907a:	6923      	ldr	r3, [r4, #16]
 800907c:	47d0      	blx	sl
 800907e:	3001      	adds	r0, #1
 8009080:	d0ad      	beq.n	8008fde <_printf_i+0x162>
 8009082:	6823      	ldr	r3, [r4, #0]
 8009084:	079b      	lsls	r3, r3, #30
 8009086:	d413      	bmi.n	80090b0 <_printf_i+0x234>
 8009088:	68e0      	ldr	r0, [r4, #12]
 800908a:	9b03      	ldr	r3, [sp, #12]
 800908c:	4298      	cmp	r0, r3
 800908e:	bfb8      	it	lt
 8009090:	4618      	movlt	r0, r3
 8009092:	e7a6      	b.n	8008fe2 <_printf_i+0x166>
 8009094:	2301      	movs	r3, #1
 8009096:	4632      	mov	r2, r6
 8009098:	4649      	mov	r1, r9
 800909a:	4640      	mov	r0, r8
 800909c:	47d0      	blx	sl
 800909e:	3001      	adds	r0, #1
 80090a0:	d09d      	beq.n	8008fde <_printf_i+0x162>
 80090a2:	3501      	adds	r5, #1
 80090a4:	68e3      	ldr	r3, [r4, #12]
 80090a6:	9903      	ldr	r1, [sp, #12]
 80090a8:	1a5b      	subs	r3, r3, r1
 80090aa:	42ab      	cmp	r3, r5
 80090ac:	dcf2      	bgt.n	8009094 <_printf_i+0x218>
 80090ae:	e7eb      	b.n	8009088 <_printf_i+0x20c>
 80090b0:	2500      	movs	r5, #0
 80090b2:	f104 0619 	add.w	r6, r4, #25
 80090b6:	e7f5      	b.n	80090a4 <_printf_i+0x228>
 80090b8:	08009bab 	.word	0x08009bab
 80090bc:	08009bbc 	.word	0x08009bbc

080090c0 <memmove>:
 80090c0:	4288      	cmp	r0, r1
 80090c2:	b510      	push	{r4, lr}
 80090c4:	eb01 0402 	add.w	r4, r1, r2
 80090c8:	d902      	bls.n	80090d0 <memmove+0x10>
 80090ca:	4284      	cmp	r4, r0
 80090cc:	4623      	mov	r3, r4
 80090ce:	d807      	bhi.n	80090e0 <memmove+0x20>
 80090d0:	1e43      	subs	r3, r0, #1
 80090d2:	42a1      	cmp	r1, r4
 80090d4:	d008      	beq.n	80090e8 <memmove+0x28>
 80090d6:	f811 2b01 	ldrb.w	r2, [r1], #1
 80090da:	f803 2f01 	strb.w	r2, [r3, #1]!
 80090de:	e7f8      	b.n	80090d2 <memmove+0x12>
 80090e0:	4601      	mov	r1, r0
 80090e2:	4402      	add	r2, r0
 80090e4:	428a      	cmp	r2, r1
 80090e6:	d100      	bne.n	80090ea <memmove+0x2a>
 80090e8:	bd10      	pop	{r4, pc}
 80090ea:	f813 4d01 	ldrb.w	r4, [r3, #-1]!
 80090ee:	f802 4d01 	strb.w	r4, [r2, #-1]!
 80090f2:	e7f7      	b.n	80090e4 <memmove+0x24>

080090f4 <_sbrk_r>:
 80090f4:	b538      	push	{r3, r4, r5, lr}
 80090f6:	2300      	movs	r3, #0
 80090f8:	4d05      	ldr	r5, [pc, #20]	; (8009110 <_sbrk_r+0x1c>)
 80090fa:	4604      	mov	r4, r0
 80090fc:	4608      	mov	r0, r1
 80090fe:	602b      	str	r3, [r5, #0]
 8009100:	f7fb fd9e 	bl	8004c40 <_sbrk>
 8009104:	1c43      	adds	r3, r0, #1
 8009106:	d102      	bne.n	800910e <_sbrk_r+0x1a>
 8009108:	682b      	ldr	r3, [r5, #0]
 800910a:	b103      	cbz	r3, 800910e <_sbrk_r+0x1a>
 800910c:	6023      	str	r3, [r4, #0]
 800910e:	bd38      	pop	{r3, r4, r5, pc}
 8009110:	20000720 	.word	0x20000720

08009114 <memchr>:
 8009114:	4603      	mov	r3, r0
 8009116:	b510      	push	{r4, lr}
 8009118:	b2c9      	uxtb	r1, r1
 800911a:	4402      	add	r2, r0
 800911c:	4293      	cmp	r3, r2
 800911e:	4618      	mov	r0, r3
 8009120:	d101      	bne.n	8009126 <memchr+0x12>
 8009122:	2000      	movs	r0, #0
 8009124:	e003      	b.n	800912e <memchr+0x1a>
 8009126:	7804      	ldrb	r4, [r0, #0]
 8009128:	3301      	adds	r3, #1
 800912a:	428c      	cmp	r4, r1
 800912c:	d1f6      	bne.n	800911c <memchr+0x8>
 800912e:	bd10      	pop	{r4, pc}

08009130 <memcpy>:
 8009130:	440a      	add	r2, r1
 8009132:	4291      	cmp	r1, r2
 8009134:	f100 33ff 	add.w	r3, r0, #4294967295
 8009138:	d100      	bne.n	800913c <memcpy+0xc>
 800913a:	4770      	bx	lr
 800913c:	b510      	push	{r4, lr}
 800913e:	f811 4b01 	ldrb.w	r4, [r1], #1
 8009142:	4291      	cmp	r1, r2
 8009144:	f803 4f01 	strb.w	r4, [r3, #1]!
 8009148:	d1f9      	bne.n	800913e <memcpy+0xe>
 800914a:	bd10      	pop	{r4, pc}

0800914c <_realloc_r>:
 800914c:	e92d 41f0 	stmdb	sp!, {r4, r5, r6, r7, r8, lr}
 8009150:	4680      	mov	r8, r0
 8009152:	4614      	mov	r4, r2
 8009154:	460e      	mov	r6, r1
 8009156:	b921      	cbnz	r1, 8009162 <_realloc_r+0x16>
 8009158:	4611      	mov	r1, r2
 800915a:	e8bd 41f0 	ldmia.w	sp!, {r4, r5, r6, r7, r8, lr}
 800915e:	f7ff bc37 	b.w	80089d0 <_malloc_r>
 8009162:	b92a      	cbnz	r2, 8009170 <_realloc_r+0x24>
 8009164:	f7ff fbcc 	bl	8008900 <_free_r>
 8009168:	4625      	mov	r5, r4
 800916a:	4628      	mov	r0, r5
 800916c:	e8bd 81f0 	ldmia.w	sp!, {r4, r5, r6, r7, r8, pc}
 8009170:	f000 f81b 	bl	80091aa <_malloc_usable_size_r>
 8009174:	4284      	cmp	r4, r0
 8009176:	4607      	mov	r7, r0
 8009178:	d802      	bhi.n	8009180 <_realloc_r+0x34>
 800917a:	ebb4 0f50 	cmp.w	r4, r0, lsr #1
 800917e:	d812      	bhi.n	80091a6 <_realloc_r+0x5a>
 8009180:	4621      	mov	r1, r4
 8009182:	4640      	mov	r0, r8
 8009184:	f7ff fc24 	bl	80089d0 <_malloc_r>
 8009188:	4605      	mov	r5, r0
 800918a:	2800      	cmp	r0, #0
 800918c:	d0ed      	beq.n	800916a <_realloc_r+0x1e>
 800918e:	42bc      	cmp	r4, r7
 8009190:	4622      	mov	r2, r4
 8009192:	4631      	mov	r1, r6
 8009194:	bf28      	it	cs
 8009196:	463a      	movcs	r2, r7
 8009198:	f7ff ffca 	bl	8009130 <memcpy>
 800919c:	4631      	mov	r1, r6
 800919e:	4640      	mov	r0, r8
 80091a0:	f7ff fbae 	bl	8008900 <_free_r>
 80091a4:	e7e1      	b.n	800916a <_realloc_r+0x1e>
 80091a6:	4635      	mov	r5, r6
 80091a8:	e7df      	b.n	800916a <_realloc_r+0x1e>

080091aa <_malloc_usable_size_r>:
 80091aa:	f851 3c04 	ldr.w	r3, [r1, #-4]
 80091ae:	1f18      	subs	r0, r3, #4
 80091b0:	2b00      	cmp	r3, #0
 80091b2:	bfbc      	itt	lt
 80091b4:	580b      	ldrlt	r3, [r1, r0]
 80091b6:	18c0      	addlt	r0, r0, r3
 80091b8:	4770      	bx	lr

080091ba <atan2>:
 80091ba:	f000 ba8d 	b.w	80096d8 <__ieee754_atan2>

080091be <sqrt>:
 80091be:	b5f8      	push	{r3, r4, r5, r6, r7, lr}
 80091c0:	4606      	mov	r6, r0
 80091c2:	460f      	mov	r7, r1
 80091c4:	f000 f9ae 	bl	8009524 <__ieee754_sqrt>
 80091c8:	4632      	mov	r2, r6
 80091ca:	4604      	mov	r4, r0
 80091cc:	460d      	mov	r5, r1
 80091ce:	463b      	mov	r3, r7
 80091d0:	4630      	mov	r0, r6
 80091d2:	4639      	mov	r1, r7
 80091d4:	f7f7 fc1a 	bl	8000a0c <__aeabi_dcmpun>
 80091d8:	b990      	cbnz	r0, 8009200 <sqrt+0x42>
 80091da:	2200      	movs	r2, #0
 80091dc:	2300      	movs	r3, #0
 80091de:	4630      	mov	r0, r6
 80091e0:	4639      	mov	r1, r7
 80091e2:	f7f7 fbeb 	bl	80009bc <__aeabi_dcmplt>
 80091e6:	b158      	cbz	r0, 8009200 <sqrt+0x42>
 80091e8:	f7ff fb5e 	bl	80088a8 <__errno>
 80091ec:	2321      	movs	r3, #33	; 0x21
 80091ee:	2200      	movs	r2, #0
 80091f0:	6003      	str	r3, [r0, #0]
 80091f2:	2300      	movs	r3, #0
 80091f4:	4610      	mov	r0, r2
 80091f6:	4619      	mov	r1, r3
 80091f8:	f7f7 fa98 	bl	800072c <__aeabi_ddiv>
 80091fc:	4604      	mov	r4, r0
 80091fe:	460d      	mov	r5, r1
 8009200:	4620      	mov	r0, r4
 8009202:	4629      	mov	r1, r5
 8009204:	bdf8      	pop	{r3, r4, r5, r6, r7, pc}
	...

08009208 <atan>:
 8009208:	e92d 4ff8 	stmdb	sp!, {r3, r4, r5, r6, r7, r8, r9, sl, fp, lr}
 800920c:	4bb6      	ldr	r3, [pc, #728]	; (80094e8 <atan+0x2e0>)
 800920e:	f021 4600 	bic.w	r6, r1, #2147483648	; 0x80000000
 8009212:	429e      	cmp	r6, r3
 8009214:	4604      	mov	r4, r0
 8009216:	460d      	mov	r5, r1
 8009218:	468b      	mov	fp, r1
 800921a:	dd17      	ble.n	800924c <atan+0x44>
 800921c:	4bb3      	ldr	r3, [pc, #716]	; (80094ec <atan+0x2e4>)
 800921e:	429e      	cmp	r6, r3
 8009220:	dc01      	bgt.n	8009226 <atan+0x1e>
 8009222:	d109      	bne.n	8009238 <atan+0x30>
 8009224:	b140      	cbz	r0, 8009238 <atan+0x30>
 8009226:	4622      	mov	r2, r4
 8009228:	462b      	mov	r3, r5
 800922a:	4620      	mov	r0, r4
 800922c:	4629      	mov	r1, r5
 800922e:	f7f6 ff9d 	bl	800016c <__adddf3>
 8009232:	4604      	mov	r4, r0
 8009234:	460d      	mov	r5, r1
 8009236:	e005      	b.n	8009244 <atan+0x3c>
 8009238:	f1bb 0f00 	cmp.w	fp, #0
 800923c:	4cac      	ldr	r4, [pc, #688]	; (80094f0 <atan+0x2e8>)
 800923e:	f300 8121 	bgt.w	8009484 <atan+0x27c>
 8009242:	4dac      	ldr	r5, [pc, #688]	; (80094f4 <atan+0x2ec>)
 8009244:	4620      	mov	r0, r4
 8009246:	4629      	mov	r1, r5
 8009248:	e8bd 8ff8 	ldmia.w	sp!, {r3, r4, r5, r6, r7, r8, r9, sl, fp, pc}
 800924c:	4baa      	ldr	r3, [pc, #680]	; (80094f8 <atan+0x2f0>)
 800924e:	429e      	cmp	r6, r3
 8009250:	dc11      	bgt.n	8009276 <atan+0x6e>
 8009252:	f1a3 73de 	sub.w	r3, r3, #29097984	; 0x1bc0000
 8009256:	429e      	cmp	r6, r3
 8009258:	dc0a      	bgt.n	8009270 <atan+0x68>
 800925a:	a38b      	add	r3, pc, #556	; (adr r3, 8009488 <atan+0x280>)
 800925c:	e9d3 2300 	ldrd	r2, r3, [r3]
 8009260:	f7f6 ff84 	bl	800016c <__adddf3>
 8009264:	2200      	movs	r2, #0
 8009266:	4ba5      	ldr	r3, [pc, #660]	; (80094fc <atan+0x2f4>)
 8009268:	f7f7 fbc6 	bl	80009f8 <__aeabi_dcmpgt>
 800926c:	2800      	cmp	r0, #0
 800926e:	d1e9      	bne.n	8009244 <atan+0x3c>
 8009270:	f04f 3aff 	mov.w	sl, #4294967295
 8009274:	e027      	b.n	80092c6 <atan+0xbe>
 8009276:	f000 f951 	bl	800951c <fabs>
 800927a:	4ba1      	ldr	r3, [pc, #644]	; (8009500 <atan+0x2f8>)
 800927c:	4604      	mov	r4, r0
 800927e:	429e      	cmp	r6, r3
 8009280:	460d      	mov	r5, r1
 8009282:	f300 80b8 	bgt.w	80093f6 <atan+0x1ee>
 8009286:	f5a3 2350 	sub.w	r3, r3, #851968	; 0xd0000
 800928a:	429e      	cmp	r6, r3
 800928c:	f300 809c 	bgt.w	80093c8 <atan+0x1c0>
 8009290:	4602      	mov	r2, r0
 8009292:	460b      	mov	r3, r1
 8009294:	f7f6 ff6a 	bl	800016c <__adddf3>
 8009298:	2200      	movs	r2, #0
 800929a:	4b98      	ldr	r3, [pc, #608]	; (80094fc <atan+0x2f4>)
 800929c:	f7f6 ff64 	bl	8000168 <__aeabi_dsub>
 80092a0:	2200      	movs	r2, #0
 80092a2:	4606      	mov	r6, r0
 80092a4:	460f      	mov	r7, r1
 80092a6:	f04f 4380 	mov.w	r3, #1073741824	; 0x40000000
 80092aa:	4620      	mov	r0, r4
 80092ac:	4629      	mov	r1, r5
 80092ae:	f7f6 ff5d 	bl	800016c <__adddf3>
 80092b2:	4602      	mov	r2, r0
 80092b4:	460b      	mov	r3, r1
 80092b6:	4630      	mov	r0, r6
 80092b8:	4639      	mov	r1, r7
 80092ba:	f7f7 fa37 	bl	800072c <__aeabi_ddiv>
 80092be:	f04f 0a00 	mov.w	sl, #0
 80092c2:	4604      	mov	r4, r0
 80092c4:	460d      	mov	r5, r1
 80092c6:	4622      	mov	r2, r4
 80092c8:	462b      	mov	r3, r5
 80092ca:	4620      	mov	r0, r4
 80092cc:	4629      	mov	r1, r5
 80092ce:	f7f7 f903 	bl	80004d8 <__aeabi_dmul>
 80092d2:	4602      	mov	r2, r0
 80092d4:	460b      	mov	r3, r1
 80092d6:	4680      	mov	r8, r0
 80092d8:	4689      	mov	r9, r1
 80092da:	f7f7 f8fd 	bl	80004d8 <__aeabi_dmul>
 80092de:	a36c      	add	r3, pc, #432	; (adr r3, 8009490 <atan+0x288>)
 80092e0:	e9d3 2300 	ldrd	r2, r3, [r3]
 80092e4:	4606      	mov	r6, r0
 80092e6:	460f      	mov	r7, r1
 80092e8:	f7f7 f8f6 	bl	80004d8 <__aeabi_dmul>
 80092ec:	a36a      	add	r3, pc, #424	; (adr r3, 8009498 <atan+0x290>)
 80092ee:	e9d3 2300 	ldrd	r2, r3, [r3]
 80092f2:	f7f6 ff3b 	bl	800016c <__adddf3>
 80092f6:	4632      	mov	r2, r6
 80092f8:	463b      	mov	r3, r7
 80092fa:	f7f7 f8ed 	bl	80004d8 <__aeabi_dmul>
 80092fe:	a368      	add	r3, pc, #416	; (adr r3, 80094a0 <atan+0x298>)
 8009300:	e9d3 2300 	ldrd	r2, r3, [r3]
 8009304:	f7f6 ff32 	bl	800016c <__adddf3>
 8009308:	4632      	mov	r2, r6
 800930a:	463b      	mov	r3, r7
 800930c:	f7f7 f8e4 	bl	80004d8 <__aeabi_dmul>
 8009310:	a365      	add	r3, pc, #404	; (adr r3, 80094a8 <atan+0x2a0>)
 8009312:	e9d3 2300 	ldrd	r2, r3, [r3]
 8009316:	f7f6 ff29 	bl	800016c <__adddf3>
 800931a:	4632      	mov	r2, r6
 800931c:	463b      	mov	r3, r7
 800931e:	f7f7 f8db 	bl	80004d8 <__aeabi_dmul>
 8009322:	a363      	add	r3, pc, #396	; (adr r3, 80094b0 <atan+0x2a8>)
 8009324:	e9d3 2300 	ldrd	r2, r3, [r3]
 8009328:	f7f6 ff20 	bl	800016c <__adddf3>
 800932c:	4632      	mov	r2, r6
 800932e:	463b      	mov	r3, r7
 8009330:	f7f7 f8d2 	bl	80004d8 <__aeabi_dmul>
 8009334:	a360      	add	r3, pc, #384	; (adr r3, 80094b8 <atan+0x2b0>)
 8009336:	e9d3 2300 	ldrd	r2, r3, [r3]
 800933a:	f7f6 ff17 	bl	800016c <__adddf3>
 800933e:	4642      	mov	r2, r8
 8009340:	464b      	mov	r3, r9
 8009342:	f7f7 f8c9 	bl	80004d8 <__aeabi_dmul>
 8009346:	a35e      	add	r3, pc, #376	; (adr r3, 80094c0 <atan+0x2b8>)
 8009348:	e9d3 2300 	ldrd	r2, r3, [r3]
 800934c:	4680      	mov	r8, r0
 800934e:	4689      	mov	r9, r1
 8009350:	4630      	mov	r0, r6
 8009352:	4639      	mov	r1, r7
 8009354:	f7f7 f8c0 	bl	80004d8 <__aeabi_dmul>
 8009358:	a35b      	add	r3, pc, #364	; (adr r3, 80094c8 <atan+0x2c0>)
 800935a:	e9d3 2300 	ldrd	r2, r3, [r3]
 800935e:	f7f6 ff03 	bl	8000168 <__aeabi_dsub>
 8009362:	4632      	mov	r2, r6
 8009364:	463b      	mov	r3, r7
 8009366:	f7f7 f8b7 	bl	80004d8 <__aeabi_dmul>
 800936a:	a359      	add	r3, pc, #356	; (adr r3, 80094d0 <atan+0x2c8>)
 800936c:	e9d3 2300 	ldrd	r2, r3, [r3]
 8009370:	f7f6 fefa 	bl	8000168 <__aeabi_dsub>
 8009374:	4632      	mov	r2, r6
 8009376:	463b      	mov	r3, r7
 8009378:	f7f7 f8ae 	bl	80004d8 <__aeabi_dmul>
 800937c:	a356      	add	r3, pc, #344	; (adr r3, 80094d8 <atan+0x2d0>)
 800937e:	e9d3 2300 	ldrd	r2, r3, [r3]
 8009382:	f7f6 fef1 	bl	8000168 <__aeabi_dsub>
 8009386:	4632      	mov	r2, r6
 8009388:	463b      	mov	r3, r7
 800938a:	f7f7 f8a5 	bl	80004d8 <__aeabi_dmul>
 800938e:	a354      	add	r3, pc, #336	; (adr r3, 80094e0 <atan+0x2d8>)
 8009390:	e9d3 2300 	ldrd	r2, r3, [r3]
 8009394:	f7f6 fee8 	bl	8000168 <__aeabi_dsub>
 8009398:	4632      	mov	r2, r6
 800939a:	463b      	mov	r3, r7
 800939c:	f7f7 f89c 	bl	80004d8 <__aeabi_dmul>
 80093a0:	4602      	mov	r2, r0
 80093a2:	460b      	mov	r3, r1
 80093a4:	4640      	mov	r0, r8
 80093a6:	4649      	mov	r1, r9
 80093a8:	f7f6 fee0 	bl	800016c <__adddf3>
 80093ac:	4622      	mov	r2, r4
 80093ae:	462b      	mov	r3, r5
 80093b0:	f7f7 f892 	bl	80004d8 <__aeabi_dmul>
 80093b4:	f1ba 3fff 	cmp.w	sl, #4294967295
 80093b8:	4602      	mov	r2, r0
 80093ba:	460b      	mov	r3, r1
 80093bc:	d144      	bne.n	8009448 <atan+0x240>
 80093be:	4620      	mov	r0, r4
 80093c0:	4629      	mov	r1, r5
 80093c2:	f7f6 fed1 	bl	8000168 <__aeabi_dsub>
 80093c6:	e734      	b.n	8009232 <atan+0x2a>
 80093c8:	2200      	movs	r2, #0
 80093ca:	4b4c      	ldr	r3, [pc, #304]	; (80094fc <atan+0x2f4>)
 80093cc:	f7f6 fecc 	bl	8000168 <__aeabi_dsub>
 80093d0:	2200      	movs	r2, #0
 80093d2:	4606      	mov	r6, r0
 80093d4:	460f      	mov	r7, r1
 80093d6:	4620      	mov	r0, r4
 80093d8:	4629      	mov	r1, r5
 80093da:	4b48      	ldr	r3, [pc, #288]	; (80094fc <atan+0x2f4>)
 80093dc:	f7f6 fec6 	bl	800016c <__adddf3>
 80093e0:	4602      	mov	r2, r0
 80093e2:	460b      	mov	r3, r1
 80093e4:	4630      	mov	r0, r6
 80093e6:	4639      	mov	r1, r7
 80093e8:	f7f7 f9a0 	bl	800072c <__aeabi_ddiv>
 80093ec:	f04f 0a01 	mov.w	sl, #1
 80093f0:	4604      	mov	r4, r0
 80093f2:	460d      	mov	r5, r1
 80093f4:	e767      	b.n	80092c6 <atan+0xbe>
 80093f6:	4b43      	ldr	r3, [pc, #268]	; (8009504 <atan+0x2fc>)
 80093f8:	429e      	cmp	r6, r3
 80093fa:	da1a      	bge.n	8009432 <atan+0x22a>
 80093fc:	2200      	movs	r2, #0
 80093fe:	4b42      	ldr	r3, [pc, #264]	; (8009508 <atan+0x300>)
 8009400:	f7f6 feb2 	bl	8000168 <__aeabi_dsub>
 8009404:	2200      	movs	r2, #0
 8009406:	4606      	mov	r6, r0
 8009408:	460f      	mov	r7, r1
 800940a:	4620      	mov	r0, r4
 800940c:	4629      	mov	r1, r5
 800940e:	4b3e      	ldr	r3, [pc, #248]	; (8009508 <atan+0x300>)
 8009410:	f7f7 f862 	bl	80004d8 <__aeabi_dmul>
 8009414:	2200      	movs	r2, #0
 8009416:	4b39      	ldr	r3, [pc, #228]	; (80094fc <atan+0x2f4>)
 8009418:	f7f6 fea8 	bl	800016c <__adddf3>
 800941c:	4602      	mov	r2, r0
 800941e:	460b      	mov	r3, r1
 8009420:	4630      	mov	r0, r6
 8009422:	4639      	mov	r1, r7
 8009424:	f7f7 f982 	bl	800072c <__aeabi_ddiv>
 8009428:	f04f 0a02 	mov.w	sl, #2
 800942c:	4604      	mov	r4, r0
 800942e:	460d      	mov	r5, r1
 8009430:	e749      	b.n	80092c6 <atan+0xbe>
 8009432:	4602      	mov	r2, r0
 8009434:	460b      	mov	r3, r1
 8009436:	2000      	movs	r0, #0
 8009438:	4934      	ldr	r1, [pc, #208]	; (800950c <atan+0x304>)
 800943a:	f7f7 f977 	bl	800072c <__aeabi_ddiv>
 800943e:	f04f 0a03 	mov.w	sl, #3
 8009442:	4604      	mov	r4, r0
 8009444:	460d      	mov	r5, r1
 8009446:	e73e      	b.n	80092c6 <atan+0xbe>
 8009448:	4b31      	ldr	r3, [pc, #196]	; (8009510 <atan+0x308>)
 800944a:	4e32      	ldr	r6, [pc, #200]	; (8009514 <atan+0x30c>)
 800944c:	eb03 03ca 	add.w	r3, r3, sl, lsl #3
 8009450:	e9d3 2300 	ldrd	r2, r3, [r3]
 8009454:	f7f6 fe88 	bl	8000168 <__aeabi_dsub>
 8009458:	4622      	mov	r2, r4
 800945a:	462b      	mov	r3, r5
 800945c:	f7f6 fe84 	bl	8000168 <__aeabi_dsub>
 8009460:	eb06 06ca 	add.w	r6, r6, sl, lsl #3
 8009464:	4602      	mov	r2, r0
 8009466:	460b      	mov	r3, r1
 8009468:	e9d6 0100 	ldrd	r0, r1, [r6]
 800946c:	f7f6 fe7c 	bl	8000168 <__aeabi_dsub>
 8009470:	f1bb 0f00 	cmp.w	fp, #0
 8009474:	4604      	mov	r4, r0
 8009476:	460d      	mov	r5, r1
 8009478:	f6bf aee4 	bge.w	8009244 <atan+0x3c>
 800947c:	f101 4300 	add.w	r3, r1, #2147483648	; 0x80000000
 8009480:	461d      	mov	r5, r3
 8009482:	e6df      	b.n	8009244 <atan+0x3c>
 8009484:	4d24      	ldr	r5, [pc, #144]	; (8009518 <atan+0x310>)
 8009486:	e6dd      	b.n	8009244 <atan+0x3c>
 8009488:	8800759c 	.word	0x8800759c
 800948c:	7e37e43c 	.word	0x7e37e43c
 8009490:	e322da11 	.word	0xe322da11
 8009494:	3f90ad3a 	.word	0x3f90ad3a
 8009498:	24760deb 	.word	0x24760deb
 800949c:	3fa97b4b 	.word	0x3fa97b4b
 80094a0:	a0d03d51 	.word	0xa0d03d51
 80094a4:	3fb10d66 	.word	0x3fb10d66
 80094a8:	c54c206e 	.word	0xc54c206e
 80094ac:	3fb745cd 	.word	0x3fb745cd
 80094b0:	920083ff 	.word	0x920083ff
 80094b4:	3fc24924 	.word	0x3fc24924
 80094b8:	5555550d 	.word	0x5555550d
 80094bc:	3fd55555 	.word	0x3fd55555
 80094c0:	2c6a6c2f 	.word	0x2c6a6c2f
 80094c4:	bfa2b444 	.word	0xbfa2b444
 80094c8:	52defd9a 	.word	0x52defd9a
 80094cc:	3fadde2d 	.word	0x3fadde2d
 80094d0:	af749a6d 	.word	0xaf749a6d
 80094d4:	3fb3b0f2 	.word	0x3fb3b0f2
 80094d8:	fe231671 	.word	0xfe231671
 80094dc:	3fbc71c6 	.word	0x3fbc71c6
 80094e0:	9998ebc4 	.word	0x9998ebc4
 80094e4:	3fc99999 	.word	0x3fc99999
 80094e8:	440fffff 	.word	0x440fffff
 80094ec:	7ff00000 	.word	0x7ff00000
 80094f0:	54442d18 	.word	0x54442d18
 80094f4:	bff921fb 	.word	0xbff921fb
 80094f8:	3fdbffff 	.word	0x3fdbffff
 80094fc:	3ff00000 	.word	0x3ff00000
 8009500:	3ff2ffff 	.word	0x3ff2ffff
 8009504:	40038000 	.word	0x40038000
 8009508:	3ff80000 	.word	0x3ff80000
 800950c:	bff00000 	.word	0xbff00000
 8009510:	08009bf0 	.word	0x08009bf0
 8009514:	08009bd0 	.word	0x08009bd0
 8009518:	3ff921fb 	.word	0x3ff921fb

0800951c <fabs>:
 800951c:	f021 4300 	bic.w	r3, r1, #2147483648	; 0x80000000
 8009520:	4619      	mov	r1, r3
 8009522:	4770      	bx	lr

08009524 <__ieee754_sqrt>:
 8009524:	f8df c1a0 	ldr.w	ip, [pc, #416]	; 80096c8 <__ieee754_sqrt+0x1a4>
 8009528:	e92d 4ff8 	stmdb	sp!, {r3, r4, r5, r6, r7, r8, r9, sl, fp, lr}
 800952c:	ea3c 0c01 	bics.w	ip, ip, r1
 8009530:	460b      	mov	r3, r1
 8009532:	4606      	mov	r6, r0
 8009534:	460d      	mov	r5, r1
 8009536:	460a      	mov	r2, r1
 8009538:	4604      	mov	r4, r0
 800953a:	d10e      	bne.n	800955a <__ieee754_sqrt+0x36>
 800953c:	4602      	mov	r2, r0
 800953e:	f7f6 ffcb 	bl	80004d8 <__aeabi_dmul>
 8009542:	4602      	mov	r2, r0
 8009544:	460b      	mov	r3, r1
 8009546:	4630      	mov	r0, r6
 8009548:	4629      	mov	r1, r5
 800954a:	f7f6 fe0f 	bl	800016c <__adddf3>
 800954e:	4606      	mov	r6, r0
 8009550:	460d      	mov	r5, r1
 8009552:	4630      	mov	r0, r6
 8009554:	4629      	mov	r1, r5
 8009556:	e8bd 8ff8 	ldmia.w	sp!, {r3, r4, r5, r6, r7, r8, r9, sl, fp, pc}
 800955a:	2900      	cmp	r1, #0
 800955c:	dc0d      	bgt.n	800957a <__ieee754_sqrt+0x56>
 800955e:	f021 4c00 	bic.w	ip, r1, #2147483648	; 0x80000000
 8009562:	ea5c 0c00 	orrs.w	ip, ip, r0
 8009566:	d0f4      	beq.n	8009552 <__ieee754_sqrt+0x2e>
 8009568:	b139      	cbz	r1, 800957a <__ieee754_sqrt+0x56>
 800956a:	4602      	mov	r2, r0
 800956c:	f7f6 fdfc 	bl	8000168 <__aeabi_dsub>
 8009570:	4602      	mov	r2, r0
 8009572:	460b      	mov	r3, r1
 8009574:	f7f7 f8da 	bl	800072c <__aeabi_ddiv>
 8009578:	e7e9      	b.n	800954e <__ieee754_sqrt+0x2a>
 800957a:	1512      	asrs	r2, r2, #20
 800957c:	f000 8089 	beq.w	8009692 <__ieee754_sqrt+0x16e>
 8009580:	2500      	movs	r5, #0
 8009582:	f3c3 0313 	ubfx	r3, r3, #0, #20
 8009586:	f2a2 36ff 	subw	r6, r2, #1023	; 0x3ff
 800958a:	f443 1380 	orr.w	r3, r3, #1048576	; 0x100000
 800958e:	07d2      	lsls	r2, r2, #31
 8009590:	bf5c      	itt	pl
 8009592:	005b      	lslpl	r3, r3, #1
 8009594:	eb03 73d4 	addpl.w	r3, r3, r4, lsr #31
 8009598:	ea4f 0343 	mov.w	r3, r3, lsl #1
 800959c:	bf58      	it	pl
 800959e:	0064      	lslpl	r4, r4, #1
 80095a0:	eb03 73d4 	add.w	r3, r3, r4, lsr #31
 80095a4:	0062      	lsls	r2, r4, #1
 80095a6:	2016      	movs	r0, #22
 80095a8:	4629      	mov	r1, r5
 80095aa:	f44f 1400 	mov.w	r4, #2097152	; 0x200000
 80095ae:	1076      	asrs	r6, r6, #1
 80095b0:	190f      	adds	r7, r1, r4
 80095b2:	429f      	cmp	r7, r3
 80095b4:	bfde      	ittt	le
 80095b6:	1bdb      	suble	r3, r3, r7
 80095b8:	1939      	addle	r1, r7, r4
 80095ba:	192d      	addle	r5, r5, r4
 80095bc:	005b      	lsls	r3, r3, #1
 80095be:	3801      	subs	r0, #1
 80095c0:	eb03 73d2 	add.w	r3, r3, r2, lsr #31
 80095c4:	ea4f 0454 	mov.w	r4, r4, lsr #1
 80095c8:	ea4f 0242 	mov.w	r2, r2, lsl #1
 80095cc:	d1f0      	bne.n	80095b0 <__ieee754_sqrt+0x8c>
 80095ce:	4604      	mov	r4, r0
 80095d0:	2720      	movs	r7, #32
 80095d2:	f04f 4c00 	mov.w	ip, #2147483648	; 0x80000000
 80095d6:	428b      	cmp	r3, r1
 80095d8:	eb0c 0e00 	add.w	lr, ip, r0
 80095dc:	dc02      	bgt.n	80095e4 <__ieee754_sqrt+0xc0>
 80095de:	d113      	bne.n	8009608 <__ieee754_sqrt+0xe4>
 80095e0:	4596      	cmp	lr, r2
 80095e2:	d811      	bhi.n	8009608 <__ieee754_sqrt+0xe4>
 80095e4:	f1be 0f00 	cmp.w	lr, #0
 80095e8:	eb0e 000c 	add.w	r0, lr, ip
 80095ec:	da56      	bge.n	800969c <__ieee754_sqrt+0x178>
 80095ee:	2800      	cmp	r0, #0
 80095f0:	db54      	blt.n	800969c <__ieee754_sqrt+0x178>
 80095f2:	f101 0801 	add.w	r8, r1, #1
 80095f6:	1a5b      	subs	r3, r3, r1
 80095f8:	4641      	mov	r1, r8
 80095fa:	4596      	cmp	lr, r2
 80095fc:	bf88      	it	hi
 80095fe:	f103 33ff 	addhi.w	r3, r3, #4294967295
 8009602:	eba2 020e 	sub.w	r2, r2, lr
 8009606:	4464      	add	r4, ip
 8009608:	005b      	lsls	r3, r3, #1
 800960a:	3f01      	subs	r7, #1
 800960c:	eb03 73d2 	add.w	r3, r3, r2, lsr #31
 8009610:	ea4f 0c5c 	mov.w	ip, ip, lsr #1
 8009614:	ea4f 0242 	mov.w	r2, r2, lsl #1
 8009618:	d1dd      	bne.n	80095d6 <__ieee754_sqrt+0xb2>
 800961a:	4313      	orrs	r3, r2
 800961c:	d01b      	beq.n	8009656 <__ieee754_sqrt+0x132>
 800961e:	f8df a0ac 	ldr.w	sl, [pc, #172]	; 80096cc <__ieee754_sqrt+0x1a8>
 8009622:	f8df b0ac 	ldr.w	fp, [pc, #172]	; 80096d0 <__ieee754_sqrt+0x1ac>
 8009626:	e9da 0100 	ldrd	r0, r1, [sl]
 800962a:	e9db 2300 	ldrd	r2, r3, [fp]
 800962e:	f7f6 fd9b 	bl	8000168 <__aeabi_dsub>
 8009632:	e9da 8900 	ldrd	r8, r9, [sl]
 8009636:	4602      	mov	r2, r0
 8009638:	460b      	mov	r3, r1
 800963a:	4640      	mov	r0, r8
 800963c:	4649      	mov	r1, r9
 800963e:	f7f7 f9c7 	bl	80009d0 <__aeabi_dcmple>
 8009642:	b140      	cbz	r0, 8009656 <__ieee754_sqrt+0x132>
 8009644:	e9da 0100 	ldrd	r0, r1, [sl]
 8009648:	e9db 2300 	ldrd	r2, r3, [fp]
 800964c:	f1b4 3fff 	cmp.w	r4, #4294967295
 8009650:	d126      	bne.n	80096a0 <__ieee754_sqrt+0x17c>
 8009652:	463c      	mov	r4, r7
 8009654:	3501      	adds	r5, #1
 8009656:	106b      	asrs	r3, r5, #1
 8009658:	0864      	lsrs	r4, r4, #1
 800965a:	f103 537f 	add.w	r3, r3, #1069547520	; 0x3fc00000
 800965e:	07ea      	lsls	r2, r5, #31
 8009660:	f503 1300 	add.w	r3, r3, #2097152	; 0x200000
 8009664:	bf48      	it	mi
 8009666:	f044 4400 	orrmi.w	r4, r4, #2147483648	; 0x80000000
 800966a:	4620      	mov	r0, r4
 800966c:	eb03 5106 	add.w	r1, r3, r6, lsl #20
 8009670:	e76d      	b.n	800954e <__ieee754_sqrt+0x2a>
 8009672:	0ae3      	lsrs	r3, r4, #11
 8009674:	3915      	subs	r1, #21
 8009676:	0564      	lsls	r4, r4, #21
 8009678:	2b00      	cmp	r3, #0
 800967a:	d0fa      	beq.n	8009672 <__ieee754_sqrt+0x14e>
 800967c:	02d8      	lsls	r0, r3, #11
 800967e:	d50a      	bpl.n	8009696 <__ieee754_sqrt+0x172>
 8009680:	f1c2 0020 	rsb	r0, r2, #32
 8009684:	fa24 f000 	lsr.w	r0, r4, r0
 8009688:	1e55      	subs	r5, r2, #1
 800968a:	4094      	lsls	r4, r2
 800968c:	4303      	orrs	r3, r0
 800968e:	1b4a      	subs	r2, r1, r5
 8009690:	e776      	b.n	8009580 <__ieee754_sqrt+0x5c>
 8009692:	4611      	mov	r1, r2
 8009694:	e7f0      	b.n	8009678 <__ieee754_sqrt+0x154>
 8009696:	005b      	lsls	r3, r3, #1
 8009698:	3201      	adds	r2, #1
 800969a:	e7ef      	b.n	800967c <__ieee754_sqrt+0x158>
 800969c:	4688      	mov	r8, r1
 800969e:	e7aa      	b.n	80095f6 <__ieee754_sqrt+0xd2>
 80096a0:	f7f6 fd64 	bl	800016c <__adddf3>
 80096a4:	e9da 8900 	ldrd	r8, r9, [sl]
 80096a8:	4602      	mov	r2, r0
 80096aa:	460b      	mov	r3, r1
 80096ac:	4640      	mov	r0, r8
 80096ae:	4649      	mov	r1, r9
 80096b0:	f7f7 f984 	bl	80009bc <__aeabi_dcmplt>
 80096b4:	b120      	cbz	r0, 80096c0 <__ieee754_sqrt+0x19c>
 80096b6:	1ca1      	adds	r1, r4, #2
 80096b8:	bf08      	it	eq
 80096ba:	3501      	addeq	r5, #1
 80096bc:	3402      	adds	r4, #2
 80096be:	e7ca      	b.n	8009656 <__ieee754_sqrt+0x132>
 80096c0:	3401      	adds	r4, #1
 80096c2:	f024 0401 	bic.w	r4, r4, #1
 80096c6:	e7c6      	b.n	8009656 <__ieee754_sqrt+0x132>
 80096c8:	7ff00000 	.word	0x7ff00000
 80096cc:	20000108 	.word	0x20000108
 80096d0:	20000110 	.word	0x20000110
 80096d4:	00000000 	.word	0x00000000

080096d8 <__ieee754_atan2>:
 80096d8:	e92d 4ff8 	stmdb	sp!, {r3, r4, r5, r6, r7, r8, r9, sl, fp, lr}
 80096dc:	4617      	mov	r7, r2
 80096de:	4692      	mov	sl, r2
 80096e0:	4699      	mov	r9, r3
 80096e2:	f023 4200 	bic.w	r2, r3, #2147483648	; 0x80000000
 80096e6:	427b      	negs	r3, r7
 80096e8:	f8df 817c 	ldr.w	r8, [pc, #380]	; 8009868 <__ieee754_atan2+0x190>
 80096ec:	433b      	orrs	r3, r7
 80096ee:	ea42 73d3 	orr.w	r3, r2, r3, lsr #31
 80096f2:	4543      	cmp	r3, r8
 80096f4:	4604      	mov	r4, r0
 80096f6:	460d      	mov	r5, r1
 80096f8:	d809      	bhi.n	800970e <__ieee754_atan2+0x36>
 80096fa:	4246      	negs	r6, r0
 80096fc:	f021 4300 	bic.w	r3, r1, #2147483648	; 0x80000000
 8009700:	4306      	orrs	r6, r0
 8009702:	ea43 76d6 	orr.w	r6, r3, r6, lsr #31
 8009706:	4546      	cmp	r6, r8
 8009708:	468e      	mov	lr, r1
 800970a:	4683      	mov	fp, r0
 800970c:	d908      	bls.n	8009720 <__ieee754_atan2+0x48>
 800970e:	4652      	mov	r2, sl
 8009710:	464b      	mov	r3, r9
 8009712:	4620      	mov	r0, r4
 8009714:	4629      	mov	r1, r5
 8009716:	f7f6 fd29 	bl	800016c <__adddf3>
 800971a:	4604      	mov	r4, r0
 800971c:	460d      	mov	r5, r1
 800971e:	e019      	b.n	8009754 <__ieee754_atan2+0x7c>
 8009720:	f109 4640 	add.w	r6, r9, #3221225472	; 0xc0000000
 8009724:	f506 1680 	add.w	r6, r6, #1048576	; 0x100000
 8009728:	433e      	orrs	r6, r7
 800972a:	d103      	bne.n	8009734 <__ieee754_atan2+0x5c>
 800972c:	e8bd 4ff8 	ldmia.w	sp!, {r3, r4, r5, r6, r7, r8, r9, sl, fp, lr}
 8009730:	f7ff bd6a 	b.w	8009208 <atan>
 8009734:	ea4f 76a9 	mov.w	r6, r9, asr #30
 8009738:	f006 0602 	and.w	r6, r6, #2
 800973c:	ea53 0b0b 	orrs.w	fp, r3, fp
 8009740:	ea46 76d1 	orr.w	r6, r6, r1, lsr #31
 8009744:	d10a      	bne.n	800975c <__ieee754_atan2+0x84>
 8009746:	2e02      	cmp	r6, #2
 8009748:	d067      	beq.n	800981a <__ieee754_atan2+0x142>
 800974a:	2e03      	cmp	r6, #3
 800974c:	d102      	bne.n	8009754 <__ieee754_atan2+0x7c>
 800974e:	a53a      	add	r5, pc, #232	; (adr r5, 8009838 <__ieee754_atan2+0x160>)
 8009750:	e9d5 4500 	ldrd	r4, r5, [r5]
 8009754:	4620      	mov	r0, r4
 8009756:	4629      	mov	r1, r5
 8009758:	e8bd 8ff8 	ldmia.w	sp!, {r3, r4, r5, r6, r7, r8, r9, sl, fp, pc}
 800975c:	4317      	orrs	r7, r2
 800975e:	d106      	bne.n	800976e <__ieee754_atan2+0x96>
 8009760:	f1be 0f00 	cmp.w	lr, #0
 8009764:	da64      	bge.n	8009830 <__ieee754_atan2+0x158>
 8009766:	a536      	add	r5, pc, #216	; (adr r5, 8009840 <__ieee754_atan2+0x168>)
 8009768:	e9d5 4500 	ldrd	r4, r5, [r5]
 800976c:	e7f2      	b.n	8009754 <__ieee754_atan2+0x7c>
 800976e:	4542      	cmp	r2, r8
 8009770:	d10f      	bne.n	8009792 <__ieee754_atan2+0xba>
 8009772:	4293      	cmp	r3, r2
 8009774:	f106 36ff 	add.w	r6, r6, #4294967295
 8009778:	d107      	bne.n	800978a <__ieee754_atan2+0xb2>
 800977a:	2e02      	cmp	r6, #2
 800977c:	d851      	bhi.n	8009822 <__ieee754_atan2+0x14a>
 800977e:	4b3b      	ldr	r3, [pc, #236]	; (800986c <__ieee754_atan2+0x194>)
 8009780:	eb03 03c6 	add.w	r3, r3, r6, lsl #3
 8009784:	e9d3 4500 	ldrd	r4, r5, [r3]
 8009788:	e7e4      	b.n	8009754 <__ieee754_atan2+0x7c>
 800978a:	2e02      	cmp	r6, #2
 800978c:	d84d      	bhi.n	800982a <__ieee754_atan2+0x152>
 800978e:	4b38      	ldr	r3, [pc, #224]	; (8009870 <__ieee754_atan2+0x198>)
 8009790:	e7f6      	b.n	8009780 <__ieee754_atan2+0xa8>
 8009792:	4543      	cmp	r3, r8
 8009794:	d0e4      	beq.n	8009760 <__ieee754_atan2+0x88>
 8009796:	1a9b      	subs	r3, r3, r2
 8009798:	f1b3 7f74 	cmp.w	r3, #63963136	; 0x3d00000
 800979c:	ea4f 5223 	mov.w	r2, r3, asr #20
 80097a0:	da21      	bge.n	80097e6 <__ieee754_atan2+0x10e>
 80097a2:	f1b9 0f00 	cmp.w	r9, #0
 80097a6:	da01      	bge.n	80097ac <__ieee754_atan2+0xd4>
 80097a8:	323c      	adds	r2, #60	; 0x3c
 80097aa:	db20      	blt.n	80097ee <__ieee754_atan2+0x116>
 80097ac:	4652      	mov	r2, sl
 80097ae:	464b      	mov	r3, r9
 80097b0:	4620      	mov	r0, r4
 80097b2:	4629      	mov	r1, r5
 80097b4:	f7f6 ffba 	bl	800072c <__aeabi_ddiv>
 80097b8:	f7ff feb0 	bl	800951c <fabs>
 80097bc:	f7ff fd24 	bl	8009208 <atan>
 80097c0:	4604      	mov	r4, r0
 80097c2:	460d      	mov	r5, r1
 80097c4:	2e01      	cmp	r6, #1
 80097c6:	d015      	beq.n	80097f4 <__ieee754_atan2+0x11c>
 80097c8:	2e02      	cmp	r6, #2
 80097ca:	d017      	beq.n	80097fc <__ieee754_atan2+0x124>
 80097cc:	2e00      	cmp	r6, #0
 80097ce:	d0c1      	beq.n	8009754 <__ieee754_atan2+0x7c>
 80097d0:	a31d      	add	r3, pc, #116	; (adr r3, 8009848 <__ieee754_atan2+0x170>)
 80097d2:	e9d3 2300 	ldrd	r2, r3, [r3]
 80097d6:	4620      	mov	r0, r4
 80097d8:	4629      	mov	r1, r5
 80097da:	f7f6 fcc5 	bl	8000168 <__aeabi_dsub>
 80097de:	a31c      	add	r3, pc, #112	; (adr r3, 8009850 <__ieee754_atan2+0x178>)
 80097e0:	e9d3 2300 	ldrd	r2, r3, [r3]
 80097e4:	e016      	b.n	8009814 <__ieee754_atan2+0x13c>
 80097e6:	a51c      	add	r5, pc, #112	; (adr r5, 8009858 <__ieee754_atan2+0x180>)
 80097e8:	e9d5 4500 	ldrd	r4, r5, [r5]
 80097ec:	e7ea      	b.n	80097c4 <__ieee754_atan2+0xec>
 80097ee:	2400      	movs	r4, #0
 80097f0:	2500      	movs	r5, #0
 80097f2:	e7e7      	b.n	80097c4 <__ieee754_atan2+0xec>
 80097f4:	f105 4300 	add.w	r3, r5, #2147483648	; 0x80000000
 80097f8:	461d      	mov	r5, r3
 80097fa:	e7ab      	b.n	8009754 <__ieee754_atan2+0x7c>
 80097fc:	a312      	add	r3, pc, #72	; (adr r3, 8009848 <__ieee754_atan2+0x170>)
 80097fe:	e9d3 2300 	ldrd	r2, r3, [r3]
 8009802:	4620      	mov	r0, r4
 8009804:	4629      	mov	r1, r5
 8009806:	f7f6 fcaf 	bl	8000168 <__aeabi_dsub>
 800980a:	4602      	mov	r2, r0
 800980c:	460b      	mov	r3, r1
 800980e:	a110      	add	r1, pc, #64	; (adr r1, 8009850 <__ieee754_atan2+0x178>)
 8009810:	e9d1 0100 	ldrd	r0, r1, [r1]
 8009814:	f7f6 fca8 	bl	8000168 <__aeabi_dsub>
 8009818:	e77f      	b.n	800971a <__ieee754_atan2+0x42>
 800981a:	a50d      	add	r5, pc, #52	; (adr r5, 8009850 <__ieee754_atan2+0x178>)
 800981c:	e9d5 4500 	ldrd	r4, r5, [r5]
 8009820:	e798      	b.n	8009754 <__ieee754_atan2+0x7c>
 8009822:	a50f      	add	r5, pc, #60	; (adr r5, 8009860 <__ieee754_atan2+0x188>)
 8009824:	e9d5 4500 	ldrd	r4, r5, [r5]
 8009828:	e794      	b.n	8009754 <__ieee754_atan2+0x7c>
 800982a:	2400      	movs	r4, #0
 800982c:	2500      	movs	r5, #0
 800982e:	e791      	b.n	8009754 <__ieee754_atan2+0x7c>
 8009830:	a509      	add	r5, pc, #36	; (adr r5, 8009858 <__ieee754_atan2+0x180>)
 8009832:	e9d5 4500 	ldrd	r4, r5, [r5]
 8009836:	e78d      	b.n	8009754 <__ieee754_atan2+0x7c>
 8009838:	54442d18 	.word	0x54442d18
 800983c:	c00921fb 	.word	0xc00921fb
 8009840:	54442d18 	.word	0x54442d18
 8009844:	bff921fb 	.word	0xbff921fb
 8009848:	33145c07 	.word	0x33145c07
 800984c:	3ca1a626 	.word	0x3ca1a626
 8009850:	54442d18 	.word	0x54442d18
 8009854:	400921fb 	.word	0x400921fb
 8009858:	54442d18 	.word	0x54442d18
 800985c:	3ff921fb 	.word	0x3ff921fb
 8009860:	54442d18 	.word	0x54442d18
 8009864:	3fe921fb 	.word	0x3fe921fb
 8009868:	7ff00000 	.word	0x7ff00000
 800986c:	08009c10 	.word	0x08009c10
 8009870:	08009c28 	.word	0x08009c28

08009874 <_init>:
 8009874:	b5f8      	push	{r3, r4, r5, r6, r7, lr}
 8009876:	bf00      	nop
 8009878:	bcf8      	pop	{r3, r4, r5, r6, r7}
 800987a:	bc08      	pop	{r3}
 800987c:	469e      	mov	lr, r3
 800987e:	4770      	bx	lr

08009880 <_fini>:
 8009880:	b5f8      	push	{r3, r4, r5, r6, r7, lr}
 8009882:	bf00      	nop
 8009884:	bcf8      	pop	{r3, r4, r5, r6, r7}
 8009886:	bc08      	pop	{r3}
 8009888:	469e      	mov	lr, r3
 800988a:	4770      	bx	lr
